
123456789.elf:     file format elf32-littlenios2
123456789.elf
architecture: nios2:r1, flags 0x00000112:
EXEC_P, HAS_SYMS, D_PAGED
start address 0x00040224

Program Header:
    LOAD off    0x00001000 vaddr 0x00040000 paddr 0x00040000 align 2**12
         filesz 0x00000020 memsz 0x00000020 flags r-x
    LOAD off    0x00001020 vaddr 0x00040020 paddr 0x00040020 align 2**12
         filesz 0x00006990 memsz 0x00006990 flags r-x
    LOAD off    0x000079b0 vaddr 0x000469b0 paddr 0x0004800c align 2**12
         filesz 0x0000165c memsz 0x0000165c flags rw-
    LOAD off    0x00009668 vaddr 0x00049668 paddr 0x00049668 align 2**12
         filesz 0x00000000 memsz 0x00000120 flags rw-

Sections:
Idx Name          Size      VMA       LMA       File off  Algn
  0 .entry        00000020  00040000  00040000  00001000  2**5
                  CONTENTS, ALLOC, LOAD, READONLY, CODE
  1 .exceptions   00000204  00040020  00040020  00001020  2**2
                  CONTENTS, ALLOC, LOAD, READONLY, CODE
  2 .text         00006668  00040224  00040224  00001224  2**2
                  CONTENTS, ALLOC, LOAD, READONLY, CODE
  3 .rodata       00000124  0004688c  0004688c  0000788c  2**2
                  CONTENTS, ALLOC, LOAD, READONLY, DATA
  4 .rwdata       0000165c  000469b0  0004800c  000079b0  2**2
                  CONTENTS, ALLOC, LOAD, DATA, SMALL_DATA
  5 .bss          00000120  00049668  00049668  00009668  2**2
                  ALLOC, SMALL_DATA
  6 .Memory       00000000  00049788  00049788  0000900c  2**0
                  CONTENTS
  7 .comment      0000002c  00000000  00000000  0000900c  2**0
                  CONTENTS, READONLY
  8 .debug_aranges 000008a8  00000000  00000000  00009038  2**3
                  CONTENTS, READONLY, DEBUGGING
  9 .debug_info   00020da8  00000000  00000000  000098e0  2**0
                  CONTENTS, READONLY, DEBUGGING
 10 .debug_abbrev 0000793a  00000000  00000000  0002a688  2**0
                  CONTENTS, READONLY, DEBUGGING
 11 .debug_line   0000bde9  00000000  00000000  00031fc2  2**0
                  CONTENTS, READONLY, DEBUGGING
 12 .debug_frame  00000fbc  00000000  00000000  0003ddac  2**2
                  CONTENTS, READONLY, DEBUGGING
 13 .debug_str    00002e70  00000000  00000000  0003ed68  2**0
                  CONTENTS, READONLY, DEBUGGING
 14 .debug_loc    0000c65e  00000000  00000000  00041bd8  2**0
                  CONTENTS, READONLY, DEBUGGING
 15 .debug_alt_sim_info 00000040  00000000  00000000  0004e238  2**2
                  CONTENTS, READONLY, DEBUGGING
 16 .debug_ranges 00001240  00000000  00000000  0004e278  2**3
                  CONTENTS, READONLY, DEBUGGING
 17 .thread_model 00000003  00000000  00000000  000513fe  2**0
                  CONTENTS, READONLY
 18 .cpu          00000003  00000000  00000000  00051401  2**0
                  CONTENTS, READONLY
 19 .qsys         00000001  00000000  00000000  00051404  2**0
                  CONTENTS, READONLY
 20 .simulation_enabled 00000001  00000000  00000000  00051405  2**0
                  CONTENTS, READONLY
 21 .stderr_dev   00000004  00000000  00000000  00051406  2**0
                  CONTENTS, READONLY
 22 .stdin_dev    00000004  00000000  00000000  0005140a  2**0
                  CONTENTS, READONLY
 23 .stdout_dev   00000004  00000000  00000000  0005140e  2**0
                  CONTENTS, READONLY
 24 .sopc_system_name 0000000b  00000000  00000000  00051412  2**0
                  CONTENTS, READONLY
SYMBOL TABLE:
00040000 l    d  .entry	00000000 .entry
00040020 l    d  .exceptions	00000000 .exceptions
00040224 l    d  .text	00000000 .text
0004688c l    d  .rodata	00000000 .rodata
000469b0 l    d  .rwdata	00000000 .rwdata
00049668 l    d  .bss	00000000 .bss
00049788 l    d  .Memory	00000000 .Memory
00000000 l    d  .comment	00000000 .comment
00000000 l    d  .debug_aranges	00000000 .debug_aranges
00000000 l    d  .debug_info	00000000 .debug_info
00000000 l    d  .debug_abbrev	00000000 .debug_abbrev
00000000 l    d  .debug_line	00000000 .debug_line
00000000 l    d  .debug_frame	00000000 .debug_frame
00000000 l    d  .debug_str	00000000 .debug_str
00000000 l    d  .debug_loc	00000000 .debug_loc
00000000 l    d  .debug_alt_sim_info	00000000 .debug_alt_sim_info
00000000 l    d  .debug_ranges	00000000 .debug_ranges
00000000 l    df *ABS*	00000000 C:/Users/joshn/iCloudDrive/Desktop/Uni/MTRX3700/Major-Project/mtrx3700-major-project/VerilogCam_project/software/1234_BSP/obj/HAL/src/crt0.o
0004025c l       .text	00000000 alt_after_alt_main
00000000 l    df *ABS*	00000000 alt_irq_handler.c
00000000 l    df *ABS*	00000000 alt_instruction_exception_entry.c
00000000 l    df *ABS*	00000000 main.c
00000000 l    df *ABS*	00000000 w_sqrt.c
00000000 l    df *ABS*	00000000 e_sqrt.c
00000000 l    df *ABS*	00000000 s_lib_ver.c
00000000 l    df *ABS*	00000000 lib2-divmod.c
00000000 l    df *ABS*	00000000 addsf3.c
00000000 l    df *ABS*	00000000 divsf3.c
00000000 l    df *ABS*	00000000 gesf2.c
00000000 l    df *ABS*	00000000 mulsf3.c
00000000 l    df *ABS*	00000000 subsf3.c
00000000 l    df *ABS*	00000000 fixsfsi.c
00000000 l    df *ABS*	00000000 floatsisf.c
00000000 l    df *ABS*	00000000 adddf3.c
00000000 l    df *ABS*	00000000 divdf3.c
00000000 l    df *ABS*	00000000 ledf2.c
00000000 l    df *ABS*	00000000 muldf3.c
00000000 l    df *ABS*	00000000 subdf3.c
00000000 l    df *ABS*	00000000 unorddf2.c
00000000 l    df *ABS*	00000000 extendsfdf2.c
00000000 l    df *ABS*	00000000 truncdfsf2.c
00000000 l    df *ABS*	00000000 libgcc2.c
00000000 l    df *ABS*	00000000 lib2-mul.c
00000000 l    df *ABS*	00000000 libgcc2.c
00000000 l    df *ABS*	00000000 errno.c
00000000 l    df *ABS*	00000000 impure.c
000469b0 l     O .rwdata	00000424 impure_data
00000000 l    df *ABS*	00000000 alt_load.c
00044644 l     F .text	00000068 alt_load_section
00000000 l    df *ABS*	00000000 alt_main.c
00000000 l    df *ABS*	00000000 alt_usleep.c
00000000 l    df *ABS*	00000000 alt_sys_init.c
000447dc l     F .text	00000034 alt_dev_reg
00046dd4 l     O .rwdata	00001060 jtag
00000000 l    df *ABS*	00000000 altera_avalon_jtag_uart_fd.c
00000000 l    df *ABS*	00000000 altera_avalon_jtag_uart_init.c
00044ab8 l     F .text	0000020c altera_avalon_jtag_uart_irq
00044cc4 l     F .text	000000a0 altera_avalon_jtag_uart_timeout
00000000 l    df *ABS*	00000000 altera_avalon_jtag_uart_ioctl.c
00000000 l    df *ABS*	00000000 altera_avalon_jtag_uart_read.c
00000000 l    df *ABS*	00000000 altera_avalon_jtag_uart_write.c
00000000 l    df *ABS*	00000000 alt_alarm_start.c
00000000 l    df *ABS*	00000000 alt_busy_sleep.c
00000000 l    df *ABS*	00000000 alt_close.c
00045594 l     F .text	0000003c alt_get_errno
00000000 l    df *ABS*	00000000 alt_dcache_flush_all.c
00000000 l    df *ABS*	00000000 alt_dev.c
000456cc l     F .text	0000002c alt_dev_null_write
00000000 l    df *ABS*	00000000 alt_dev_llist_insert.c
000456f8 l     F .text	0000003c alt_get_errno
00000000 l    df *ABS*	00000000 alt_do_ctors.c
00000000 l    df *ABS*	00000000 alt_do_dtors.c
00000000 l    df *ABS*	00000000 alt_errno.c
00000000 l    df *ABS*	00000000 alt_icache_flush_all.c
00000000 l    df *ABS*	00000000 alt_iic.c
00000000 l    df *ABS*	00000000 alt_iic_isr_register.c
00000000 l    df *ABS*	00000000 alt_io_redirect.c
00045b5c l     F .text	000000d4 alt_open_fd
00000000 l    df *ABS*	00000000 alt_irq_vars.c
00000000 l    df *ABS*	00000000 alt_open.c
00045cac l     F .text	0000003c alt_get_errno
00045ce8 l     F .text	000000dc alt_file_locked
00000000 l    df *ABS*	00000000 alt_release_fd.c
00000000 l    df *ABS*	00000000 alt_tick.c
00000000 l    df *ABS*	00000000 altera_nios2_gen2_irq.c
00000000 l    df *ABS*	00000000 alt_find_dev.c
00000000 l    df *ABS*	00000000 alt_find_file.c
00000000 l    df *ABS*	00000000 alt_get_fd.c
00000000 l    df *ABS*	00000000 atexit.c
00000000 l    df *ABS*	00000000 exit.c
00000000 l    df *ABS*	00000000 int_errno.c
00000000 l    df *ABS*	00000000 memcmp.c
00000000 l    df *ABS*	00000000 memcpy.c
00000000 l    df *ABS*	00000000 strlen.c
00000000 l    df *ABS*	00000000 __atexit.c
00000000 l    df *ABS*	00000000 __call_atexit.c
00000000 l    df *ABS*	00000000 alt_exit.c
00049680 g     O .bss	00000004 alt_instruction_exception_handler
00044730 g     F .text	0000007c alt_main
00049688 g     O .bss	00000100 alt_irq
00040688 g     F .text	000000bc sqrt
0004800c g       *ABS*	00000000 __flash_rwdata_start
00040fb8 g     F .text	000003f4 .hidden __divsf3
00041cf0 g     F .text	00000070 .hidden __fixsfsi
00046140 g     F .text	00000024 altera_nios2_gen2_irq_init
00044638 g     F .text	0000000c __errno
00040000 g     F .entry	0000000c __reset
00040020 g       *ABS*	00000000 __flash_exceptions_start
00049684 g     O .bss	00000004 errno
0004966c g     O .bss	00000004 alt_argv
0004ffdc g       *ABS*	00000000 _gp
000447ac g     F .text	00000030 usleep
0004186c g     F .text	00000484 .hidden __subsf3
00047e5c g     O .rwdata	00000180 alt_fd_list
00046164 g     F .text	00000090 alt_find_dev
0004650c g     F .text	00000100 memcpy
00045c30 g     F .text	0000007c alt_io_redirect
00043130 g     F .text	000000f0 .hidden __ltdf2
0004688c g       *ABS*	00000000 __DTOR_END__
000463b4 g     F .text	00000098 alt_exception_cause_generated_bad_addr
00044ec0 g     F .text	00000220 altera_avalon_jtag_uart_read
00040a9c g     F .text	00000064 .hidden __udivsi3
00047ff8 g     O .rwdata	00000004 alt_max_fd
00044350 g     F .text	000000fc .hidden __extendsfdf2
00041e84 g     F .text	00000978 .hidden __adddf3
00047fdc g     O .rwdata	00000004 __fdlib_version
00047fe0 g     O .rwdata	00000004 _global_impure_ptr
00049788 g       *ABS*	00000000 __bss_end
00045a74 g     F .text	000000e8 alt_iic_isr_register
00046038 g     F .text	00000108 alt_tick
00045a28 g     F .text	0000004c alt_ic_irq_enabled
00045f94 g     F .text	000000a4 alt_alarm_stop
00049674 g     O .bss	00000004 alt_irq_active
000400fc g     F .exceptions	000000c8 alt_irq_handler
00047e34 g     O .rwdata	00000028 alt_dev_null
000456ac g     F .text	00000020 alt_dcache_flush_all
0004800c g       *ABS*	00000000 __ram_rwdata_end
00047ff0 g     O .rwdata	00000008 alt_dev_list
000413ac g     F .text	000000c4 .hidden __gtsf2
000469b0 g       *ABS*	00000000 __ram_rodata_end
00043130 g     F .text	000000f0 .hidden __ledf2
00040b00 g     F .text	0000005c .hidden __umodsi3
00049788 g       *ABS*	00000000 end
000449f8 g     F .text	000000c0 altera_avalon_jtag_uart_init
000401c4 g     F .exceptions	00000060 alt_instruction_exception_entry
0004688c g       *ABS*	00000000 __CTOR_LIST__
00072000 g       *ABS*	00000000 __alt_stack_pointer
000445bc g     F .text	00000054 .hidden __clzsi2
000450e0 g     F .text	00000228 altera_avalon_jtag_uart_write
00046734 g     F .text	00000120 __call_exitprocs
00040224 g     F .text	0000003c _start
00049678 g     O .bss	00000004 _alt_tick_rate
0004967c g     O .bss	00000004 _alt_nticks
0004484c g     F .text	00000048 alt_sys_init
00041d60 g     F .text	00000124 .hidden __floatsisf
000466a4 g     F .text	00000090 __register_exitproc
00044d64 g     F .text	00000068 altera_avalon_jtag_uart_close
00044610 g     F .text	00000028 .hidden __mulsi3
000469b0 g       *ABS*	00000000 __ram_rwdata_start
0004688c g       *ABS*	00000000 __ram_rodata_start
00044894 g     F .text	00000060 altera_avalon_jtag_uart_read_fd
000462fc g     F .text	000000b8 alt_get_fd
0004543c g     F .text	00000158 alt_busy_sleep
00046494 g     F .text	00000078 memcmp
00044954 g     F .text	00000050 altera_avalon_jtag_uart_close_fd
00049788 g       *ABS*	00000000 __alt_stack_base
000449a4 g     F .text	00000054 altera_avalon_jtag_uart_ioctl_fd
000427fc g     F .text	00000934 .hidden __divdf3
00043220 g     F .text	000007a8 .hidden __muldf3
000461f4 g     F .text	00000108 alt_find_file
00045734 g     F .text	000000a8 alt_dev_llist_insert
000402ec g     F .text	00000128 calculate_median
00049668 g       *ABS*	00000000 __bss_start
000404a4 g     F .text	000001e4 main
00049670 g     O .bss	00000004 alt_envp
000448f4 g     F .text	00000060 altera_avalon_jtag_uart_write_fd
00040000 g       *ABS*	00000000 __alt_mem_Memory
0004444c g     F .text	00000170 .hidden __truncdfsf2
00047ffc g     O .rwdata	00000004 alt_errno
000409a8 g     F .text	00000080 .hidden __divsi3
0004688c g       *ABS*	00000000 __CTOR_END__
00041470 g     F .text	000003fc .hidden __mulsf3
0004688c g       *ABS*	00000000 __flash_rodata_start
0004688c g       *ABS*	00000000 __DTOR_LIST__
00044810 g     F .text	0000003c alt_irq_init
00045f24 g     F .text	00000070 alt_release_fd
0004688c g     O .rodata	00000100 .hidden __clz_tab
0004644c g     F .text	00000014 atexit
000413ac g     F .text	000000c4 .hidden __gesf2
00047fe4 g     O .rwdata	00000004 _impure_ptr
00049668 g     O .bss	00000004 alt_argc
00045840 g     F .text	00000064 _do_dtors
00040020 g       .exceptions	00000000 alt_irq_entry
00047fe8 g     O .rwdata	00000008 alt_fs_list
00040020 g       *ABS*	00000000 __ram_exceptions_start
00040744 g     F .text	00000264 __ieee754_sqrt
000458c4 g     F .text	00000050 alt_ic_isr_register
0004800c g       *ABS*	00000000 _edata
00049788 g       *ABS*	00000000 _end
00040224 g       *ABS*	00000000 __ram_exceptions_end
00044dcc g     F .text	000000f4 altera_avalon_jtag_uart_ioctl
0004599c g     F .text	0000008c alt_ic_irq_disable
00046460 g     F .text	00000034 exit
00040a28 g     F .text	00000074 .hidden __modsi3
00072000 g       *ABS*	00000000 __alt_data_end
00040020 g     F .exceptions	00000000 alt_exception
000442fc g     F .text	00000054 .hidden __unorddf2
00046854 g     F .text	00000038 _exit
00045308 g     F .text	00000134 alt_alarm_start
0004660c g     F .text	00000098 strlen
00045dc4 g     F .text	00000160 open
00040260 g     F .text	0000008c exponential_averaging
000458a4 g     F .text	00000020 alt_icache_flush_all
00040414 g     F .text	00000090 is_outlier
00048000 g     O .rwdata	00000004 alt_priority_mask
00045914 g     F .text	00000088 alt_ic_irq_enable
000439c8 g     F .text	00000934 .hidden __subdf3
00048004 g     O .rwdata	00000008 alt_alarm_list
000457dc g     F .text	00000064 _do_ctors
000455d0 g     F .text	000000dc close
00040b5c g     F .text	0000045c .hidden __addsf3
000446ac g     F .text	00000084 alt_load



Disassembly of section .entry:

00040000 <__reset>:
   40000:	00400134 	movhi	at,4
   40004:	08408914 	ori	at,at,548
   40008:	0800683a 	jmp	at
	...

Disassembly of section .exceptions:

00040020 <alt_exception>:
   40020:	deffed04 	addi	sp,sp,-76
   40024:	dfc00015 	stw	ra,0(sp)
   40028:	d8400215 	stw	at,8(sp)
   4002c:	d8800315 	stw	r2,12(sp)
   40030:	d8c00415 	stw	r3,16(sp)
   40034:	d9000515 	stw	r4,20(sp)
   40038:	d9400615 	stw	r5,24(sp)
   4003c:	d9800715 	stw	r6,28(sp)
   40040:	d9c00815 	stw	r7,32(sp)
   40044:	000b307a 	rdctl	r5,estatus
   40048:	da000915 	stw	r8,36(sp)
   4004c:	da400a15 	stw	r9,40(sp)
   40050:	da800b15 	stw	r10,44(sp)
   40054:	dac00c15 	stw	r11,48(sp)
   40058:	db000d15 	stw	r12,52(sp)
   4005c:	db400e15 	stw	r13,56(sp)
   40060:	db800f15 	stw	r14,60(sp)
   40064:	dbc01015 	stw	r15,64(sp)
   40068:	d9401115 	stw	r5,68(sp)
   4006c:	ebffff04 	addi	r15,ea,-4
   40070:	dbc01215 	stw	r15,72(sp)
   40074:	0009313a 	rdctl	r4,ipending
   40078:	2880004c 	andi	r2,r5,1
   4007c:	10000326 	beq	r2,zero,4008c <alt_exception+0x6c>
   40080:	20000226 	beq	r4,zero,4008c <alt_exception+0x6c>
   40084:	00400fc0 	call	400fc <alt_irq_handler>
   40088:	00000706 	br	400a8 <alt_exception+0x88>
   4008c:	df401215 	stw	ea,72(sp)
   40090:	e8bfff17 	ldw	r2,-4(ea)
   40094:	e93fff04 	addi	r4,ea,-4
   40098:	00401c40 	call	401c4 <alt_instruction_exception_entry>
   4009c:	1000021e 	bne	r2,zero,400a8 <alt_exception+0x88>
   400a0:	ebffff04 	addi	r15,ea,-4
   400a4:	dbc01215 	stw	r15,72(sp)
   400a8:	d9401117 	ldw	r5,68(sp)
   400ac:	df401217 	ldw	ea,72(sp)
   400b0:	dfc00017 	ldw	ra,0(sp)
   400b4:	2801707a 	wrctl	estatus,r5
   400b8:	d8400217 	ldw	at,8(sp)
   400bc:	d8800317 	ldw	r2,12(sp)
   400c0:	d8c00417 	ldw	r3,16(sp)
   400c4:	d9000517 	ldw	r4,20(sp)
   400c8:	d9400617 	ldw	r5,24(sp)
   400cc:	d9800717 	ldw	r6,28(sp)
   400d0:	d9c00817 	ldw	r7,32(sp)
   400d4:	da000917 	ldw	r8,36(sp)
   400d8:	da400a17 	ldw	r9,40(sp)
   400dc:	da800b17 	ldw	r10,44(sp)
   400e0:	dac00c17 	ldw	r11,48(sp)
   400e4:	db000d17 	ldw	r12,52(sp)
   400e8:	db400e17 	ldw	r13,56(sp)
   400ec:	db800f17 	ldw	r14,60(sp)
   400f0:	dbc01017 	ldw	r15,64(sp)
   400f4:	dec01304 	addi	sp,sp,76
   400f8:	ef80083a 	eret

000400fc <alt_irq_handler>:
   400fc:	defff904 	addi	sp,sp,-28
   40100:	dfc00615 	stw	ra,24(sp)
   40104:	df000515 	stw	fp,20(sp)
   40108:	df000504 	addi	fp,sp,20
   4010c:	0001883a 	nop
   40110:	0005313a 	rdctl	r2,ipending
   40114:	e0bffc15 	stw	r2,-16(fp)
   40118:	e0bffc17 	ldw	r2,-16(fp)
   4011c:	e0bfff15 	stw	r2,-4(fp)
   40120:	e03ffd15 	stw	zero,-12(fp)
   40124:	00800044 	movi	r2,1
   40128:	e0bffe15 	stw	r2,-8(fp)
   4012c:	e0ffff17 	ldw	r3,-4(fp)
   40130:	e0bffe17 	ldw	r2,-8(fp)
   40134:	1884703a 	and	r2,r3,r2
   40138:	10001126 	beq	r2,zero,40180 <alt_irq_handler+0x84>
   4013c:	e0bffd17 	ldw	r2,-12(fp)
   40140:	100690fa 	slli	r3,r2,3
   40144:	00800174 	movhi	r2,5
   40148:	1885883a 	add	r2,r3,r2
   4014c:	10e5a217 	ldw	r3,-27000(r2)
   40150:	e0bffd17 	ldw	r2,-12(fp)
   40154:	100890fa 	slli	r4,r2,3
   40158:	00800174 	movhi	r2,5
   4015c:	2085883a 	add	r2,r4,r2
   40160:	10a5a317 	ldw	r2,-26996(r2)
   40164:	1009883a 	mov	r4,r2
   40168:	183ee83a 	callr	r3
   4016c:	0001883a 	nop
   40170:	0005313a 	rdctl	r2,ipending
   40174:	e0bffb15 	stw	r2,-20(fp)
   40178:	e0bffb17 	ldw	r2,-20(fp)
   4017c:	00000706 	br	4019c <alt_irq_handler+0xa0>
   40180:	e0bffe17 	ldw	r2,-8(fp)
   40184:	1085883a 	add	r2,r2,r2
   40188:	e0bffe15 	stw	r2,-8(fp)
   4018c:	e0bffd17 	ldw	r2,-12(fp)
   40190:	10800044 	addi	r2,r2,1
   40194:	e0bffd15 	stw	r2,-12(fp)
   40198:	003fe406 	br	4012c <alt_irq_handler+0x30>
   4019c:	e0bfff15 	stw	r2,-4(fp)
   401a0:	e0bfff17 	ldw	r2,-4(fp)
   401a4:	103fde1e 	bne	r2,zero,40120 <alt_irq_handler+0x24>
   401a8:	0001883a 	nop
   401ac:	0001883a 	nop
   401b0:	e037883a 	mov	sp,fp
   401b4:	dfc00117 	ldw	ra,4(sp)
   401b8:	df000017 	ldw	fp,0(sp)
   401bc:	dec00204 	addi	sp,sp,8
   401c0:	f800283a 	ret

000401c4 <alt_instruction_exception_entry>:
   401c4:	defffb04 	addi	sp,sp,-20
   401c8:	dfc00415 	stw	ra,16(sp)
   401cc:	df000315 	stw	fp,12(sp)
   401d0:	df000304 	addi	fp,sp,12
   401d4:	e13ffd15 	stw	r4,-12(fp)
   401d8:	00bfffc4 	movi	r2,-1
   401dc:	e0bfff15 	stw	r2,-4(fp)
   401e0:	e03ffe15 	stw	zero,-8(fp)
   401e4:	d0a5a917 	ldw	r2,-26972(gp)
   401e8:	10000726 	beq	r2,zero,40208 <alt_instruction_exception_entry+0x44>
   401ec:	d0a5a917 	ldw	r2,-26972(gp)
   401f0:	e0ffff17 	ldw	r3,-4(fp)
   401f4:	e1bffe17 	ldw	r6,-8(fp)
   401f8:	e17ffd17 	ldw	r5,-12(fp)
   401fc:	1809883a 	mov	r4,r3
   40200:	103ee83a 	callr	r2
   40204:	00000206 	br	40210 <alt_instruction_exception_entry+0x4c>
   40208:	003da03a 	break	0
   4020c:	0005883a 	mov	r2,zero
   40210:	e037883a 	mov	sp,fp
   40214:	dfc00117 	ldw	ra,4(sp)
   40218:	df000017 	ldw	fp,0(sp)
   4021c:	dec00204 	addi	sp,sp,8
   40220:	f800283a 	ret

Disassembly of section .text:

00040224 <_start>:
   40224:	06c001f4 	movhi	sp,7
   40228:	dec80014 	ori	sp,sp,8192
   4022c:	06800134 	movhi	gp,4
   40230:	d6bff714 	ori	gp,gp,65500
   40234:	00800134 	movhi	r2,4
   40238:	10a59a14 	ori	r2,r2,38504
   4023c:	00c00134 	movhi	r3,4
   40240:	18e5e214 	ori	r3,r3,38792
   40244:	10c00326 	beq	r2,r3,40254 <_start+0x30>
   40248:	10000015 	stw	zero,0(r2)
   4024c:	10800104 	addi	r2,r2,4
   40250:	10fffd36 	bltu	r2,r3,40248 <_start+0x24>
   40254:	00446ac0 	call	446ac <alt_load>
   40258:	00447300 	call	44730 <alt_main>

0004025c <alt_after_alt_main>:
   4025c:	003fff06 	br	4025c <alt_after_alt_main>

00040260 <exponential_averaging>:
   40260:	defffa04 	addi	sp,sp,-24
   40264:	dfc00515 	stw	ra,20(sp)
   40268:	df000415 	stw	fp,16(sp)
   4026c:	dc000315 	stw	r16,12(sp)
   40270:	df000404 	addi	fp,sp,16
   40274:	e13ffe15 	stw	r4,-8(fp)
   40278:	e17ffd15 	stw	r5,-12(fp)
   4027c:	e1bffc15 	stw	r6,-16(fp)
   40280:	e17ffe17 	ldw	r5,-8(fp)
   40284:	e13ffc17 	ldw	r4,-16(fp)
   40288:	00414700 	call	41470 <__mulsf3>
   4028c:	1007883a 	mov	r3,r2
   40290:	1821883a 	mov	r16,r3
   40294:	e17ffc17 	ldw	r5,-16(fp)
   40298:	010fe034 	movhi	r4,16256
   4029c:	004186c0 	call	4186c <__subsf3>
   402a0:	1007883a 	mov	r3,r2
   402a4:	1805883a 	mov	r2,r3
   402a8:	e17ffd17 	ldw	r5,-12(fp)
   402ac:	1009883a 	mov	r4,r2
   402b0:	00414700 	call	41470 <__mulsf3>
   402b4:	1007883a 	mov	r3,r2
   402b8:	1805883a 	mov	r2,r3
   402bc:	100b883a 	mov	r5,r2
   402c0:	8009883a 	mov	r4,r16
   402c4:	0040b5c0 	call	40b5c <__addsf3>
   402c8:	1007883a 	mov	r3,r2
   402cc:	1809883a 	mov	r4,r3
   402d0:	2005883a 	mov	r2,r4
   402d4:	e6ffff04 	addi	sp,fp,-4
   402d8:	dfc00217 	ldw	ra,8(sp)
   402dc:	df000117 	ldw	fp,4(sp)
   402e0:	dc000017 	ldw	r16,0(sp)
   402e4:	dec00304 	addi	sp,sp,12
   402e8:	f800283a 	ret

000402ec <calculate_median>:
   402ec:	defff904 	addi	sp,sp,-28
   402f0:	dfc00615 	stw	ra,24(sp)
   402f4:	df000515 	stw	fp,20(sp)
   402f8:	df000504 	addi	fp,sp,20
   402fc:	e13ffc15 	stw	r4,-16(fp)
   40300:	e17ffb15 	stw	r5,-20(fp)
   40304:	e03fff15 	stw	zero,-4(fp)
   40308:	00003006 	br	403cc <calculate_median+0xe0>
   4030c:	e0bfff17 	ldw	r2,-4(fp)
   40310:	10800044 	addi	r2,r2,1
   40314:	e0bffe15 	stw	r2,-8(fp)
   40318:	00002606 	br	403b4 <calculate_median+0xc8>
   4031c:	e0bfff17 	ldw	r2,-4(fp)
   40320:	100490ba 	slli	r2,r2,2
   40324:	e0fffc17 	ldw	r3,-16(fp)
   40328:	1885883a 	add	r2,r3,r2
   4032c:	11000017 	ldw	r4,0(r2)
   40330:	e0bffe17 	ldw	r2,-8(fp)
   40334:	100490ba 	slli	r2,r2,2
   40338:	e0fffc17 	ldw	r3,-16(fp)
   4033c:	1885883a 	add	r2,r3,r2
   40340:	10c00017 	ldw	r3,0(r2)
   40344:	180b883a 	mov	r5,r3
   40348:	00413ac0 	call	413ac <__gesf2>
   4034c:	0080160e 	bge	zero,r2,403a8 <calculate_median+0xbc>
   40350:	e0bfff17 	ldw	r2,-4(fp)
   40354:	100490ba 	slli	r2,r2,2
   40358:	e0fffc17 	ldw	r3,-16(fp)
   4035c:	1885883a 	add	r2,r3,r2
   40360:	10800017 	ldw	r2,0(r2)
   40364:	e0bffd15 	stw	r2,-12(fp)
   40368:	e0bffe17 	ldw	r2,-8(fp)
   4036c:	100490ba 	slli	r2,r2,2
   40370:	e0fffc17 	ldw	r3,-16(fp)
   40374:	1889883a 	add	r4,r3,r2
   40378:	e0bfff17 	ldw	r2,-4(fp)
   4037c:	100490ba 	slli	r2,r2,2
   40380:	e0fffc17 	ldw	r3,-16(fp)
   40384:	1885883a 	add	r2,r3,r2
   40388:	20c00017 	ldw	r3,0(r4)
   4038c:	10c00015 	stw	r3,0(r2)
   40390:	e0bffe17 	ldw	r2,-8(fp)
   40394:	100490ba 	slli	r2,r2,2
   40398:	e0fffc17 	ldw	r3,-16(fp)
   4039c:	1885883a 	add	r2,r3,r2
   403a0:	e0fffd17 	ldw	r3,-12(fp)
   403a4:	10c00015 	stw	r3,0(r2)
   403a8:	e0bffe17 	ldw	r2,-8(fp)
   403ac:	10800044 	addi	r2,r2,1
   403b0:	e0bffe15 	stw	r2,-8(fp)
   403b4:	e0fffe17 	ldw	r3,-8(fp)
   403b8:	e0bffb17 	ldw	r2,-20(fp)
   403bc:	18bfd716 	blt	r3,r2,4031c <calculate_median+0x30>
   403c0:	e0bfff17 	ldw	r2,-4(fp)
   403c4:	10800044 	addi	r2,r2,1
   403c8:	e0bfff15 	stw	r2,-4(fp)
   403cc:	e0bffb17 	ldw	r2,-20(fp)
   403d0:	10bfffc4 	addi	r2,r2,-1
   403d4:	e0ffff17 	ldw	r3,-4(fp)
   403d8:	18bfcc16 	blt	r3,r2,4030c <calculate_median+0x20>
   403dc:	e0bffb17 	ldw	r2,-20(fp)
   403e0:	1006d7fa 	srli	r3,r2,31
   403e4:	1885883a 	add	r2,r3,r2
   403e8:	1005d07a 	srai	r2,r2,1
   403ec:	100490ba 	slli	r2,r2,2
   403f0:	e0fffc17 	ldw	r3,-16(fp)
   403f4:	1885883a 	add	r2,r3,r2
   403f8:	10c00017 	ldw	r3,0(r2)
   403fc:	1805883a 	mov	r2,r3
   40400:	e037883a 	mov	sp,fp
   40404:	dfc00117 	ldw	ra,4(sp)
   40408:	df000017 	ldw	fp,0(sp)
   4040c:	dec00204 	addi	sp,sp,8
   40410:	f800283a 	ret

00040414 <is_outlier>:
   40414:	defff904 	addi	sp,sp,-28
   40418:	dfc00615 	stw	ra,24(sp)
   4041c:	df000515 	stw	fp,20(sp)
   40420:	dc400415 	stw	r17,16(sp)
   40424:	dc000315 	stw	r16,12(sp)
   40428:	df000504 	addi	fp,sp,20
   4042c:	e13ffd15 	stw	r4,-12(fp)
   40430:	e17ffc15 	stw	r5,-16(fp)
   40434:	e1bffb15 	stw	r6,-20(fp)
   40438:	e17ffc17 	ldw	r5,-16(fp)
   4043c:	e13ffd17 	ldw	r4,-12(fp)
   40440:	004186c0 	call	4186c <__subsf3>
   40444:	1009883a 	mov	r4,r2
   40448:	2007883a 	mov	r3,r4
   4044c:	00a00034 	movhi	r2,32768
   40450:	10bfffc4 	addi	r2,r2,-1
   40454:	18a2703a 	and	r17,r3,r2
   40458:	01501034 	movhi	r5,16448
   4045c:	e13ffb17 	ldw	r4,-20(fp)
   40460:	00414700 	call	41470 <__mulsf3>
   40464:	1007883a 	mov	r3,r2
   40468:	1805883a 	mov	r2,r3
   4046c:	04000044 	movi	r16,1
   40470:	100b883a 	mov	r5,r2
   40474:	8809883a 	mov	r4,r17
   40478:	00413ac0 	call	413ac <__gesf2>
   4047c:	00800116 	blt	zero,r2,40484 <is_outlier+0x70>
   40480:	0021883a 	mov	r16,zero
   40484:	80803fcc 	andi	r2,r16,255
   40488:	e6fffe04 	addi	sp,fp,-8
   4048c:	dfc00317 	ldw	ra,12(sp)
   40490:	df000217 	ldw	fp,8(sp)
   40494:	dc400117 	ldw	r17,4(sp)
   40498:	dc000017 	ldw	r16,0(sp)
   4049c:	dec00404 	addi	sp,sp,16
   404a0:	f800283a 	ret

000404a4 <main>:
   404a4:	deffee04 	addi	sp,sp,-72
   404a8:	dfc01115 	stw	ra,68(sp)
   404ac:	df001015 	stw	fp,64(sp)
   404b0:	dc000f15 	stw	r16,60(sp)
   404b4:	df001004 	addi	fp,sp,64
   404b8:	e03ff815 	stw	zero,-32(fp)
   404bc:	e03ffe15 	stw	zero,-8(fp)
   404c0:	e03ff015 	stw	zero,-64(fp)
   404c4:	e03ff115 	stw	zero,-60(fp)
   404c8:	e03ff215 	stw	zero,-56(fp)
   404cc:	e03ff315 	stw	zero,-52(fp)
   404d0:	e03ff415 	stw	zero,-48(fp)
   404d4:	e03ffd15 	stw	zero,-12(fp)
   404d8:	e03ffc15 	stw	zero,-16(fp)
   404dc:	e03ffb15 	stw	zero,-20(fp)
   404e0:	e03ffa15 	stw	zero,-24(fp)
   404e4:	00800234 	movhi	r2,8
   404e8:	10841037 	ldwio	r2,4160(r2)
   404ec:	1009883a 	mov	r4,r2
   404f0:	0041d600 	call	41d60 <__floatsisf>
   404f4:	1007883a 	mov	r3,r2
   404f8:	e0fff815 	stw	r3,-32(fp)
   404fc:	e17ff817 	ldw	r5,-32(fp)
   40500:	e13ffb17 	ldw	r4,-20(fp)
   40504:	0040b5c0 	call	40b5c <__addsf3>
   40508:	1007883a 	mov	r3,r2
   4050c:	e0fffb15 	stw	r3,-20(fp)
   40510:	e17ff817 	ldw	r5,-32(fp)
   40514:	e13ff817 	ldw	r4,-32(fp)
   40518:	00414700 	call	41470 <__mulsf3>
   4051c:	1007883a 	mov	r3,r2
   40520:	1805883a 	mov	r2,r3
   40524:	100b883a 	mov	r5,r2
   40528:	e13ffa17 	ldw	r4,-24(fp)
   4052c:	0040b5c0 	call	40b5c <__addsf3>
   40530:	1007883a 	mov	r3,r2
   40534:	e0fffa15 	stw	r3,-24(fp)
   40538:	e0bffc17 	ldw	r2,-16(fp)
   4053c:	10800044 	addi	r2,r2,1
   40540:	e0bffc15 	stw	r2,-16(fp)
   40544:	e13ffc17 	ldw	r4,-16(fp)
   40548:	0041d600 	call	41d60 <__floatsisf>
   4054c:	1007883a 	mov	r3,r2
   40550:	180b883a 	mov	r5,r3
   40554:	e13ffb17 	ldw	r4,-20(fp)
   40558:	0040fb80 	call	40fb8 <__divsf3>
   4055c:	1007883a 	mov	r3,r2
   40560:	e0fff715 	stw	r3,-36(fp)
   40564:	e13ffc17 	ldw	r4,-16(fp)
   40568:	0041d600 	call	41d60 <__floatsisf>
   4056c:	1007883a 	mov	r3,r2
   40570:	180b883a 	mov	r5,r3
   40574:	e13ffa17 	ldw	r4,-24(fp)
   40578:	0040fb80 	call	40fb8 <__divsf3>
   4057c:	1007883a 	mov	r3,r2
   40580:	1821883a 	mov	r16,r3
   40584:	e17ff717 	ldw	r5,-36(fp)
   40588:	e13ff717 	ldw	r4,-36(fp)
   4058c:	00414700 	call	41470 <__mulsf3>
   40590:	1007883a 	mov	r3,r2
   40594:	1805883a 	mov	r2,r3
   40598:	100b883a 	mov	r5,r2
   4059c:	8009883a 	mov	r4,r16
   405a0:	004186c0 	call	4186c <__subsf3>
   405a4:	1007883a 	mov	r3,r2
   405a8:	e0fff615 	stw	r3,-40(fp)
   405ac:	e13ff617 	ldw	r4,-40(fp)
   405b0:	00443500 	call	44350 <__extendsfdf2>
   405b4:	100d883a 	mov	r6,r2
   405b8:	180f883a 	mov	r7,r3
   405bc:	3009883a 	mov	r4,r6
   405c0:	380b883a 	mov	r5,r7
   405c4:	00406880 	call	40688 <sqrt>
   405c8:	100d883a 	mov	r6,r2
   405cc:	180f883a 	mov	r7,r3
   405d0:	3009883a 	mov	r4,r6
   405d4:	380b883a 	mov	r5,r7
   405d8:	004444c0 	call	4444c <__truncdfsf2>
   405dc:	1007883a 	mov	r3,r2
   405e0:	e0fff515 	stw	r3,-44(fp)
   405e4:	e1bff517 	ldw	r6,-44(fp)
   405e8:	e17ff717 	ldw	r5,-36(fp)
   405ec:	e13ff817 	ldw	r4,-32(fp)
   405f0:	00404140 	call	40414 <is_outlier>
   405f4:	1000211e 	bne	r2,zero,4067c <main+0x1d8>
   405f8:	e0bffd17 	ldw	r2,-12(fp)
   405fc:	100490ba 	slli	r2,r2,2
   40600:	e0ffff04 	addi	r3,fp,-4
   40604:	1885883a 	add	r2,r3,r2
   40608:	e0fff817 	ldw	r3,-32(fp)
   4060c:	10fff115 	stw	r3,-60(r2)
   40610:	e0bffd17 	ldw	r2,-12(fp)
   40614:	10800044 	addi	r2,r2,1
   40618:	01400144 	movi	r5,5
   4061c:	1009883a 	mov	r4,r2
   40620:	0040a280 	call	40a28 <__modsi3>
   40624:	e0bffd15 	stw	r2,-12(fp)
   40628:	e0bff817 	ldw	r2,-32(fp)
   4062c:	e0bff915 	stw	r2,-28(fp)
   40630:	e0bffc17 	ldw	r2,-16(fp)
   40634:	10800150 	cmplti	r2,r2,5
   40638:	1000051e 	bne	r2,zero,40650 <main+0x1ac>
   4063c:	e0bff004 	addi	r2,fp,-64
   40640:	01400144 	movi	r5,5
   40644:	1009883a 	mov	r4,r2
   40648:	00402ec0 	call	402ec <calculate_median>
   4064c:	e0bff915 	stw	r2,-28(fp)
   40650:	018f7374 	movhi	r6,15821
   40654:	31b33344 	addi	r6,r6,-13107
   40658:	e17ffe17 	ldw	r5,-8(fp)
   4065c:	e13ff917 	ldw	r4,-28(fp)
   40660:	00402600 	call	40260 <exponential_averaging>
   40664:	e0bffe15 	stw	r2,-8(fp)
   40668:	e13ffe17 	ldw	r4,-8(fp)
   4066c:	0041cf00 	call	41cf0 <__fixsfsi>
   40670:	1007883a 	mov	r3,r2
   40674:	00800234 	movhi	r2,8
   40678:	10c41035 	stwio	r3,4160(r2)
   4067c:	0100fa04 	movi	r4,1000
   40680:	00447ac0 	call	447ac <usleep>
   40684:	003f9706 	br	404e4 <main+0x40>

00040688 <sqrt>:
   40688:	defffb04 	addi	sp,sp,-20
   4068c:	dcc00315 	stw	r19,12(sp)
   40690:	dc800215 	stw	r18,8(sp)
   40694:	dc400115 	stw	r17,4(sp)
   40698:	dc000015 	stw	r16,0(sp)
   4069c:	2023883a 	mov	r17,r4
   406a0:	dfc00415 	stw	ra,16(sp)
   406a4:	2821883a 	mov	r16,r5
   406a8:	00407440 	call	40744 <__ieee754_sqrt>
   406ac:	01000134 	movhi	r4,4
   406b0:	211ff717 	ldw	r4,32732(r4)
   406b4:	1027883a 	mov	r19,r2
   406b8:	1825883a 	mov	r18,r3
   406bc:	213fffe0 	cmpeqi	r4,r4,-1
   406c0:	20000c1e 	bne	r4,zero,406f4 <sqrt+0x6c>
   406c4:	880d883a 	mov	r6,r17
   406c8:	800f883a 	mov	r7,r16
   406cc:	8809883a 	mov	r4,r17
   406d0:	800b883a 	mov	r5,r16
   406d4:	00442fc0 	call	442fc <__unorddf2>
   406d8:	1000061e 	bne	r2,zero,406f4 <sqrt+0x6c>
   406dc:	000d883a 	mov	r6,zero
   406e0:	000f883a 	mov	r7,zero
   406e4:	8809883a 	mov	r4,r17
   406e8:	800b883a 	mov	r5,r16
   406ec:	00431300 	call	43130 <__ledf2>
   406f0:	10000916 	blt	r2,zero,40718 <sqrt+0x90>
   406f4:	9805883a 	mov	r2,r19
   406f8:	9007883a 	mov	r3,r18
   406fc:	dfc00417 	ldw	ra,16(sp)
   40700:	dcc00317 	ldw	r19,12(sp)
   40704:	dc800217 	ldw	r18,8(sp)
   40708:	dc400117 	ldw	r17,4(sp)
   4070c:	dc000017 	ldw	r16,0(sp)
   40710:	dec00504 	addi	sp,sp,20
   40714:	f800283a 	ret
   40718:	00446380 	call	44638 <__errno>
   4071c:	00c00844 	movi	r3,33
   40720:	10c00015 	stw	r3,0(r2)
   40724:	000d883a 	mov	r6,zero
   40728:	000f883a 	mov	r7,zero
   4072c:	0009883a 	mov	r4,zero
   40730:	000b883a 	mov	r5,zero
   40734:	00427fc0 	call	427fc <__divdf3>
   40738:	1027883a 	mov	r19,r2
   4073c:	1825883a 	mov	r18,r3
   40740:	003fec06 	br	406f4 <sqrt+0x6c>

00040744 <__ieee754_sqrt>:
   40744:	defffd04 	addi	sp,sp,-12
   40748:	dc400115 	stw	r17,4(sp)
   4074c:	dc000015 	stw	r16,0(sp)
   40750:	dfc00215 	stw	ra,8(sp)
   40754:	28dffc2c 	andhi	r3,r5,32752
   40758:	009ffc34 	movhi	r2,32752
   4075c:	2823883a 	mov	r17,r5
   40760:	2021883a 	mov	r16,r4
   40764:	200d883a 	mov	r6,r4
   40768:	18807626 	beq	r3,r2,40944 <__ieee754_sqrt+0x200>
   4076c:	01403a0e 	bge	zero,r5,40858 <__ieee754_sqrt+0x114>
   40770:	280bd53a 	srai	r5,r5,20
   40774:	28004626 	beq	r5,zero,40890 <__ieee754_sqrt+0x14c>
   40778:	00800434 	movhi	r2,16
   4077c:	10bfffc4 	addi	r2,r2,-1
   40780:	3006d7fa 	srli	r3,r6,31
   40784:	8884703a 	and	r2,r17,r2
   40788:	297f0044 	addi	r5,r5,-1023
   4078c:	10800434 	orhi	r2,r2,16
   40790:	1085883a 	add	r2,r2,r2
   40794:	29c0004c 	andi	r7,r5,1
   40798:	10c7883a 	add	r3,r2,r3
   4079c:	3189883a 	add	r4,r6,r6
   407a0:	38000426 	beq	r7,zero,407b4 <__ieee754_sqrt+0x70>
   407a4:	2004d7fa 	srli	r2,r4,31
   407a8:	300890ba 	slli	r4,r6,2
   407ac:	18c7883a 	add	r3,r3,r3
   407b0:	1887883a 	add	r3,r3,r2
   407b4:	2815d07a 	srai	r10,r5,1
   407b8:	01c00584 	movi	r7,22
   407bc:	0019883a 	mov	r12,zero
   407c0:	000b883a 	mov	r5,zero
   407c4:	00800834 	movhi	r2,32
   407c8:	288d883a 	add	r6,r5,r2
   407cc:	2010d7fa 	srli	r8,r4,31
   407d0:	39ffffc4 	addi	r7,r7,-1
   407d4:	19800316 	blt	r3,r6,407e4 <__ieee754_sqrt+0xa0>
   407d8:	1987c83a 	sub	r3,r3,r6
   407dc:	308b883a 	add	r5,r6,r2
   407e0:	6099883a 	add	r12,r12,r2
   407e4:	18c7883a 	add	r3,r3,r3
   407e8:	1004d07a 	srli	r2,r2,1
   407ec:	40c7883a 	add	r3,r8,r3
   407f0:	2109883a 	add	r4,r4,r4
   407f4:	383ff41e 	bne	r7,zero,407c8 <__ieee754_sqrt+0x84>
   407f8:	0013883a 	mov	r9,zero
   407fc:	00800804 	movi	r2,32
   40800:	01a00034 	movhi	r6,32768
   40804:	00000806 	br	40828 <__ieee754_sqrt+0xe4>
   40808:	19403326 	beq	r3,r5,408d8 <__ieee754_sqrt+0x194>
   4080c:	2010d7fa 	srli	r8,r4,31
   40810:	18c7883a 	add	r3,r3,r3
   40814:	10bfffc4 	addi	r2,r2,-1
   40818:	300cd07a 	srli	r6,r6,1
   4081c:	1a07883a 	add	r3,r3,r8
   40820:	2109883a 	add	r4,r4,r4
   40824:	10003226 	beq	r2,zero,408f0 <__ieee754_sqrt+0x1ac>
   40828:	31d1883a 	add	r8,r6,r7
   4082c:	28fff60e 	bge	r5,r3,40808 <__ieee754_sqrt+0xc4>
   40830:	418f883a 	add	r7,r8,r6
   40834:	40002516 	blt	r8,zero,408cc <__ieee754_sqrt+0x188>
   40838:	2817883a 	mov	r11,r5
   4083c:	1947c83a 	sub	r3,r3,r5
   40840:	2200012e 	bgeu	r4,r8,40848 <__ieee754_sqrt+0x104>
   40844:	18ffffc4 	addi	r3,r3,-1
   40848:	2209c83a 	sub	r4,r4,r8
   4084c:	4993883a 	add	r9,r9,r6
   40850:	580b883a 	mov	r5,r11
   40854:	003fed06 	br	4080c <__ieee754_sqrt+0xc8>
   40858:	00a00034 	movhi	r2,32768
   4085c:	10bfffc4 	addi	r2,r2,-1
   40860:	2884703a 	and	r2,r5,r2
   40864:	1104b03a 	or	r2,r2,r4
   40868:	10004626 	beq	r2,zero,40984 <__ieee754_sqrt+0x240>
   4086c:	28003d1e 	bne	r5,zero,40964 <__ieee754_sqrt+0x220>
   40870:	000b883a 	mov	r5,zero
   40874:	3004d2fa 	srli	r2,r6,11
   40878:	297ffac4 	addi	r5,r5,-21
   4087c:	300c957a 	slli	r6,r6,21
   40880:	1023883a 	mov	r17,r2
   40884:	103ffb26 	beq	r2,zero,40874 <__ieee754_sqrt+0x130>
   40888:	10c0042c 	andhi	r3,r2,16
   4088c:	1800421e 	bne	r3,zero,40998 <__ieee754_sqrt+0x254>
   40890:	0005883a 	mov	r2,zero
   40894:	8c63883a 	add	r17,r17,r17
   40898:	8900042c 	andhi	r4,r17,16
   4089c:	1007883a 	mov	r3,r2
   408a0:	10800044 	addi	r2,r2,1
   408a4:	203ffb26 	beq	r4,zero,40894 <__ieee754_sqrt+0x150>
   408a8:	02000804 	movi	r8,32
   408ac:	3009883a 	mov	r4,r6
   408b0:	4091c83a 	sub	r8,r8,r2
   408b4:	308c983a 	sll	r6,r6,r2
   408b8:	8805883a 	mov	r2,r17
   408bc:	220ed83a 	srl	r7,r4,r8
   408c0:	28cbc83a 	sub	r5,r5,r3
   408c4:	38a2b03a 	or	r17,r7,r2
   408c8:	003fab06 	br	40778 <__ieee754_sqrt+0x34>
   408cc:	383fda16 	blt	r7,zero,40838 <__ieee754_sqrt+0xf4>
   408d0:	2ac00044 	addi	r11,r5,1
   408d4:	003fd906 	br	4083c <__ieee754_sqrt+0xf8>
   408d8:	223fcc36 	bltu	r4,r8,4080c <__ieee754_sqrt+0xc8>
   408dc:	418f883a 	add	r7,r8,r6
   408e0:	403ffa16 	blt	r8,zero,408cc <__ieee754_sqrt+0x188>
   408e4:	1817883a 	mov	r11,r3
   408e8:	0007883a 	mov	r3,zero
   408ec:	003fd606 	br	40848 <__ieee754_sqrt+0x104>
   408f0:	1906b03a 	or	r3,r3,r4
   408f4:	18000e1e 	bne	r3,zero,40930 <__ieee754_sqrt+0x1ec>
   408f8:	4804d07a 	srli	r2,r9,1
   408fc:	6007d07a 	srai	r3,r12,1
   40900:	01cff834 	movhi	r7,16352
   40904:	6300004c 	andi	r12,r12,1
   40908:	19cf883a 	add	r7,r3,r7
   4090c:	60000126 	beq	r12,zero,40914 <__ieee754_sqrt+0x1d0>
   40910:	10a00034 	orhi	r2,r2,32768
   40914:	5006953a 	slli	r3,r10,20
   40918:	19c7883a 	add	r3,r3,r7
   4091c:	dfc00217 	ldw	ra,8(sp)
   40920:	dc400117 	ldw	r17,4(sp)
   40924:	dc000017 	ldw	r16,0(sp)
   40928:	dec00304 	addi	sp,sp,12
   4092c:	f800283a 	ret
   40930:	48ffffd8 	cmpnei	r3,r9,-1
   40934:	18001626 	beq	r3,zero,40990 <__ieee754_sqrt+0x24c>
   40938:	48800044 	addi	r2,r9,1
   4093c:	1004d07a 	srli	r2,r2,1
   40940:	003fee06 	br	408fc <__ieee754_sqrt+0x1b8>
   40944:	280f883a 	mov	r7,r5
   40948:	00432200 	call	43220 <__muldf3>
   4094c:	800d883a 	mov	r6,r16
   40950:	880f883a 	mov	r7,r17
   40954:	1009883a 	mov	r4,r2
   40958:	180b883a 	mov	r5,r3
   4095c:	0041e840 	call	41e84 <__adddf3>
   40960:	003fee06 	br	4091c <__ieee754_sqrt+0x1d8>
   40964:	280f883a 	mov	r7,r5
   40968:	00439c80 	call	439c8 <__subdf3>
   4096c:	100d883a 	mov	r6,r2
   40970:	180f883a 	mov	r7,r3
   40974:	1009883a 	mov	r4,r2
   40978:	180b883a 	mov	r5,r3
   4097c:	00427fc0 	call	427fc <__divdf3>
   40980:	003fe606 	br	4091c <__ieee754_sqrt+0x1d8>
   40984:	2005883a 	mov	r2,r4
   40988:	2807883a 	mov	r3,r5
   4098c:	003fe306 	br	4091c <__ieee754_sqrt+0x1d8>
   40990:	63000044 	addi	r12,r12,1
   40994:	003fd906 	br	408fc <__ieee754_sqrt+0x1b8>
   40998:	3009883a 	mov	r4,r6
   4099c:	02000804 	movi	r8,32
   409a0:	00ffffc4 	movi	r3,-1
   409a4:	003fc506 	br	408bc <__ieee754_sqrt+0x178>

000409a8 <__divsi3>:
   409a8:	20001a16 	blt	r4,zero,40a14 <__divsi3+0x6c>
   409ac:	000f883a 	mov	r7,zero
   409b0:	2800020e 	bge	r5,zero,409bc <__divsi3+0x14>
   409b4:	014bc83a 	sub	r5,zero,r5
   409b8:	39c0005c 	xori	r7,r7,1
   409bc:	200d883a 	mov	r6,r4
   409c0:	00c00044 	movi	r3,1
   409c4:	2900092e 	bgeu	r5,r4,409ec <__divsi3+0x44>
   409c8:	00800804 	movi	r2,32
   409cc:	00c00044 	movi	r3,1
   409d0:	00000106 	br	409d8 <__divsi3+0x30>
   409d4:	10001226 	beq	r2,zero,40a20 <__divsi3+0x78>
   409d8:	294b883a 	add	r5,r5,r5
   409dc:	10bfffc4 	addi	r2,r2,-1
   409e0:	18c7883a 	add	r3,r3,r3
   409e4:	293ffb36 	bltu	r5,r4,409d4 <__divsi3+0x2c>
   409e8:	18000d26 	beq	r3,zero,40a20 <__divsi3+0x78>
   409ec:	0005883a 	mov	r2,zero
   409f0:	31400236 	bltu	r6,r5,409fc <__divsi3+0x54>
   409f4:	314dc83a 	sub	r6,r6,r5
   409f8:	10c4b03a 	or	r2,r2,r3
   409fc:	1806d07a 	srli	r3,r3,1
   40a00:	280ad07a 	srli	r5,r5,1
   40a04:	183ffa1e 	bne	r3,zero,409f0 <__divsi3+0x48>
   40a08:	38000126 	beq	r7,zero,40a10 <__divsi3+0x68>
   40a0c:	0085c83a 	sub	r2,zero,r2
   40a10:	f800283a 	ret
   40a14:	0109c83a 	sub	r4,zero,r4
   40a18:	01c00044 	movi	r7,1
   40a1c:	003fe406 	br	409b0 <__divsi3+0x8>
   40a20:	0005883a 	mov	r2,zero
   40a24:	003ff806 	br	40a08 <__divsi3+0x60>

00040a28 <__modsi3>:
   40a28:	20001916 	blt	r4,zero,40a90 <__modsi3+0x68>
   40a2c:	000f883a 	mov	r7,zero
   40a30:	2005883a 	mov	r2,r4
   40a34:	2800010e 	bge	r5,zero,40a3c <__modsi3+0x14>
   40a38:	014bc83a 	sub	r5,zero,r5
   40a3c:	00c00044 	movi	r3,1
   40a40:	2900092e 	bgeu	r5,r4,40a68 <__modsi3+0x40>
   40a44:	01800804 	movi	r6,32
   40a48:	00c00044 	movi	r3,1
   40a4c:	00000106 	br	40a54 <__modsi3+0x2c>
   40a50:	30000d26 	beq	r6,zero,40a88 <__modsi3+0x60>
   40a54:	294b883a 	add	r5,r5,r5
   40a58:	31bfffc4 	addi	r6,r6,-1
   40a5c:	18c7883a 	add	r3,r3,r3
   40a60:	293ffb36 	bltu	r5,r4,40a50 <__modsi3+0x28>
   40a64:	18000826 	beq	r3,zero,40a88 <__modsi3+0x60>
   40a68:	1806d07a 	srli	r3,r3,1
   40a6c:	11400136 	bltu	r2,r5,40a74 <__modsi3+0x4c>
   40a70:	1145c83a 	sub	r2,r2,r5
   40a74:	280ad07a 	srli	r5,r5,1
   40a78:	183ffb1e 	bne	r3,zero,40a68 <__modsi3+0x40>
   40a7c:	38000126 	beq	r7,zero,40a84 <__modsi3+0x5c>
   40a80:	0085c83a 	sub	r2,zero,r2
   40a84:	f800283a 	ret
   40a88:	2005883a 	mov	r2,r4
   40a8c:	003ffb06 	br	40a7c <__modsi3+0x54>
   40a90:	0109c83a 	sub	r4,zero,r4
   40a94:	01c00044 	movi	r7,1
   40a98:	003fe506 	br	40a30 <__modsi3+0x8>

00040a9c <__udivsi3>:
   40a9c:	200d883a 	mov	r6,r4
   40aa0:	2900152e 	bgeu	r5,r4,40af8 <__udivsi3+0x5c>
   40aa4:	28001416 	blt	r5,zero,40af8 <__udivsi3+0x5c>
   40aa8:	00800804 	movi	r2,32
   40aac:	00c00044 	movi	r3,1
   40ab0:	00000206 	br	40abc <__udivsi3+0x20>
   40ab4:	10000e26 	beq	r2,zero,40af0 <__udivsi3+0x54>
   40ab8:	28000516 	blt	r5,zero,40ad0 <__udivsi3+0x34>
   40abc:	294b883a 	add	r5,r5,r5
   40ac0:	10bfffc4 	addi	r2,r2,-1
   40ac4:	18c7883a 	add	r3,r3,r3
   40ac8:	293ffa36 	bltu	r5,r4,40ab4 <__udivsi3+0x18>
   40acc:	18000826 	beq	r3,zero,40af0 <__udivsi3+0x54>
   40ad0:	0005883a 	mov	r2,zero
   40ad4:	31400236 	bltu	r6,r5,40ae0 <__udivsi3+0x44>
   40ad8:	314dc83a 	sub	r6,r6,r5
   40adc:	10c4b03a 	or	r2,r2,r3
   40ae0:	1806d07a 	srli	r3,r3,1
   40ae4:	280ad07a 	srli	r5,r5,1
   40ae8:	183ffa1e 	bne	r3,zero,40ad4 <__udivsi3+0x38>
   40aec:	f800283a 	ret
   40af0:	0005883a 	mov	r2,zero
   40af4:	f800283a 	ret
   40af8:	00c00044 	movi	r3,1
   40afc:	003ff406 	br	40ad0 <__udivsi3+0x34>

00040b00 <__umodsi3>:
   40b00:	2005883a 	mov	r2,r4
   40b04:	2900132e 	bgeu	r5,r4,40b54 <__umodsi3+0x54>
   40b08:	28001216 	blt	r5,zero,40b54 <__umodsi3+0x54>
   40b0c:	01800804 	movi	r6,32
   40b10:	00c00044 	movi	r3,1
   40b14:	00000206 	br	40b20 <__umodsi3+0x20>
   40b18:	30000c26 	beq	r6,zero,40b4c <__umodsi3+0x4c>
   40b1c:	28000516 	blt	r5,zero,40b34 <__umodsi3+0x34>
   40b20:	294b883a 	add	r5,r5,r5
   40b24:	31bfffc4 	addi	r6,r6,-1
   40b28:	18c7883a 	add	r3,r3,r3
   40b2c:	293ffa36 	bltu	r5,r4,40b18 <__umodsi3+0x18>
   40b30:	18000626 	beq	r3,zero,40b4c <__umodsi3+0x4c>
   40b34:	1806d07a 	srli	r3,r3,1
   40b38:	11400136 	bltu	r2,r5,40b40 <__umodsi3+0x40>
   40b3c:	1145c83a 	sub	r2,r2,r5
   40b40:	280ad07a 	srli	r5,r5,1
   40b44:	183ffb1e 	bne	r3,zero,40b34 <__umodsi3+0x34>
   40b48:	f800283a 	ret
   40b4c:	2005883a 	mov	r2,r4
   40b50:	f800283a 	ret
   40b54:	00c00044 	movi	r3,1
   40b58:	003ff606 	br	40b34 <__umodsi3+0x34>

00040b5c <__addsf3>:
   40b5c:	280cd5fa 	srli	r6,r5,23
   40b60:	2006d5fa 	srli	r3,r4,23
   40b64:	2010d7fa 	srli	r8,r4,31
   40b68:	01c02034 	movhi	r7,128
   40b6c:	2818d7fa 	srli	r12,r5,31
   40b70:	defffc04 	addi	sp,sp,-16
   40b74:	39ffffc4 	addi	r7,r7,-1
   40b78:	3914703a 	and	r10,r7,r4
   40b7c:	32403fcc 	andi	r9,r6,255
   40b80:	dc800215 	stw	r18,8(sp)
   40b84:	dc400115 	stw	r17,4(sp)
   40b88:	395a703a 	and	r13,r7,r5
   40b8c:	1c403fcc 	andi	r17,r3,255
   40b90:	dfc00315 	stw	ra,12(sp)
   40b94:	dc000015 	stw	r16,0(sp)
   40b98:	501c90fa 	slli	r14,r10,3
   40b9c:	681690fa 	slli	r11,r13,3
   40ba0:	500d883a 	mov	r6,r10
   40ba4:	4025883a 	mov	r18,r8
   40ba8:	8a45c83a 	sub	r2,r17,r9
   40bac:	43004b26 	beq	r8,r12,40cdc <__addsf3+0x180>
   40bb0:	0080390e 	bge	zero,r2,40c98 <__addsf3+0x13c>
   40bb4:	48006326 	beq	r9,zero,40d44 <__addsf3+0x1e8>
   40bb8:	88c03fe0 	cmpeqi	r3,r17,255
   40bbc:	1800401e 	bne	r3,zero,40cc0 <__addsf3+0x164>
   40bc0:	5ac10034 	orhi	r11,r11,1024
   40bc4:	10c00708 	cmpgei	r3,r2,28
   40bc8:	1800ab1e 	bne	r3,zero,40e78 <__addsf3+0x31c>
   40bcc:	01000804 	movi	r4,32
   40bd0:	2089c83a 	sub	r4,r4,r2
   40bd4:	5908983a 	sll	r4,r11,r4
   40bd8:	5884d83a 	srl	r2,r11,r2
   40bdc:	2008c03a 	cmpne	r4,r4,zero
   40be0:	1104b03a 	or	r2,r2,r4
   40be4:	7085c83a 	sub	r2,r14,r2
   40be8:	10c1002c 	andhi	r3,r2,1024
   40bec:	18008526 	beq	r3,zero,40e04 <__addsf3+0x2a8>
   40bf0:	04010034 	movhi	r16,1024
   40bf4:	843fffc4 	addi	r16,r16,-1
   40bf8:	1420703a 	and	r16,r2,r16
   40bfc:	8009883a 	mov	r4,r16
   40c00:	00445bc0 	call	445bc <__clzsi2>
   40c04:	10fffec4 	addi	r3,r2,-5
   40c08:	80c4983a 	sll	r2,r16,r3
   40c0c:	1c409516 	blt	r3,r17,40e64 <__addsf3+0x308>
   40c10:	1c47c83a 	sub	r3,r3,r17
   40c14:	1c000044 	addi	r16,r3,1
   40c18:	01000804 	movi	r4,32
   40c1c:	2409c83a 	sub	r4,r4,r16
   40c20:	1108983a 	sll	r4,r2,r4
   40c24:	1404d83a 	srl	r2,r2,r16
   40c28:	0023883a 	mov	r17,zero
   40c2c:	2008c03a 	cmpne	r4,r4,zero
   40c30:	1104b03a 	or	r2,r2,r4
   40c34:	10c001cc 	andi	r3,r2,7
   40c38:	18000426 	beq	r3,zero,40c4c <__addsf3+0xf0>
   40c3c:	10c003cc 	andi	r3,r2,15
   40c40:	18c00120 	cmpeqi	r3,r3,4
   40c44:	1800011e 	bne	r3,zero,40c4c <__addsf3+0xf0>
   40c48:	10800104 	addi	r2,r2,4
   40c4c:	10c1002c 	andhi	r3,r2,1024
   40c50:	18006e26 	beq	r3,zero,40e0c <__addsf3+0x2b0>
   40c54:	88c00044 	addi	r3,r17,1
   40c58:	19003fe0 	cmpeqi	r4,r3,255
   40c5c:	20006d1e 	bne	r4,zero,40e14 <__addsf3+0x2b8>
   40c60:	100491ba 	slli	r2,r2,6
   40c64:	100cd27a 	srli	r6,r2,9
   40c68:	18803fcc 	andi	r2,r3,255
   40c6c:	100495fa 	slli	r2,r2,23
   40c70:	94803fcc 	andi	r18,r18,255
   40c74:	902497fa 	slli	r18,r18,31
   40c78:	1184b03a 	or	r2,r2,r6
   40c7c:	1484b03a 	or	r2,r2,r18
   40c80:	dfc00317 	ldw	ra,12(sp)
   40c84:	dc800217 	ldw	r18,8(sp)
   40c88:	dc400117 	ldw	r17,4(sp)
   40c8c:	dc000017 	ldw	r16,0(sp)
   40c90:	dec00404 	addi	sp,sp,16
   40c94:	f800283a 	ret
   40c98:	10003026 	beq	r2,zero,40d5c <__addsf3+0x200>
   40c9c:	4c49c83a 	sub	r4,r9,r17
   40ca0:	88007f1e 	bne	r17,zero,40ea0 <__addsf3+0x344>
   40ca4:	70003f26 	beq	r14,zero,40da4 <__addsf3+0x248>
   40ca8:	213fffc4 	addi	r4,r4,-1
   40cac:	2000b326 	beq	r4,zero,40f7c <__addsf3+0x420>
   40cb0:	48803fe0 	cmpeqi	r2,r9,255
   40cb4:	10007d26 	beq	r2,zero,40eac <__addsf3+0x350>
   40cb8:	6025883a 	mov	r18,r12
   40cbc:	6815883a 	mov	r10,r13
   40cc0:	50005426 	beq	r10,zero,40e14 <__addsf3+0x2b8>
   40cc4:	00802034 	movhi	r2,128
   40cc8:	51801034 	orhi	r6,r10,64
   40ccc:	10bfffc4 	addi	r2,r2,-1
   40cd0:	308c703a 	and	r6,r6,r2
   40cd4:	00ffffc4 	movi	r3,-1
   40cd8:	003fe306 	br	40c68 <__addsf3+0x10c>
   40cdc:	0080500e 	bge	zero,r2,40e20 <__addsf3+0x2c4>
   40ce0:	48002a26 	beq	r9,zero,40d8c <__addsf3+0x230>
   40ce4:	88c03fe0 	cmpeqi	r3,r17,255
   40ce8:	183ff51e 	bne	r3,zero,40cc0 <__addsf3+0x164>
   40cec:	5ac10034 	orhi	r11,r11,1024
   40cf0:	10c00708 	cmpgei	r3,r2,28
   40cf4:	1800741e 	bne	r3,zero,40ec8 <__addsf3+0x36c>
   40cf8:	00c00804 	movi	r3,32
   40cfc:	1887c83a 	sub	r3,r3,r2
   40d00:	58c6983a 	sll	r3,r11,r3
   40d04:	5884d83a 	srl	r2,r11,r2
   40d08:	1806c03a 	cmpne	r3,r3,zero
   40d0c:	10c4b03a 	or	r2,r2,r3
   40d10:	1385883a 	add	r2,r2,r14
   40d14:	10c1002c 	andhi	r3,r2,1024
   40d18:	18003a26 	beq	r3,zero,40e04 <__addsf3+0x2a8>
   40d1c:	8c400044 	addi	r17,r17,1
   40d20:	88c03fe0 	cmpeqi	r3,r17,255
   40d24:	18003b1e 	bne	r3,zero,40e14 <__addsf3+0x2b8>
   40d28:	1008d07a 	srli	r4,r2,1
   40d2c:	00df8034 	movhi	r3,32256
   40d30:	18ffffc4 	addi	r3,r3,-1
   40d34:	1080004c 	andi	r2,r2,1
   40d38:	20c8703a 	and	r4,r4,r3
   40d3c:	2084b03a 	or	r2,r4,r2
   40d40:	003fbc06 	br	40c34 <__addsf3+0xd8>
   40d44:	58001a26 	beq	r11,zero,40db0 <__addsf3+0x254>
   40d48:	10bfffc4 	addi	r2,r2,-1
   40d4c:	10007c26 	beq	r2,zero,40f40 <__addsf3+0x3e4>
   40d50:	88c03fe0 	cmpeqi	r3,r17,255
   40d54:	183f9b26 	beq	r3,zero,40bc4 <__addsf3+0x68>
   40d58:	003fd906 	br	40cc0 <__addsf3+0x164>
   40d5c:	88800044 	addi	r2,r17,1
   40d60:	10803f8c 	andi	r2,r2,254
   40d64:	1000461e 	bne	r2,zero,40e80 <__addsf3+0x324>
   40d68:	88006e1e 	bne	r17,zero,40f24 <__addsf3+0x3c8>
   40d6c:	70007f26 	beq	r14,zero,40f6c <__addsf3+0x410>
   40d70:	583fbd26 	beq	r11,zero,40c68 <__addsf3+0x10c>
   40d74:	72c5c83a 	sub	r2,r14,r11
   40d78:	1101002c 	andhi	r4,r2,1024
   40d7c:	20008326 	beq	r4,zero,40f8c <__addsf3+0x430>
   40d80:	5b85c83a 	sub	r2,r11,r14
   40d84:	6025883a 	mov	r18,r12
   40d88:	003faa06 	br	40c34 <__addsf3+0xd8>
   40d8c:	58000826 	beq	r11,zero,40db0 <__addsf3+0x254>
   40d90:	10bfffc4 	addi	r2,r2,-1
   40d94:	10006826 	beq	r2,zero,40f38 <__addsf3+0x3dc>
   40d98:	88c03fe0 	cmpeqi	r3,r17,255
   40d9c:	183fd426 	beq	r3,zero,40cf0 <__addsf3+0x194>
   40da0:	003fc706 	br	40cc0 <__addsf3+0x164>
   40da4:	6025883a 	mov	r18,r12
   40da8:	6815883a 	mov	r10,r13
   40dac:	4823883a 	mov	r17,r9
   40db0:	88803fe0 	cmpeqi	r2,r17,255
   40db4:	103fc21e 	bne	r2,zero,40cc0 <__addsf3+0x164>
   40db8:	00802034 	movhi	r2,128
   40dbc:	10bfffc4 	addi	r2,r2,-1
   40dc0:	508c703a 	and	r6,r10,r2
   40dc4:	8807883a 	mov	r3,r17
   40dc8:	003fa706 	br	40c68 <__addsf3+0x10c>
   40dcc:	881f883a 	mov	r15,r17
   40dd0:	8c400044 	addi	r17,r17,1
   40dd4:	88803f8c 	andi	r2,r17,254
   40dd8:	10004a1e 	bne	r2,zero,40f04 <__addsf3+0x3a8>
   40ddc:	78005a1e 	bne	r15,zero,40f48 <__addsf3+0x3ec>
   40de0:	70006e26 	beq	r14,zero,40f9c <__addsf3+0x440>
   40de4:	583fa026 	beq	r11,zero,40c68 <__addsf3+0x10c>
   40de8:	72c5883a 	add	r2,r14,r11
   40dec:	10c1002c 	andhi	r3,r2,1024
   40df0:	18006f26 	beq	r3,zero,40fb0 <__addsf3+0x454>
   40df4:	00ff0034 	movhi	r3,64512
   40df8:	18ffffc4 	addi	r3,r3,-1
   40dfc:	10c4703a 	and	r2,r2,r3
   40e00:	04400044 	movi	r17,1
   40e04:	10c001cc 	andi	r3,r2,7
   40e08:	183f8c1e 	bne	r3,zero,40c3c <__addsf3+0xe0>
   40e0c:	1014d0fa 	srli	r10,r2,3
   40e10:	003fe706 	br	40db0 <__addsf3+0x254>
   40e14:	00ffffc4 	movi	r3,-1
   40e18:	000d883a 	mov	r6,zero
   40e1c:	003f9206 	br	40c68 <__addsf3+0x10c>
   40e20:	103fea26 	beq	r2,zero,40dcc <__addsf3+0x270>
   40e24:	4c49c83a 	sub	r4,r9,r17
   40e28:	88003026 	beq	r17,zero,40eec <__addsf3+0x390>
   40e2c:	48803fe0 	cmpeqi	r2,r9,255
   40e30:	103fa21e 	bne	r2,zero,40cbc <__addsf3+0x160>
   40e34:	73810034 	orhi	r14,r14,1024
   40e38:	20800708 	cmpgei	r2,r4,28
   40e3c:	1000491e 	bne	r2,zero,40f64 <__addsf3+0x408>
   40e40:	00800804 	movi	r2,32
   40e44:	1105c83a 	sub	r2,r2,r4
   40e48:	7084983a 	sll	r2,r14,r2
   40e4c:	7108d83a 	srl	r4,r14,r4
   40e50:	1004c03a 	cmpne	r2,r2,zero
   40e54:	2088b03a 	or	r4,r4,r2
   40e58:	22c5883a 	add	r2,r4,r11
   40e5c:	4823883a 	mov	r17,r9
   40e60:	003fac06 	br	40d14 <__addsf3+0x1b8>
   40e64:	013f0034 	movhi	r4,64512
   40e68:	213fffc4 	addi	r4,r4,-1
   40e6c:	88e3c83a 	sub	r17,r17,r3
   40e70:	1104703a 	and	r2,r2,r4
   40e74:	003f6f06 	br	40c34 <__addsf3+0xd8>
   40e78:	00800044 	movi	r2,1
   40e7c:	003f5906 	br	40be4 <__addsf3+0x88>
   40e80:	72e1c83a 	sub	r16,r14,r11
   40e84:	8081002c 	andhi	r2,r16,1024
   40e88:	1000231e 	bne	r2,zero,40f18 <__addsf3+0x3bc>
   40e8c:	803f5b1e 	bne	r16,zero,40bfc <__addsf3+0xa0>
   40e90:	0025883a 	mov	r18,zero
   40e94:	0007883a 	mov	r3,zero
   40e98:	000d883a 	mov	r6,zero
   40e9c:	003f7206 	br	40c68 <__addsf3+0x10c>
   40ea0:	48803fe0 	cmpeqi	r2,r9,255
   40ea4:	103f841e 	bne	r2,zero,40cb8 <__addsf3+0x15c>
   40ea8:	73810034 	orhi	r14,r14,1024
   40eac:	20800708 	cmpgei	r2,r4,28
   40eb0:	10000726 	beq	r2,zero,40ed0 <__addsf3+0x374>
   40eb4:	01000044 	movi	r4,1
   40eb8:	5905c83a 	sub	r2,r11,r4
   40ebc:	6025883a 	mov	r18,r12
   40ec0:	4823883a 	mov	r17,r9
   40ec4:	003f4806 	br	40be8 <__addsf3+0x8c>
   40ec8:	00800044 	movi	r2,1
   40ecc:	003f9006 	br	40d10 <__addsf3+0x1b4>
   40ed0:	00800804 	movi	r2,32
   40ed4:	1105c83a 	sub	r2,r2,r4
   40ed8:	7084983a 	sll	r2,r14,r2
   40edc:	7108d83a 	srl	r4,r14,r4
   40ee0:	1004c03a 	cmpne	r2,r2,zero
   40ee4:	2088b03a 	or	r4,r4,r2
   40ee8:	003ff306 	br	40eb8 <__addsf3+0x35c>
   40eec:	703fae26 	beq	r14,zero,40da8 <__addsf3+0x24c>
   40ef0:	213fffc4 	addi	r4,r4,-1
   40ef4:	20002b26 	beq	r4,zero,40fa4 <__addsf3+0x448>
   40ef8:	48803fe0 	cmpeqi	r2,r9,255
   40efc:	103fce26 	beq	r2,zero,40e38 <__addsf3+0x2dc>
   40f00:	003f6e06 	br	40cbc <__addsf3+0x160>
   40f04:	88803fe0 	cmpeqi	r2,r17,255
   40f08:	103fc21e 	bne	r2,zero,40e14 <__addsf3+0x2b8>
   40f0c:	72c5883a 	add	r2,r14,r11
   40f10:	1004d07a 	srli	r2,r2,1
   40f14:	003fbb06 	br	40e04 <__addsf3+0x2a8>
   40f18:	5ba1c83a 	sub	r16,r11,r14
   40f1c:	6025883a 	mov	r18,r12
   40f20:	003f3606 	br	40bfc <__addsf3+0xa0>
   40f24:	7000091e 	bne	r14,zero,40f4c <__addsf3+0x3f0>
   40f28:	583f631e 	bne	r11,zero,40cb8 <__addsf3+0x15c>
   40f2c:	0025883a 	mov	r18,zero
   40f30:	380d883a 	mov	r6,r7
   40f34:	003f6706 	br	40cd4 <__addsf3+0x178>
   40f38:	72c5883a 	add	r2,r14,r11
   40f3c:	003f7506 	br	40d14 <__addsf3+0x1b8>
   40f40:	72c5c83a 	sub	r2,r14,r11
   40f44:	003f2806 	br	40be8 <__addsf3+0x8c>
   40f48:	703f5c26 	beq	r14,zero,40cbc <__addsf3+0x160>
   40f4c:	583f5c26 	beq	r11,zero,40cc0 <__addsf3+0x164>
   40f50:	20c0102c 	andhi	r3,r4,64
   40f54:	183f5a26 	beq	r3,zero,40cc0 <__addsf3+0x164>
   40f58:	2940102c 	andhi	r5,r5,64
   40f5c:	283f581e 	bne	r5,zero,40cc0 <__addsf3+0x164>
   40f60:	003f5506 	br	40cb8 <__addsf3+0x15c>
   40f64:	01000044 	movi	r4,1
   40f68:	003fbb06 	br	40e58 <__addsf3+0x2fc>
   40f6c:	58000826 	beq	r11,zero,40f90 <__addsf3+0x434>
   40f70:	6025883a 	mov	r18,r12
   40f74:	680d883a 	mov	r6,r13
   40f78:	003f3b06 	br	40c68 <__addsf3+0x10c>
   40f7c:	5b85c83a 	sub	r2,r11,r14
   40f80:	6025883a 	mov	r18,r12
   40f84:	4823883a 	mov	r17,r9
   40f88:	003f1706 	br	40be8 <__addsf3+0x8c>
   40f8c:	103f9d1e 	bne	r2,zero,40e04 <__addsf3+0x2a8>
   40f90:	0025883a 	mov	r18,zero
   40f94:	000d883a 	mov	r6,zero
   40f98:	003f3306 	br	40c68 <__addsf3+0x10c>
   40f9c:	680d883a 	mov	r6,r13
   40fa0:	003f3106 	br	40c68 <__addsf3+0x10c>
   40fa4:	72c5883a 	add	r2,r14,r11
   40fa8:	4823883a 	mov	r17,r9
   40fac:	003f5906 	br	40d14 <__addsf3+0x1b8>
   40fb0:	0023883a 	mov	r17,zero
   40fb4:	003f9306 	br	40e04 <__addsf3+0x2a8>

00040fb8 <__divsf3>:
   40fb8:	defff604 	addi	sp,sp,-40
   40fbc:	2006d5fa 	srli	r3,r4,23
   40fc0:	dd400615 	stw	r21,24(sp)
   40fc4:	202ad7fa 	srli	r21,r4,31
   40fc8:	00802034 	movhi	r2,128
   40fcc:	dc800315 	stw	r18,12(sp)
   40fd0:	dc000115 	stw	r16,4(sp)
   40fd4:	10bfffc4 	addi	r2,r2,-1
   40fd8:	dfc00915 	stw	ra,36(sp)
   40fdc:	ddc00815 	stw	r23,32(sp)
   40fe0:	dd800715 	stw	r22,28(sp)
   40fe4:	dd000515 	stw	r20,20(sp)
   40fe8:	dcc00415 	stw	r19,16(sp)
   40fec:	dc400215 	stw	r17,8(sp)
   40ff0:	18c03fcc 	andi	r3,r3,255
   40ff4:	1120703a 	and	r16,r2,r4
   40ff8:	a825883a 	mov	r18,r21
   40ffc:	18007b26 	beq	r3,zero,411ec <__divsf3+0x234>
   41000:	18803fe0 	cmpeqi	r2,r3,255
   41004:	10007e1e 	bne	r2,zero,41200 <__divsf3+0x248>
   41008:	800490fa 	slli	r2,r16,3
   4100c:	1d3fe044 	addi	r20,r3,-127
   41010:	0023883a 	mov	r17,zero
   41014:	14010034 	orhi	r16,r2,1024
   41018:	002d883a 	mov	r22,zero
   4101c:	2806d5fa 	srli	r3,r5,23
   41020:	01002034 	movhi	r4,128
   41024:	213fffc4 	addi	r4,r4,-1
   41028:	18c03fcc 	andi	r3,r3,255
   4102c:	282ed7fa 	srli	r23,r5,31
   41030:	2166703a 	and	r19,r4,r5
   41034:	18005326 	beq	r3,zero,41184 <__divsf3+0x1cc>
   41038:	18803fe0 	cmpeqi	r2,r3,255
   4103c:	10001d1e 	bne	r2,zero,410b4 <__divsf3+0xfc>
   41040:	980a90fa 	slli	r5,r19,3
   41044:	18ffe044 	addi	r3,r3,-127
   41048:	a0e9c83a 	sub	r20,r20,r3
   4104c:	2cc10034 	orhi	r19,r5,1024
   41050:	0007883a 	mov	r3,zero
   41054:	1c62b03a 	or	r17,r3,r17
   41058:	882290ba 	slli	r17,r17,2
   4105c:	00800134 	movhi	r2,4
   41060:	bd6af03a 	xor	r21,r23,r21
   41064:	8885883a 	add	r2,r17,r2
   41068:	10841d17 	ldw	r2,4212(r2)
   4106c:	a809883a 	mov	r4,r21
   41070:	1000683a 	jmp	r2
   41074:	00041338 	rdprs	zero,zero,4172
   41078:	00041278 	rdprs	zero,zero,4169
   4107c:	00041138 	rdprs	zero,zero,4164
   41080:	000410c8 	cmpgei	zero,zero,4163
   41084:	00041138 	rdprs	zero,zero,4164
   41088:	000412e4 	muli	zero,zero,4171
   4108c:	00041138 	rdprs	zero,zero,4164
   41090:	000410c8 	cmpgei	zero,zero,4163
   41094:	00041278 	rdprs	zero,zero,4169
   41098:	00041278 	rdprs	zero,zero,4169
   4109c:	000412e4 	muli	zero,zero,4171
   410a0:	000410c8 	cmpgei	zero,zero,4163
   410a4:	000410d4 	movui	zero,4163
   410a8:	000410d4 	movui	zero,4163
   410ac:	000410d4 	movui	zero,4163
   410b0:	000412fc 	xorhi	zero,zero,4171
   410b4:	a53fc044 	addi	r20,r20,-255
   410b8:	98006d1e 	bne	r19,zero,41270 <__divsf3+0x2b8>
   410bc:	00c00084 	movi	r3,2
   410c0:	00003206 	br	4118c <__divsf3+0x1d4>
   410c4:	0027883a 	mov	r19,zero
   410c8:	b825883a 	mov	r18,r23
   410cc:	9821883a 	mov	r16,r19
   410d0:	182d883a 	mov	r22,r3
   410d4:	b08000a0 	cmpeqi	r2,r22,2
   410d8:	10007f1e 	bne	r2,zero,412d8 <__divsf3+0x320>
   410dc:	b08000e0 	cmpeqi	r2,r22,3
   410e0:	1000901e 	bne	r2,zero,41324 <__divsf3+0x36c>
   410e4:	b5800060 	cmpeqi	r22,r22,1
   410e8:	b000141e 	bne	r22,zero,4113c <__divsf3+0x184>
   410ec:	a0c01fc4 	addi	r3,r20,127
   410f0:	00c0650e 	bge	zero,r3,41288 <__divsf3+0x2d0>
   410f4:	808001cc 	andi	r2,r16,7
   410f8:	10000426 	beq	r2,zero,4110c <__divsf3+0x154>
   410fc:	808003cc 	andi	r2,r16,15
   41100:	10800120 	cmpeqi	r2,r2,4
   41104:	1000011e 	bne	r2,zero,4110c <__divsf3+0x154>
   41108:	84000104 	addi	r16,r16,4
   4110c:	8082002c 	andhi	r2,r16,2048
   41110:	10000426 	beq	r2,zero,41124 <__divsf3+0x16c>
   41114:	00be0034 	movhi	r2,63488
   41118:	10bfffc4 	addi	r2,r2,-1
   4111c:	80a0703a 	and	r16,r16,r2
   41120:	a0c02004 	addi	r3,r20,128
   41124:	18803fc8 	cmpgei	r2,r3,255
   41128:	10006b1e 	bne	r2,zero,412d8 <__divsf3+0x320>
   4112c:	800491ba 	slli	r2,r16,6
   41130:	1020d27a 	srli	r16,r2,9
   41134:	00000306 	br	41144 <__divsf3+0x18c>
   41138:	a825883a 	mov	r18,r21
   4113c:	0007883a 	mov	r3,zero
   41140:	0021883a 	mov	r16,zero
   41144:	18803fcc 	andi	r2,r3,255
   41148:	100495fa 	slli	r2,r2,23
   4114c:	902497fa 	slli	r18,r18,31
   41150:	1404b03a 	or	r2,r2,r16
   41154:	1484b03a 	or	r2,r2,r18
   41158:	dfc00917 	ldw	ra,36(sp)
   4115c:	ddc00817 	ldw	r23,32(sp)
   41160:	dd800717 	ldw	r22,28(sp)
   41164:	dd400617 	ldw	r21,24(sp)
   41168:	dd000517 	ldw	r20,20(sp)
   4116c:	dcc00417 	ldw	r19,16(sp)
   41170:	dc800317 	ldw	r18,12(sp)
   41174:	dc400217 	ldw	r17,8(sp)
   41178:	dc000117 	ldw	r16,4(sp)
   4117c:	dec00a04 	addi	sp,sp,40
   41180:	f800283a 	ret
   41184:	9800321e 	bne	r19,zero,41250 <__divsf3+0x298>
   41188:	00c00044 	movi	r3,1
   4118c:	1c62b03a 	or	r17,r3,r17
   41190:	882290ba 	slli	r17,r17,2
   41194:	00800134 	movhi	r2,4
   41198:	bd6af03a 	xor	r21,r23,r21
   4119c:	8885883a 	add	r2,r17,r2
   411a0:	10846b17 	ldw	r2,4524(r2)
   411a4:	a809883a 	mov	r4,r21
   411a8:	1000683a 	jmp	r2
   411ac:	00041278 	rdprs	zero,zero,4169
   411b0:	00041278 	rdprs	zero,zero,4169
   411b4:	00041138 	rdprs	zero,zero,4164
   411b8:	000410c4 	movi	zero,4163
   411bc:	00041138 	rdprs	zero,zero,4164
   411c0:	000412e4 	muli	zero,zero,4171
   411c4:	00041138 	rdprs	zero,zero,4164
   411c8:	000410c4 	movi	zero,4163
   411cc:	00041278 	rdprs	zero,zero,4169
   411d0:	00041278 	rdprs	zero,zero,4169
   411d4:	000412e4 	muli	zero,zero,4171
   411d8:	000410c4 	movi	zero,4163
   411dc:	000410d4 	movui	zero,4163
   411e0:	000410d4 	movui	zero,4163
   411e4:	000410d4 	movui	zero,4163
   411e8:	000412f8 	rdprs	zero,zero,4171
   411ec:	80000d1e 	bne	r16,zero,41224 <__divsf3+0x26c>
   411f0:	04400104 	movi	r17,4
   411f4:	0029883a 	mov	r20,zero
   411f8:	05800044 	movi	r22,1
   411fc:	003f8706 	br	4101c <__divsf3+0x64>
   41200:	8000041e 	bne	r16,zero,41214 <__divsf3+0x25c>
   41204:	04400204 	movi	r17,8
   41208:	05003fc4 	movi	r20,255
   4120c:	05800084 	movi	r22,2
   41210:	003f8206 	br	4101c <__divsf3+0x64>
   41214:	04400304 	movi	r17,12
   41218:	05003fc4 	movi	r20,255
   4121c:	058000c4 	movi	r22,3
   41220:	003f7e06 	br	4101c <__divsf3+0x64>
   41224:	8009883a 	mov	r4,r16
   41228:	d9400015 	stw	r5,0(sp)
   4122c:	00445bc0 	call	445bc <__clzsi2>
   41230:	10fffec4 	addi	r3,r2,-5
   41234:	80e0983a 	sll	r16,r16,r3
   41238:	00ffe284 	movi	r3,-118
   4123c:	d9400017 	ldw	r5,0(sp)
   41240:	18a9c83a 	sub	r20,r3,r2
   41244:	0023883a 	mov	r17,zero
   41248:	002d883a 	mov	r22,zero
   4124c:	003f7306 	br	4101c <__divsf3+0x64>
   41250:	9809883a 	mov	r4,r19
   41254:	00445bc0 	call	445bc <__clzsi2>
   41258:	a087883a 	add	r3,r20,r2
   4125c:	113ffec4 	addi	r4,r2,-5
   41260:	1d001d84 	addi	r20,r3,118
   41264:	9926983a 	sll	r19,r19,r4
   41268:	0007883a 	mov	r3,zero
   4126c:	003f7906 	br	41054 <__divsf3+0x9c>
   41270:	00c000c4 	movi	r3,3
   41274:	003f7706 	br	41054 <__divsf3+0x9c>
   41278:	2025883a 	mov	r18,r4
   4127c:	00ffffc4 	movi	r3,-1
   41280:	0021883a 	mov	r16,zero
   41284:	003faf06 	br	41144 <__divsf3+0x18c>
   41288:	00800044 	movi	r2,1
   4128c:	10c7c83a 	sub	r3,r2,r3
   41290:	18800708 	cmpgei	r2,r3,28
   41294:	103fa91e 	bne	r2,zero,4113c <__divsf3+0x184>
   41298:	a5002784 	addi	r20,r20,158
   4129c:	8528983a 	sll	r20,r16,r20
   412a0:	80c6d83a 	srl	r3,r16,r3
   412a4:	a020c03a 	cmpne	r16,r20,zero
   412a8:	1c20b03a 	or	r16,r3,r16
   412ac:	808001cc 	andi	r2,r16,7
   412b0:	10000426 	beq	r2,zero,412c4 <__divsf3+0x30c>
   412b4:	808003cc 	andi	r2,r16,15
   412b8:	10800120 	cmpeqi	r2,r2,4
   412bc:	1000011e 	bne	r2,zero,412c4 <__divsf3+0x30c>
   412c0:	84000104 	addi	r16,r16,4
   412c4:	8081002c 	andhi	r2,r16,1024
   412c8:	10003426 	beq	r2,zero,4139c <__divsf3+0x3e4>
   412cc:	00c00044 	movi	r3,1
   412d0:	0021883a 	mov	r16,zero
   412d4:	003f9b06 	br	41144 <__divsf3+0x18c>
   412d8:	00ffffc4 	movi	r3,-1
   412dc:	0021883a 	mov	r16,zero
   412e0:	003f9806 	br	41144 <__divsf3+0x18c>
   412e4:	04002034 	movhi	r16,128
   412e8:	0025883a 	mov	r18,zero
   412ec:	843fffc4 	addi	r16,r16,-1
   412f0:	00ffffc4 	movi	r3,-1
   412f4:	003f9306 	br	41144 <__divsf3+0x18c>
   412f8:	0027883a 	mov	r19,zero
   412fc:	8080102c 	andhi	r2,r16,64
   41300:	10000826 	beq	r2,zero,41324 <__divsf3+0x36c>
   41304:	9880102c 	andhi	r2,r19,64
   41308:	1000061e 	bne	r2,zero,41324 <__divsf3+0x36c>
   4130c:	00802034 	movhi	r2,128
   41310:	9c001034 	orhi	r16,r19,64
   41314:	10bfffc4 	addi	r2,r2,-1
   41318:	80a0703a 	and	r16,r16,r2
   4131c:	b825883a 	mov	r18,r23
   41320:	003ff306 	br	412f0 <__divsf3+0x338>
   41324:	00802034 	movhi	r2,128
   41328:	84001034 	orhi	r16,r16,64
   4132c:	10bfffc4 	addi	r2,r2,-1
   41330:	80a0703a 	and	r16,r16,r2
   41334:	003fee06 	br	412f0 <__divsf3+0x338>
   41338:	8004917a 	slli	r2,r16,5
   4133c:	9808917a 	slli	r4,r19,5
   41340:	1100122e 	bgeu	r2,r4,4138c <__divsf3+0x3d4>
   41344:	a53fffc4 	addi	r20,r20,-1
   41348:	014006c4 	movi	r5,27
   4134c:	0021883a 	mov	r16,zero
   41350:	1007883a 	mov	r3,r2
   41354:	297fffc4 	addi	r5,r5,-1
   41358:	1085883a 	add	r2,r2,r2
   4135c:	8421883a 	add	r16,r16,r16
   41360:	18000116 	blt	r3,zero,41368 <__divsf3+0x3b0>
   41364:	11000236 	bltu	r2,r4,41370 <__divsf3+0x3b8>
   41368:	1105c83a 	sub	r2,r2,r4
   4136c:	84000054 	ori	r16,r16,1
   41370:	283ff71e 	bne	r5,zero,41350 <__divsf3+0x398>
   41374:	1004c03a 	cmpne	r2,r2,zero
   41378:	a0c01fc4 	addi	r3,r20,127
   4137c:	1420b03a 	or	r16,r2,r16
   41380:	a825883a 	mov	r18,r21
   41384:	00ff5b16 	blt	zero,r3,410f4 <__divsf3+0x13c>
   41388:	003fbf06 	br	41288 <__divsf3+0x2d0>
   4138c:	1105c83a 	sub	r2,r2,r4
   41390:	01400684 	movi	r5,26
   41394:	04000044 	movi	r16,1
   41398:	003fed06 	br	41350 <__divsf3+0x398>
   4139c:	802091ba 	slli	r16,r16,6
   413a0:	0007883a 	mov	r3,zero
   413a4:	8020d27a 	srli	r16,r16,9
   413a8:	003f6606 	br	41144 <__divsf3+0x18c>

000413ac <__gesf2>:
   413ac:	200cd5fa 	srli	r6,r4,23
   413b0:	00c02034 	movhi	r3,128
   413b4:	18ffffc4 	addi	r3,r3,-1
   413b8:	31803fcc 	andi	r6,r6,255
   413bc:	32003fd8 	cmpnei	r8,r6,255
   413c0:	2012d7fa 	srli	r9,r4,31
   413c4:	280ed5fa 	srli	r7,r5,23
   413c8:	1908703a 	and	r4,r3,r4
   413cc:	2804d7fa 	srli	r2,r5,31
   413d0:	1946703a 	and	r3,r3,r5
   413d4:	40000a26 	beq	r8,zero,41400 <__gesf2+0x54>
   413d8:	39403fcc 	andi	r5,r7,255
   413dc:	29c03fd8 	cmpnei	r7,r5,255
   413e0:	38000b26 	beq	r7,zero,41410 <__gesf2+0x64>
   413e4:	3000151e 	bne	r6,zero,4143c <__gesf2+0x90>
   413e8:	200f003a 	cmpeq	r7,r4,zero
   413ec:	2800101e 	bne	r5,zero,41430 <__gesf2+0x84>
   413f0:	18000f1e 	bne	r3,zero,41430 <__gesf2+0x84>
   413f4:	2000091e 	bne	r4,zero,4141c <__gesf2+0x70>
   413f8:	0005883a 	mov	r2,zero
   413fc:	f800283a 	ret
   41400:	2000191e 	bne	r4,zero,41468 <__gesf2+0xbc>
   41404:	39403fcc 	andi	r5,r7,255
   41408:	29c03fe0 	cmpeqi	r7,r5,255
   4140c:	38000b26 	beq	r7,zero,4143c <__gesf2+0x90>
   41410:	1800151e 	bne	r3,zero,41468 <__gesf2+0xbc>
   41414:	30000526 	beq	r6,zero,4142c <__gesf2+0x80>
   41418:	48800b26 	beq	r9,r2,41448 <__gesf2+0x9c>
   4141c:	00800044 	movi	r2,1
   41420:	48000526 	beq	r9,zero,41438 <__gesf2+0x8c>
   41424:	00bfffc4 	movi	r2,-1
   41428:	f800283a 	ret
   4142c:	200f003a 	cmpeq	r7,r4,zero
   41430:	383ff926 	beq	r7,zero,41418 <__gesf2+0x6c>
   41434:	103ffb26 	beq	r2,zero,41424 <__gesf2+0x78>
   41438:	f800283a 	ret
   4143c:	283ff61e 	bne	r5,zero,41418 <__gesf2+0x6c>
   41440:	183ff51e 	bne	r3,zero,41418 <__gesf2+0x6c>
   41444:	003ff506 	br	4141c <__gesf2+0x70>
   41448:	29800416 	blt	r5,r6,4145c <__gesf2+0xb0>
   4144c:	317ff916 	blt	r6,r5,41434 <__gesf2+0x88>
   41450:	19000236 	bltu	r3,r4,4145c <__gesf2+0xb0>
   41454:	20ffe82e 	bgeu	r4,r3,413f8 <__gesf2+0x4c>
   41458:	003ff606 	br	41434 <__gesf2+0x88>
   4145c:	103ff11e 	bne	r2,zero,41424 <__gesf2+0x78>
   41460:	00800044 	movi	r2,1
   41464:	f800283a 	ret
   41468:	00bfff84 	movi	r2,-2
   4146c:	f800283a 	ret

00041470 <__mulsf3>:
   41470:	defff504 	addi	sp,sp,-44
   41474:	dc400215 	stw	r17,8(sp)
   41478:	2022d5fa 	srli	r17,r4,23
   4147c:	dc000115 	stw	r16,4(sp)
   41480:	04002034 	movhi	r16,128
   41484:	dd800715 	stw	r22,28(sp)
   41488:	843fffc4 	addi	r16,r16,-1
   4148c:	dfc00a15 	stw	ra,40(sp)
   41490:	df000915 	stw	fp,36(sp)
   41494:	ddc00815 	stw	r23,32(sp)
   41498:	dd400615 	stw	r21,24(sp)
   4149c:	dd000515 	stw	r20,20(sp)
   414a0:	dcc00415 	stw	r19,16(sp)
   414a4:	dc800315 	stw	r18,12(sp)
   414a8:	8c403fcc 	andi	r17,r17,255
   414ac:	202cd7fa 	srli	r22,r4,31
   414b0:	8120703a 	and	r16,r16,r4
   414b4:	88005026 	beq	r17,zero,415f8 <__mulsf3+0x188>
   414b8:	88803fe0 	cmpeqi	r2,r17,255
   414bc:	1000531e 	bne	r2,zero,4160c <__mulsf3+0x19c>
   414c0:	802090fa 	slli	r16,r16,3
   414c4:	8c7fe044 	addi	r17,r17,-127
   414c8:	0025883a 	mov	r18,zero
   414cc:	84010034 	orhi	r16,r16,1024
   414d0:	0029883a 	mov	r20,zero
   414d4:	2804d5fa 	srli	r2,r5,23
   414d8:	01002034 	movhi	r4,128
   414dc:	213fffc4 	addi	r4,r4,-1
   414e0:	10803fcc 	andi	r2,r2,255
   414e4:	282ed7fa 	srli	r23,r5,31
   414e8:	2166703a 	and	r19,r4,r5
   414ec:	10004c26 	beq	r2,zero,41620 <__mulsf3+0x1b0>
   414f0:	10c03fe0 	cmpeqi	r3,r2,255
   414f4:	18001e1e 	bne	r3,zero,41570 <__mulsf3+0x100>
   414f8:	980890fa 	slli	r4,r19,3
   414fc:	10bfe044 	addi	r2,r2,-127
   41500:	88a3883a 	add	r17,r17,r2
   41504:	24c10034 	orhi	r19,r4,1024
   41508:	0007883a 	mov	r3,zero
   4150c:	90800428 	cmpgeui	r2,r18,16
   41510:	b5eaf03a 	xor	r21,r22,r23
   41514:	8f000044 	addi	fp,r17,1
   41518:	1000481e 	bne	r2,zero,4163c <__mulsf3+0x1cc>
   4151c:	902490ba 	slli	r18,r18,2
   41520:	00800134 	movhi	r2,4
   41524:	9085883a 	add	r2,r18,r2
   41528:	10854c17 	ldw	r2,5424(r2)
   4152c:	1000683a 	jmp	r2
   41530:	0004163c 	xorhi	zero,zero,4184
   41534:	00041588 	cmpgei	zero,zero,4182
   41538:	00041588 	cmpgei	zero,zero,4182
   4153c:	00041584 	movi	zero,4182
   41540:	00041590 	cmplti	zero,zero,4182
   41544:	00041590 	cmplti	zero,zero,4182
   41548:	0004179c 	xori	zero,zero,4190
   4154c:	00041584 	movi	zero,4182
   41550:	00041590 	cmplti	zero,zero,4182
   41554:	0004179c 	xori	zero,zero,4190
   41558:	00041590 	cmplti	zero,zero,4182
   4155c:	00041584 	movi	zero,4182
   41560:	0004172c 	andhi	zero,zero,4188
   41564:	0004172c 	andhi	zero,zero,4188
   41568:	0004172c 	andhi	zero,zero,4188
   4156c:	00041800 	call	4180 <__alt_mem_Memory-0x3be80>
   41570:	8c403fc4 	addi	r17,r17,255
   41574:	98006f1e 	bne	r19,zero,41734 <__mulsf3+0x2c4>
   41578:	94800094 	ori	r18,r18,2
   4157c:	00c00084 	movi	r3,2
   41580:	003fe206 	br	4150c <__mulsf3+0x9c>
   41584:	b82b883a 	mov	r21,r23
   41588:	9821883a 	mov	r16,r19
   4158c:	1829883a 	mov	r20,r3
   41590:	a08000a0 	cmpeqi	r2,r20,2
   41594:	1000261e 	bne	r2,zero,41630 <__mulsf3+0x1c0>
   41598:	a08000e0 	cmpeqi	r2,r20,3
   4159c:	1000ae1e 	bne	r2,zero,41858 <__mulsf3+0x3e8>
   415a0:	a0800060 	cmpeqi	r2,r20,1
   415a4:	10004e26 	beq	r2,zero,416e0 <__mulsf3+0x270>
   415a8:	0007883a 	mov	r3,zero
   415ac:	0009883a 	mov	r4,zero
   415b0:	1c003fcc 	andi	r16,r3,255
   415b4:	a8803fcc 	andi	r2,r21,255
   415b8:	802095fa 	slli	r16,r16,23
   415bc:	100497fa 	slli	r2,r2,31
   415c0:	8120b03a 	or	r16,r16,r4
   415c4:	8084b03a 	or	r2,r16,r2
   415c8:	dfc00a17 	ldw	ra,40(sp)
   415cc:	df000917 	ldw	fp,36(sp)
   415d0:	ddc00817 	ldw	r23,32(sp)
   415d4:	dd800717 	ldw	r22,28(sp)
   415d8:	dd400617 	ldw	r21,24(sp)
   415dc:	dd000517 	ldw	r20,20(sp)
   415e0:	dcc00417 	ldw	r19,16(sp)
   415e4:	dc800317 	ldw	r18,12(sp)
   415e8:	dc400217 	ldw	r17,8(sp)
   415ec:	dc000117 	ldw	r16,4(sp)
   415f0:	dec00b04 	addi	sp,sp,44
   415f4:	f800283a 	ret
   415f8:	80005d1e 	bne	r16,zero,41770 <__mulsf3+0x300>
   415fc:	04800104 	movi	r18,4
   41600:	0023883a 	mov	r17,zero
   41604:	05000044 	movi	r20,1
   41608:	003fb206 	br	414d4 <__mulsf3+0x64>
   4160c:	8000541e 	bne	r16,zero,41760 <__mulsf3+0x2f0>
   41610:	04800204 	movi	r18,8
   41614:	04403fc4 	movi	r17,255
   41618:	05000084 	movi	r20,2
   4161c:	003fad06 	br	414d4 <__mulsf3+0x64>
   41620:	9800471e 	bne	r19,zero,41740 <__mulsf3+0x2d0>
   41624:	94800054 	ori	r18,r18,1
   41628:	00c00044 	movi	r3,1
   4162c:	003fb706 	br	4150c <__mulsf3+0x9c>
   41630:	00ffffc4 	movi	r3,-1
   41634:	0009883a 	mov	r4,zero
   41638:	003fdd06 	br	415b0 <__mulsf3+0x140>
   4163c:	8028d43a 	srli	r20,r16,16
   41640:	9cbfffcc 	andi	r18,r19,65535
   41644:	843fffcc 	andi	r16,r16,65535
   41648:	900b883a 	mov	r5,r18
   4164c:	8009883a 	mov	r4,r16
   41650:	00446100 	call	44610 <__mulsi3>
   41654:	9826d43a 	srli	r19,r19,16
   41658:	900b883a 	mov	r5,r18
   4165c:	a009883a 	mov	r4,r20
   41660:	1025883a 	mov	r18,r2
   41664:	00446100 	call	44610 <__mulsi3>
   41668:	980b883a 	mov	r5,r19
   4166c:	a009883a 	mov	r4,r20
   41670:	1029883a 	mov	r20,r2
   41674:	00446100 	call	44610 <__mulsi3>
   41678:	9809883a 	mov	r4,r19
   4167c:	800b883a 	mov	r5,r16
   41680:	1027883a 	mov	r19,r2
   41684:	00446100 	call	44610 <__mulsi3>
   41688:	9006d43a 	srli	r3,r18,16
   4168c:	1505883a 	add	r2,r2,r20
   41690:	1887883a 	add	r3,r3,r2
   41694:	1d00022e 	bgeu	r3,r20,416a0 <__mulsf3+0x230>
   41698:	00800074 	movhi	r2,1
   4169c:	98a7883a 	add	r19,r19,r2
   416a0:	1808943a 	slli	r4,r3,16
   416a4:	1820d43a 	srli	r16,r3,16
   416a8:	94bfffcc 	andi	r18,r18,65535
   416ac:	2489883a 	add	r4,r4,r18
   416b0:	200a91ba 	slli	r5,r4,6
   416b4:	84e1883a 	add	r16,r16,r19
   416b8:	802091ba 	slli	r16,r16,6
   416bc:	2008d6ba 	srli	r4,r4,26
   416c0:	2804c03a 	cmpne	r2,r5,zero
   416c4:	80c2002c 	andhi	r3,r16,2048
   416c8:	1108b03a 	or	r4,r2,r4
   416cc:	8120b03a 	or	r16,r16,r4
   416d0:	18005b26 	beq	r3,zero,41840 <__mulsf3+0x3d0>
   416d4:	8004d07a 	srli	r2,r16,1
   416d8:	8400004c 	andi	r16,r16,1
   416dc:	1420b03a 	or	r16,r2,r16
   416e0:	e0c01fc4 	addi	r3,fp,127
   416e4:	00c0320e 	bge	zero,r3,417b0 <__mulsf3+0x340>
   416e8:	808001cc 	andi	r2,r16,7
   416ec:	10000426 	beq	r2,zero,41700 <__mulsf3+0x290>
   416f0:	808003cc 	andi	r2,r16,15
   416f4:	10800120 	cmpeqi	r2,r2,4
   416f8:	1000011e 	bne	r2,zero,41700 <__mulsf3+0x290>
   416fc:	84000104 	addi	r16,r16,4
   41700:	8082002c 	andhi	r2,r16,2048
   41704:	10000426 	beq	r2,zero,41718 <__mulsf3+0x2a8>
   41708:	00be0034 	movhi	r2,63488
   4170c:	10bfffc4 	addi	r2,r2,-1
   41710:	80a0703a 	and	r16,r16,r2
   41714:	e0c02004 	addi	r3,fp,128
   41718:	18803fc8 	cmpgei	r2,r3,255
   4171c:	103fc41e 	bne	r2,zero,41630 <__mulsf3+0x1c0>
   41720:	802091ba 	slli	r16,r16,6
   41724:	8008d27a 	srli	r4,r16,9
   41728:	003fa106 	br	415b0 <__mulsf3+0x140>
   4172c:	b02b883a 	mov	r21,r22
   41730:	003f9706 	br	41590 <__mulsf3+0x120>
   41734:	948000d4 	ori	r18,r18,3
   41738:	00c000c4 	movi	r3,3
   4173c:	003f7306 	br	4150c <__mulsf3+0x9c>
   41740:	9809883a 	mov	r4,r19
   41744:	00445bc0 	call	445bc <__clzsi2>
   41748:	10fffec4 	addi	r3,r2,-5
   4174c:	88a3c83a 	sub	r17,r17,r2
   41750:	98e6983a 	sll	r19,r19,r3
   41754:	8c7fe284 	addi	r17,r17,-118
   41758:	0007883a 	mov	r3,zero
   4175c:	003f6b06 	br	4150c <__mulsf3+0x9c>
   41760:	04800304 	movi	r18,12
   41764:	04403fc4 	movi	r17,255
   41768:	050000c4 	movi	r20,3
   4176c:	003f5906 	br	414d4 <__mulsf3+0x64>
   41770:	8009883a 	mov	r4,r16
   41774:	d9400015 	stw	r5,0(sp)
   41778:	00445bc0 	call	445bc <__clzsi2>
   4177c:	10fffec4 	addi	r3,r2,-5
   41780:	047fe284 	movi	r17,-118
   41784:	80e0983a 	sll	r16,r16,r3
   41788:	d9400017 	ldw	r5,0(sp)
   4178c:	88a3c83a 	sub	r17,r17,r2
   41790:	0025883a 	mov	r18,zero
   41794:	0029883a 	mov	r20,zero
   41798:	003f4e06 	br	414d4 <__mulsf3+0x64>
   4179c:	01002034 	movhi	r4,128
   417a0:	002b883a 	mov	r21,zero
   417a4:	213fffc4 	addi	r4,r4,-1
   417a8:	00ffffc4 	movi	r3,-1
   417ac:	003f8006 	br	415b0 <__mulsf3+0x140>
   417b0:	00800044 	movi	r2,1
   417b4:	10c7c83a 	sub	r3,r2,r3
   417b8:	18800708 	cmpgei	r2,r3,28
   417bc:	103f7a1e 	bne	r2,zero,415a8 <__mulsf3+0x138>
   417c0:	e1002784 	addi	r4,fp,158
   417c4:	8108983a 	sll	r4,r16,r4
   417c8:	80e0d83a 	srl	r16,r16,r3
   417cc:	2008c03a 	cmpne	r4,r4,zero
   417d0:	8120b03a 	or	r16,r16,r4
   417d4:	808001cc 	andi	r2,r16,7
   417d8:	10000426 	beq	r2,zero,417ec <__mulsf3+0x37c>
   417dc:	808003cc 	andi	r2,r16,15
   417e0:	10800120 	cmpeqi	r2,r2,4
   417e4:	1000011e 	bne	r2,zero,417ec <__mulsf3+0x37c>
   417e8:	84000104 	addi	r16,r16,4
   417ec:	8081002c 	andhi	r2,r16,1024
   417f0:	10001526 	beq	r2,zero,41848 <__mulsf3+0x3d8>
   417f4:	00c00044 	movi	r3,1
   417f8:	0009883a 	mov	r4,zero
   417fc:	003f6c06 	br	415b0 <__mulsf3+0x140>
   41800:	8080102c 	andhi	r2,r16,64
   41804:	10000826 	beq	r2,zero,41828 <__mulsf3+0x3b8>
   41808:	9880102c 	andhi	r2,r19,64
   4180c:	1000061e 	bne	r2,zero,41828 <__mulsf3+0x3b8>
   41810:	00802034 	movhi	r2,128
   41814:	99001034 	orhi	r4,r19,64
   41818:	10bfffc4 	addi	r2,r2,-1
   4181c:	2088703a 	and	r4,r4,r2
   41820:	b82b883a 	mov	r21,r23
   41824:	003fe006 	br	417a8 <__mulsf3+0x338>
   41828:	00802034 	movhi	r2,128
   4182c:	81001034 	orhi	r4,r16,64
   41830:	10bfffc4 	addi	r2,r2,-1
   41834:	2088703a 	and	r4,r4,r2
   41838:	b02b883a 	mov	r21,r22
   4183c:	003fda06 	br	417a8 <__mulsf3+0x338>
   41840:	8839883a 	mov	fp,r17
   41844:	003fa606 	br	416e0 <__mulsf3+0x270>
   41848:	802091ba 	slli	r16,r16,6
   4184c:	0007883a 	mov	r3,zero
   41850:	8008d27a 	srli	r4,r16,9
   41854:	003f5606 	br	415b0 <__mulsf3+0x140>
   41858:	00802034 	movhi	r2,128
   4185c:	81001034 	orhi	r4,r16,64
   41860:	10bfffc4 	addi	r2,r2,-1
   41864:	2088703a 	and	r4,r4,r2
   41868:	003fcf06 	br	417a8 <__mulsf3+0x338>

0004186c <__subsf3>:
   4186c:	2818d5fa 	srli	r12,r5,23
   41870:	2006d5fa 	srli	r3,r4,23
   41874:	200ed7fa 	srli	r7,r4,31
   41878:	01802034 	movhi	r6,128
   4187c:	defffc04 	addi	sp,sp,-16
   41880:	31bfffc4 	addi	r6,r6,-1
   41884:	63003fcc 	andi	r12,r12,255
   41888:	3108703a 	and	r4,r6,r4
   4188c:	3150703a 	and	r8,r6,r5
   41890:	1a403fcc 	andi	r9,r3,255
   41894:	dc800215 	stw	r18,8(sp)
   41898:	dc400115 	stw	r17,4(sp)
   4189c:	dfc00315 	stw	ra,12(sp)
   418a0:	dc000015 	stw	r16,0(sp)
   418a4:	63403fd8 	cmpnei	r13,r12,255
   418a8:	3823883a 	mov	r17,r7
   418ac:	201490fa 	slli	r10,r4,3
   418b0:	280ad7fa 	srli	r5,r5,31
   418b4:	401690fa 	slli	r11,r8,3
   418b8:	201d883a 	mov	r14,r4
   418bc:	4825883a 	mov	r18,r9
   418c0:	39c03fcc 	andi	r7,r7,255
   418c4:	4b0dc83a 	sub	r6,r9,r12
   418c8:	68004f26 	beq	r13,zero,41a08 <__subsf3+0x19c>
   418cc:	2b40005c 	xori	r13,r5,1
   418d0:	3b405826 	beq	r7,r13,41a34 <__subsf3+0x1c8>
   418d4:	01803b0e 	bge	zero,r6,419c4 <__subsf3+0x158>
   418d8:	60004f1e 	bne	r12,zero,41a18 <__subsf3+0x1ac>
   418dc:	58009226 	beq	r11,zero,41b28 <__subsf3+0x2bc>
   418e0:	31bfffc4 	addi	r6,r6,-1
   418e4:	3000e326 	beq	r6,zero,41c74 <__subsf3+0x408>
   418e8:	4a403fe0 	cmpeqi	r9,r9,255
   418ec:	48003f1e 	bne	r9,zero,419ec <__subsf3+0x180>
   418f0:	30800708 	cmpgei	r2,r6,28
   418f4:	10004d1e 	bne	r2,zero,41a2c <__subsf3+0x1c0>
   418f8:	00c00804 	movi	r3,32
   418fc:	1987c83a 	sub	r3,r3,r6
   41900:	58c6983a 	sll	r3,r11,r3
   41904:	5984d83a 	srl	r2,r11,r6
   41908:	180cc03a 	cmpne	r6,r3,zero
   4190c:	1184b03a 	or	r2,r2,r6
   41910:	5085c83a 	sub	r2,r10,r2
   41914:	10c1002c 	andhi	r3,r2,1024
   41918:	18008026 	beq	r3,zero,41b1c <__subsf3+0x2b0>
   4191c:	04010034 	movhi	r16,1024
   41920:	843fffc4 	addi	r16,r16,-1
   41924:	1420703a 	and	r16,r2,r16
   41928:	8009883a 	mov	r4,r16
   4192c:	00445bc0 	call	445bc <__clzsi2>
   41930:	10fffec4 	addi	r3,r2,-5
   41934:	80c4983a 	sll	r2,r16,r3
   41938:	1c809616 	blt	r3,r18,41b94 <__subsf3+0x328>
   4193c:	1c87c83a 	sub	r3,r3,r18
   41940:	1c000044 	addi	r16,r3,1
   41944:	01000804 	movi	r4,32
   41948:	2409c83a 	sub	r4,r4,r16
   4194c:	1108983a 	sll	r4,r2,r4
   41950:	1404d83a 	srl	r2,r2,r16
   41954:	0025883a 	mov	r18,zero
   41958:	2008c03a 	cmpne	r4,r4,zero
   4195c:	1104b03a 	or	r2,r2,r4
   41960:	10c001cc 	andi	r3,r2,7
   41964:	18000426 	beq	r3,zero,41978 <__subsf3+0x10c>
   41968:	10c003cc 	andi	r3,r2,15
   4196c:	18c00120 	cmpeqi	r3,r3,4
   41970:	1800011e 	bne	r3,zero,41978 <__subsf3+0x10c>
   41974:	10800104 	addi	r2,r2,4
   41978:	10c1002c 	andhi	r3,r2,1024
   4197c:	18006926 	beq	r3,zero,41b24 <__subsf3+0x2b8>
   41980:	90c00044 	addi	r3,r18,1
   41984:	19003fe0 	cmpeqi	r4,r3,255
   41988:	20006e1e 	bne	r4,zero,41b44 <__subsf3+0x2d8>
   4198c:	100491ba 	slli	r2,r2,6
   41990:	1008d27a 	srli	r4,r2,9
   41994:	18803fcc 	andi	r2,r3,255
   41998:	100495fa 	slli	r2,r2,23
   4199c:	8c403fcc 	andi	r17,r17,255
   419a0:	882297fa 	slli	r17,r17,31
   419a4:	1104b03a 	or	r2,r2,r4
   419a8:	1444b03a 	or	r2,r2,r17
   419ac:	dfc00317 	ldw	ra,12(sp)
   419b0:	dc800217 	ldw	r18,8(sp)
   419b4:	dc400117 	ldw	r17,4(sp)
   419b8:	dc000017 	ldw	r16,0(sp)
   419bc:	dec00404 	addi	sp,sp,16
   419c0:	f800283a 	ret
   419c4:	30003526 	beq	r6,zero,41a9c <__subsf3+0x230>
   419c8:	6247c83a 	sub	r3,r12,r9
   419cc:	6823883a 	mov	r17,r13
   419d0:	48007d1e 	bne	r9,zero,41bc8 <__subsf3+0x35c>
   419d4:	50009926 	beq	r10,zero,41c3c <__subsf3+0x3d0>
   419d8:	18ffffc4 	addi	r3,r3,-1
   419dc:	1800b226 	beq	r3,zero,41ca8 <__subsf3+0x43c>
   419e0:	60803fe0 	cmpeqi	r2,r12,255
   419e4:	10007b26 	beq	r2,zero,41bd4 <__subsf3+0x368>
   419e8:	401d883a 	mov	r14,r8
   419ec:	70005526 	beq	r14,zero,41b44 <__subsf3+0x2d8>
   419f0:	00802034 	movhi	r2,128
   419f4:	71001034 	orhi	r4,r14,64
   419f8:	10bfffc4 	addi	r2,r2,-1
   419fc:	2088703a 	and	r4,r4,r2
   41a00:	00ffffc4 	movi	r3,-1
   41a04:	003fe306 	br	41994 <__subsf3+0x128>
   41a08:	583fb026 	beq	r11,zero,418cc <__subsf3+0x60>
   41a0c:	2b403fcc 	andi	r13,r5,255
   41a10:	39404f26 	beq	r7,r5,41b50 <__subsf3+0x2e4>
   41a14:	01bfeb0e 	bge	zero,r6,419c4 <__subsf3+0x158>
   41a18:	4a403fe0 	cmpeqi	r9,r9,255
   41a1c:	483ff31e 	bne	r9,zero,419ec <__subsf3+0x180>
   41a20:	30800708 	cmpgei	r2,r6,28
   41a24:	5ac10034 	orhi	r11,r11,1024
   41a28:	103fb326 	beq	r2,zero,418f8 <__subsf3+0x8c>
   41a2c:	00800044 	movi	r2,1
   41a30:	003fb706 	br	41910 <__subsf3+0xa4>
   41a34:	0180460e 	bge	zero,r6,41b50 <__subsf3+0x2e4>
   41a38:	60002526 	beq	r12,zero,41ad0 <__subsf3+0x264>
   41a3c:	4a403fe0 	cmpeqi	r9,r9,255
   41a40:	483fea1e 	bne	r9,zero,419ec <__subsf3+0x180>
   41a44:	5ac10034 	orhi	r11,r11,1024
   41a48:	30800708 	cmpgei	r2,r6,28
   41a4c:	1000671e 	bne	r2,zero,41bec <__subsf3+0x380>
   41a50:	00c00804 	movi	r3,32
   41a54:	1987c83a 	sub	r3,r3,r6
   41a58:	58c6983a 	sll	r3,r11,r3
   41a5c:	5984d83a 	srl	r2,r11,r6
   41a60:	180cc03a 	cmpne	r6,r3,zero
   41a64:	1184b03a 	or	r2,r2,r6
   41a68:	1285883a 	add	r2,r2,r10
   41a6c:	10c1002c 	andhi	r3,r2,1024
   41a70:	18002a26 	beq	r3,zero,41b1c <__subsf3+0x2b0>
   41a74:	94800044 	addi	r18,r18,1
   41a78:	90c03fe0 	cmpeqi	r3,r18,255
   41a7c:	1800311e 	bne	r3,zero,41b44 <__subsf3+0x2d8>
   41a80:	1008d07a 	srli	r4,r2,1
   41a84:	00df8034 	movhi	r3,32256
   41a88:	18ffffc4 	addi	r3,r3,-1
   41a8c:	1080004c 	andi	r2,r2,1
   41a90:	20c8703a 	and	r4,r4,r3
   41a94:	2084b03a 	or	r2,r4,r2
   41a98:	003fb106 	br	41960 <__subsf3+0xf4>
   41a9c:	48800044 	addi	r2,r9,1
   41aa0:	10803f8c 	andi	r2,r2,254
   41aa4:	1000401e 	bne	r2,zero,41ba8 <__subsf3+0x33c>
   41aa8:	48006a1e 	bne	r9,zero,41c54 <__subsf3+0x3e8>
   41aac:	50008126 	beq	r10,zero,41cb4 <__subsf3+0x448>
   41ab0:	583fb826 	beq	r11,zero,41994 <__subsf3+0x128>
   41ab4:	52c5c83a 	sub	r2,r10,r11
   41ab8:	1101002c 	andhi	r4,r2,1024
   41abc:	20008126 	beq	r4,zero,41cc4 <__subsf3+0x458>
   41ac0:	5a85c83a 	sub	r2,r11,r10
   41ac4:	6823883a 	mov	r17,r13
   41ac8:	0025883a 	mov	r18,zero
   41acc:	003fa406 	br	41960 <__subsf3+0xf4>
   41ad0:	58001526 	beq	r11,zero,41b28 <__subsf3+0x2bc>
   41ad4:	31bfffc4 	addi	r6,r6,-1
   41ad8:	30006426 	beq	r6,zero,41c6c <__subsf3+0x400>
   41adc:	4a403fe0 	cmpeqi	r9,r9,255
   41ae0:	483fd926 	beq	r9,zero,41a48 <__subsf3+0x1dc>
   41ae4:	003fc106 	br	419ec <__subsf3+0x180>
   41ae8:	4c800044 	addi	r18,r9,1
   41aec:	90803f8c 	andi	r2,r18,254
   41af0:	10004d1e 	bne	r2,zero,41c28 <__subsf3+0x3bc>
   41af4:	4800611e 	bne	r9,zero,41c7c <__subsf3+0x410>
   41af8:	50007626 	beq	r10,zero,41cd4 <__subsf3+0x468>
   41afc:	583fa526 	beq	r11,zero,41994 <__subsf3+0x128>
   41b00:	52c5883a 	add	r2,r10,r11
   41b04:	10c1002c 	andhi	r3,r2,1024
   41b08:	18007426 	beq	r3,zero,41cdc <__subsf3+0x470>
   41b0c:	00ff0034 	movhi	r3,64512
   41b10:	18ffffc4 	addi	r3,r3,-1
   41b14:	10c4703a 	and	r2,r2,r3
   41b18:	04800044 	movi	r18,1
   41b1c:	10c001cc 	andi	r3,r2,7
   41b20:	183f911e 	bne	r3,zero,41968 <__subsf3+0xfc>
   41b24:	101cd0fa 	srli	r14,r2,3
   41b28:	90803fe0 	cmpeqi	r2,r18,255
   41b2c:	103faf1e 	bne	r2,zero,419ec <__subsf3+0x180>
   41b30:	00802034 	movhi	r2,128
   41b34:	10bfffc4 	addi	r2,r2,-1
   41b38:	7088703a 	and	r4,r14,r2
   41b3c:	9007883a 	mov	r3,r18
   41b40:	003f9406 	br	41994 <__subsf3+0x128>
   41b44:	00ffffc4 	movi	r3,-1
   41b48:	0009883a 	mov	r4,zero
   41b4c:	003f9106 	br	41994 <__subsf3+0x128>
   41b50:	303fe526 	beq	r6,zero,41ae8 <__subsf3+0x27c>
   41b54:	6247c83a 	sub	r3,r12,r9
   41b58:	48002d26 	beq	r9,zero,41c10 <__subsf3+0x3a4>
   41b5c:	60803fe0 	cmpeqi	r2,r12,255
   41b60:	103fa11e 	bne	r2,zero,419e8 <__subsf3+0x17c>
   41b64:	52810034 	orhi	r10,r10,1024
   41b68:	18800708 	cmpgei	r2,r3,28
   41b6c:	10004c1e 	bne	r2,zero,41ca0 <__subsf3+0x434>
   41b70:	00800804 	movi	r2,32
   41b74:	10c5c83a 	sub	r2,r2,r3
   41b78:	5084983a 	sll	r2,r10,r2
   41b7c:	50c6d83a 	srl	r3,r10,r3
   41b80:	1004c03a 	cmpne	r2,r2,zero
   41b84:	1888b03a 	or	r4,r3,r2
   41b88:	22c5883a 	add	r2,r4,r11
   41b8c:	6025883a 	mov	r18,r12
   41b90:	003fb606 	br	41a6c <__subsf3+0x200>
   41b94:	013f0034 	movhi	r4,64512
   41b98:	213fffc4 	addi	r4,r4,-1
   41b9c:	90e5c83a 	sub	r18,r18,r3
   41ba0:	1104703a 	and	r2,r2,r4
   41ba4:	003f6e06 	br	41960 <__subsf3+0xf4>
   41ba8:	52e1c83a 	sub	r16,r10,r11
   41bac:	8081002c 	andhi	r2,r16,1024
   41bb0:	1000251e 	bne	r2,zero,41c48 <__subsf3+0x3dc>
   41bb4:	803f5c1e 	bne	r16,zero,41928 <__subsf3+0xbc>
   41bb8:	0023883a 	mov	r17,zero
   41bbc:	0007883a 	mov	r3,zero
   41bc0:	0009883a 	mov	r4,zero
   41bc4:	003f7306 	br	41994 <__subsf3+0x128>
   41bc8:	60803fe0 	cmpeqi	r2,r12,255
   41bcc:	103f861e 	bne	r2,zero,419e8 <__subsf3+0x17c>
   41bd0:	52810034 	orhi	r10,r10,1024
   41bd4:	18800708 	cmpgei	r2,r3,28
   41bd8:	10000626 	beq	r2,zero,41bf4 <__subsf3+0x388>
   41bdc:	01000044 	movi	r4,1
   41be0:	5905c83a 	sub	r2,r11,r4
   41be4:	6025883a 	mov	r18,r12
   41be8:	003f4a06 	br	41914 <__subsf3+0xa8>
   41bec:	00800044 	movi	r2,1
   41bf0:	003f9d06 	br	41a68 <__subsf3+0x1fc>
   41bf4:	00800804 	movi	r2,32
   41bf8:	10c5c83a 	sub	r2,r2,r3
   41bfc:	5084983a 	sll	r2,r10,r2
   41c00:	50c6d83a 	srl	r3,r10,r3
   41c04:	1004c03a 	cmpne	r2,r2,zero
   41c08:	1888b03a 	or	r4,r3,r2
   41c0c:	003ff406 	br	41be0 <__subsf3+0x374>
   41c10:	50000a26 	beq	r10,zero,41c3c <__subsf3+0x3d0>
   41c14:	18ffffc4 	addi	r3,r3,-1
   41c18:	18003226 	beq	r3,zero,41ce4 <__subsf3+0x478>
   41c1c:	60803fe0 	cmpeqi	r2,r12,255
   41c20:	103fd126 	beq	r2,zero,41b68 <__subsf3+0x2fc>
   41c24:	003f7006 	br	419e8 <__subsf3+0x17c>
   41c28:	90803fe0 	cmpeqi	r2,r18,255
   41c2c:	103fc51e 	bne	r2,zero,41b44 <__subsf3+0x2d8>
   41c30:	52c5883a 	add	r2,r10,r11
   41c34:	1004d07a 	srli	r2,r2,1
   41c38:	003fb806 	br	41b1c <__subsf3+0x2b0>
   41c3c:	401d883a 	mov	r14,r8
   41c40:	6025883a 	mov	r18,r12
   41c44:	003fb806 	br	41b28 <__subsf3+0x2bc>
   41c48:	5aa1c83a 	sub	r16,r11,r10
   41c4c:	6823883a 	mov	r17,r13
   41c50:	003f3506 	br	41928 <__subsf3+0xbc>
   41c54:	50000a1e 	bne	r10,zero,41c80 <__subsf3+0x414>
   41c58:	58000e1e 	bne	r11,zero,41c94 <__subsf3+0x428>
   41c5c:	01002034 	movhi	r4,128
   41c60:	0023883a 	mov	r17,zero
   41c64:	213fffc4 	addi	r4,r4,-1
   41c68:	003f6506 	br	41a00 <__subsf3+0x194>
   41c6c:	52c5883a 	add	r2,r10,r11
   41c70:	003f7e06 	br	41a6c <__subsf3+0x200>
   41c74:	52c5c83a 	sub	r2,r10,r11
   41c78:	003f2606 	br	41914 <__subsf3+0xa8>
   41c7c:	503f5a26 	beq	r10,zero,419e8 <__subsf3+0x17c>
   41c80:	583f5a26 	beq	r11,zero,419ec <__subsf3+0x180>
   41c84:	2080102c 	andhi	r2,r4,64
   41c88:	103f5826 	beq	r2,zero,419ec <__subsf3+0x180>
   41c8c:	4080102c 	andhi	r2,r8,64
   41c90:	103f561e 	bne	r2,zero,419ec <__subsf3+0x180>
   41c94:	6823883a 	mov	r17,r13
   41c98:	401d883a 	mov	r14,r8
   41c9c:	003f5306 	br	419ec <__subsf3+0x180>
   41ca0:	01000044 	movi	r4,1
   41ca4:	003fb806 	br	41b88 <__subsf3+0x31c>
   41ca8:	5a85c83a 	sub	r2,r11,r10
   41cac:	6025883a 	mov	r18,r12
   41cb0:	003f1806 	br	41914 <__subsf3+0xa8>
   41cb4:	58000426 	beq	r11,zero,41cc8 <__subsf3+0x45c>
   41cb8:	6823883a 	mov	r17,r13
   41cbc:	4009883a 	mov	r4,r8
   41cc0:	003f3406 	br	41994 <__subsf3+0x128>
   41cc4:	1000051e 	bne	r2,zero,41cdc <__subsf3+0x470>
   41cc8:	0023883a 	mov	r17,zero
   41ccc:	0009883a 	mov	r4,zero
   41cd0:	003f3006 	br	41994 <__subsf3+0x128>
   41cd4:	4009883a 	mov	r4,r8
   41cd8:	003f2e06 	br	41994 <__subsf3+0x128>
   41cdc:	0025883a 	mov	r18,zero
   41ce0:	003f8e06 	br	41b1c <__subsf3+0x2b0>
   41ce4:	52c5883a 	add	r2,r10,r11
   41ce8:	6025883a 	mov	r18,r12
   41cec:	003f5f06 	br	41a6c <__subsf3+0x200>

00041cf0 <__fixsfsi>:
   41cf0:	200ad5fa 	srli	r5,r4,23
   41cf4:	00c02034 	movhi	r3,128
   41cf8:	18ffffc4 	addi	r3,r3,-1
   41cfc:	29403fcc 	andi	r5,r5,255
   41d00:	29801ff0 	cmpltui	r6,r5,127
   41d04:	200ed7fa 	srli	r7,r4,31
   41d08:	1906703a 	and	r3,r3,r4
   41d0c:	3000061e 	bne	r6,zero,41d28 <__fixsfsi+0x38>
   41d10:	288027b0 	cmpltui	r2,r5,158
   41d14:	1000061e 	bne	r2,zero,41d30 <__fixsfsi+0x40>
   41d18:	00a00034 	movhi	r2,32768
   41d1c:	10bfffc4 	addi	r2,r2,-1
   41d20:	3885883a 	add	r2,r7,r2
   41d24:	f800283a 	ret
   41d28:	0005883a 	mov	r2,zero
   41d2c:	f800283a 	ret
   41d30:	28802590 	cmplti	r2,r5,150
   41d34:	18c02034 	orhi	r3,r3,128
   41d38:	1000051e 	bne	r2,zero,41d50 <__fixsfsi+0x60>
   41d3c:	28bfda84 	addi	r2,r5,-150
   41d40:	1884983a 	sll	r2,r3,r2
   41d44:	383ff926 	beq	r7,zero,41d2c <__fixsfsi+0x3c>
   41d48:	0085c83a 	sub	r2,zero,r2
   41d4c:	f800283a 	ret
   41d50:	00802584 	movi	r2,150
   41d54:	1145c83a 	sub	r2,r2,r5
   41d58:	1884d83a 	srl	r2,r3,r2
   41d5c:	003ff906 	br	41d44 <__fixsfsi+0x54>

00041d60 <__floatsisf>:
   41d60:	defffd04 	addi	sp,sp,-12
   41d64:	dfc00215 	stw	ra,8(sp)
   41d68:	dc400115 	stw	r17,4(sp)
   41d6c:	dc000015 	stw	r16,0(sp)
   41d70:	20001226 	beq	r4,zero,41dbc <__floatsisf+0x5c>
   41d74:	2022d7fa 	srli	r17,r4,31
   41d78:	2021883a 	mov	r16,r4
   41d7c:	20001d16 	blt	r4,zero,41df4 <__floatsisf+0x94>
   41d80:	8009883a 	mov	r4,r16
   41d84:	00445bc0 	call	445bc <__clzsi2>
   41d88:	100b883a 	mov	r5,r2
   41d8c:	00802784 	movi	r2,158
   41d90:	1145c83a 	sub	r2,r2,r5
   41d94:	10c025c8 	cmpgei	r3,r2,151
   41d98:	1800181e 	bne	r3,zero,41dfc <__floatsisf+0x9c>
   41d9c:	28c00248 	cmpgei	r3,r5,9
   41da0:	18003426 	beq	r3,zero,41e74 <__floatsisf+0x114>
   41da4:	297ffe04 	addi	r5,r5,-8
   41da8:	8160983a 	sll	r16,r16,r5
   41dac:	00c02034 	movhi	r3,128
   41db0:	18ffffc4 	addi	r3,r3,-1
   41db4:	80e0703a 	and	r16,r16,r3
   41db8:	00000306 	br	41dc8 <__floatsisf+0x68>
   41dbc:	0023883a 	mov	r17,zero
   41dc0:	0005883a 	mov	r2,zero
   41dc4:	0021883a 	mov	r16,zero
   41dc8:	10803fcc 	andi	r2,r2,255
   41dcc:	100495fa 	slli	r2,r2,23
   41dd0:	8c403fcc 	andi	r17,r17,255
   41dd4:	882297fa 	slli	r17,r17,31
   41dd8:	1404b03a 	or	r2,r2,r16
   41ddc:	1444b03a 	or	r2,r2,r17
   41de0:	dfc00217 	ldw	ra,8(sp)
   41de4:	dc400117 	ldw	r17,4(sp)
   41de8:	dc000017 	ldw	r16,0(sp)
   41dec:	dec00304 	addi	sp,sp,12
   41df0:	f800283a 	ret
   41df4:	0121c83a 	sub	r16,zero,r4
   41df8:	003fe106 	br	41d80 <__floatsisf+0x20>
   41dfc:	10c02690 	cmplti	r3,r2,154
   41e00:	1800071e 	bne	r3,zero,41e20 <__floatsisf+0xc0>
   41e04:	28c006c4 	addi	r3,r5,27
   41e08:	01000144 	movi	r4,5
   41e0c:	80c6983a 	sll	r3,r16,r3
   41e10:	2149c83a 	sub	r4,r4,r5
   41e14:	8120d83a 	srl	r16,r16,r4
   41e18:	1806c03a 	cmpne	r3,r3,zero
   41e1c:	80e0b03a 	or	r16,r16,r3
   41e20:	28c00190 	cmplti	r3,r5,6
   41e24:	1800021e 	bne	r3,zero,41e30 <__floatsisf+0xd0>
   41e28:	28fffec4 	addi	r3,r5,-5
   41e2c:	80e0983a 	sll	r16,r16,r3
   41e30:	00ff0034 	movhi	r3,64512
   41e34:	18ffffc4 	addi	r3,r3,-1
   41e38:	810001cc 	andi	r4,r16,7
   41e3c:	80cc703a 	and	r6,r16,r3
   41e40:	20000926 	beq	r4,zero,41e68 <__floatsisf+0x108>
   41e44:	810003cc 	andi	r4,r16,15
   41e48:	21000120 	cmpeqi	r4,r4,4
   41e4c:	2000061e 	bne	r4,zero,41e68 <__floatsisf+0x108>
   41e50:	31800104 	addi	r6,r6,4
   41e54:	3101002c 	andhi	r4,r6,1024
   41e58:	20000326 	beq	r4,zero,41e68 <__floatsisf+0x108>
   41e5c:	30cc703a 	and	r6,r6,r3
   41e60:	00c027c4 	movi	r3,159
   41e64:	1945c83a 	sub	r2,r3,r5
   41e68:	302091ba 	slli	r16,r6,6
   41e6c:	8020d27a 	srli	r16,r16,9
   41e70:	003fd506 	br	41dc8 <__floatsisf+0x68>
   41e74:	01002034 	movhi	r4,128
   41e78:	213fffc4 	addi	r4,r4,-1
   41e7c:	8120703a 	and	r16,r16,r4
   41e80:	003fd106 	br	41dc8 <__floatsisf+0x68>

00041e84 <__adddf3>:
   41e84:	02000434 	movhi	r8,16
   41e88:	423fffc4 	addi	r8,r8,-1
   41e8c:	3a12703a 	and	r9,r7,r8
   41e90:	2a06703a 	and	r3,r5,r8
   41e94:	2818d53a 	srli	r12,r5,20
   41e98:	3804d53a 	srli	r2,r7,20
   41e9c:	481490fa 	slli	r10,r9,3
   41ea0:	280ad7fa 	srli	r5,r5,31
   41ea4:	180690fa 	slli	r3,r3,3
   41ea8:	2016d77a 	srli	r11,r4,29
   41eac:	3012d77a 	srli	r9,r6,29
   41eb0:	380ed7fa 	srli	r7,r7,31
   41eb4:	defffb04 	addi	sp,sp,-20
   41eb8:	dc400115 	stw	r17,4(sp)
   41ebc:	dc000015 	stw	r16,0(sp)
   41ec0:	dfc00415 	stw	ra,16(sp)
   41ec4:	dcc00315 	stw	r19,12(sp)
   41ec8:	dc800215 	stw	r18,8(sp)
   41ecc:	201c90fa 	slli	r14,r4,3
   41ed0:	301a90fa 	slli	r13,r6,3
   41ed4:	6441ffcc 	andi	r17,r12,2047
   41ed8:	2821883a 	mov	r16,r5
   41edc:	58c6b03a 	or	r3,r11,r3
   41ee0:	1081ffcc 	andi	r2,r2,2047
   41ee4:	4a92b03a 	or	r9,r9,r10
   41ee8:	29c06326 	beq	r5,r7,42078 <__adddf3+0x1f4>
   41eec:	888bc83a 	sub	r5,r17,r2
   41ef0:	0140560e 	bge	zero,r5,4204c <__adddf3+0x1c8>
   41ef4:	10007526 	beq	r2,zero,420cc <__adddf3+0x248>
   41ef8:	8881ffd8 	cmpnei	r2,r17,2047
   41efc:	10012d26 	beq	r2,zero,423b4 <__adddf3+0x530>
   41f00:	4a402034 	orhi	r9,r9,128
   41f04:	28800e48 	cmpgei	r2,r5,57
   41f08:	1000f41e 	bne	r2,zero,422dc <__adddf3+0x458>
   41f0c:	28800808 	cmpgei	r2,r5,32
   41f10:	1001471e 	bne	r2,zero,42430 <__adddf3+0x5ac>
   41f14:	00800804 	movi	r2,32
   41f18:	1145c83a 	sub	r2,r2,r5
   41f1c:	6948d83a 	srl	r4,r13,r5
   41f20:	48a4983a 	sll	r18,r9,r2
   41f24:	6884983a 	sll	r2,r13,r2
   41f28:	494ad83a 	srl	r5,r9,r5
   41f2c:	9124b03a 	or	r18,r18,r4
   41f30:	101ac03a 	cmpne	r13,r2,zero
   41f34:	9364b03a 	or	r18,r18,r13
   41f38:	1947c83a 	sub	r3,r3,r5
   41f3c:	74a5c83a 	sub	r18,r14,r18
   41f40:	7489803a 	cmpltu	r4,r14,r18
   41f44:	1909c83a 	sub	r4,r3,r4
   41f48:	2080202c 	andhi	r2,r4,128
   41f4c:	10008626 	beq	r2,zero,42168 <__adddf3+0x2e4>
   41f50:	00802034 	movhi	r2,128
   41f54:	10bfffc4 	addi	r2,r2,-1
   41f58:	20a6703a 	and	r19,r4,r2
   41f5c:	9800d626 	beq	r19,zero,422b8 <__adddf3+0x434>
   41f60:	9809883a 	mov	r4,r19
   41f64:	00445bc0 	call	445bc <__clzsi2>
   41f68:	133ffe04 	addi	r12,r2,-8
   41f6c:	01000804 	movi	r4,32
   41f70:	2309c83a 	sub	r4,r4,r12
   41f74:	9108d83a 	srl	r4,r18,r4
   41f78:	9b04983a 	sll	r2,r19,r12
   41f7c:	9324983a 	sll	r18,r18,r12
   41f80:	2088b03a 	or	r4,r4,r2
   41f84:	6440c716 	blt	r12,r17,422a4 <__adddf3+0x420>
   41f88:	6459c83a 	sub	r12,r12,r17
   41f8c:	62000044 	addi	r8,r12,1
   41f90:	40800808 	cmpgei	r2,r8,32
   41f94:	1001191e 	bne	r2,zero,423fc <__adddf3+0x578>
   41f98:	00800804 	movi	r2,32
   41f9c:	1205c83a 	sub	r2,r2,r8
   41fa0:	9206d83a 	srl	r3,r18,r8
   41fa4:	90a4983a 	sll	r18,r18,r2
   41fa8:	2084983a 	sll	r2,r4,r2
   41fac:	2208d83a 	srl	r4,r4,r8
   41fb0:	9024c03a 	cmpne	r18,r18,zero
   41fb4:	10c4b03a 	or	r2,r2,r3
   41fb8:	14a4b03a 	or	r18,r2,r18
   41fbc:	0023883a 	mov	r17,zero
   41fc0:	908001cc 	andi	r2,r18,7
   41fc4:	10000726 	beq	r2,zero,41fe4 <__adddf3+0x160>
   41fc8:	908003cc 	andi	r2,r18,15
   41fcc:	10800120 	cmpeqi	r2,r2,4
   41fd0:	1000041e 	bne	r2,zero,41fe4 <__adddf3+0x160>
   41fd4:	90c00104 	addi	r3,r18,4
   41fd8:	1ca5803a 	cmpltu	r18,r3,r18
   41fdc:	2489883a 	add	r4,r4,r18
   41fe0:	1825883a 	mov	r18,r3
   41fe4:	2080202c 	andhi	r2,r4,128
   41fe8:	10006126 	beq	r2,zero,42170 <__adddf3+0x2ec>
   41fec:	89400044 	addi	r5,r17,1
   41ff0:	2881ffe0 	cmpeqi	r2,r5,2047
   41ff4:	2941ffcc 	andi	r5,r5,2047
   41ff8:	1000731e 	bne	r2,zero,421c8 <__adddf3+0x344>
   41ffc:	023fe034 	movhi	r8,65408
   42000:	423fffc4 	addi	r8,r8,-1
   42004:	2210703a 	and	r8,r4,r8
   42008:	4006927a 	slli	r3,r8,9
   4200c:	9024d0fa 	srli	r18,r18,3
   42010:	4004977a 	slli	r2,r8,29
   42014:	1806d33a 	srli	r3,r3,12
   42018:	1484b03a 	or	r2,r2,r18
   4201c:	280a953a 	slli	r5,r5,20
   42020:	84003fcc 	andi	r16,r16,255
   42024:	802097fa 	slli	r16,r16,31
   42028:	28c6b03a 	or	r3,r5,r3
   4202c:	1c06b03a 	or	r3,r3,r16
   42030:	dfc00417 	ldw	ra,16(sp)
   42034:	dcc00317 	ldw	r19,12(sp)
   42038:	dc800217 	ldw	r18,8(sp)
   4203c:	dc400117 	ldw	r17,4(sp)
   42040:	dc000017 	ldw	r16,0(sp)
   42044:	dec00504 	addi	sp,sp,20
   42048:	f800283a 	ret
   4204c:	28002726 	beq	r5,zero,420ec <__adddf3+0x268>
   42050:	144bc83a 	sub	r5,r2,r17
   42054:	8800be1e 	bne	r17,zero,42350 <__adddf3+0x4cc>
   42058:	1b88b03a 	or	r4,r3,r14
   4205c:	20013126 	beq	r4,zero,42524 <__adddf3+0x6a0>
   42060:	293fffc4 	addi	r4,r5,-1
   42064:	20017226 	beq	r4,zero,42630 <__adddf3+0x7ac>
   42068:	2941ffd8 	cmpnei	r5,r5,2047
   4206c:	2801c226 	beq	r5,zero,42778 <__adddf3+0x8f4>
   42070:	200b883a 	mov	r5,r4
   42074:	0000b906 	br	4235c <__adddf3+0x4d8>
   42078:	888bc83a 	sub	r5,r17,r2
   4207c:	0140700e 	bge	zero,r5,42240 <__adddf3+0x3bc>
   42080:	10002a26 	beq	r2,zero,4212c <__adddf3+0x2a8>
   42084:	8881ffd8 	cmpnei	r2,r17,2047
   42088:	1000ca26 	beq	r2,zero,423b4 <__adddf3+0x530>
   4208c:	4a402034 	orhi	r9,r9,128
   42090:	28800e48 	cmpgei	r2,r5,57
   42094:	1000421e 	bne	r2,zero,421a0 <__adddf3+0x31c>
   42098:	28800808 	cmpgei	r2,r5,32
   4209c:	1000ff26 	beq	r2,zero,4249c <__adddf3+0x618>
   420a0:	2cbff804 	addi	r18,r5,-32
   420a4:	29000820 	cmpeqi	r4,r5,32
   420a8:	4c84d83a 	srl	r2,r9,r18
   420ac:	2000041e 	bne	r4,zero,420c0 <__adddf3+0x23c>
   420b0:	01001004 	movi	r4,64
   420b4:	214bc83a 	sub	r5,r4,r5
   420b8:	4952983a 	sll	r9,r9,r5
   420bc:	6a5ab03a 	or	r13,r13,r9
   420c0:	6824c03a 	cmpne	r18,r13,zero
   420c4:	90a4b03a 	or	r18,r18,r2
   420c8:	00003706 	br	421a8 <__adddf3+0x324>
   420cc:	4b44b03a 	or	r2,r9,r13
   420d0:	1000b126 	beq	r2,zero,42398 <__adddf3+0x514>
   420d4:	28bfffc4 	addi	r2,r5,-1
   420d8:	10011a26 	beq	r2,zero,42544 <__adddf3+0x6c0>
   420dc:	2941ffd8 	cmpnei	r5,r5,2047
   420e0:	28012526 	beq	r5,zero,42578 <__adddf3+0x6f4>
   420e4:	100b883a 	mov	r5,r2
   420e8:	003f8606 	br	41f04 <__adddf3+0x80>
   420ec:	8a800044 	addi	r10,r17,1
   420f0:	5281ff8c 	andi	r10,r10,2046
   420f4:	50008b1e 	bne	r10,zero,42324 <__adddf3+0x4a0>
   420f8:	1b96b03a 	or	r11,r3,r14
   420fc:	4b44b03a 	or	r2,r9,r13
   42100:	8801031e 	bne	r17,zero,42510 <__adddf3+0x68c>
   42104:	58014126 	beq	r11,zero,4260c <__adddf3+0x788>
   42108:	1001571e 	bne	r2,zero,42668 <__adddf3+0x7e4>
   4210c:	1804977a 	slli	r2,r3,29
   42110:	01480034 	movhi	r5,8192
   42114:	297fffc4 	addi	r5,r5,-1
   42118:	2148703a 	and	r4,r4,r5
   4211c:	1810d0fa 	srli	r8,r3,3
   42120:	1104b03a 	or	r2,r2,r4
   42124:	500b883a 	mov	r5,r10
   42128:	00001806 	br	4218c <__adddf3+0x308>
   4212c:	4b44b03a 	or	r2,r9,r13
   42130:	10010a26 	beq	r2,zero,4255c <__adddf3+0x6d8>
   42134:	28bfffc4 	addi	r2,r5,-1
   42138:	10000426 	beq	r2,zero,4214c <__adddf3+0x2c8>
   4213c:	2941ffd8 	cmpnei	r5,r5,2047
   42140:	28014226 	beq	r5,zero,4264c <__adddf3+0x7c8>
   42144:	100b883a 	mov	r5,r2
   42148:	003fd106 	br	42090 <__adddf3+0x20c>
   4214c:	7365883a 	add	r18,r14,r13
   42150:	1a47883a 	add	r3,r3,r9
   42154:	9389803a 	cmpltu	r4,r18,r14
   42158:	1909883a 	add	r4,r3,r4
   4215c:	2080202c 	andhi	r2,r4,128
   42160:	10009b1e 	bne	r2,zero,423d0 <__adddf3+0x54c>
   42164:	04400044 	movi	r17,1
   42168:	908001cc 	andi	r2,r18,7
   4216c:	103f961e 	bne	r2,zero,41fc8 <__adddf3+0x144>
   42170:	9024d0fa 	srli	r18,r18,3
   42174:	2004977a 	slli	r2,r4,29
   42178:	2010d0fa 	srli	r8,r4,3
   4217c:	880b883a 	mov	r5,r17
   42180:	9084b03a 	or	r2,r18,r2
   42184:	28c1ffe0 	cmpeqi	r3,r5,2047
   42188:	1800251e 	bne	r3,zero,42220 <__adddf3+0x39c>
   4218c:	00c00434 	movhi	r3,16
   42190:	18ffffc4 	addi	r3,r3,-1
   42194:	40c6703a 	and	r3,r8,r3
   42198:	2941ffcc 	andi	r5,r5,2047
   4219c:	003f9f06 	br	4201c <__adddf3+0x198>
   421a0:	4b64b03a 	or	r18,r9,r13
   421a4:	9024c03a 	cmpne	r18,r18,zero
   421a8:	93a5883a 	add	r18,r18,r14
   421ac:	9389803a 	cmpltu	r4,r18,r14
   421b0:	20c9883a 	add	r4,r4,r3
   421b4:	2080202c 	andhi	r2,r4,128
   421b8:	103feb26 	beq	r2,zero,42168 <__adddf3+0x2e4>
   421bc:	8c400044 	addi	r17,r17,1
   421c0:	8881ffe0 	cmpeqi	r2,r17,2047
   421c4:	10008326 	beq	r2,zero,423d4 <__adddf3+0x550>
   421c8:	0141ffc4 	movi	r5,2047
   421cc:	0007883a 	mov	r3,zero
   421d0:	0005883a 	mov	r2,zero
   421d4:	003f9106 	br	4201c <__adddf3+0x198>
   421d8:	4b44b03a 	or	r2,r9,r13
   421dc:	180a977a 	slli	r5,r3,29
   421e0:	1810d0fa 	srli	r8,r3,3
   421e4:	10016c26 	beq	r2,zero,42798 <__adddf3+0x914>
   421e8:	00c80034 	movhi	r3,8192
   421ec:	18ffffc4 	addi	r3,r3,-1
   421f0:	20c4703a 	and	r2,r4,r3
   421f4:	4100022c 	andhi	r4,r8,8
   421f8:	1144b03a 	or	r2,r2,r5
   421fc:	20000826 	beq	r4,zero,42220 <__adddf3+0x39c>
   42200:	4808d0fa 	srli	r4,r9,3
   42204:	2140022c 	andhi	r5,r4,8
   42208:	2800051e 	bne	r5,zero,42220 <__adddf3+0x39c>
   4220c:	4804977a 	slli	r2,r9,29
   42210:	30cc703a 	and	r6,r6,r3
   42214:	3821883a 	mov	r16,r7
   42218:	3084b03a 	or	r2,r6,r2
   4221c:	2011883a 	mov	r8,r4
   42220:	4086b03a 	or	r3,r8,r2
   42224:	18017126 	beq	r3,zero,427ec <__adddf3+0x968>
   42228:	01000434 	movhi	r4,16
   4222c:	40c00234 	orhi	r3,r8,8
   42230:	213fffc4 	addi	r4,r4,-1
   42234:	1906703a 	and	r3,r3,r4
   42238:	0141ffc4 	movi	r5,2047
   4223c:	003f7706 	br	4201c <__adddf3+0x198>
   42240:	28002926 	beq	r5,zero,422e8 <__adddf3+0x464>
   42244:	144bc83a 	sub	r5,r2,r17
   42248:	88008c26 	beq	r17,zero,4247c <__adddf3+0x5f8>
   4224c:	1101ffd8 	cmpnei	r4,r2,2047
   42250:	20011126 	beq	r4,zero,42698 <__adddf3+0x814>
   42254:	18c02034 	orhi	r3,r3,128
   42258:	29000e48 	cmpgei	r4,r5,57
   4225c:	2000d51e 	bne	r4,zero,425b4 <__adddf3+0x730>
   42260:	29000808 	cmpgei	r4,r5,32
   42264:	2001511e 	bne	r4,zero,427ac <__adddf3+0x928>
   42268:	01000804 	movi	r4,32
   4226c:	2149c83a 	sub	r4,r4,r5
   42270:	1924983a 	sll	r18,r3,r4
   42274:	714cd83a 	srl	r6,r14,r5
   42278:	7108983a 	sll	r4,r14,r4
   4227c:	194ad83a 	srl	r5,r3,r5
   42280:	91a4b03a 	or	r18,r18,r6
   42284:	2006c03a 	cmpne	r3,r4,zero
   42288:	90e4b03a 	or	r18,r18,r3
   4228c:	4953883a 	add	r9,r9,r5
   42290:	9365883a 	add	r18,r18,r13
   42294:	9349803a 	cmpltu	r4,r18,r13
   42298:	2249883a 	add	r4,r4,r9
   4229c:	1023883a 	mov	r17,r2
   422a0:	003fc406 	br	421b4 <__adddf3+0x330>
   422a4:	023fe034 	movhi	r8,65408
   422a8:	423fffc4 	addi	r8,r8,-1
   422ac:	8b23c83a 	sub	r17,r17,r12
   422b0:	2208703a 	and	r4,r4,r8
   422b4:	003f4206 	br	41fc0 <__adddf3+0x13c>
   422b8:	9009883a 	mov	r4,r18
   422bc:	00445bc0 	call	445bc <__clzsi2>
   422c0:	13000604 	addi	r12,r2,24
   422c4:	60c00808 	cmpgei	r3,r12,32
   422c8:	183f2826 	beq	r3,zero,41f6c <__adddf3+0xe8>
   422cc:	113ffe04 	addi	r4,r2,-8
   422d0:	9108983a 	sll	r4,r18,r4
   422d4:	0025883a 	mov	r18,zero
   422d8:	003f2a06 	br	41f84 <__adddf3+0x100>
   422dc:	4b64b03a 	or	r18,r9,r13
   422e0:	9024c03a 	cmpne	r18,r18,zero
   422e4:	003f1506 	br	41f3c <__adddf3+0xb8>
   422e8:	8a000044 	addi	r8,r17,1
   422ec:	4081ff8c 	andi	r2,r8,2046
   422f0:	1000751e 	bne	r2,zero,424c8 <__adddf3+0x644>
   422f4:	1b84b03a 	or	r2,r3,r14
   422f8:	8800bc1e 	bne	r17,zero,425ec <__adddf3+0x768>
   422fc:	10010c26 	beq	r2,zero,42730 <__adddf3+0x8ac>
   42300:	4b44b03a 	or	r2,r9,r13
   42304:	1001111e 	bne	r2,zero,4274c <__adddf3+0x8c8>
   42308:	180c977a 	slli	r6,r3,29
   4230c:	00880034 	movhi	r2,8192
   42310:	10bfffc4 	addi	r2,r2,-1
   42314:	2084703a 	and	r2,r4,r2
   42318:	1810d0fa 	srli	r8,r3,3
   4231c:	1184b03a 	or	r2,r2,r6
   42320:	003f9a06 	br	4218c <__adddf3+0x308>
   42324:	7365c83a 	sub	r18,r14,r13
   42328:	1a67c83a 	sub	r19,r3,r9
   4232c:	7489803a 	cmpltu	r4,r14,r18
   42330:	9927c83a 	sub	r19,r19,r4
   42334:	9880202c 	andhi	r2,r19,128
   42338:	10006f1e 	bne	r2,zero,424f8 <__adddf3+0x674>
   4233c:	94c4b03a 	or	r2,r18,r19
   42340:	103f061e 	bne	r2,zero,41f5c <__adddf3+0xd8>
   42344:	0011883a 	mov	r8,zero
   42348:	0021883a 	mov	r16,zero
   4234c:	003f8f06 	br	4218c <__adddf3+0x308>
   42350:	1101ffd8 	cmpnei	r4,r2,2047
   42354:	20008f26 	beq	r4,zero,42594 <__adddf3+0x710>
   42358:	18c02034 	orhi	r3,r3,128
   4235c:	29000e48 	cmpgei	r4,r5,57
   42360:	20003e1e 	bne	r4,zero,4245c <__adddf3+0x5d8>
   42364:	29000808 	cmpgei	r4,r5,32
   42368:	2000951e 	bne	r4,zero,425c0 <__adddf3+0x73c>
   4236c:	01000804 	movi	r4,32
   42370:	2149c83a 	sub	r4,r4,r5
   42374:	1924983a 	sll	r18,r3,r4
   42378:	714cd83a 	srl	r6,r14,r5
   4237c:	711c983a 	sll	r14,r14,r4
   42380:	1946d83a 	srl	r3,r3,r5
   42384:	91a4b03a 	or	r18,r18,r6
   42388:	701cc03a 	cmpne	r14,r14,zero
   4238c:	93a4b03a 	or	r18,r18,r14
   42390:	48d3c83a 	sub	r9,r9,r3
   42394:	00003306 	br	42464 <__adddf3+0x5e0>
   42398:	1824977a 	slli	r18,r3,29
   4239c:	01880034 	movhi	r6,8192
   423a0:	31bfffc4 	addi	r6,r6,-1
   423a4:	2184703a 	and	r2,r4,r6
   423a8:	1810d0fa 	srli	r8,r3,3
   423ac:	1484b03a 	or	r2,r2,r18
   423b0:	003f7406 	br	42184 <__adddf3+0x300>
   423b4:	1804977a 	slli	r2,r3,29
   423b8:	01480034 	movhi	r5,8192
   423bc:	297fffc4 	addi	r5,r5,-1
   423c0:	2148703a 	and	r4,r4,r5
   423c4:	1810d0fa 	srli	r8,r3,3
   423c8:	1104b03a 	or	r2,r2,r4
   423cc:	003f9406 	br	42220 <__adddf3+0x39c>
   423d0:	04400084 	movi	r17,2
   423d4:	00bfe034 	movhi	r2,65408
   423d8:	10bfffc4 	addi	r2,r2,-1
   423dc:	9006d07a 	srli	r3,r18,1
   423e0:	2088703a 	and	r4,r4,r2
   423e4:	200497fa 	slli	r2,r4,31
   423e8:	9480004c 	andi	r18,r18,1
   423ec:	1ca4b03a 	or	r18,r3,r18
   423f0:	2008d07a 	srli	r4,r4,1
   423f4:	14a4b03a 	or	r18,r2,r18
   423f8:	003ef106 	br	41fc0 <__adddf3+0x13c>
   423fc:	633ff844 	addi	r12,r12,-31
   42400:	40800820 	cmpeqi	r2,r8,32
   42404:	2318d83a 	srl	r12,r4,r12
   42408:	1000041e 	bne	r2,zero,4241c <__adddf3+0x598>
   4240c:	00801004 	movi	r2,64
   42410:	1211c83a 	sub	r8,r2,r8
   42414:	2208983a 	sll	r4,r4,r8
   42418:	9124b03a 	or	r18,r18,r4
   4241c:	9024c03a 	cmpne	r18,r18,zero
   42420:	9324b03a 	or	r18,r18,r12
   42424:	0009883a 	mov	r4,zero
   42428:	0023883a 	mov	r17,zero
   4242c:	003f4e06 	br	42168 <__adddf3+0x2e4>
   42430:	2cbff804 	addi	r18,r5,-32
   42434:	29000820 	cmpeqi	r4,r5,32
   42438:	4c84d83a 	srl	r2,r9,r18
   4243c:	2000041e 	bne	r4,zero,42450 <__adddf3+0x5cc>
   42440:	01001004 	movi	r4,64
   42444:	214bc83a 	sub	r5,r4,r5
   42448:	4952983a 	sll	r9,r9,r5
   4244c:	6a5ab03a 	or	r13,r13,r9
   42450:	6824c03a 	cmpne	r18,r13,zero
   42454:	90a4b03a 	or	r18,r18,r2
   42458:	003eb806 	br	41f3c <__adddf3+0xb8>
   4245c:	1b88b03a 	or	r4,r3,r14
   42460:	2024c03a 	cmpne	r18,r4,zero
   42464:	6ca5c83a 	sub	r18,r13,r18
   42468:	6c89803a 	cmpltu	r4,r13,r18
   4246c:	4909c83a 	sub	r4,r9,r4
   42470:	3821883a 	mov	r16,r7
   42474:	1023883a 	mov	r17,r2
   42478:	003eb306 	br	41f48 <__adddf3+0xc4>
   4247c:	1b88b03a 	or	r4,r3,r14
   42480:	20008c26 	beq	r4,zero,426b4 <__adddf3+0x830>
   42484:	293fffc4 	addi	r4,r5,-1
   42488:	2000d326 	beq	r4,zero,427d8 <__adddf3+0x954>
   4248c:	2941ffd8 	cmpnei	r5,r5,2047
   42490:	28008126 	beq	r5,zero,42698 <__adddf3+0x814>
   42494:	200b883a 	mov	r5,r4
   42498:	003f6f06 	br	42258 <__adddf3+0x3d4>
   4249c:	00800804 	movi	r2,32
   424a0:	1145c83a 	sub	r2,r2,r5
   424a4:	6948d83a 	srl	r4,r13,r5
   424a8:	48a4983a 	sll	r18,r9,r2
   424ac:	6884983a 	sll	r2,r13,r2
   424b0:	494ad83a 	srl	r5,r9,r5
   424b4:	9124b03a 	or	r18,r18,r4
   424b8:	101ac03a 	cmpne	r13,r2,zero
   424bc:	9364b03a 	or	r18,r18,r13
   424c0:	1947883a 	add	r3,r3,r5
   424c4:	003f3806 	br	421a8 <__adddf3+0x324>
   424c8:	4081ffe0 	cmpeqi	r2,r8,2047
   424cc:	103f3e1e 	bne	r2,zero,421c8 <__adddf3+0x344>
   424d0:	7345883a 	add	r2,r14,r13
   424d4:	139d803a 	cmpltu	r14,r2,r14
   424d8:	1a49883a 	add	r4,r3,r9
   424dc:	2389883a 	add	r4,r4,r14
   424e0:	202497fa 	slli	r18,r4,31
   424e4:	1004d07a 	srli	r2,r2,1
   424e8:	2008d07a 	srli	r4,r4,1
   424ec:	4023883a 	mov	r17,r8
   424f0:	90a4b03a 	or	r18,r18,r2
   424f4:	003f1c06 	br	42168 <__adddf3+0x2e4>
   424f8:	6ba5c83a 	sub	r18,r13,r14
   424fc:	48c9c83a 	sub	r4,r9,r3
   42500:	6c85803a 	cmpltu	r2,r13,r18
   42504:	20a7c83a 	sub	r19,r4,r2
   42508:	3821883a 	mov	r16,r7
   4250c:	003e9306 	br	41f5c <__adddf3+0xd8>
   42510:	58006f1e 	bne	r11,zero,426d0 <__adddf3+0x84c>
   42514:	10001f1e 	bne	r2,zero,42594 <__adddf3+0x710>
   42518:	00bfffc4 	movi	r2,-1
   4251c:	0021883a 	mov	r16,zero
   42520:	003f4106 	br	42228 <__adddf3+0x3a4>
   42524:	4808977a 	slli	r4,r9,29
   42528:	00c80034 	movhi	r3,8192
   4252c:	18ffffc4 	addi	r3,r3,-1
   42530:	30c4703a 	and	r2,r6,r3
   42534:	4810d0fa 	srli	r8,r9,3
   42538:	1104b03a 	or	r2,r2,r4
   4253c:	3821883a 	mov	r16,r7
   42540:	003f1006 	br	42184 <__adddf3+0x300>
   42544:	7365c83a 	sub	r18,r14,r13
   42548:	1a47c83a 	sub	r3,r3,r9
   4254c:	7489803a 	cmpltu	r4,r14,r18
   42550:	1909c83a 	sub	r4,r3,r4
   42554:	04400044 	movi	r17,1
   42558:	003e7b06 	br	41f48 <__adddf3+0xc4>
   4255c:	1824977a 	slli	r18,r3,29
   42560:	01c80034 	movhi	r7,8192
   42564:	39ffffc4 	addi	r7,r7,-1
   42568:	21c4703a 	and	r2,r4,r7
   4256c:	1810d0fa 	srli	r8,r3,3
   42570:	1484b03a 	or	r2,r2,r18
   42574:	003f0306 	br	42184 <__adddf3+0x300>
   42578:	1824977a 	slli	r18,r3,29
   4257c:	01480034 	movhi	r5,8192
   42580:	297fffc4 	addi	r5,r5,-1
   42584:	2144703a 	and	r2,r4,r5
   42588:	1810d0fa 	srli	r8,r3,3
   4258c:	1484b03a 	or	r2,r2,r18
   42590:	003f2306 	br	42220 <__adddf3+0x39c>
   42594:	4806977a 	slli	r3,r9,29
   42598:	00880034 	movhi	r2,8192
   4259c:	10bfffc4 	addi	r2,r2,-1
   425a0:	3084703a 	and	r2,r6,r2
   425a4:	4810d0fa 	srli	r8,r9,3
   425a8:	10c4b03a 	or	r2,r2,r3
   425ac:	3821883a 	mov	r16,r7
   425b0:	003f1b06 	br	42220 <__adddf3+0x39c>
   425b4:	1b88b03a 	or	r4,r3,r14
   425b8:	2024c03a 	cmpne	r18,r4,zero
   425bc:	003f3406 	br	42290 <__adddf3+0x40c>
   425c0:	2cbff804 	addi	r18,r5,-32
   425c4:	29800820 	cmpeqi	r6,r5,32
   425c8:	1c88d83a 	srl	r4,r3,r18
   425cc:	3000041e 	bne	r6,zero,425e0 <__adddf3+0x75c>
   425d0:	01801004 	movi	r6,64
   425d4:	314bc83a 	sub	r5,r6,r5
   425d8:	1946983a 	sll	r3,r3,r5
   425dc:	70dcb03a 	or	r14,r14,r3
   425e0:	7024c03a 	cmpne	r18,r14,zero
   425e4:	9124b03a 	or	r18,r18,r4
   425e8:	003f9e06 	br	42464 <__adddf3+0x5e0>
   425ec:	103efa1e 	bne	r2,zero,421d8 <__adddf3+0x354>
   425f0:	4804977a 	slli	r2,r9,29
   425f4:	00c80034 	movhi	r3,8192
   425f8:	18ffffc4 	addi	r3,r3,-1
   425fc:	30cc703a 	and	r6,r6,r3
   42600:	4810d0fa 	srli	r8,r9,3
   42604:	1184b03a 	or	r2,r2,r6
   42608:	003f0506 	br	42220 <__adddf3+0x39c>
   4260c:	10004426 	beq	r2,zero,42720 <__adddf3+0x89c>
   42610:	4806977a 	slli	r3,r9,29
   42614:	00880034 	movhi	r2,8192
   42618:	10bfffc4 	addi	r2,r2,-1
   4261c:	3084703a 	and	r2,r6,r2
   42620:	4810d0fa 	srli	r8,r9,3
   42624:	10c4b03a 	or	r2,r2,r3
   42628:	3821883a 	mov	r16,r7
   4262c:	003ed706 	br	4218c <__adddf3+0x308>
   42630:	6ba5c83a 	sub	r18,r13,r14
   42634:	48c7c83a 	sub	r3,r9,r3
   42638:	6c85803a 	cmpltu	r2,r13,r18
   4263c:	1889c83a 	sub	r4,r3,r2
   42640:	3821883a 	mov	r16,r7
   42644:	04400044 	movi	r17,1
   42648:	003e3f06 	br	41f48 <__adddf3+0xc4>
   4264c:	180a977a 	slli	r5,r3,29
   42650:	00880034 	movhi	r2,8192
   42654:	10bfffc4 	addi	r2,r2,-1
   42658:	2084703a 	and	r2,r4,r2
   4265c:	1810d0fa 	srli	r8,r3,3
   42660:	1144b03a 	or	r2,r2,r5
   42664:	003eee06 	br	42220 <__adddf3+0x39c>
   42668:	7365c83a 	sub	r18,r14,r13
   4266c:	7485803a 	cmpltu	r2,r14,r18
   42670:	1a49c83a 	sub	r4,r3,r9
   42674:	2089c83a 	sub	r4,r4,r2
   42678:	2080202c 	andhi	r2,r4,128
   4267c:	10002626 	beq	r2,zero,42718 <__adddf3+0x894>
   42680:	6ba5c83a 	sub	r18,r13,r14
   42684:	48c7c83a 	sub	r3,r9,r3
   42688:	6c85803a 	cmpltu	r2,r13,r18
   4268c:	1889c83a 	sub	r4,r3,r2
   42690:	3821883a 	mov	r16,r7
   42694:	003e4a06 	br	41fc0 <__adddf3+0x13c>
   42698:	4806977a 	slli	r3,r9,29
   4269c:	00880034 	movhi	r2,8192
   426a0:	10bfffc4 	addi	r2,r2,-1
   426a4:	3084703a 	and	r2,r6,r2
   426a8:	4810d0fa 	srli	r8,r9,3
   426ac:	10c4b03a 	or	r2,r2,r3
   426b0:	003edb06 	br	42220 <__adddf3+0x39c>
   426b4:	4806977a 	slli	r3,r9,29
   426b8:	00880034 	movhi	r2,8192
   426bc:	10bfffc4 	addi	r2,r2,-1
   426c0:	3084703a 	and	r2,r6,r2
   426c4:	4810d0fa 	srli	r8,r9,3
   426c8:	10c4b03a 	or	r2,r2,r3
   426cc:	003ead06 	br	42184 <__adddf3+0x300>
   426d0:	180a977a 	slli	r5,r3,29
   426d4:	1810d0fa 	srli	r8,r3,3
   426d8:	10002f26 	beq	r2,zero,42798 <__adddf3+0x914>
   426dc:	00c80034 	movhi	r3,8192
   426e0:	18ffffc4 	addi	r3,r3,-1
   426e4:	20c4703a 	and	r2,r4,r3
   426e8:	4100022c 	andhi	r4,r8,8
   426ec:	1144b03a 	or	r2,r2,r5
   426f0:	203ecb26 	beq	r4,zero,42220 <__adddf3+0x39c>
   426f4:	4808d0fa 	srli	r4,r9,3
   426f8:	2140022c 	andhi	r5,r4,8
   426fc:	283ec81e 	bne	r5,zero,42220 <__adddf3+0x39c>
   42700:	4812977a 	slli	r9,r9,29
   42704:	30c4703a 	and	r2,r6,r3
   42708:	3821883a 	mov	r16,r7
   4270c:	1244b03a 	or	r2,r2,r9
   42710:	2011883a 	mov	r8,r4
   42714:	003ec206 	br	42220 <__adddf3+0x39c>
   42718:	9104b03a 	or	r2,r18,r4
   4271c:	103e921e 	bne	r2,zero,42168 <__adddf3+0x2e4>
   42720:	0011883a 	mov	r8,zero
   42724:	100b883a 	mov	r5,r2
   42728:	0021883a 	mov	r16,zero
   4272c:	003e9706 	br	4218c <__adddf3+0x308>
   42730:	4804977a 	slli	r2,r9,29
   42734:	00c80034 	movhi	r3,8192
   42738:	18ffffc4 	addi	r3,r3,-1
   4273c:	30cc703a 	and	r6,r6,r3
   42740:	4810d0fa 	srli	r8,r9,3
   42744:	1184b03a 	or	r2,r2,r6
   42748:	003e9006 	br	4218c <__adddf3+0x308>
   4274c:	7365883a 	add	r18,r14,r13
   42750:	1a47883a 	add	r3,r3,r9
   42754:	9389803a 	cmpltu	r4,r18,r14
   42758:	1909883a 	add	r4,r3,r4
   4275c:	2080202c 	andhi	r2,r4,128
   42760:	103e8126 	beq	r2,zero,42168 <__adddf3+0x2e4>
   42764:	00bfe034 	movhi	r2,65408
   42768:	10bfffc4 	addi	r2,r2,-1
   4276c:	2088703a 	and	r4,r4,r2
   42770:	04400044 	movi	r17,1
   42774:	003e7c06 	br	42168 <__adddf3+0x2e4>
   42778:	4804977a 	slli	r2,r9,29
   4277c:	00c80034 	movhi	r3,8192
   42780:	18ffffc4 	addi	r3,r3,-1
   42784:	30cc703a 	and	r6,r6,r3
   42788:	4810d0fa 	srli	r8,r9,3
   4278c:	1184b03a 	or	r2,r2,r6
   42790:	3821883a 	mov	r16,r7
   42794:	003ea206 	br	42220 <__adddf3+0x39c>
   42798:	00880034 	movhi	r2,8192
   4279c:	10bfffc4 	addi	r2,r2,-1
   427a0:	2084703a 	and	r2,r4,r2
   427a4:	1144b03a 	or	r2,r2,r5
   427a8:	003e9d06 	br	42220 <__adddf3+0x39c>
   427ac:	293ff804 	addi	r4,r5,-32
   427b0:	29800820 	cmpeqi	r6,r5,32
   427b4:	1908d83a 	srl	r4,r3,r4
   427b8:	3000041e 	bne	r6,zero,427cc <__adddf3+0x948>
   427bc:	01801004 	movi	r6,64
   427c0:	314bc83a 	sub	r5,r6,r5
   427c4:	1946983a 	sll	r3,r3,r5
   427c8:	70dcb03a 	or	r14,r14,r3
   427cc:	7024c03a 	cmpne	r18,r14,zero
   427d0:	9124b03a 	or	r18,r18,r4
   427d4:	003eae06 	br	42290 <__adddf3+0x40c>
   427d8:	7365883a 	add	r18,r14,r13
   427dc:	1a47883a 	add	r3,r3,r9
   427e0:	9345803a 	cmpltu	r2,r18,r13
   427e4:	1889883a 	add	r4,r3,r2
   427e8:	003e5c06 	br	4215c <__adddf3+0x2d8>
   427ec:	0005883a 	mov	r2,zero
   427f0:	0141ffc4 	movi	r5,2047
   427f4:	0007883a 	mov	r3,zero
   427f8:	003e0806 	br	4201c <__adddf3+0x198>

000427fc <__divdf3>:
   427fc:	2810d53a 	srli	r8,r5,20
   42800:	defff004 	addi	sp,sp,-64
   42804:	dc000615 	stw	r16,24(sp)
   42808:	04000434 	movhi	r16,16
   4280c:	df000e15 	stw	fp,56(sp)
   42810:	ddc00d15 	stw	r23,52(sp)
   42814:	dd800c15 	stw	r22,48(sp)
   42818:	dd000a15 	stw	r20,40(sp)
   4281c:	843fffc4 	addi	r16,r16,-1
   42820:	dfc00f15 	stw	ra,60(sp)
   42824:	dd400b15 	stw	r21,44(sp)
   42828:	dcc00915 	stw	r19,36(sp)
   4282c:	dc800815 	stw	r18,32(sp)
   42830:	dc400715 	stw	r17,28(sp)
   42834:	4201ffcc 	andi	r8,r8,2047
   42838:	282ed7fa 	srli	r23,r5,31
   4283c:	3039883a 	mov	fp,r6
   42840:	382d883a 	mov	r22,r7
   42844:	2029883a 	mov	r20,r4
   42848:	2c20703a 	and	r16,r5,r16
   4284c:	40005326 	beq	r8,zero,4299c <__divdf3+0x1a0>
   42850:	4081ffe0 	cmpeqi	r2,r8,2047
   42854:	1000641e 	bne	r2,zero,429e8 <__divdf3+0x1ec>
   42858:	2026d77a 	srli	r19,r4,29
   4285c:	800a90fa 	slli	r5,r16,3
   42860:	202890fa 	slli	r20,r4,3
   42864:	44bf0044 	addi	r18,r8,-1023
   42868:	994ab03a 	or	r5,r19,r5
   4286c:	2cc02034 	orhi	r19,r5,128
   42870:	0021883a 	mov	r16,zero
   42874:	0023883a 	mov	r17,zero
   42878:	b010d53a 	srli	r8,r22,20
   4287c:	00c00434 	movhi	r3,16
   42880:	18ffffc4 	addi	r3,r3,-1
   42884:	4201ffcc 	andi	r8,r8,2047
   42888:	b02ad7fa 	srli	r21,r22,31
   4288c:	b0ec703a 	and	r22,r22,r3
   42890:	40005c26 	beq	r8,zero,42a04 <__divdf3+0x208>
   42894:	4081ffe0 	cmpeqi	r2,r8,2047
   42898:	1000201e 	bne	r2,zero,4291c <__divdf3+0x120>
   4289c:	b00690fa 	slli	r3,r22,3
   428a0:	e004d77a 	srli	r2,fp,29
   428a4:	e01490fa 	slli	r10,fp,3
   428a8:	423f0044 	addi	r8,r8,-1023
   428ac:	10c6b03a 	or	r3,r2,r3
   428b0:	1d802034 	orhi	r22,r3,128
   428b4:	9225c83a 	sub	r18,r18,r8
   428b8:	0007883a 	mov	r3,zero
   428bc:	80800428 	cmpgeui	r2,r16,16
   428c0:	bd52f03a 	xor	r9,r23,r21
   428c4:	1000a81e 	bne	r2,zero,42b68 <__divdf3+0x36c>
   428c8:	800c90ba 	slli	r6,r16,2
   428cc:	00800134 	movhi	r2,4
   428d0:	3085883a 	add	r2,r6,r2
   428d4:	108a3717 	ldw	r2,10460(r2)
   428d8:	1000683a 	jmp	r2
   428dc:	00042b68 	cmpgeui	zero,zero,4269
   428e0:	0004298c 	andi	zero,zero,4262
   428e4:	00042938 	rdprs	zero,zero,4260
   428e8:	00042ab0 	cmpltui	zero,zero,4266
   428ec:	00042938 	rdprs	zero,zero,4260
   428f0:	00042b0c 	andi	zero,zero,4268
   428f4:	00042938 	rdprs	zero,zero,4260
   428f8:	00042ab0 	cmpltui	zero,zero,4266
   428fc:	0004298c 	andi	zero,zero,4262
   42900:	0004298c 	andi	zero,zero,4262
   42904:	00042b0c 	andi	zero,zero,4268
   42908:	00042ab0 	cmpltui	zero,zero,4266
   4290c:	00042a48 	cmpgei	zero,zero,4265
   42910:	00042a48 	cmpgei	zero,zero,4265
   42914:	00042a48 	cmpgei	zero,zero,4265
   42918:	00042b24 	muli	zero,zero,4268
   4291c:	b714b03a 	or	r10,r22,fp
   42920:	94be0044 	addi	r18,r18,-2047
   42924:	5000671e 	bne	r10,zero,42ac4 <__divdf3+0x2c8>
   42928:	84000094 	ori	r16,r16,2
   4292c:	002d883a 	mov	r22,zero
   42930:	00c00084 	movi	r3,2
   42934:	003fe106 	br	428bc <__divdf3+0xc0>
   42938:	0007883a 	mov	r3,zero
   4293c:	000b883a 	mov	r5,zero
   42940:	0029883a 	mov	r20,zero
   42944:	1806953a 	slli	r3,r3,20
   42948:	4a403fcc 	andi	r9,r9,255
   4294c:	481297fa 	slli	r9,r9,31
   42950:	1946b03a 	or	r3,r3,r5
   42954:	a005883a 	mov	r2,r20
   42958:	1a46b03a 	or	r3,r3,r9
   4295c:	dfc00f17 	ldw	ra,60(sp)
   42960:	df000e17 	ldw	fp,56(sp)
   42964:	ddc00d17 	ldw	r23,52(sp)
   42968:	dd800c17 	ldw	r22,48(sp)
   4296c:	dd400b17 	ldw	r21,44(sp)
   42970:	dd000a17 	ldw	r20,40(sp)
   42974:	dcc00917 	ldw	r19,36(sp)
   42978:	dc800817 	ldw	r18,32(sp)
   4297c:	dc400717 	ldw	r17,28(sp)
   42980:	dc000617 	ldw	r16,24(sp)
   42984:	dec01004 	addi	sp,sp,64
   42988:	f800283a 	ret
   4298c:	00c1ffc4 	movi	r3,2047
   42990:	000b883a 	mov	r5,zero
   42994:	0029883a 	mov	r20,zero
   42998:	003fea06 	br	42944 <__divdf3+0x148>
   4299c:	2426b03a 	or	r19,r4,r16
   429a0:	2023883a 	mov	r17,r4
   429a4:	98004f26 	beq	r19,zero,42ae4 <__divdf3+0x2e8>
   429a8:	80017b26 	beq	r16,zero,42f98 <__divdf3+0x79c>
   429ac:	8009883a 	mov	r4,r16
   429b0:	00445bc0 	call	445bc <__clzsi2>
   429b4:	113ffd44 	addi	r4,r2,-11
   429b8:	00c00744 	movi	r3,29
   429bc:	14fffe04 	addi	r19,r2,-8
   429c0:	1907c83a 	sub	r3,r3,r4
   429c4:	84ca983a 	sll	r5,r16,r19
   429c8:	88c6d83a 	srl	r3,r17,r3
   429cc:	8ce8983a 	sll	r20,r17,r19
   429d0:	1966b03a 	or	r19,r3,r5
   429d4:	023f0344 	movi	r8,-1011
   429d8:	40a5c83a 	sub	r18,r8,r2
   429dc:	0021883a 	mov	r16,zero
   429e0:	0023883a 	mov	r17,zero
   429e4:	003fa406 	br	42878 <__divdf3+0x7c>
   429e8:	2426b03a 	or	r19,r4,r16
   429ec:	9800421e 	bne	r19,zero,42af8 <__divdf3+0x2fc>
   429f0:	0029883a 	mov	r20,zero
   429f4:	04000204 	movi	r16,8
   429f8:	0481ffc4 	movi	r18,2047
   429fc:	04400084 	movi	r17,2
   42a00:	003f9d06 	br	42878 <__divdf3+0x7c>
   42a04:	b714b03a 	or	r10,r22,fp
   42a08:	50003226 	beq	r10,zero,42ad4 <__divdf3+0x2d8>
   42a0c:	b0016c26 	beq	r22,zero,42fc0 <__divdf3+0x7c4>
   42a10:	b009883a 	mov	r4,r22
   42a14:	00445bc0 	call	445bc <__clzsi2>
   42a18:	117ffd44 	addi	r5,r2,-11
   42a1c:	01000744 	movi	r4,29
   42a20:	12bffe04 	addi	r10,r2,-8
   42a24:	2149c83a 	sub	r4,r4,r5
   42a28:	b286983a 	sll	r3,r22,r10
   42a2c:	e108d83a 	srl	r4,fp,r4
   42a30:	e294983a 	sll	r10,fp,r10
   42a34:	20ecb03a 	or	r22,r4,r3
   42a38:	1491883a 	add	r8,r2,r18
   42a3c:	4480fcc4 	addi	r18,r8,1011
   42a40:	0007883a 	mov	r3,zero
   42a44:	003f9d06 	br	428bc <__divdf3+0xc0>
   42a48:	b813883a 	mov	r9,r23
   42a4c:	888000a0 	cmpeqi	r2,r17,2
   42a50:	103fce1e 	bne	r2,zero,4298c <__divdf3+0x190>
   42a54:	888000e0 	cmpeqi	r2,r17,3
   42a58:	1001ac1e 	bne	r2,zero,4310c <__divdf3+0x910>
   42a5c:	88800060 	cmpeqi	r2,r17,1
   42a60:	103fb51e 	bne	r2,zero,42938 <__divdf3+0x13c>
   42a64:	9440ffc4 	addi	r17,r18,1023
   42a68:	04411c0e 	bge	zero,r17,42edc <__divdf3+0x6e0>
   42a6c:	a08001cc 	andi	r2,r20,7
   42a70:	1001831e 	bne	r2,zero,43080 <__divdf3+0x884>
   42a74:	a008d0fa 	srli	r4,r20,3
   42a78:	9880402c 	andhi	r2,r19,256
   42a7c:	10000426 	beq	r2,zero,42a90 <__divdf3+0x294>
   42a80:	00bfc034 	movhi	r2,65280
   42a84:	10bfffc4 	addi	r2,r2,-1
   42a88:	98a6703a 	and	r19,r19,r2
   42a8c:	94410004 	addi	r17,r18,1024
   42a90:	8881ffc8 	cmpgei	r2,r17,2047
   42a94:	103fbd1e 	bne	r2,zero,4298c <__divdf3+0x190>
   42a98:	9828977a 	slli	r20,r19,29
   42a9c:	980a927a 	slli	r5,r19,9
   42aa0:	88c1ffcc 	andi	r3,r17,2047
   42aa4:	a128b03a 	or	r20,r20,r4
   42aa8:	280ad33a 	srli	r5,r5,12
   42aac:	003fa506 	br	42944 <__divdf3+0x148>
   42ab0:	a813883a 	mov	r9,r21
   42ab4:	b027883a 	mov	r19,r22
   42ab8:	5029883a 	mov	r20,r10
   42abc:	1823883a 	mov	r17,r3
   42ac0:	003fe206 	br	42a4c <__divdf3+0x250>
   42ac4:	840000d4 	ori	r16,r16,3
   42ac8:	e015883a 	mov	r10,fp
   42acc:	00c000c4 	movi	r3,3
   42ad0:	003f7a06 	br	428bc <__divdf3+0xc0>
   42ad4:	84000054 	ori	r16,r16,1
   42ad8:	002d883a 	mov	r22,zero
   42adc:	00c00044 	movi	r3,1
   42ae0:	003f7606 	br	428bc <__divdf3+0xc0>
   42ae4:	0029883a 	mov	r20,zero
   42ae8:	04000104 	movi	r16,4
   42aec:	0025883a 	mov	r18,zero
   42af0:	04400044 	movi	r17,1
   42af4:	003f6006 	br	42878 <__divdf3+0x7c>
   42af8:	8027883a 	mov	r19,r16
   42afc:	0481ffc4 	movi	r18,2047
   42b00:	04000304 	movi	r16,12
   42b04:	044000c4 	movi	r17,3
   42b08:	003f5b06 	br	42878 <__divdf3+0x7c>
   42b0c:	01400434 	movhi	r5,16
   42b10:	0013883a 	mov	r9,zero
   42b14:	297fffc4 	addi	r5,r5,-1
   42b18:	053fffc4 	movi	r20,-1
   42b1c:	00c1ffc4 	movi	r3,2047
   42b20:	003f8806 	br	42944 <__divdf3+0x148>
   42b24:	9880022c 	andhi	r2,r19,8
   42b28:	10000926 	beq	r2,zero,42b50 <__divdf3+0x354>
   42b2c:	b080022c 	andhi	r2,r22,8
   42b30:	1000071e 	bne	r2,zero,42b50 <__divdf3+0x354>
   42b34:	00800434 	movhi	r2,16
   42b38:	b1400234 	orhi	r5,r22,8
   42b3c:	10bfffc4 	addi	r2,r2,-1
   42b40:	288a703a 	and	r5,r5,r2
   42b44:	a813883a 	mov	r9,r21
   42b48:	5029883a 	mov	r20,r10
   42b4c:	003ff306 	br	42b1c <__divdf3+0x320>
   42b50:	00800434 	movhi	r2,16
   42b54:	99400234 	orhi	r5,r19,8
   42b58:	10bfffc4 	addi	r2,r2,-1
   42b5c:	288a703a 	and	r5,r5,r2
   42b60:	b813883a 	mov	r9,r23
   42b64:	003fed06 	br	42b1c <__divdf3+0x320>
   42b68:	b4c10536 	bltu	r22,r19,42f80 <__divdf3+0x784>
   42b6c:	b4c10326 	beq	r22,r19,42f7c <__divdf3+0x780>
   42b70:	94bfffc4 	addi	r18,r18,-1
   42b74:	a039883a 	mov	fp,r20
   42b78:	9821883a 	mov	r16,r19
   42b7c:	0023883a 	mov	r17,zero
   42b80:	b006923a 	slli	r3,r22,8
   42b84:	502cd63a 	srli	r22,r10,24
   42b88:	8009883a 	mov	r4,r16
   42b8c:	182ed43a 	srli	r23,r3,16
   42b90:	b0ecb03a 	or	r22,r22,r3
   42b94:	da400015 	stw	r9,0(sp)
   42b98:	b80b883a 	mov	r5,r23
   42b9c:	502a923a 	slli	r21,r10,8
   42ba0:	b53fffcc 	andi	r20,r22,65535
   42ba4:	0040a9c0 	call	40a9c <__udivsi3>
   42ba8:	100b883a 	mov	r5,r2
   42bac:	a009883a 	mov	r4,r20
   42bb0:	1027883a 	mov	r19,r2
   42bb4:	00446100 	call	44610 <__mulsi3>
   42bb8:	8009883a 	mov	r4,r16
   42bbc:	b80b883a 	mov	r5,r23
   42bc0:	1021883a 	mov	r16,r2
   42bc4:	0040b000 	call	40b00 <__umodsi3>
   42bc8:	1004943a 	slli	r2,r2,16
   42bcc:	e008d43a 	srli	r4,fp,16
   42bd0:	da400017 	ldw	r9,0(sp)
   42bd4:	2088b03a 	or	r4,r4,r2
   42bd8:	2400042e 	bgeu	r4,r16,42bec <__divdf3+0x3f0>
   42bdc:	2589883a 	add	r4,r4,r22
   42be0:	98bfffc4 	addi	r2,r19,-1
   42be4:	2581082e 	bgeu	r4,r22,43008 <__divdf3+0x80c>
   42be8:	1027883a 	mov	r19,r2
   42bec:	2421c83a 	sub	r16,r4,r16
   42bf0:	b80b883a 	mov	r5,r23
   42bf4:	8009883a 	mov	r4,r16
   42bf8:	da400215 	stw	r9,8(sp)
   42bfc:	0040a9c0 	call	40a9c <__udivsi3>
   42c00:	100b883a 	mov	r5,r2
   42c04:	a009883a 	mov	r4,r20
   42c08:	d8800115 	stw	r2,4(sp)
   42c0c:	00446100 	call	44610 <__mulsi3>
   42c10:	b80b883a 	mov	r5,r23
   42c14:	8009883a 	mov	r4,r16
   42c18:	d8800015 	stw	r2,0(sp)
   42c1c:	0040b000 	call	40b00 <__umodsi3>
   42c20:	100c943a 	slli	r6,r2,16
   42c24:	d8c00017 	ldw	r3,0(sp)
   42c28:	e73fffcc 	andi	fp,fp,65535
   42c2c:	e18cb03a 	or	r6,fp,r6
   42c30:	d9c00117 	ldw	r7,4(sp)
   42c34:	da400217 	ldw	r9,8(sp)
   42c38:	30c0042e 	bgeu	r6,r3,42c4c <__divdf3+0x450>
   42c3c:	358d883a 	add	r6,r6,r22
   42c40:	38bfffc4 	addi	r2,r7,-1
   42c44:	3580ec2e 	bgeu	r6,r22,42ff8 <__divdf3+0x7fc>
   42c48:	100f883a 	mov	r7,r2
   42c4c:	9826943a 	slli	r19,r19,16
   42c50:	af3fffcc 	andi	fp,r21,65535
   42c54:	30c7c83a 	sub	r3,r6,r3
   42c58:	99e6b03a 	or	r19,r19,r7
   42c5c:	980ed43a 	srli	r7,r19,16
   42c60:	9abfffcc 	andi	r10,r19,65535
   42c64:	5009883a 	mov	r4,r10
   42c68:	e00b883a 	mov	r5,fp
   42c6c:	da400515 	stw	r9,20(sp)
   42c70:	d8c00315 	stw	r3,12(sp)
   42c74:	da800415 	stw	r10,16(sp)
   42c78:	d9c00015 	stw	r7,0(sp)
   42c7c:	00446100 	call	44610 <__mulsi3>
   42c80:	d9c00017 	ldw	r7,0(sp)
   42c84:	e00b883a 	mov	r5,fp
   42c88:	d8800215 	stw	r2,8(sp)
   42c8c:	3809883a 	mov	r4,r7
   42c90:	00446100 	call	44610 <__mulsi3>
   42c94:	d9c00017 	ldw	r7,0(sp)
   42c98:	a820d43a 	srli	r16,r21,16
   42c9c:	d8800115 	stw	r2,4(sp)
   42ca0:	3809883a 	mov	r4,r7
   42ca4:	800b883a 	mov	r5,r16
   42ca8:	00446100 	call	44610 <__mulsi3>
   42cac:	da800417 	ldw	r10,16(sp)
   42cb0:	8009883a 	mov	r4,r16
   42cb4:	d8800015 	stw	r2,0(sp)
   42cb8:	500b883a 	mov	r5,r10
   42cbc:	00446100 	call	44610 <__mulsi3>
   42cc0:	d9800217 	ldw	r6,8(sp)
   42cc4:	d9c00117 	ldw	r7,4(sp)
   42cc8:	da000017 	ldw	r8,0(sp)
   42ccc:	3008d43a 	srli	r4,r6,16
   42cd0:	11c5883a 	add	r2,r2,r7
   42cd4:	d8c00317 	ldw	r3,12(sp)
   42cd8:	2089883a 	add	r4,r4,r2
   42cdc:	da400517 	ldw	r9,20(sp)
   42ce0:	21c0022e 	bgeu	r4,r7,42cec <__divdf3+0x4f0>
   42ce4:	00800074 	movhi	r2,1
   42ce8:	4091883a 	add	r8,r8,r2
   42cec:	200ad43a 	srli	r5,r4,16
   42cf0:	2008943a 	slli	r4,r4,16
   42cf4:	31bfffcc 	andi	r6,r6,65535
   42cf8:	2a0b883a 	add	r5,r5,r8
   42cfc:	218d883a 	add	r6,r4,r6
   42d00:	19409436 	bltu	r3,r5,42f54 <__divdf3+0x758>
   42d04:	19409226 	beq	r3,r5,42f50 <__divdf3+0x754>
   42d08:	898dc83a 	sub	r6,r17,r6
   42d0c:	89a3803a 	cmpltu	r17,r17,r6
   42d10:	1947c83a 	sub	r3,r3,r5
   42d14:	1c47c83a 	sub	r3,r3,r17
   42d18:	9440ffc4 	addi	r17,r18,1023
   42d1c:	b0c0d326 	beq	r22,r3,4306c <__divdf3+0x870>
   42d20:	1809883a 	mov	r4,r3
   42d24:	b80b883a 	mov	r5,r23
   42d28:	d9800315 	stw	r6,12(sp)
   42d2c:	da400215 	stw	r9,8(sp)
   42d30:	d8c00015 	stw	r3,0(sp)
   42d34:	0040a9c0 	call	40a9c <__udivsi3>
   42d38:	100b883a 	mov	r5,r2
   42d3c:	a009883a 	mov	r4,r20
   42d40:	d8800115 	stw	r2,4(sp)
   42d44:	00446100 	call	44610 <__mulsi3>
   42d48:	d8c00017 	ldw	r3,0(sp)
   42d4c:	b80b883a 	mov	r5,r23
   42d50:	d8800015 	stw	r2,0(sp)
   42d54:	1809883a 	mov	r4,r3
   42d58:	0040b000 	call	40b00 <__umodsi3>
   42d5c:	d9800317 	ldw	r6,12(sp)
   42d60:	1006943a 	slli	r3,r2,16
   42d64:	da000017 	ldw	r8,0(sp)
   42d68:	3008d43a 	srli	r4,r6,16
   42d6c:	d9c00117 	ldw	r7,4(sp)
   42d70:	da400217 	ldw	r9,8(sp)
   42d74:	20c6b03a 	or	r3,r4,r3
   42d78:	1a00062e 	bgeu	r3,r8,42d94 <__divdf3+0x598>
   42d7c:	1d87883a 	add	r3,r3,r22
   42d80:	38bfffc4 	addi	r2,r7,-1
   42d84:	1d80c836 	bltu	r3,r22,430a8 <__divdf3+0x8ac>
   42d88:	1a00c72e 	bgeu	r3,r8,430a8 <__divdf3+0x8ac>
   42d8c:	39ffff84 	addi	r7,r7,-2
   42d90:	1d87883a 	add	r3,r3,r22
   42d94:	1a07c83a 	sub	r3,r3,r8
   42d98:	1809883a 	mov	r4,r3
   42d9c:	b80b883a 	mov	r5,r23
   42da0:	d9800415 	stw	r6,16(sp)
   42da4:	da400315 	stw	r9,12(sp)
   42da8:	d9c00215 	stw	r7,8(sp)
   42dac:	d8c00115 	stw	r3,4(sp)
   42db0:	0040a9c0 	call	40a9c <__udivsi3>
   42db4:	100b883a 	mov	r5,r2
   42db8:	a009883a 	mov	r4,r20
   42dbc:	d8800015 	stw	r2,0(sp)
   42dc0:	00446100 	call	44610 <__mulsi3>
   42dc4:	d8c00117 	ldw	r3,4(sp)
   42dc8:	b80b883a 	mov	r5,r23
   42dcc:	102f883a 	mov	r23,r2
   42dd0:	1809883a 	mov	r4,r3
   42dd4:	0040b000 	call	40b00 <__umodsi3>
   42dd8:	d9800417 	ldw	r6,16(sp)
   42ddc:	1004943a 	slli	r2,r2,16
   42de0:	da000017 	ldw	r8,0(sp)
   42de4:	31bfffcc 	andi	r6,r6,65535
   42de8:	308cb03a 	or	r6,r6,r2
   42dec:	d9c00217 	ldw	r7,8(sp)
   42df0:	da400317 	ldw	r9,12(sp)
   42df4:	35c0062e 	bgeu	r6,r23,42e10 <__divdf3+0x614>
   42df8:	358d883a 	add	r6,r6,r22
   42dfc:	40bfffc4 	addi	r2,r8,-1
   42e00:	3580a736 	bltu	r6,r22,430a0 <__divdf3+0x8a4>
   42e04:	35c0a62e 	bgeu	r6,r23,430a0 <__divdf3+0x8a4>
   42e08:	423fff84 	addi	r8,r8,-2
   42e0c:	358d883a 	add	r6,r6,r22
   42e10:	3828943a 	slli	r20,r7,16
   42e14:	35d5c83a 	sub	r10,r6,r23
   42e18:	e009883a 	mov	r4,fp
   42e1c:	a228b03a 	or	r20,r20,r8
   42e20:	a1ffffcc 	andi	r7,r20,65535
   42e24:	a02ed43a 	srli	r23,r20,16
   42e28:	380b883a 	mov	r5,r7
   42e2c:	da400315 	stw	r9,12(sp)
   42e30:	da800215 	stw	r10,8(sp)
   42e34:	d9c00115 	stw	r7,4(sp)
   42e38:	00446100 	call	44610 <__mulsi3>
   42e3c:	e00b883a 	mov	r5,fp
   42e40:	b809883a 	mov	r4,r23
   42e44:	1039883a 	mov	fp,r2
   42e48:	00446100 	call	44610 <__mulsi3>
   42e4c:	8009883a 	mov	r4,r16
   42e50:	b80b883a 	mov	r5,r23
   42e54:	d8800015 	stw	r2,0(sp)
   42e58:	00446100 	call	44610 <__mulsi3>
   42e5c:	d9c00117 	ldw	r7,4(sp)
   42e60:	8009883a 	mov	r4,r16
   42e64:	1021883a 	mov	r16,r2
   42e68:	380b883a 	mov	r5,r7
   42e6c:	00446100 	call	44610 <__mulsi3>
   42e70:	d9800017 	ldw	r6,0(sp)
   42e74:	e006d43a 	srli	r3,fp,16
   42e78:	da800217 	ldw	r10,8(sp)
   42e7c:	1185883a 	add	r2,r2,r6
   42e80:	1887883a 	add	r3,r3,r2
   42e84:	da400317 	ldw	r9,12(sp)
   42e88:	1980022e 	bgeu	r3,r6,42e94 <__divdf3+0x698>
   42e8c:	00800074 	movhi	r2,1
   42e90:	80a1883a 	add	r16,r16,r2
   42e94:	1808d43a 	srli	r4,r3,16
   42e98:	1806943a 	slli	r3,r3,16
   42e9c:	e73fffcc 	andi	fp,fp,65535
   42ea0:	2409883a 	add	r4,r4,r16
   42ea4:	1f07883a 	add	r3,r3,fp
   42ea8:	51000436 	bltu	r10,r4,42ebc <__divdf3+0x6c0>
   42eac:	51000226 	beq	r10,r4,42eb8 <__divdf3+0x6bc>
   42eb0:	a5000054 	ori	r20,r20,1
   42eb4:	003eec06 	br	42a68 <__divdf3+0x26c>
   42eb8:	183eeb26 	beq	r3,zero,42a68 <__divdf3+0x26c>
   42ebc:	b28d883a 	add	r6,r22,r10
   42ec0:	a0bfffc4 	addi	r2,r20,-1
   42ec4:	35806536 	bltu	r6,r22,4305c <__divdf3+0x860>
   42ec8:	31008036 	bltu	r6,r4,430cc <__divdf3+0x8d0>
   42ecc:	31009426 	beq	r6,r4,43120 <__divdf3+0x924>
   42ed0:	1029883a 	mov	r20,r2
   42ed4:	003ff606 	br	42eb0 <__divdf3+0x6b4>
   42ed8:	053fffc4 	movi	r20,-1
   42edc:	01400044 	movi	r5,1
   42ee0:	2c4bc83a 	sub	r5,r5,r17
   42ee4:	28800e48 	cmpgei	r2,r5,57
   42ee8:	103e931e 	bne	r2,zero,42938 <__divdf3+0x13c>
   42eec:	28800808 	cmpgei	r2,r5,32
   42ef0:	1000491e 	bne	r2,zero,43018 <__divdf3+0x81c>
   42ef4:	92010784 	addi	r8,r18,1054
   42ef8:	9a04983a 	sll	r2,r19,r8
   42efc:	a146d83a 	srl	r3,r20,r5
   42f00:	a210983a 	sll	r8,r20,r8
   42f04:	994ad83a 	srl	r5,r19,r5
   42f08:	10e8b03a 	or	r20,r2,r3
   42f0c:	4010c03a 	cmpne	r8,r8,zero
   42f10:	a228b03a 	or	r20,r20,r8
   42f14:	a08001cc 	andi	r2,r20,7
   42f18:	10000726 	beq	r2,zero,42f38 <__divdf3+0x73c>
   42f1c:	a08003cc 	andi	r2,r20,15
   42f20:	10800120 	cmpeqi	r2,r2,4
   42f24:	1000041e 	bne	r2,zero,42f38 <__divdf3+0x73c>
   42f28:	a0800104 	addi	r2,r20,4
   42f2c:	1529803a 	cmpltu	r20,r2,r20
   42f30:	2d0b883a 	add	r5,r5,r20
   42f34:	1029883a 	mov	r20,r2
   42f38:	2880202c 	andhi	r2,r5,128
   42f3c:	10006f26 	beq	r2,zero,430fc <__divdf3+0x900>
   42f40:	00c00044 	movi	r3,1
   42f44:	000b883a 	mov	r5,zero
   42f48:	0029883a 	mov	r20,zero
   42f4c:	003e7d06 	br	42944 <__divdf3+0x148>
   42f50:	89bf6d2e 	bgeu	r17,r6,42d08 <__divdf3+0x50c>
   42f54:	8d63883a 	add	r17,r17,r21
   42f58:	8d45803a 	cmpltu	r2,r17,r21
   42f5c:	1585883a 	add	r2,r2,r22
   42f60:	1887883a 	add	r3,r3,r2
   42f64:	98bfffc4 	addi	r2,r19,-1
   42f68:	b0c0202e 	bgeu	r22,r3,42fec <__divdf3+0x7f0>
   42f6c:	19405136 	bltu	r3,r5,430b4 <__divdf3+0x8b8>
   42f70:	28c04f26 	beq	r5,r3,430b0 <__divdf3+0x8b4>
   42f74:	1027883a 	mov	r19,r2
   42f78:	003f6306 	br	42d08 <__divdf3+0x50c>
   42f7c:	a2befc36 	bltu	r20,r10,42b70 <__divdf3+0x374>
   42f80:	983897fa 	slli	fp,r19,31
   42f84:	a004d07a 	srli	r2,r20,1
   42f88:	9820d07a 	srli	r16,r19,1
   42f8c:	a02297fa 	slli	r17,r20,31
   42f90:	e0b8b03a 	or	fp,fp,r2
   42f94:	003efa06 	br	42b80 <__divdf3+0x384>
   42f98:	00445bc0 	call	445bc <__clzsi2>
   42f9c:	11000544 	addi	r4,r2,21
   42fa0:	20c00748 	cmpgei	r3,r4,29
   42fa4:	100b883a 	mov	r5,r2
   42fa8:	10800804 	addi	r2,r2,32
   42fac:	183e8226 	beq	r3,zero,429b8 <__divdf3+0x1bc>
   42fb0:	297ffe04 	addi	r5,r5,-8
   42fb4:	a166983a 	sll	r19,r20,r5
   42fb8:	0029883a 	mov	r20,zero
   42fbc:	003e8506 	br	429d4 <__divdf3+0x1d8>
   42fc0:	e009883a 	mov	r4,fp
   42fc4:	00445bc0 	call	445bc <__clzsi2>
   42fc8:	11400544 	addi	r5,r2,21
   42fcc:	29000748 	cmpgei	r4,r5,29
   42fd0:	1007883a 	mov	r3,r2
   42fd4:	10800804 	addi	r2,r2,32
   42fd8:	203e9026 	beq	r4,zero,42a1c <__divdf3+0x220>
   42fdc:	18fffe04 	addi	r3,r3,-8
   42fe0:	e0ec983a 	sll	r22,fp,r3
   42fe4:	0015883a 	mov	r10,zero
   42fe8:	003e9306 	br	42a38 <__divdf3+0x23c>
   42fec:	b0ffe11e 	bne	r22,r3,42f74 <__divdf3+0x778>
   42ff0:	8d7fe036 	bltu	r17,r21,42f74 <__divdf3+0x778>
   42ff4:	003fdd06 	br	42f6c <__divdf3+0x770>
   42ff8:	30ff132e 	bgeu	r6,r3,42c48 <__divdf3+0x44c>
   42ffc:	39ffff84 	addi	r7,r7,-2
   43000:	358d883a 	add	r6,r6,r22
   43004:	003f1106 	br	42c4c <__divdf3+0x450>
   43008:	243ef72e 	bgeu	r4,r16,42be8 <__divdf3+0x3ec>
   4300c:	9cffff84 	addi	r19,r19,-2
   43010:	2589883a 	add	r4,r4,r22
   43014:	003ef506 	br	42bec <__divdf3+0x3f0>
   43018:	00fff844 	movi	r3,-31
   4301c:	1c47c83a 	sub	r3,r3,r17
   43020:	29400820 	cmpeqi	r5,r5,32
   43024:	98c6d83a 	srl	r3,r19,r3
   43028:	2800031e 	bne	r5,zero,43038 <__divdf3+0x83c>
   4302c:	91410f84 	addi	r5,r18,1086
   43030:	994a983a 	sll	r5,r19,r5
   43034:	a168b03a 	or	r20,r20,r5
   43038:	a028c03a 	cmpne	r20,r20,zero
   4303c:	a0e8b03a 	or	r20,r20,r3
   43040:	a4c001cc 	andi	r19,r20,7
   43044:	9800291e 	bne	r19,zero,430ec <__divdf3+0x8f0>
   43048:	000b883a 	mov	r5,zero
   4304c:	a028d0fa 	srli	r20,r20,3
   43050:	0007883a 	mov	r3,zero
   43054:	a4e8b03a 	or	r20,r20,r19
   43058:	003e3a06 	br	42944 <__divdf3+0x148>
   4305c:	1029883a 	mov	r20,r2
   43060:	313f931e 	bne	r6,r4,42eb0 <__divdf3+0x6b4>
   43064:	1d7f921e 	bne	r3,r21,42eb0 <__divdf3+0x6b4>
   43068:	003e7f06 	br	42a68 <__divdf3+0x26c>
   4306c:	047f9a0e 	bge	zero,r17,42ed8 <__divdf3+0x6dc>
   43070:	0009883a 	mov	r4,zero
   43074:	05000044 	movi	r20,1
   43078:	9d27883a 	add	r19,r19,r20
   4307c:	003e7e06 	br	42a78 <__divdf3+0x27c>
   43080:	a08003cc 	andi	r2,r20,15
   43084:	10800118 	cmpnei	r2,r2,4
   43088:	103e7a26 	beq	r2,zero,42a74 <__divdf3+0x278>
   4308c:	a1000104 	addi	r4,r20,4
   43090:	00bffec4 	movi	r2,-5
   43094:	2008d0fa 	srli	r4,r4,3
   43098:	1529803a 	cmpltu	r20,r2,r20
   4309c:	003ff606 	br	43078 <__divdf3+0x87c>
   430a0:	1011883a 	mov	r8,r2
   430a4:	003f5a06 	br	42e10 <__divdf3+0x614>
   430a8:	100f883a 	mov	r7,r2
   430ac:	003f3906 	br	42d94 <__divdf3+0x598>
   430b0:	89bfb02e 	bgeu	r17,r6,42f74 <__divdf3+0x778>
   430b4:	8d63883a 	add	r17,r17,r21
   430b8:	8d45803a 	cmpltu	r2,r17,r21
   430bc:	1585883a 	add	r2,r2,r22
   430c0:	9cffff84 	addi	r19,r19,-2
   430c4:	1887883a 	add	r3,r3,r2
   430c8:	003f0f06 	br	42d08 <__divdf3+0x50c>
   430cc:	ad45883a 	add	r2,r21,r21
   430d0:	156b803a 	cmpltu	r21,r2,r21
   430d4:	adad883a 	add	r22,r21,r22
   430d8:	358d883a 	add	r6,r6,r22
   430dc:	a53fff84 	addi	r20,r20,-2
   430e0:	102b883a 	mov	r21,r2
   430e4:	313fdf26 	beq	r6,r4,43064 <__divdf3+0x868>
   430e8:	003f7106 	br	42eb0 <__divdf3+0x6b4>
   430ec:	a08003cc 	andi	r2,r20,15
   430f0:	10800118 	cmpnei	r2,r2,4
   430f4:	000b883a 	mov	r5,zero
   430f8:	103f8b1e 	bne	r2,zero,42f28 <__divdf3+0x72c>
   430fc:	2804927a 	slli	r2,r5,9
   43100:	2826977a 	slli	r19,r5,29
   43104:	100ad33a 	srli	r5,r2,12
   43108:	003fd006 	br	4304c <__divdf3+0x850>
   4310c:	00800434 	movhi	r2,16
   43110:	99400234 	orhi	r5,r19,8
   43114:	10bfffc4 	addi	r2,r2,-1
   43118:	288a703a 	and	r5,r5,r2
   4311c:	003e7f06 	br	42b1c <__divdf3+0x320>
   43120:	a8ffea36 	bltu	r21,r3,430cc <__divdf3+0x8d0>
   43124:	1029883a 	mov	r20,r2
   43128:	1d7f611e 	bne	r3,r21,42eb0 <__divdf3+0x6b4>
   4312c:	003e4e06 	br	42a68 <__divdf3+0x26c>

00043130 <__ledf2>:
   43130:	2810d53a 	srli	r8,r5,20
   43134:	3812d53a 	srli	r9,r7,20
   43138:	00c00434 	movhi	r3,16
   4313c:	4201ffcc 	andi	r8,r8,2047
   43140:	18ffffc4 	addi	r3,r3,-1
   43144:	4281ffd8 	cmpnei	r10,r8,2047
   43148:	2816d7fa 	srli	r11,r5,31
   4314c:	3804d7fa 	srli	r2,r7,31
   43150:	28ca703a 	and	r5,r5,r3
   43154:	38ce703a 	and	r7,r7,r3
   43158:	48c1ffcc 	andi	r3,r9,2047
   4315c:	50000b26 	beq	r10,zero,4318c <__ledf2+0x5c>
   43160:	1a41ffd8 	cmpnei	r9,r3,2047
   43164:	48000d26 	beq	r9,zero,4319c <__ledf2+0x6c>
   43168:	40001b1e 	bne	r8,zero,431d8 <__ledf2+0xa8>
   4316c:	2914b03a 	or	r10,r5,r4
   43170:	5013003a 	cmpeq	r9,r10,zero
   43174:	18000e1e 	bne	r3,zero,431b0 <__ledf2+0x80>
   43178:	3998b03a 	or	r12,r7,r6
   4317c:	60000c1e 	bne	r12,zero,431b0 <__ledf2+0x80>
   43180:	50000d1e 	bne	r10,zero,431b8 <__ledf2+0x88>
   43184:	0005883a 	mov	r2,zero
   43188:	f800283a 	ret
   4318c:	2912b03a 	or	r9,r5,r4
   43190:	48000d1e 	bne	r9,zero,431c8 <__ledf2+0x98>
   43194:	1a41ffe0 	cmpeqi	r9,r3,2047
   43198:	48000f26 	beq	r9,zero,431d8 <__ledf2+0xa8>
   4319c:	3992b03a 	or	r9,r7,r6
   431a0:	4800091e 	bne	r9,zero,431c8 <__ledf2+0x98>
   431a4:	4000031e 	bne	r8,zero,431b4 <__ledf2+0x84>
   431a8:	2912b03a 	or	r9,r5,r4
   431ac:	4813003a 	cmpeq	r9,r9,zero
   431b0:	4800071e 	bne	r9,zero,431d0 <__ledf2+0xa0>
   431b4:	58800c26 	beq	r11,r2,431e8 <__ledf2+0xb8>
   431b8:	00800044 	movi	r2,1
   431bc:	58000526 	beq	r11,zero,431d4 <__ledf2+0xa4>
   431c0:	00bfffc4 	movi	r2,-1
   431c4:	f800283a 	ret
   431c8:	00800084 	movi	r2,2
   431cc:	f800283a 	ret
   431d0:	103ffb26 	beq	r2,zero,431c0 <__ledf2+0x90>
   431d4:	f800283a 	ret
   431d8:	183ff61e 	bne	r3,zero,431b4 <__ledf2+0x84>
   431dc:	3992b03a 	or	r9,r7,r6
   431e0:	483ff41e 	bne	r9,zero,431b4 <__ledf2+0x84>
   431e4:	003ff406 	br	431b8 <__ledf2+0x88>
   431e8:	1a00030e 	bge	r3,r8,431f8 <__ledf2+0xc8>
   431ec:	103ff41e 	bne	r2,zero,431c0 <__ledf2+0x90>
   431f0:	00800044 	movi	r2,1
   431f4:	f800283a 	ret
   431f8:	40fff516 	blt	r8,r3,431d0 <__ledf2+0xa0>
   431fc:	397fee36 	bltu	r7,r5,431b8 <__ledf2+0x88>
   43200:	29c00426 	beq	r5,r7,43214 <__ledf2+0xe4>
   43204:	29ffdf2e 	bgeu	r5,r7,43184 <__ledf2+0x54>
   43208:	583fed26 	beq	r11,zero,431c0 <__ledf2+0x90>
   4320c:	5805883a 	mov	r2,r11
   43210:	f800283a 	ret
   43214:	313fe836 	bltu	r6,r4,431b8 <__ledf2+0x88>
   43218:	21bfda2e 	bgeu	r4,r6,43184 <__ledf2+0x54>
   4321c:	003ffa06 	br	43208 <__ledf2+0xd8>

00043220 <__muldf3>:
   43220:	2810d53a 	srli	r8,r5,20
   43224:	defff004 	addi	sp,sp,-64
   43228:	00800434 	movhi	r2,16
   4322c:	df000e15 	stw	fp,56(sp)
   43230:	dd000a15 	stw	r20,40(sp)
   43234:	dcc00915 	stw	r19,36(sp)
   43238:	dc400715 	stw	r17,28(sp)
   4323c:	10bfffc4 	addi	r2,r2,-1
   43240:	dfc00f15 	stw	ra,60(sp)
   43244:	ddc00d15 	stw	r23,52(sp)
   43248:	dd800c15 	stw	r22,48(sp)
   4324c:	dd400b15 	stw	r21,44(sp)
   43250:	dc800815 	stw	r18,32(sp)
   43254:	dc000615 	stw	r16,24(sp)
   43258:	4201ffcc 	andi	r8,r8,2047
   4325c:	2828d7fa 	srli	r20,r5,31
   43260:	2023883a 	mov	r17,r4
   43264:	3039883a 	mov	fp,r6
   43268:	28a6703a 	and	r19,r5,r2
   4326c:	40005a26 	beq	r8,zero,433d8 <__muldf3+0x1b8>
   43270:	4081ffe0 	cmpeqi	r2,r8,2047
   43274:	10006c1e 	bne	r2,zero,43428 <__muldf3+0x208>
   43278:	980a90fa 	slli	r5,r19,3
   4327c:	2026d77a 	srli	r19,r4,29
   43280:	202490fa 	slli	r18,r4,3
   43284:	423f0044 	addi	r8,r8,-1023
   43288:	9966b03a 	or	r19,r19,r5
   4328c:	9cc02034 	orhi	r19,r19,128
   43290:	002b883a 	mov	r21,zero
   43294:	002d883a 	mov	r22,zero
   43298:	3804d53a 	srli	r2,r7,20
   4329c:	00c00434 	movhi	r3,16
   432a0:	18ffffc4 	addi	r3,r3,-1
   432a4:	1081ffcc 	andi	r2,r2,2047
   432a8:	382ed7fa 	srli	r23,r7,31
   432ac:	38e0703a 	and	r16,r7,r3
   432b0:	10006426 	beq	r2,zero,43444 <__muldf3+0x224>
   432b4:	10c1ffe0 	cmpeqi	r3,r2,2047
   432b8:	1800211e 	bne	r3,zero,43340 <__muldf3+0x120>
   432bc:	e008d77a 	srli	r4,fp,29
   432c0:	802090fa 	slli	r16,r16,3
   432c4:	e02290fa 	slli	r17,fp,3
   432c8:	10bf0044 	addi	r2,r2,-1023
   432cc:	2420b03a 	or	r16,r4,r16
   432d0:	84002034 	orhi	r16,r16,128
   432d4:	4091883a 	add	r8,r8,r2
   432d8:	0009883a 	mov	r4,zero
   432dc:	a8800428 	cmpgeui	r2,r21,16
   432e0:	a5ccf03a 	xor	r6,r20,r23
   432e4:	41c00044 	addi	r7,r8,1
   432e8:	10006d1e 	bne	r2,zero,434a0 <__muldf3+0x280>
   432ec:	a80490ba 	slli	r2,r21,2
   432f0:	00c00134 	movhi	r3,4
   432f4:	10c7883a 	add	r3,r2,r3
   432f8:	188cc017 	ldw	r2,13056(r3)
   432fc:	1000683a 	jmp	r2
   43300:	000434a0 	cmpeqi	zero,zero,4306
   43304:	00043360 	cmpeqi	zero,zero,4301
   43308:	00043360 	cmpeqi	zero,zero,4301
   4330c:	0004335c 	xori	zero,zero,4301
   43310:	0004336c 	andhi	zero,zero,4301
   43314:	0004336c 	andhi	zero,zero,4301
   43318:	0004381c 	xori	zero,zero,4320
   4331c:	0004335c 	xori	zero,zero,4301
   43320:	0004336c 	andhi	zero,zero,4301
   43324:	0004381c 	xori	zero,zero,4320
   43328:	0004336c 	andhi	zero,zero,4301
   4332c:	0004335c 	xori	zero,zero,4301
   43330:	000437cc 	andi	zero,zero,4319
   43334:	000437cc 	andi	zero,zero,4319
   43338:	000437cc 	andi	zero,zero,4319
   4333c:	000438a8 	cmpgeui	zero,zero,4322
   43340:	e422b03a 	or	r17,fp,r16
   43344:	4201ffc4 	addi	r8,r8,2047
   43348:	8801221e 	bne	r17,zero,437d4 <__muldf3+0x5b4>
   4334c:	ad400094 	ori	r21,r21,2
   43350:	0021883a 	mov	r16,zero
   43354:	01000084 	movi	r4,2
   43358:	003fe006 	br	432dc <__muldf3+0xbc>
   4335c:	b80d883a 	mov	r6,r23
   43360:	8027883a 	mov	r19,r16
   43364:	8825883a 	mov	r18,r17
   43368:	202d883a 	mov	r22,r4
   4336c:	b08000a0 	cmpeqi	r2,r22,2
   43370:	1000471e 	bne	r2,zero,43490 <__muldf3+0x270>
   43374:	b08000e0 	cmpeqi	r2,r22,3
   43378:	10018e1e 	bne	r2,zero,439b4 <__muldf3+0x794>
   4337c:	b0800060 	cmpeqi	r2,r22,1
   43380:	1000f826 	beq	r2,zero,43764 <__muldf3+0x544>
   43384:	0007883a 	mov	r3,zero
   43388:	0027883a 	mov	r19,zero
   4338c:	0025883a 	mov	r18,zero
   43390:	1806953a 	slli	r3,r3,20
   43394:	31803fcc 	andi	r6,r6,255
   43398:	300c97fa 	slli	r6,r6,31
   4339c:	1cc6b03a 	or	r3,r3,r19
   433a0:	9005883a 	mov	r2,r18
   433a4:	1986b03a 	or	r3,r3,r6
   433a8:	dfc00f17 	ldw	ra,60(sp)
   433ac:	df000e17 	ldw	fp,56(sp)
   433b0:	ddc00d17 	ldw	r23,52(sp)
   433b4:	dd800c17 	ldw	r22,48(sp)
   433b8:	dd400b17 	ldw	r21,44(sp)
   433bc:	dd000a17 	ldw	r20,40(sp)
   433c0:	dcc00917 	ldw	r19,36(sp)
   433c4:	dc800817 	ldw	r18,32(sp)
   433c8:	dc400717 	ldw	r17,28(sp)
   433cc:	dc000617 	ldw	r16,24(sp)
   433d0:	dec01004 	addi	sp,sp,64
   433d4:	f800283a 	ret
   433d8:	9924b03a 	or	r18,r19,r4
   433dc:	90010a26 	beq	r18,zero,43808 <__muldf3+0x5e8>
   433e0:	d9c00015 	stw	r7,0(sp)
   433e4:	98014d26 	beq	r19,zero,4391c <__muldf3+0x6fc>
   433e8:	9809883a 	mov	r4,r19
   433ec:	00445bc0 	call	445bc <__clzsi2>
   433f0:	d9c00017 	ldw	r7,0(sp)
   433f4:	113ffd44 	addi	r4,r2,-11
   433f8:	00c00744 	movi	r3,29
   433fc:	14bffe04 	addi	r18,r2,-8
   43400:	1907c83a 	sub	r3,r3,r4
   43404:	9ca6983a 	sll	r19,r19,r18
   43408:	88c6d83a 	srl	r3,r17,r3
   4340c:	8ca4983a 	sll	r18,r17,r18
   43410:	1ce6b03a 	or	r19,r3,r19
   43414:	023f0344 	movi	r8,-1011
   43418:	4091c83a 	sub	r8,r8,r2
   4341c:	002b883a 	mov	r21,zero
   43420:	002d883a 	mov	r22,zero
   43424:	003f9c06 	br	43298 <__muldf3+0x78>
   43428:	9924b03a 	or	r18,r19,r4
   4342c:	9000f11e 	bne	r18,zero,437f4 <__muldf3+0x5d4>
   43430:	0027883a 	mov	r19,zero
   43434:	05400204 	movi	r21,8
   43438:	0201ffc4 	movi	r8,2047
   4343c:	05800084 	movi	r22,2
   43440:	003f9506 	br	43298 <__muldf3+0x78>
   43444:	e422b03a 	or	r17,fp,r16
   43448:	8800e626 	beq	r17,zero,437e4 <__muldf3+0x5c4>
   4344c:	da000015 	stw	r8,0(sp)
   43450:	80012626 	beq	r16,zero,438ec <__muldf3+0x6cc>
   43454:	8009883a 	mov	r4,r16
   43458:	00445bc0 	call	445bc <__clzsi2>
   4345c:	da000017 	ldw	r8,0(sp)
   43460:	117ffd44 	addi	r5,r2,-11
   43464:	01000744 	movi	r4,29
   43468:	147ffe04 	addi	r17,r2,-8
   4346c:	2149c83a 	sub	r4,r4,r5
   43470:	8460983a 	sll	r16,r16,r17
   43474:	e108d83a 	srl	r4,fp,r4
   43478:	e462983a 	sll	r17,fp,r17
   4347c:	2420b03a 	or	r16,r4,r16
   43480:	4091c83a 	sub	r8,r8,r2
   43484:	423f0344 	addi	r8,r8,-1011
   43488:	0009883a 	mov	r4,zero
   4348c:	003f9306 	br	432dc <__muldf3+0xbc>
   43490:	00c1ffc4 	movi	r3,2047
   43494:	0027883a 	mov	r19,zero
   43498:	0025883a 	mov	r18,zero
   4349c:	003fbc06 	br	43390 <__muldf3+0x170>
   434a0:	9028d43a 	srli	r20,r18,16
   434a4:	8f3fffcc 	andi	fp,r17,65535
   434a8:	957fffcc 	andi	r21,r18,65535
   434ac:	a80b883a 	mov	r5,r21
   434b0:	e009883a 	mov	r4,fp
   434b4:	d9800315 	stw	r6,12(sp)
   434b8:	da000215 	stw	r8,8(sp)
   434bc:	d9c00115 	stw	r7,4(sp)
   434c0:	8822d43a 	srli	r17,r17,16
   434c4:	00446100 	call	44610 <__mulsi3>
   434c8:	e00b883a 	mov	r5,fp
   434cc:	a009883a 	mov	r4,r20
   434d0:	102d883a 	mov	r22,r2
   434d4:	00446100 	call	44610 <__mulsi3>
   434d8:	880b883a 	mov	r5,r17
   434dc:	a009883a 	mov	r4,r20
   434e0:	102f883a 	mov	r23,r2
   434e4:	00446100 	call	44610 <__mulsi3>
   434e8:	a80b883a 	mov	r5,r21
   434ec:	8809883a 	mov	r4,r17
   434f0:	d8800015 	stw	r2,0(sp)
   434f4:	00446100 	call	44610 <__mulsi3>
   434f8:	b006d43a 	srli	r3,r22,16
   434fc:	15e5883a 	add	r18,r2,r23
   43500:	d9c00117 	ldw	r7,4(sp)
   43504:	1c87883a 	add	r3,r3,r18
   43508:	da000217 	ldw	r8,8(sp)
   4350c:	d9800317 	ldw	r6,12(sp)
   43510:	1dc0042e 	bgeu	r3,r23,43524 <__muldf3+0x304>
   43514:	d9000017 	ldw	r4,0(sp)
   43518:	00800074 	movhi	r2,1
   4351c:	2085883a 	add	r2,r4,r2
   43520:	d8800015 	stw	r2,0(sp)
   43524:	1804943a 	slli	r2,r3,16
   43528:	85ffffcc 	andi	r23,r16,65535
   4352c:	b5bfffcc 	andi	r22,r22,65535
   43530:	1585883a 	add	r2,r2,r22
   43534:	a80b883a 	mov	r5,r21
   43538:	b809883a 	mov	r4,r23
   4353c:	1824d43a 	srli	r18,r3,16
   43540:	d9800515 	stw	r6,20(sp)
   43544:	da000415 	stw	r8,16(sp)
   43548:	d9c00315 	stw	r7,12(sp)
   4354c:	8020d43a 	srli	r16,r16,16
   43550:	d8800115 	stw	r2,4(sp)
   43554:	00446100 	call	44610 <__mulsi3>
   43558:	a009883a 	mov	r4,r20
   4355c:	b80b883a 	mov	r5,r23
   43560:	d8800215 	stw	r2,8(sp)
   43564:	00446100 	call	44610 <__mulsi3>
   43568:	a009883a 	mov	r4,r20
   4356c:	800b883a 	mov	r5,r16
   43570:	102d883a 	mov	r22,r2
   43574:	00446100 	call	44610 <__mulsi3>
   43578:	a80b883a 	mov	r5,r21
   4357c:	8009883a 	mov	r4,r16
   43580:	1029883a 	mov	r20,r2
   43584:	00446100 	call	44610 <__mulsi3>
   43588:	da800217 	ldw	r10,8(sp)
   4358c:	1585883a 	add	r2,r2,r22
   43590:	d9c00317 	ldw	r7,12(sp)
   43594:	5006d43a 	srli	r3,r10,16
   43598:	da000417 	ldw	r8,16(sp)
   4359c:	d9800517 	ldw	r6,20(sp)
   435a0:	1887883a 	add	r3,r3,r2
   435a4:	1d80022e 	bgeu	r3,r22,435b0 <__muldf3+0x390>
   435a8:	00800074 	movhi	r2,1
   435ac:	a0a9883a 	add	r20,r20,r2
   435b0:	1804d43a 	srli	r2,r3,16
   435b4:	1806943a 	slli	r3,r3,16
   435b8:	982cd43a 	srli	r22,r19,16
   435bc:	9d7fffcc 	andi	r21,r19,65535
   435c0:	e009883a 	mov	r4,fp
   435c4:	54ffffcc 	andi	r19,r10,65535
   435c8:	a80b883a 	mov	r5,r21
   435cc:	1ce7883a 	add	r19,r3,r19
   435d0:	d9800515 	stw	r6,20(sp)
   435d4:	da000415 	stw	r8,16(sp)
   435d8:	d9c00315 	stw	r7,12(sp)
   435dc:	1529883a 	add	r20,r2,r20
   435e0:	00446100 	call	44610 <__mulsi3>
   435e4:	e00b883a 	mov	r5,fp
   435e8:	b009883a 	mov	r4,r22
   435ec:	d8800215 	stw	r2,8(sp)
   435f0:	00446100 	call	44610 <__mulsi3>
   435f4:	8809883a 	mov	r4,r17
   435f8:	b00b883a 	mov	r5,r22
   435fc:	1039883a 	mov	fp,r2
   43600:	00446100 	call	44610 <__mulsi3>
   43604:	8809883a 	mov	r4,r17
   43608:	a80b883a 	mov	r5,r21
   4360c:	1023883a 	mov	r17,r2
   43610:	00446100 	call	44610 <__mulsi3>
   43614:	d8c00217 	ldw	r3,8(sp)
   43618:	1705883a 	add	r2,r2,fp
   4361c:	d9c00317 	ldw	r7,12(sp)
   43620:	1808d43a 	srli	r4,r3,16
   43624:	da000417 	ldw	r8,16(sp)
   43628:	d9800517 	ldw	r6,20(sp)
   4362c:	2089883a 	add	r4,r4,r2
   43630:	94e5883a 	add	r18,r18,r19
   43634:	2700022e 	bgeu	r4,fp,43640 <__muldf3+0x420>
   43638:	00800074 	movhi	r2,1
   4363c:	88a3883a 	add	r17,r17,r2
   43640:	2004d43a 	srli	r2,r4,16
   43644:	2038943a 	slli	fp,r4,16
   43648:	18ffffcc 	andi	r3,r3,65535
   4364c:	b809883a 	mov	r4,r23
   43650:	a80b883a 	mov	r5,r21
   43654:	d9800415 	stw	r6,16(sp)
   43658:	da000315 	stw	r8,12(sp)
   4365c:	d9c00215 	stw	r7,8(sp)
   43660:	e0f9883a 	add	fp,fp,r3
   43664:	1463883a 	add	r17,r2,r17
   43668:	00446100 	call	44610 <__mulsi3>
   4366c:	b80b883a 	mov	r5,r23
   43670:	b009883a 	mov	r4,r22
   43674:	102f883a 	mov	r23,r2
   43678:	00446100 	call	44610 <__mulsi3>
   4367c:	b00b883a 	mov	r5,r22
   43680:	8009883a 	mov	r4,r16
   43684:	102d883a 	mov	r22,r2
   43688:	00446100 	call	44610 <__mulsi3>
   4368c:	a80b883a 	mov	r5,r21
   43690:	8009883a 	mov	r4,r16
   43694:	1021883a 	mov	r16,r2
   43698:	00446100 	call	44610 <__mulsi3>
   4369c:	b80ad43a 	srli	r5,r23,16
   436a0:	1585883a 	add	r2,r2,r22
   436a4:	d9c00217 	ldw	r7,8(sp)
   436a8:	288b883a 	add	r5,r5,r2
   436ac:	da000317 	ldw	r8,12(sp)
   436b0:	d9800417 	ldw	r6,16(sp)
   436b4:	2d80022e 	bgeu	r5,r22,436c0 <__muldf3+0x4a0>
   436b8:	00800074 	movhi	r2,1
   436bc:	80a1883a 	add	r16,r16,r2
   436c0:	2806943a 	slli	r3,r5,16
   436c4:	d8800017 	ldw	r2,0(sp)
   436c8:	bdffffcc 	andi	r23,r23,65535
   436cc:	1dc7883a 	add	r3,r3,r23
   436d0:	90ab883a 	add	r21,r18,r2
   436d4:	acd5803a 	cmpltu	r10,r21,r19
   436d8:	1d07883a 	add	r3,r3,r20
   436dc:	af2b883a 	add	r21,r21,fp
   436e0:	1a97883a 	add	r11,r3,r10
   436e4:	af09803a 	cmpltu	r4,r21,fp
   436e8:	2826d43a 	srli	r19,r5,16
   436ec:	5c53883a 	add	r9,r11,r17
   436f0:	4905883a 	add	r2,r9,r4
   436f4:	1d29803a 	cmpltu	r20,r3,r20
   436f8:	5a95803a 	cmpltu	r10,r11,r10
   436fc:	1109803a 	cmpltu	r4,r2,r4
   43700:	a2a8b03a 	or	r20,r20,r10
   43704:	4c63803a 	cmpltu	r17,r9,r17
   43708:	a4e7883a 	add	r19,r20,r19
   4370c:	8908b03a 	or	r4,r17,r4
   43710:	a824927a 	slli	r18,r21,9
   43714:	d8c00117 	ldw	r3,4(sp)
   43718:	9927883a 	add	r19,r19,r4
   4371c:	9c27883a 	add	r19,r19,r16
   43720:	9826927a 	slli	r19,r19,9
   43724:	a82ad5fa 	srli	r21,r21,23
   43728:	100ad5fa 	srli	r5,r2,23
   4372c:	90e4b03a 	or	r18,r18,r3
   43730:	1004927a 	slli	r2,r2,9
   43734:	9024c03a 	cmpne	r18,r18,zero
   43738:	9564b03a 	or	r18,r18,r21
   4373c:	98c0402c 	andhi	r3,r19,256
   43740:	90a4b03a 	or	r18,r18,r2
   43744:	9966b03a 	or	r19,r19,r5
   43748:	18007f26 	beq	r3,zero,43948 <__muldf3+0x728>
   4374c:	9006d07a 	srli	r3,r18,1
   43750:	980497fa 	slli	r2,r19,31
   43754:	9480004c 	andi	r18,r18,1
   43758:	9826d07a 	srli	r19,r19,1
   4375c:	1c86b03a 	or	r3,r3,r18
   43760:	18a4b03a 	or	r18,r3,r2
   43764:	3900ffc4 	addi	r4,r7,1023
   43768:	0100320e 	bge	zero,r4,43834 <__muldf3+0x614>
   4376c:	908001cc 	andi	r2,r18,7
   43770:	10000726 	beq	r2,zero,43790 <__muldf3+0x570>
   43774:	908003cc 	andi	r2,r18,15
   43778:	10800120 	cmpeqi	r2,r2,4
   4377c:	1000041e 	bne	r2,zero,43790 <__muldf3+0x570>
   43780:	90800104 	addi	r2,r18,4
   43784:	14a5803a 	cmpltu	r18,r2,r18
   43788:	9ca7883a 	add	r19,r19,r18
   4378c:	1025883a 	mov	r18,r2
   43790:	9880402c 	andhi	r2,r19,256
   43794:	10000426 	beq	r2,zero,437a8 <__muldf3+0x588>
   43798:	00bfc034 	movhi	r2,65280
   4379c:	10bfffc4 	addi	r2,r2,-1
   437a0:	98a6703a 	and	r19,r19,r2
   437a4:	39010004 	addi	r4,r7,1024
   437a8:	2081ffc8 	cmpgei	r2,r4,2047
   437ac:	103f381e 	bne	r2,zero,43490 <__muldf3+0x270>
   437b0:	9804977a 	slli	r2,r19,29
   437b4:	9024d0fa 	srli	r18,r18,3
   437b8:	9826927a 	slli	r19,r19,9
   437bc:	20c1ffcc 	andi	r3,r4,2047
   437c0:	14a4b03a 	or	r18,r2,r18
   437c4:	9826d33a 	srli	r19,r19,12
   437c8:	003ef106 	br	43390 <__muldf3+0x170>
   437cc:	a00d883a 	mov	r6,r20
   437d0:	003ee606 	br	4336c <__muldf3+0x14c>
   437d4:	ad4000d4 	ori	r21,r21,3
   437d8:	e023883a 	mov	r17,fp
   437dc:	010000c4 	movi	r4,3
   437e0:	003ebe06 	br	432dc <__muldf3+0xbc>
   437e4:	ad400054 	ori	r21,r21,1
   437e8:	0021883a 	mov	r16,zero
   437ec:	01000044 	movi	r4,1
   437f0:	003eba06 	br	432dc <__muldf3+0xbc>
   437f4:	2025883a 	mov	r18,r4
   437f8:	05400304 	movi	r21,12
   437fc:	0201ffc4 	movi	r8,2047
   43800:	058000c4 	movi	r22,3
   43804:	003ea406 	br	43298 <__muldf3+0x78>
   43808:	0027883a 	mov	r19,zero
   4380c:	05400104 	movi	r21,4
   43810:	0011883a 	mov	r8,zero
   43814:	05800044 	movi	r22,1
   43818:	003e9f06 	br	43298 <__muldf3+0x78>
   4381c:	04c00434 	movhi	r19,16
   43820:	000d883a 	mov	r6,zero
   43824:	9cffffc4 	addi	r19,r19,-1
   43828:	04bfffc4 	movi	r18,-1
   4382c:	00c1ffc4 	movi	r3,2047
   43830:	003ed706 	br	43390 <__muldf3+0x170>
   43834:	00800044 	movi	r2,1
   43838:	1105c83a 	sub	r2,r2,r4
   4383c:	10c00e48 	cmpgei	r3,r2,57
   43840:	183ed01e 	bne	r3,zero,43384 <__muldf3+0x164>
   43844:	10c00808 	cmpgei	r3,r2,32
   43848:	1800411e 	bne	r3,zero,43950 <__muldf3+0x730>
   4384c:	39c10784 	addi	r7,r7,1054
   43850:	99c6983a 	sll	r3,r19,r7
   43854:	9088d83a 	srl	r4,r18,r2
   43858:	91ce983a 	sll	r7,r18,r7
   4385c:	98a6d83a 	srl	r19,r19,r2
   43860:	1904b03a 	or	r2,r3,r4
   43864:	3824c03a 	cmpne	r18,r7,zero
   43868:	1484b03a 	or	r2,r2,r18
   4386c:	10c001cc 	andi	r3,r2,7
   43870:	18000726 	beq	r3,zero,43890 <__muldf3+0x670>
   43874:	10c003cc 	andi	r3,r2,15
   43878:	18c00120 	cmpeqi	r3,r3,4
   4387c:	1800041e 	bne	r3,zero,43890 <__muldf3+0x670>
   43880:	10c00104 	addi	r3,r2,4
   43884:	1885803a 	cmpltu	r2,r3,r2
   43888:	98a7883a 	add	r19,r19,r2
   4388c:	1805883a 	mov	r2,r3
   43890:	98c0202c 	andhi	r3,r19,128
   43894:	18004326 	beq	r3,zero,439a4 <__muldf3+0x784>
   43898:	00c00044 	movi	r3,1
   4389c:	0027883a 	mov	r19,zero
   438a0:	0025883a 	mov	r18,zero
   438a4:	003eba06 	br	43390 <__muldf3+0x170>
   438a8:	9880022c 	andhi	r2,r19,8
   438ac:	10000926 	beq	r2,zero,438d4 <__muldf3+0x6b4>
   438b0:	8080022c 	andhi	r2,r16,8
   438b4:	1000071e 	bne	r2,zero,438d4 <__muldf3+0x6b4>
   438b8:	00800434 	movhi	r2,16
   438bc:	84c00234 	orhi	r19,r16,8
   438c0:	10bfffc4 	addi	r2,r2,-1
   438c4:	98a6703a 	and	r19,r19,r2
   438c8:	b80d883a 	mov	r6,r23
   438cc:	8825883a 	mov	r18,r17
   438d0:	003fd606 	br	4382c <__muldf3+0x60c>
   438d4:	00800434 	movhi	r2,16
   438d8:	9cc00234 	orhi	r19,r19,8
   438dc:	10bfffc4 	addi	r2,r2,-1
   438e0:	98a6703a 	and	r19,r19,r2
   438e4:	a00d883a 	mov	r6,r20
   438e8:	003fd006 	br	4382c <__muldf3+0x60c>
   438ec:	e009883a 	mov	r4,fp
   438f0:	00445bc0 	call	445bc <__clzsi2>
   438f4:	11400544 	addi	r5,r2,21
   438f8:	29000748 	cmpgei	r4,r5,29
   438fc:	1007883a 	mov	r3,r2
   43900:	da000017 	ldw	r8,0(sp)
   43904:	10800804 	addi	r2,r2,32
   43908:	203ed626 	beq	r4,zero,43464 <__muldf3+0x244>
   4390c:	1c3ffe04 	addi	r16,r3,-8
   43910:	e420983a 	sll	r16,fp,r16
   43914:	0023883a 	mov	r17,zero
   43918:	003ed906 	br	43480 <__muldf3+0x260>
   4391c:	00445bc0 	call	445bc <__clzsi2>
   43920:	11000544 	addi	r4,r2,21
   43924:	21400748 	cmpgei	r5,r4,29
   43928:	1007883a 	mov	r3,r2
   4392c:	d9c00017 	ldw	r7,0(sp)
   43930:	10800804 	addi	r2,r2,32
   43934:	283eb026 	beq	r5,zero,433f8 <__muldf3+0x1d8>
   43938:	1cfffe04 	addi	r19,r3,-8
   4393c:	8ce6983a 	sll	r19,r17,r19
   43940:	0025883a 	mov	r18,zero
   43944:	003eb306 	br	43414 <__muldf3+0x1f4>
   43948:	400f883a 	mov	r7,r8
   4394c:	003f8506 	br	43764 <__muldf3+0x544>
   43950:	00fff844 	movi	r3,-31
   43954:	1907c83a 	sub	r3,r3,r4
   43958:	10800820 	cmpeqi	r2,r2,32
   4395c:	98c6d83a 	srl	r3,r19,r3
   43960:	1000031e 	bne	r2,zero,43970 <__muldf3+0x750>
   43964:	39c10f84 	addi	r7,r7,1086
   43968:	99e6983a 	sll	r19,r19,r7
   4396c:	94e4b03a 	or	r18,r18,r19
   43970:	9024c03a 	cmpne	r18,r18,zero
   43974:	90c4b03a 	or	r2,r18,r3
   43978:	148001cc 	andi	r18,r2,7
   4397c:	9000051e 	bne	r18,zero,43994 <__muldf3+0x774>
   43980:	0027883a 	mov	r19,zero
   43984:	1004d0fa 	srli	r2,r2,3
   43988:	0007883a 	mov	r3,zero
   4398c:	14a4b03a 	or	r18,r2,r18
   43990:	003e7f06 	br	43390 <__muldf3+0x170>
   43994:	10c003cc 	andi	r3,r2,15
   43998:	18c00118 	cmpnei	r3,r3,4
   4399c:	0027883a 	mov	r19,zero
   439a0:	183fb71e 	bne	r3,zero,43880 <__muldf3+0x660>
   439a4:	9806927a 	slli	r3,r19,9
   439a8:	9824977a 	slli	r18,r19,29
   439ac:	1826d33a 	srli	r19,r3,12
   439b0:	003ff406 	br	43984 <__muldf3+0x764>
   439b4:	00800434 	movhi	r2,16
   439b8:	9cc00234 	orhi	r19,r19,8
   439bc:	10bfffc4 	addi	r2,r2,-1
   439c0:	98a6703a 	and	r19,r19,r2
   439c4:	003f9906 	br	4382c <__muldf3+0x60c>

000439c8 <__subdf3>:
   439c8:	00c00434 	movhi	r3,16
   439cc:	3812d53a 	srli	r9,r7,20
   439d0:	18ffffc4 	addi	r3,r3,-1
   439d4:	defffb04 	addi	sp,sp,-20
   439d8:	28d0703a 	and	r8,r5,r3
   439dc:	38c6703a 	and	r3,r7,r3
   439e0:	2804d7fa 	srli	r2,r5,31
   439e4:	401090fa 	slli	r8,r8,3
   439e8:	280ad53a 	srli	r5,r5,20
   439ec:	180690fa 	slli	r3,r3,3
   439f0:	dcc00315 	stw	r19,12(sp)
   439f4:	dc400115 	stw	r17,4(sp)
   439f8:	2026d77a 	srli	r19,r4,29
   439fc:	3022d77a 	srli	r17,r6,29
   43a00:	4b41ffcc 	andi	r13,r9,2047
   43a04:	dc800215 	stw	r18,8(sp)
   43a08:	dc000015 	stw	r16,0(sp)
   43a0c:	dfc00415 	stw	ra,16(sp)
   43a10:	6a41ffe0 	cmpeqi	r9,r13,2047
   43a14:	1025883a 	mov	r18,r2
   43a18:	201690fa 	slli	r11,r4,3
   43a1c:	380ed7fa 	srli	r7,r7,31
   43a20:	301490fa 	slli	r10,r6,3
   43a24:	2c01ffcc 	andi	r16,r5,2047
   43a28:	10803fcc 	andi	r2,r2,255
   43a2c:	9a10b03a 	or	r8,r19,r8
   43a30:	88c6b03a 	or	r3,r17,r3
   43a34:	48006e1e 	bne	r9,zero,43bf0 <__subdf3+0x228>
   43a38:	3a40005c 	xori	r9,r7,1
   43a3c:	834bc83a 	sub	r5,r16,r13
   43a40:	12405726 	beq	r2,r9,43ba0 <__subdf3+0x1d8>
   43a44:	01406f0e 	bge	zero,r5,43c04 <__subdf3+0x23c>
   43a48:	68007a26 	beq	r13,zero,43c34 <__subdf3+0x26c>
   43a4c:	8081ffd8 	cmpnei	r2,r16,2047
   43a50:	10019f26 	beq	r2,zero,440d0 <__subdf3+0x708>
   43a54:	18c02034 	orhi	r3,r3,128
   43a58:	28800e48 	cmpgei	r2,r5,57
   43a5c:	1000f91e 	bne	r2,zero,43e44 <__subdf3+0x47c>
   43a60:	28800808 	cmpgei	r2,r5,32
   43a64:	1001451e 	bne	r2,zero,43f7c <__subdf3+0x5b4>
   43a68:	00800804 	movi	r2,32
   43a6c:	1145c83a 	sub	r2,r2,r5
   43a70:	18a2983a 	sll	r17,r3,r2
   43a74:	5148d83a 	srl	r4,r10,r5
   43a78:	5084983a 	sll	r2,r10,r2
   43a7c:	1946d83a 	srl	r3,r3,r5
   43a80:	8922b03a 	or	r17,r17,r4
   43a84:	1004c03a 	cmpne	r2,r2,zero
   43a88:	88a2b03a 	or	r17,r17,r2
   43a8c:	40d1c83a 	sub	r8,r8,r3
   43a90:	5c63c83a 	sub	r17,r11,r17
   43a94:	5c49803a 	cmpltu	r4,r11,r17
   43a98:	4109c83a 	sub	r4,r8,r4
   43a9c:	2080202c 	andhi	r2,r4,128
   43aa0:	1000a526 	beq	r2,zero,43d38 <__subdf3+0x370>
   43aa4:	04c02034 	movhi	r19,128
   43aa8:	9cffffc4 	addi	r19,r19,-1
   43aac:	24e6703a 	and	r19,r4,r19
   43ab0:	9800db26 	beq	r19,zero,43e20 <__subdf3+0x458>
   43ab4:	9809883a 	mov	r4,r19
   43ab8:	00445bc0 	call	445bc <__clzsi2>
   43abc:	117ffe04 	addi	r5,r2,-8
   43ac0:	01000804 	movi	r4,32
   43ac4:	2149c83a 	sub	r4,r4,r5
   43ac8:	8906d83a 	srl	r3,r17,r4
   43acc:	9948983a 	sll	r4,r19,r5
   43ad0:	8962983a 	sll	r17,r17,r5
   43ad4:	1908b03a 	or	r4,r3,r4
   43ad8:	2c00cc16 	blt	r5,r16,43e0c <__subdf3+0x444>
   43adc:	2c0bc83a 	sub	r5,r5,r16
   43ae0:	28c00044 	addi	r3,r5,1
   43ae4:	18800808 	cmpgei	r2,r3,32
   43ae8:	1001171e 	bne	r2,zero,43f48 <__subdf3+0x580>
   43aec:	00800804 	movi	r2,32
   43af0:	10c5c83a 	sub	r2,r2,r3
   43af4:	88cad83a 	srl	r5,r17,r3
   43af8:	88a2983a 	sll	r17,r17,r2
   43afc:	2084983a 	sll	r2,r4,r2
   43b00:	20c8d83a 	srl	r4,r4,r3
   43b04:	8822c03a 	cmpne	r17,r17,zero
   43b08:	1144b03a 	or	r2,r2,r5
   43b0c:	1462b03a 	or	r17,r2,r17
   43b10:	0021883a 	mov	r16,zero
   43b14:	888001cc 	andi	r2,r17,7
   43b18:	10000726 	beq	r2,zero,43b38 <__subdf3+0x170>
   43b1c:	888003cc 	andi	r2,r17,15
   43b20:	10800120 	cmpeqi	r2,r2,4
   43b24:	1000041e 	bne	r2,zero,43b38 <__subdf3+0x170>
   43b28:	88c00104 	addi	r3,r17,4
   43b2c:	1c63803a 	cmpltu	r17,r3,r17
   43b30:	2449883a 	add	r4,r4,r17
   43b34:	1823883a 	mov	r17,r3
   43b38:	2080202c 	andhi	r2,r4,128
   43b3c:	10008026 	beq	r2,zero,43d40 <__subdf3+0x378>
   43b40:	81400044 	addi	r5,r16,1
   43b44:	2881ffe0 	cmpeqi	r2,r5,2047
   43b48:	2941ffcc 	andi	r5,r5,2047
   43b4c:	1000921e 	bne	r2,zero,43d98 <__subdf3+0x3d0>
   43b50:	00bfe034 	movhi	r2,65408
   43b54:	10bfffc4 	addi	r2,r2,-1
   43b58:	2088703a 	and	r4,r4,r2
   43b5c:	2006927a 	slli	r3,r4,9
   43b60:	8822d0fa 	srli	r17,r17,3
   43b64:	2004977a 	slli	r2,r4,29
   43b68:	1806d33a 	srli	r3,r3,12
   43b6c:	1444b03a 	or	r2,r2,r17
   43b70:	280a953a 	slli	r5,r5,20
   43b74:	94803fcc 	andi	r18,r18,255
   43b78:	902497fa 	slli	r18,r18,31
   43b7c:	28c6b03a 	or	r3,r5,r3
   43b80:	1c86b03a 	or	r3,r3,r18
   43b84:	dfc00417 	ldw	ra,16(sp)
   43b88:	dcc00317 	ldw	r19,12(sp)
   43b8c:	dc800217 	ldw	r18,8(sp)
   43b90:	dc400117 	ldw	r17,4(sp)
   43b94:	dc000017 	ldw	r16,0(sp)
   43b98:	dec00504 	addi	sp,sp,20
   43b9c:	f800283a 	ret
   43ba0:	01402e0e 	bge	zero,r5,43c5c <__subdf3+0x294>
   43ba4:	68005526 	beq	r13,zero,43cfc <__subdf3+0x334>
   43ba8:	8081ffd8 	cmpnei	r2,r16,2047
   43bac:	10013b26 	beq	r2,zero,4409c <__subdf3+0x6d4>
   43bb0:	18c02034 	orhi	r3,r3,128
   43bb4:	28800e48 	cmpgei	r2,r5,57
   43bb8:	10006d1e 	bne	r2,zero,43d70 <__subdf3+0x3a8>
   43bbc:	28800808 	cmpgei	r2,r5,32
   43bc0:	10010826 	beq	r2,zero,43fe4 <__subdf3+0x61c>
   43bc4:	2c7ff804 	addi	r17,r5,-32
   43bc8:	29000820 	cmpeqi	r4,r5,32
   43bcc:	1c44d83a 	srl	r2,r3,r17
   43bd0:	2000041e 	bne	r4,zero,43be4 <__subdf3+0x21c>
   43bd4:	01001004 	movi	r4,64
   43bd8:	214bc83a 	sub	r5,r4,r5
   43bdc:	1946983a 	sll	r3,r3,r5
   43be0:	50d4b03a 	or	r10,r10,r3
   43be4:	5022c03a 	cmpne	r17,r10,zero
   43be8:	88a2b03a 	or	r17,r17,r2
   43bec:	00006206 	br	43d78 <__subdf3+0x3b0>
   43bf0:	1a98b03a 	or	r12,r3,r10
   43bf4:	817e0044 	addi	r5,r16,-2047
   43bf8:	6000161e 	bne	r12,zero,43c54 <__subdf3+0x28c>
   43bfc:	3a40005c 	xori	r9,r7,1
   43c00:	12401626 	beq	r2,r9,43c5c <__subdf3+0x294>
   43c04:	28002e26 	beq	r5,zero,43cc0 <__subdf3+0x2f8>
   43c08:	6c0bc83a 	sub	r5,r13,r16
   43c0c:	4825883a 	mov	r18,r9
   43c10:	80009e1e 	bne	r16,zero,43e8c <__subdf3+0x4c4>
   43c14:	42c4b03a 	or	r2,r8,r11
   43c18:	10010926 	beq	r2,zero,44040 <__subdf3+0x678>
   43c1c:	28bfffc4 	addi	r2,r5,-1
   43c20:	10016826 	beq	r2,zero,441c4 <__subdf3+0x7fc>
   43c24:	2941ffd8 	cmpnei	r5,r5,2047
   43c28:	28015f26 	beq	r5,zero,441a8 <__subdf3+0x7e0>
   43c2c:	100b883a 	mov	r5,r2
   43c30:	00009906 	br	43e98 <__subdf3+0x4d0>
   43c34:	1a84b03a 	or	r2,r3,r10
   43c38:	1000b126 	beq	r2,zero,43f00 <__subdf3+0x538>
   43c3c:	28bfffc4 	addi	r2,r5,-1
   43c40:	10011d26 	beq	r2,zero,440b8 <__subdf3+0x6f0>
   43c44:	2941ffd8 	cmpnei	r5,r5,2047
   43c48:	28011426 	beq	r5,zero,4409c <__subdf3+0x6d4>
   43c4c:	100b883a 	mov	r5,r2
   43c50:	003f8106 	br	43a58 <__subdf3+0x90>
   43c54:	3a403fcc 	andi	r9,r7,255
   43c58:	11ffea1e 	bne	r2,r7,43c04 <__subdf3+0x23c>
   43c5c:	28007c26 	beq	r5,zero,43e50 <__subdf3+0x488>
   43c60:	6c0bc83a 	sub	r5,r13,r16
   43c64:	8000d726 	beq	r16,zero,43fc4 <__subdf3+0x5fc>
   43c68:	6881ffd8 	cmpnei	r2,r13,2047
   43c6c:	10012626 	beq	r2,zero,44108 <__subdf3+0x740>
   43c70:	42002034 	orhi	r8,r8,128
   43c74:	28800e48 	cmpgei	r2,r5,57
   43c78:	10012a1e 	bne	r2,zero,44124 <__subdf3+0x75c>
   43c7c:	28800808 	cmpgei	r2,r5,32
   43c80:	1001821e 	bne	r2,zero,4428c <__subdf3+0x8c4>
   43c84:	00800804 	movi	r2,32
   43c88:	1145c83a 	sub	r2,r2,r5
   43c8c:	40a2983a 	sll	r17,r8,r2
   43c90:	5948d83a 	srl	r4,r11,r5
   43c94:	5884983a 	sll	r2,r11,r2
   43c98:	4150d83a 	srl	r8,r8,r5
   43c9c:	8922b03a 	or	r17,r17,r4
   43ca0:	1004c03a 	cmpne	r2,r2,zero
   43ca4:	88a2b03a 	or	r17,r17,r2
   43ca8:	1a07883a 	add	r3,r3,r8
   43cac:	8aa3883a 	add	r17,r17,r10
   43cb0:	8a89803a 	cmpltu	r4,r17,r10
   43cb4:	20c9883a 	add	r4,r4,r3
   43cb8:	6821883a 	mov	r16,r13
   43cbc:	00003106 	br	43d84 <__subdf3+0x3bc>
   43cc0:	80800044 	addi	r2,r16,1
   43cc4:	1081ff8c 	andi	r2,r2,2046
   43cc8:	1000821e 	bne	r2,zero,43ed4 <__subdf3+0x50c>
   43ccc:	42ceb03a 	or	r7,r8,r11
   43cd0:	1a84b03a 	or	r2,r3,r10
   43cd4:	8000e11e 	bne	r16,zero,4405c <__subdf3+0x694>
   43cd8:	38012a26 	beq	r7,zero,44184 <__subdf3+0x7bc>
   43cdc:	1001461e 	bne	r2,zero,441f8 <__subdf3+0x830>
   43ce0:	4004977a 	slli	r2,r8,29
   43ce4:	00c80034 	movhi	r3,8192
   43ce8:	18ffffc4 	addi	r3,r3,-1
   43cec:	20c8703a 	and	r4,r4,r3
   43cf0:	4010d0fa 	srli	r8,r8,3
   43cf4:	1104b03a 	or	r2,r2,r4
   43cf8:	00001806 	br	43d5c <__subdf3+0x394>
   43cfc:	1a84b03a 	or	r2,r3,r10
   43d00:	1000fa26 	beq	r2,zero,440ec <__subdf3+0x724>
   43d04:	28bfffc4 	addi	r2,r5,-1
   43d08:	10000426 	beq	r2,zero,43d1c <__subdf3+0x354>
   43d0c:	2941ffd8 	cmpnei	r5,r5,2047
   43d10:	28013226 	beq	r5,zero,441dc <__subdf3+0x814>
   43d14:	100b883a 	mov	r5,r2
   43d18:	003fa606 	br	43bb4 <__subdf3+0x1ec>
   43d1c:	5aa3883a 	add	r17,r11,r10
   43d20:	40c9883a 	add	r4,r8,r3
   43d24:	8ad7803a 	cmpltu	r11,r17,r11
   43d28:	22c9883a 	add	r4,r4,r11
   43d2c:	2080202c 	andhi	r2,r4,128
   43d30:	10007a1e 	bne	r2,zero,43f1c <__subdf3+0x554>
   43d34:	04000044 	movi	r16,1
   43d38:	888001cc 	andi	r2,r17,7
   43d3c:	103f771e 	bne	r2,zero,43b1c <__subdf3+0x154>
   43d40:	8822d0fa 	srli	r17,r17,3
   43d44:	2004977a 	slli	r2,r4,29
   43d48:	2010d0fa 	srli	r8,r4,3
   43d4c:	800b883a 	mov	r5,r16
   43d50:	8884b03a 	or	r2,r17,r2
   43d54:	28c1ffe0 	cmpeqi	r3,r5,2047
   43d58:	1800241e 	bne	r3,zero,43dec <__subdf3+0x424>
   43d5c:	00c00434 	movhi	r3,16
   43d60:	18ffffc4 	addi	r3,r3,-1
   43d64:	40c6703a 	and	r3,r8,r3
   43d68:	2941ffcc 	andi	r5,r5,2047
   43d6c:	003f8006 	br	43b70 <__subdf3+0x1a8>
   43d70:	1aa2b03a 	or	r17,r3,r10
   43d74:	8822c03a 	cmpne	r17,r17,zero
   43d78:	8ae3883a 	add	r17,r17,r11
   43d7c:	8ac9803a 	cmpltu	r4,r17,r11
   43d80:	2209883a 	add	r4,r4,r8
   43d84:	2080202c 	andhi	r2,r4,128
   43d88:	103feb26 	beq	r2,zero,43d38 <__subdf3+0x370>
   43d8c:	84000044 	addi	r16,r16,1
   43d90:	8081ffe0 	cmpeqi	r2,r16,2047
   43d94:	10006226 	beq	r2,zero,43f20 <__subdf3+0x558>
   43d98:	0141ffc4 	movi	r5,2047
   43d9c:	0007883a 	mov	r3,zero
   43da0:	0005883a 	mov	r2,zero
   43da4:	003f7206 	br	43b70 <__subdf3+0x1a8>
   43da8:	400e977a 	slli	r7,r8,29
   43dac:	4010d0fa 	srli	r8,r8,3
   43db0:	1000ef26 	beq	r2,zero,44170 <__subdf3+0x7a8>
   43db4:	01480034 	movhi	r5,8192
   43db8:	297fffc4 	addi	r5,r5,-1
   43dbc:	2144703a 	and	r2,r4,r5
   43dc0:	4100022c 	andhi	r4,r8,8
   43dc4:	11c4b03a 	or	r2,r2,r7
   43dc8:	20000826 	beq	r4,zero,43dec <__subdf3+0x424>
   43dcc:	1808d0fa 	srli	r4,r3,3
   43dd0:	21c0022c 	andhi	r7,r4,8
   43dd4:	3800051e 	bne	r7,zero,43dec <__subdf3+0x424>
   43dd8:	1804977a 	slli	r2,r3,29
   43ddc:	314c703a 	and	r6,r6,r5
   43de0:	4825883a 	mov	r18,r9
   43de4:	3084b03a 	or	r2,r6,r2
   43de8:	2011883a 	mov	r8,r4
   43dec:	1206b03a 	or	r3,r2,r8
   43df0:	18013e26 	beq	r3,zero,442ec <__subdf3+0x924>
   43df4:	01000434 	movhi	r4,16
   43df8:	40c00234 	orhi	r3,r8,8
   43dfc:	213fffc4 	addi	r4,r4,-1
   43e00:	1906703a 	and	r3,r3,r4
   43e04:	0141ffc4 	movi	r5,2047
   43e08:	003f5906 	br	43b70 <__subdf3+0x1a8>
   43e0c:	00ffe034 	movhi	r3,65408
   43e10:	18ffffc4 	addi	r3,r3,-1
   43e14:	8161c83a 	sub	r16,r16,r5
   43e18:	20c8703a 	and	r4,r4,r3
   43e1c:	003f3d06 	br	43b14 <__subdf3+0x14c>
   43e20:	8809883a 	mov	r4,r17
   43e24:	00445bc0 	call	445bc <__clzsi2>
   43e28:	11400604 	addi	r5,r2,24
   43e2c:	28c00808 	cmpgei	r3,r5,32
   43e30:	183f2326 	beq	r3,zero,43ac0 <__subdf3+0xf8>
   43e34:	113ffe04 	addi	r4,r2,-8
   43e38:	8908983a 	sll	r4,r17,r4
   43e3c:	0023883a 	mov	r17,zero
   43e40:	003f2506 	br	43ad8 <__subdf3+0x110>
   43e44:	1aa2b03a 	or	r17,r3,r10
   43e48:	8822c03a 	cmpne	r17,r17,zero
   43e4c:	003f1006 	br	43a90 <__subdf3+0xc8>
   43e50:	80800044 	addi	r2,r16,1
   43e54:	11c1ff8c 	andi	r7,r2,2046
   43e58:	38006d1e 	bne	r7,zero,44010 <__subdf3+0x648>
   43e5c:	42c4b03a 	or	r2,r8,r11
   43e60:	8000be1e 	bne	r16,zero,4415c <__subdf3+0x794>
   43e64:	1000f726 	beq	r2,zero,44244 <__subdf3+0x87c>
   43e68:	1a84b03a 	or	r2,r3,r10
   43e6c:	1000fc1e 	bne	r2,zero,44260 <__subdf3+0x898>
   43e70:	4006977a 	slli	r3,r8,29
   43e74:	00880034 	movhi	r2,8192
   43e78:	10bfffc4 	addi	r2,r2,-1
   43e7c:	2084703a 	and	r2,r4,r2
   43e80:	4010d0fa 	srli	r8,r8,3
   43e84:	10c4b03a 	or	r2,r2,r3
   43e88:	003fb406 	br	43d5c <__subdf3+0x394>
   43e8c:	6881ffd8 	cmpnei	r2,r13,2047
   43e90:	10009d26 	beq	r2,zero,44108 <__subdf3+0x740>
   43e94:	42002034 	orhi	r8,r8,128
   43e98:	28800e48 	cmpgei	r2,r5,57
   43e9c:	1000421e 	bne	r2,zero,43fa8 <__subdf3+0x5e0>
   43ea0:	28800808 	cmpgei	r2,r5,32
   43ea4:	1000a21e 	bne	r2,zero,44130 <__subdf3+0x768>
   43ea8:	00800804 	movi	r2,32
   43eac:	1145c83a 	sub	r2,r2,r5
   43eb0:	40a2983a 	sll	r17,r8,r2
   43eb4:	5948d83a 	srl	r4,r11,r5
   43eb8:	5896983a 	sll	r11,r11,r2
   43ebc:	4150d83a 	srl	r8,r8,r5
   43ec0:	8922b03a 	or	r17,r17,r4
   43ec4:	5816c03a 	cmpne	r11,r11,zero
   43ec8:	8ae2b03a 	or	r17,r17,r11
   43ecc:	1a07c83a 	sub	r3,r3,r8
   43ed0:	00003706 	br	43fb0 <__subdf3+0x5e8>
   43ed4:	5aa3c83a 	sub	r17,r11,r10
   43ed8:	40e7c83a 	sub	r19,r8,r3
   43edc:	5c49803a 	cmpltu	r4,r11,r17
   43ee0:	9927c83a 	sub	r19,r19,r4
   43ee4:	9880202c 	andhi	r2,r19,128
   43ee8:	1000661e 	bne	r2,zero,44084 <__subdf3+0x6bc>
   43eec:	8cc4b03a 	or	r2,r17,r19
   43ef0:	103eef1e 	bne	r2,zero,43ab0 <__subdf3+0xe8>
   43ef4:	0011883a 	mov	r8,zero
   43ef8:	0025883a 	mov	r18,zero
   43efc:	003f9706 	br	43d5c <__subdf3+0x394>
   43f00:	4022977a 	slli	r17,r8,29
   43f04:	00880034 	movhi	r2,8192
   43f08:	10bfffc4 	addi	r2,r2,-1
   43f0c:	2088703a 	and	r4,r4,r2
   43f10:	4010d0fa 	srli	r8,r8,3
   43f14:	2444b03a 	or	r2,r4,r17
   43f18:	003f8e06 	br	43d54 <__subdf3+0x38c>
   43f1c:	04000084 	movi	r16,2
   43f20:	00bfe034 	movhi	r2,65408
   43f24:	10bfffc4 	addi	r2,r2,-1
   43f28:	8806d07a 	srli	r3,r17,1
   43f2c:	2088703a 	and	r4,r4,r2
   43f30:	200497fa 	slli	r2,r4,31
   43f34:	8c40004c 	andi	r17,r17,1
   43f38:	1c62b03a 	or	r17,r3,r17
   43f3c:	2008d07a 	srli	r4,r4,1
   43f40:	1462b03a 	or	r17,r2,r17
   43f44:	003ef306 	br	43b14 <__subdf3+0x14c>
   43f48:	297ff844 	addi	r5,r5,-31
   43f4c:	18800820 	cmpeqi	r2,r3,32
   43f50:	214ad83a 	srl	r5,r4,r5
   43f54:	1000041e 	bne	r2,zero,43f68 <__subdf3+0x5a0>
   43f58:	00801004 	movi	r2,64
   43f5c:	10c7c83a 	sub	r3,r2,r3
   43f60:	20c8983a 	sll	r4,r4,r3
   43f64:	8922b03a 	or	r17,r17,r4
   43f68:	8822c03a 	cmpne	r17,r17,zero
   43f6c:	8962b03a 	or	r17,r17,r5
   43f70:	0009883a 	mov	r4,zero
   43f74:	0021883a 	mov	r16,zero
   43f78:	003f6f06 	br	43d38 <__subdf3+0x370>
   43f7c:	2c7ff804 	addi	r17,r5,-32
   43f80:	29000820 	cmpeqi	r4,r5,32
   43f84:	1c44d83a 	srl	r2,r3,r17
   43f88:	2000041e 	bne	r4,zero,43f9c <__subdf3+0x5d4>
   43f8c:	01001004 	movi	r4,64
   43f90:	214bc83a 	sub	r5,r4,r5
   43f94:	1946983a 	sll	r3,r3,r5
   43f98:	50d4b03a 	or	r10,r10,r3
   43f9c:	5022c03a 	cmpne	r17,r10,zero
   43fa0:	88a2b03a 	or	r17,r17,r2
   43fa4:	003eba06 	br	43a90 <__subdf3+0xc8>
   43fa8:	42d0b03a 	or	r8,r8,r11
   43fac:	4022c03a 	cmpne	r17,r8,zero
   43fb0:	5463c83a 	sub	r17,r10,r17
   43fb4:	5449803a 	cmpltu	r4,r10,r17
   43fb8:	1909c83a 	sub	r4,r3,r4
   43fbc:	6821883a 	mov	r16,r13
   43fc0:	003eb606 	br	43a9c <__subdf3+0xd4>
   43fc4:	42c4b03a 	or	r2,r8,r11
   43fc8:	10009726 	beq	r2,zero,44228 <__subdf3+0x860>
   43fcc:	28bfffc4 	addi	r2,r5,-1
   43fd0:	1000b926 	beq	r2,zero,442b8 <__subdf3+0x8f0>
   43fd4:	2941ffd8 	cmpnei	r5,r5,2047
   43fd8:	28007326 	beq	r5,zero,441a8 <__subdf3+0x7e0>
   43fdc:	100b883a 	mov	r5,r2
   43fe0:	003f2406 	br	43c74 <__subdf3+0x2ac>
   43fe4:	00800804 	movi	r2,32
   43fe8:	1145c83a 	sub	r2,r2,r5
   43fec:	18a2983a 	sll	r17,r3,r2
   43ff0:	5148d83a 	srl	r4,r10,r5
   43ff4:	5084983a 	sll	r2,r10,r2
   43ff8:	1946d83a 	srl	r3,r3,r5
   43ffc:	8922b03a 	or	r17,r17,r4
   44000:	1004c03a 	cmpne	r2,r2,zero
   44004:	88a2b03a 	or	r17,r17,r2
   44008:	40d1883a 	add	r8,r8,r3
   4400c:	003f5a06 	br	43d78 <__subdf3+0x3b0>
   44010:	1101ffe0 	cmpeqi	r4,r2,2047
   44014:	203f601e 	bne	r4,zero,43d98 <__subdf3+0x3d0>
   44018:	5a95883a 	add	r10,r11,r10
   4401c:	52d7803a 	cmpltu	r11,r10,r11
   44020:	40c9883a 	add	r4,r8,r3
   44024:	22c9883a 	add	r4,r4,r11
   44028:	202297fa 	slli	r17,r4,31
   4402c:	5014d07a 	srli	r10,r10,1
   44030:	2008d07a 	srli	r4,r4,1
   44034:	1021883a 	mov	r16,r2
   44038:	8aa2b03a 	or	r17,r17,r10
   4403c:	003f3e06 	br	43d38 <__subdf3+0x370>
   44040:	1808977a 	slli	r4,r3,29
   44044:	00880034 	movhi	r2,8192
   44048:	10bfffc4 	addi	r2,r2,-1
   4404c:	308c703a 	and	r6,r6,r2
   44050:	1810d0fa 	srli	r8,r3,3
   44054:	3104b03a 	or	r2,r6,r4
   44058:	003f3e06 	br	43d54 <__subdf3+0x38c>
   4405c:	383f521e 	bne	r7,zero,43da8 <__subdf3+0x3e0>
   44060:	10009d26 	beq	r2,zero,442d8 <__subdf3+0x910>
   44064:	1808977a 	slli	r4,r3,29
   44068:	00880034 	movhi	r2,8192
   4406c:	10bfffc4 	addi	r2,r2,-1
   44070:	3084703a 	and	r2,r6,r2
   44074:	1810d0fa 	srli	r8,r3,3
   44078:	1104b03a 	or	r2,r2,r4
   4407c:	4825883a 	mov	r18,r9
   44080:	003f5a06 	br	43dec <__subdf3+0x424>
   44084:	52e3c83a 	sub	r17,r10,r11
   44088:	1a09c83a 	sub	r4,r3,r8
   4408c:	5467803a 	cmpltu	r19,r10,r17
   44090:	24e7c83a 	sub	r19,r4,r19
   44094:	4825883a 	mov	r18,r9
   44098:	003e8506 	br	43ab0 <__subdf3+0xe8>
   4409c:	4022977a 	slli	r17,r8,29
   440a0:	00880034 	movhi	r2,8192
   440a4:	10bfffc4 	addi	r2,r2,-1
   440a8:	2088703a 	and	r4,r4,r2
   440ac:	4010d0fa 	srli	r8,r8,3
   440b0:	2444b03a 	or	r2,r4,r17
   440b4:	003f4d06 	br	43dec <__subdf3+0x424>
   440b8:	5aa3c83a 	sub	r17,r11,r10
   440bc:	40c9c83a 	sub	r4,r8,r3
   440c0:	5c57803a 	cmpltu	r11,r11,r17
   440c4:	22c9c83a 	sub	r4,r4,r11
   440c8:	04000044 	movi	r16,1
   440cc:	003e7306 	br	43a9c <__subdf3+0xd4>
   440d0:	4004977a 	slli	r2,r8,29
   440d4:	00c80034 	movhi	r3,8192
   440d8:	18ffffc4 	addi	r3,r3,-1
   440dc:	20c8703a 	and	r4,r4,r3
   440e0:	4010d0fa 	srli	r8,r8,3
   440e4:	1104b03a 	or	r2,r2,r4
   440e8:	003f4006 	br	43dec <__subdf3+0x424>
   440ec:	4004977a 	slli	r2,r8,29
   440f0:	00c80034 	movhi	r3,8192
   440f4:	18ffffc4 	addi	r3,r3,-1
   440f8:	20c8703a 	and	r4,r4,r3
   440fc:	4010d0fa 	srli	r8,r8,3
   44100:	1104b03a 	or	r2,r2,r4
   44104:	003f1306 	br	43d54 <__subdf3+0x38c>
   44108:	1804977a 	slli	r2,r3,29
   4410c:	01080034 	movhi	r4,8192
   44110:	213fffc4 	addi	r4,r4,-1
   44114:	310c703a 	and	r6,r6,r4
   44118:	1810d0fa 	srli	r8,r3,3
   4411c:	1184b03a 	or	r2,r2,r6
   44120:	003f3206 	br	43dec <__subdf3+0x424>
   44124:	42d0b03a 	or	r8,r8,r11
   44128:	4022c03a 	cmpne	r17,r8,zero
   4412c:	003edf06 	br	43cac <__subdf3+0x2e4>
   44130:	2c7ff804 	addi	r17,r5,-32
   44134:	29000820 	cmpeqi	r4,r5,32
   44138:	4444d83a 	srl	r2,r8,r17
   4413c:	2000041e 	bne	r4,zero,44150 <__subdf3+0x788>
   44140:	01001004 	movi	r4,64
   44144:	214bc83a 	sub	r5,r4,r5
   44148:	4150983a 	sll	r8,r8,r5
   4414c:	5a16b03a 	or	r11,r11,r8
   44150:	5822c03a 	cmpne	r17,r11,zero
   44154:	88a2b03a 	or	r17,r17,r2
   44158:	003f9506 	br	43fb0 <__subdf3+0x5e8>
   4415c:	103fea26 	beq	r2,zero,44108 <__subdf3+0x740>
   44160:	1a94b03a 	or	r10,r3,r10
   44164:	400e977a 	slli	r7,r8,29
   44168:	4010d0fa 	srli	r8,r8,3
   4416c:	503f111e 	bne	r10,zero,43db4 <__subdf3+0x3ec>
   44170:	00880034 	movhi	r2,8192
   44174:	10bfffc4 	addi	r2,r2,-1
   44178:	2084703a 	and	r2,r4,r2
   4417c:	11c4b03a 	or	r2,r2,r7
   44180:	003f1a06 	br	43dec <__subdf3+0x424>
   44184:	103f5b26 	beq	r2,zero,43ef4 <__subdf3+0x52c>
   44188:	1804977a 	slli	r2,r3,29
   4418c:	01080034 	movhi	r4,8192
   44190:	213fffc4 	addi	r4,r4,-1
   44194:	310c703a 	and	r6,r6,r4
   44198:	1810d0fa 	srli	r8,r3,3
   4419c:	1184b03a 	or	r2,r2,r6
   441a0:	4825883a 	mov	r18,r9
   441a4:	003eed06 	br	43d5c <__subdf3+0x394>
   441a8:	1808977a 	slli	r4,r3,29
   441ac:	00880034 	movhi	r2,8192
   441b0:	10bfffc4 	addi	r2,r2,-1
   441b4:	3084703a 	and	r2,r6,r2
   441b8:	1810d0fa 	srli	r8,r3,3
   441bc:	1104b03a 	or	r2,r2,r4
   441c0:	003f0a06 	br	43dec <__subdf3+0x424>
   441c4:	52e3c83a 	sub	r17,r10,r11
   441c8:	1a09c83a 	sub	r4,r3,r8
   441cc:	5455803a 	cmpltu	r10,r10,r17
   441d0:	2289c83a 	sub	r4,r4,r10
   441d4:	04000044 	movi	r16,1
   441d8:	003e3006 	br	43a9c <__subdf3+0xd4>
   441dc:	4006977a 	slli	r3,r8,29
   441e0:	00880034 	movhi	r2,8192
   441e4:	10bfffc4 	addi	r2,r2,-1
   441e8:	2084703a 	and	r2,r4,r2
   441ec:	4010d0fa 	srli	r8,r8,3
   441f0:	10c4b03a 	or	r2,r2,r3
   441f4:	003efd06 	br	43dec <__subdf3+0x424>
   441f8:	5aa3c83a 	sub	r17,r11,r10
   441fc:	5c45803a 	cmpltu	r2,r11,r17
   44200:	40c9c83a 	sub	r4,r8,r3
   44204:	2089c83a 	sub	r4,r4,r2
   44208:	2080202c 	andhi	r2,r4,128
   4420c:	10002f26 	beq	r2,zero,442cc <__subdf3+0x904>
   44210:	52e3c83a 	sub	r17,r10,r11
   44214:	1a09c83a 	sub	r4,r3,r8
   44218:	5455803a 	cmpltu	r10,r10,r17
   4421c:	2289c83a 	sub	r4,r4,r10
   44220:	4825883a 	mov	r18,r9
   44224:	003e3b06 	br	43b14 <__subdf3+0x14c>
   44228:	1808977a 	slli	r4,r3,29
   4422c:	00880034 	movhi	r2,8192
   44230:	10bfffc4 	addi	r2,r2,-1
   44234:	3084703a 	and	r2,r6,r2
   44238:	1810d0fa 	srli	r8,r3,3
   4423c:	1104b03a 	or	r2,r2,r4
   44240:	003ec406 	br	43d54 <__subdf3+0x38c>
   44244:	1808977a 	slli	r4,r3,29
   44248:	00880034 	movhi	r2,8192
   4424c:	10bfffc4 	addi	r2,r2,-1
   44250:	3084703a 	and	r2,r6,r2
   44254:	1810d0fa 	srli	r8,r3,3
   44258:	1104b03a 	or	r2,r2,r4
   4425c:	003ebf06 	br	43d5c <__subdf3+0x394>
   44260:	5aa3883a 	add	r17,r11,r10
   44264:	40c9883a 	add	r4,r8,r3
   44268:	8ad7803a 	cmpltu	r11,r17,r11
   4426c:	22c9883a 	add	r4,r4,r11
   44270:	2080202c 	andhi	r2,r4,128
   44274:	103eb026 	beq	r2,zero,43d38 <__subdf3+0x370>
   44278:	00bfe034 	movhi	r2,65408
   4427c:	10bfffc4 	addi	r2,r2,-1
   44280:	2088703a 	and	r4,r4,r2
   44284:	04000044 	movi	r16,1
   44288:	003eab06 	br	43d38 <__subdf3+0x370>
   4428c:	28bff804 	addi	r2,r5,-32
   44290:	29000820 	cmpeqi	r4,r5,32
   44294:	4084d83a 	srl	r2,r8,r2
   44298:	2000041e 	bne	r4,zero,442ac <__subdf3+0x8e4>
   4429c:	01001004 	movi	r4,64
   442a0:	214bc83a 	sub	r5,r4,r5
   442a4:	4150983a 	sll	r8,r8,r5
   442a8:	5a16b03a 	or	r11,r11,r8
   442ac:	5822c03a 	cmpne	r17,r11,zero
   442b0:	88a2b03a 	or	r17,r17,r2
   442b4:	003e7d06 	br	43cac <__subdf3+0x2e4>
   442b8:	5aa3883a 	add	r17,r11,r10
   442bc:	40c9883a 	add	r4,r8,r3
   442c0:	8a95803a 	cmpltu	r10,r17,r10
   442c4:	2289883a 	add	r4,r4,r10
   442c8:	003e9806 	br	43d2c <__subdf3+0x364>
   442cc:	8904b03a 	or	r2,r17,r4
   442d0:	103f0826 	beq	r2,zero,43ef4 <__subdf3+0x52c>
   442d4:	003e9806 	br	43d38 <__subdf3+0x370>
   442d8:	02000434 	movhi	r8,16
   442dc:	423fffc4 	addi	r8,r8,-1
   442e0:	0025883a 	mov	r18,zero
   442e4:	00bfffc4 	movi	r2,-1
   442e8:	003ec206 	br	43df4 <__subdf3+0x42c>
   442ec:	0005883a 	mov	r2,zero
   442f0:	0141ffc4 	movi	r5,2047
   442f4:	0007883a 	mov	r3,zero
   442f8:	003e1d06 	br	43b70 <__subdf3+0x1a8>

000442fc <__unorddf2>:
   442fc:	2806d53a 	srli	r3,r5,20
   44300:	3810d53a 	srli	r8,r7,20
   44304:	02400434 	movhi	r9,16
   44308:	18c1ffcc 	andi	r3,r3,2047
   4430c:	4a7fffc4 	addi	r9,r9,-1
   44310:	18c1ffd8 	cmpnei	r3,r3,2047
   44314:	2a4a703a 	and	r5,r5,r9
   44318:	3a4e703a 	and	r7,r7,r9
   4431c:	4201ffcc 	andi	r8,r8,2047
   44320:	18000426 	beq	r3,zero,44334 <__unorddf2+0x38>
   44324:	4201ffd8 	cmpnei	r8,r8,2047
   44328:	40000626 	beq	r8,zero,44344 <__unorddf2+0x48>
   4432c:	0005883a 	mov	r2,zero
   44330:	f800283a 	ret
   44334:	214ab03a 	or	r5,r4,r5
   44338:	283ffa26 	beq	r5,zero,44324 <__unorddf2+0x28>
   4433c:	00800044 	movi	r2,1
   44340:	f800283a 	ret
   44344:	398eb03a 	or	r7,r7,r6
   44348:	3804c03a 	cmpne	r2,r7,zero
   4434c:	f800283a 	ret

00044350 <__extendsfdf2>:
   44350:	200ad5fa 	srli	r5,r4,23
   44354:	defffd04 	addi	sp,sp,-12
   44358:	dc000015 	stw	r16,0(sp)
   4435c:	29403fcc 	andi	r5,r5,255
   44360:	04002034 	movhi	r16,128
   44364:	28800044 	addi	r2,r5,1
   44368:	dc400115 	stw	r17,4(sp)
   4436c:	843fffc4 	addi	r16,r16,-1
   44370:	dfc00215 	stw	ra,8(sp)
   44374:	10803f8c 	andi	r2,r2,254
   44378:	2022d7fa 	srli	r17,r4,31
   4437c:	8120703a 	and	r16,r16,r4
   44380:	10000d26 	beq	r2,zero,443b8 <__extendsfdf2+0x68>
   44384:	8008d0fa 	srli	r4,r16,3
   44388:	8020977a 	slli	r16,r16,29
   4438c:	28c0e004 	addi	r3,r5,896
   44390:	180a953a 	slli	r5,r3,20
   44394:	880697fa 	slli	r3,r17,31
   44398:	8005883a 	mov	r2,r16
   4439c:	290ab03a 	or	r5,r5,r4
   443a0:	28c6b03a 	or	r3,r5,r3
   443a4:	dfc00217 	ldw	ra,8(sp)
   443a8:	dc400117 	ldw	r17,4(sp)
   443ac:	dc000017 	ldw	r16,0(sp)
   443b0:	dec00304 	addi	sp,sp,12
   443b4:	f800283a 	ret
   443b8:	2800111e 	bne	r5,zero,44400 <__extendsfdf2+0xb0>
   443bc:	80001926 	beq	r16,zero,44424 <__extendsfdf2+0xd4>
   443c0:	8009883a 	mov	r4,r16
   443c4:	00445bc0 	call	445bc <__clzsi2>
   443c8:	10c002c8 	cmpgei	r3,r2,11
   443cc:	18001b1e 	bne	r3,zero,4443c <__extendsfdf2+0xec>
   443d0:	010002c4 	movi	r4,11
   443d4:	2089c83a 	sub	r4,r4,r2
   443d8:	10c00544 	addi	r3,r2,21
   443dc:	810ad83a 	srl	r5,r16,r4
   443e0:	80e0983a 	sll	r16,r16,r3
   443e4:	00c0e244 	movi	r3,905
   443e8:	01000434 	movhi	r4,16
   443ec:	213fffc4 	addi	r4,r4,-1
   443f0:	1885c83a 	sub	r2,r3,r2
   443f4:	2908703a 	and	r4,r5,r4
   443f8:	10c1ffcc 	andi	r3,r2,2047
   443fc:	003fe406 	br	44390 <__extendsfdf2+0x40>
   44400:	80000b26 	beq	r16,zero,44430 <__extendsfdf2+0xe0>
   44404:	800ad0fa 	srli	r5,r16,3
   44408:	00800434 	movhi	r2,16
   4440c:	10bfffc4 	addi	r2,r2,-1
   44410:	29000234 	orhi	r4,r5,8
   44414:	8020977a 	slli	r16,r16,29
   44418:	2088703a 	and	r4,r4,r2
   4441c:	00c1ffc4 	movi	r3,2047
   44420:	003fdb06 	br	44390 <__extendsfdf2+0x40>
   44424:	0007883a 	mov	r3,zero
   44428:	0009883a 	mov	r4,zero
   4442c:	003fd806 	br	44390 <__extendsfdf2+0x40>
   44430:	00c1ffc4 	movi	r3,2047
   44434:	0009883a 	mov	r4,zero
   44438:	003fd506 	br	44390 <__extendsfdf2+0x40>
   4443c:	113ffd44 	addi	r4,r2,-11
   44440:	810a983a 	sll	r5,r16,r4
   44444:	0021883a 	mov	r16,zero
   44448:	003fe606 	br	443e4 <__extendsfdf2+0x94>

0004444c <__truncdfsf2>:
   4444c:	2806d53a 	srli	r3,r5,20
   44450:	01800434 	movhi	r6,16
   44454:	31bfffc4 	addi	r6,r6,-1
   44458:	298c703a 	and	r6,r5,r6
   4445c:	300490fa 	slli	r2,r6,3
   44460:	18c1ffcc 	andi	r3,r3,2047
   44464:	200cd77a 	srli	r6,r4,29
   44468:	19c00044 	addi	r7,r3,1
   4446c:	39c1ff8c 	andi	r7,r7,2046
   44470:	280ad7fa 	srli	r5,r5,31
   44474:	201090fa 	slli	r8,r4,3
   44478:	308cb03a 	or	r6,r6,r2
   4447c:	38000b26 	beq	r7,zero,444ac <__truncdfsf2+0x60>
   44480:	18bf2004 	addi	r2,r3,-896
   44484:	11c03fc8 	cmpgei	r7,r2,255
   44488:	38001226 	beq	r7,zero,444d4 <__truncdfsf2+0x88>
   4448c:	00ffffc4 	movi	r3,-1
   44490:	0009883a 	mov	r4,zero
   44494:	18c03fcc 	andi	r3,r3,255
   44498:	180495fa 	slli	r2,r3,23
   4449c:	280a97fa 	slli	r5,r5,31
   444a0:	1104b03a 	or	r2,r2,r4
   444a4:	1144b03a 	or	r2,r2,r5
   444a8:	f800283a 	ret
   444ac:	3208b03a 	or	r4,r6,r8
   444b0:	1800041e 	bne	r3,zero,444c4 <__truncdfsf2+0x78>
   444b4:	20001d1e 	bne	r4,zero,4452c <__truncdfsf2+0xe0>
   444b8:	0007883a 	mov	r3,zero
   444bc:	0009883a 	mov	r4,zero
   444c0:	003ff406 	br	44494 <__truncdfsf2+0x48>
   444c4:	203ff126 	beq	r4,zero,4448c <__truncdfsf2+0x40>
   444c8:	31001034 	orhi	r4,r6,64
   444cc:	00ffffc4 	movi	r3,-1
   444d0:	003ff006 	br	44494 <__truncdfsf2+0x48>
   444d4:	0080170e 	bge	zero,r2,44534 <__truncdfsf2+0xe8>
   444d8:	200891ba 	slli	r4,r4,6
   444dc:	300c90fa 	slli	r6,r6,3
   444e0:	4010d77a 	srli	r8,r8,29
   444e4:	2008c03a 	cmpne	r4,r4,zero
   444e8:	218cb03a 	or	r6,r4,r6
   444ec:	3208b03a 	or	r4,r6,r8
   444f0:	20c001cc 	andi	r3,r4,7
   444f4:	18002f26 	beq	r3,zero,445b4 <__truncdfsf2+0x168>
   444f8:	20c003cc 	andi	r3,r4,15
   444fc:	18c00118 	cmpnei	r3,r3,4
   44500:	18000126 	beq	r3,zero,44508 <__truncdfsf2+0xbc>
   44504:	21000104 	addi	r4,r4,4
   44508:	20c1002c 	andhi	r3,r4,1024
   4450c:	18002926 	beq	r3,zero,445b4 <__truncdfsf2+0x168>
   44510:	10c00044 	addi	r3,r2,1
   44514:	18803fe0 	cmpeqi	r2,r3,255
   44518:	103fdc1e 	bne	r2,zero,4448c <__truncdfsf2+0x40>
   4451c:	200891ba 	slli	r4,r4,6
   44520:	2008d27a 	srli	r4,r4,9
   44524:	003fdb06 	br	44494 <__truncdfsf2+0x48>
   44528:	0007883a 	mov	r3,zero
   4452c:	01000144 	movi	r4,5
   44530:	003ffa06 	br	4451c <__truncdfsf2+0xd0>
   44534:	113ffa50 	cmplti	r4,r2,-23
   44538:	203ffb1e 	bne	r4,zero,44528 <__truncdfsf2+0xdc>
   4453c:	01000784 	movi	r4,30
   44540:	2089c83a 	sub	r4,r4,r2
   44544:	21c00808 	cmpgei	r7,r4,32
   44548:	31802034 	orhi	r6,r6,128
   4454c:	38001126 	beq	r7,zero,44594 <__truncdfsf2+0x148>
   44550:	01ffff84 	movi	r7,-2
   44554:	3885c83a 	sub	r2,r7,r2
   44558:	21000820 	cmpeqi	r4,r4,32
   4455c:	3084d83a 	srl	r2,r6,r2
   44560:	2000031e 	bne	r4,zero,44570 <__truncdfsf2+0x124>
   44564:	18ff2884 	addi	r3,r3,-862
   44568:	30c6983a 	sll	r3,r6,r3
   4456c:	40d0b03a 	or	r8,r8,r3
   44570:	4008c03a 	cmpne	r4,r8,zero
   44574:	2088b03a 	or	r4,r4,r2
   44578:	20c001cc 	andi	r3,r4,7
   4457c:	0005883a 	mov	r2,zero
   44580:	183fdd1e 	bne	r3,zero,444f8 <__truncdfsf2+0xac>
   44584:	2081002c 	andhi	r2,r4,1024
   44588:	103fe426 	beq	r2,zero,4451c <__truncdfsf2+0xd0>
   4458c:	00c00044 	movi	r3,1
   44590:	003fe206 	br	4451c <__truncdfsf2+0xd0>
   44594:	18ff2084 	addi	r3,r3,-894
   44598:	40c4983a 	sll	r2,r8,r3
   4459c:	30c6983a 	sll	r3,r6,r3
   445a0:	4108d83a 	srl	r4,r8,r4
   445a4:	100cc03a 	cmpne	r6,r2,zero
   445a8:	30c6b03a 	or	r3,r6,r3
   445ac:	20c8b03a 	or	r4,r4,r3
   445b0:	003ff106 	br	44578 <__truncdfsf2+0x12c>
   445b4:	1007883a 	mov	r3,r2
   445b8:	003fd806 	br	4451c <__truncdfsf2+0xd0>

000445bc <__clzsi2>:
   445bc:	00bfffd4 	movui	r2,65535
   445c0:	11000436 	bltu	r2,r4,445d4 <__clzsi2+0x18>
   445c4:	20804030 	cmpltui	r2,r4,256
   445c8:	10000e26 	beq	r2,zero,44604 <__clzsi2+0x48>
   445cc:	01400804 	movi	r5,32
   445d0:	00000406 	br	445e4 <__clzsi2+0x28>
   445d4:	00804034 	movhi	r2,256
   445d8:	20800736 	bltu	r4,r2,445f8 <__clzsi2+0x3c>
   445dc:	2008d63a 	srli	r4,r4,24
   445e0:	01400204 	movi	r5,8
   445e4:	00c00134 	movhi	r3,4
   445e8:	20c7883a 	add	r3,r4,r3
   445ec:	189a2303 	ldbu	r2,26764(r3)
   445f0:	2885c83a 	sub	r2,r5,r2
   445f4:	f800283a 	ret
   445f8:	2008d43a 	srli	r4,r4,16
   445fc:	01400404 	movi	r5,16
   44600:	003ff806 	br	445e4 <__clzsi2+0x28>
   44604:	2008d23a 	srli	r4,r4,8
   44608:	01400604 	movi	r5,24
   4460c:	003ff506 	br	445e4 <__clzsi2+0x28>

00044610 <__mulsi3>:
   44610:	0005883a 	mov	r2,zero
   44614:	20000726 	beq	r4,zero,44634 <__mulsi3+0x24>
   44618:	20c0004c 	andi	r3,r4,1
   4461c:	2008d07a 	srli	r4,r4,1
   44620:	18000126 	beq	r3,zero,44628 <__mulsi3+0x18>
   44624:	1145883a 	add	r2,r2,r5
   44628:	294b883a 	add	r5,r5,r5
   4462c:	203ffa1e 	bne	r4,zero,44618 <__mulsi3+0x8>
   44630:	f800283a 	ret
   44634:	f800283a 	ret

00044638 <__errno>:
   44638:	00800134 	movhi	r2,4
   4463c:	109ff917 	ldw	r2,32740(r2)
   44640:	f800283a 	ret

00044644 <alt_load_section>:
   44644:	defffc04 	addi	sp,sp,-16
   44648:	df000315 	stw	fp,12(sp)
   4464c:	df000304 	addi	fp,sp,12
   44650:	e13fff15 	stw	r4,-4(fp)
   44654:	e17ffe15 	stw	r5,-8(fp)
   44658:	e1bffd15 	stw	r6,-12(fp)
   4465c:	e0fffe17 	ldw	r3,-8(fp)
   44660:	e0bfff17 	ldw	r2,-4(fp)
   44664:	18800c26 	beq	r3,r2,44698 <alt_load_section+0x54>
   44668:	00000806 	br	4468c <alt_load_section+0x48>
   4466c:	e0ffff17 	ldw	r3,-4(fp)
   44670:	18800104 	addi	r2,r3,4
   44674:	e0bfff15 	stw	r2,-4(fp)
   44678:	e0bffe17 	ldw	r2,-8(fp)
   4467c:	11000104 	addi	r4,r2,4
   44680:	e13ffe15 	stw	r4,-8(fp)
   44684:	18c00017 	ldw	r3,0(r3)
   44688:	10c00015 	stw	r3,0(r2)
   4468c:	e0fffe17 	ldw	r3,-8(fp)
   44690:	e0bffd17 	ldw	r2,-12(fp)
   44694:	18bff51e 	bne	r3,r2,4466c <alt_load_section+0x28>
   44698:	0001883a 	nop
   4469c:	e037883a 	mov	sp,fp
   446a0:	df000017 	ldw	fp,0(sp)
   446a4:	dec00104 	addi	sp,sp,4
   446a8:	f800283a 	ret

000446ac <alt_load>:
   446ac:	defffe04 	addi	sp,sp,-8
   446b0:	dfc00115 	stw	ra,4(sp)
   446b4:	df000015 	stw	fp,0(sp)
   446b8:	d839883a 	mov	fp,sp
   446bc:	01800174 	movhi	r6,5
   446c0:	31a00304 	addi	r6,r6,-32756
   446c4:	01400134 	movhi	r5,4
   446c8:	295a6c04 	addi	r5,r5,27056
   446cc:	01000174 	movhi	r4,5
   446d0:	21200304 	addi	r4,r4,-32756
   446d4:	00446440 	call	44644 <alt_load_section>
   446d8:	01800134 	movhi	r6,4
   446dc:	31808904 	addi	r6,r6,548
   446e0:	01400134 	movhi	r5,4
   446e4:	29400804 	addi	r5,r5,32
   446e8:	01000134 	movhi	r4,4
   446ec:	21000804 	addi	r4,r4,32
   446f0:	00446440 	call	44644 <alt_load_section>
   446f4:	01800134 	movhi	r6,4
   446f8:	319a6c04 	addi	r6,r6,27056
   446fc:	01400134 	movhi	r5,4
   44700:	295a2304 	addi	r5,r5,26764
   44704:	01000134 	movhi	r4,4
   44708:	211a2304 	addi	r4,r4,26764
   4470c:	00446440 	call	44644 <alt_load_section>
   44710:	00456ac0 	call	456ac <alt_dcache_flush_all>
   44714:	00458a40 	call	458a4 <alt_icache_flush_all>
   44718:	0001883a 	nop
   4471c:	e037883a 	mov	sp,fp
   44720:	dfc00117 	ldw	ra,4(sp)
   44724:	df000017 	ldw	fp,0(sp)
   44728:	dec00204 	addi	sp,sp,8
   4472c:	f800283a 	ret

00044730 <alt_main>:
   44730:	defffd04 	addi	sp,sp,-12
   44734:	dfc00215 	stw	ra,8(sp)
   44738:	df000115 	stw	fp,4(sp)
   4473c:	df000104 	addi	fp,sp,4
   44740:	0009883a 	mov	r4,zero
   44744:	00448100 	call	44810 <alt_irq_init>
   44748:	0001883a 	nop
   4474c:	004484c0 	call	4484c <alt_sys_init>
   44750:	01800134 	movhi	r6,4
   44754:	319a6304 	addi	r6,r6,27020
   44758:	01400134 	movhi	r5,4
   4475c:	295a6304 	addi	r5,r5,27020
   44760:	01000134 	movhi	r4,4
   44764:	211a6304 	addi	r4,r4,27020
   44768:	0045c300 	call	45c30 <alt_io_redirect>
   4476c:	00457dc0 	call	457dc <_do_ctors>
   44770:	01000134 	movhi	r4,4
   44774:	21161004 	addi	r4,r4,22592
   44778:	004644c0 	call	4644c <atexit>
   4477c:	d0a5a317 	ldw	r2,-26996(gp)
   44780:	d0e5a417 	ldw	r3,-26992(gp)
   44784:	d125a517 	ldw	r4,-26988(gp)
   44788:	200d883a 	mov	r6,r4
   4478c:	180b883a 	mov	r5,r3
   44790:	1009883a 	mov	r4,r2
   44794:	00404a40 	call	404a4 <main>
   44798:	e0bfff15 	stw	r2,-4(fp)
   4479c:	01000044 	movi	r4,1
   447a0:	00455d00 	call	455d0 <close>
   447a4:	e13fff17 	ldw	r4,-4(fp)
   447a8:	00464600 	call	46460 <exit>

000447ac <usleep>:
   447ac:	defffd04 	addi	sp,sp,-12
   447b0:	dfc00215 	stw	ra,8(sp)
   447b4:	df000115 	stw	fp,4(sp)
   447b8:	df000104 	addi	fp,sp,4
   447bc:	e13fff15 	stw	r4,-4(fp)
   447c0:	e13fff17 	ldw	r4,-4(fp)
   447c4:	004543c0 	call	4543c <alt_busy_sleep>
   447c8:	e037883a 	mov	sp,fp
   447cc:	dfc00117 	ldw	ra,4(sp)
   447d0:	df000017 	ldw	fp,0(sp)
   447d4:	dec00204 	addi	sp,sp,8
   447d8:	f800283a 	ret

000447dc <alt_dev_reg>:
   447dc:	defffd04 	addi	sp,sp,-12
   447e0:	dfc00215 	stw	ra,8(sp)
   447e4:	df000115 	stw	fp,4(sp)
   447e8:	df000104 	addi	fp,sp,4
   447ec:	e13fff15 	stw	r4,-4(fp)
   447f0:	d1600504 	addi	r5,gp,-32748
   447f4:	e13fff17 	ldw	r4,-4(fp)
   447f8:	00457340 	call	45734 <alt_dev_llist_insert>
   447fc:	e037883a 	mov	sp,fp
   44800:	dfc00117 	ldw	ra,4(sp)
   44804:	df000017 	ldw	fp,0(sp)
   44808:	dec00204 	addi	sp,sp,8
   4480c:	f800283a 	ret

00044810 <alt_irq_init>:
   44810:	defffd04 	addi	sp,sp,-12
   44814:	dfc00215 	stw	ra,8(sp)
   44818:	df000115 	stw	fp,4(sp)
   4481c:	df000104 	addi	fp,sp,4
   44820:	e13fff15 	stw	r4,-4(fp)
   44824:	00461400 	call	46140 <altera_nios2_gen2_irq_init>
   44828:	00800044 	movi	r2,1
   4482c:	1001703a 	wrctl	status,r2
   44830:	0001883a 	nop
   44834:	0001883a 	nop
   44838:	e037883a 	mov	sp,fp
   4483c:	dfc00117 	ldw	ra,4(sp)
   44840:	df000017 	ldw	fp,0(sp)
   44844:	dec00204 	addi	sp,sp,8
   44848:	f800283a 	ret

0004484c <alt_sys_init>:
   4484c:	defffe04 	addi	sp,sp,-8
   44850:	dfc00115 	stw	ra,4(sp)
   44854:	df000015 	stw	fp,0(sp)
   44858:	d839883a 	mov	fp,sp
   4485c:	000d883a 	mov	r6,zero
   44860:	000b883a 	mov	r5,zero
   44864:	01000134 	movhi	r4,4
   44868:	211b7f04 	addi	r4,r4,28156
   4486c:	00449f80 	call	449f8 <altera_avalon_jtag_uart_init>
   44870:	01000134 	movhi	r4,4
   44874:	211b7504 	addi	r4,r4,28116
   44878:	00447dc0 	call	447dc <alt_dev_reg>
   4487c:	0001883a 	nop
   44880:	e037883a 	mov	sp,fp
   44884:	dfc00117 	ldw	ra,4(sp)
   44888:	df000017 	ldw	fp,0(sp)
   4488c:	dec00204 	addi	sp,sp,8
   44890:	f800283a 	ret

00044894 <altera_avalon_jtag_uart_read_fd>:
   44894:	defffa04 	addi	sp,sp,-24
   44898:	dfc00515 	stw	ra,20(sp)
   4489c:	df000415 	stw	fp,16(sp)
   448a0:	df000404 	addi	fp,sp,16
   448a4:	e13ffe15 	stw	r4,-8(fp)
   448a8:	e17ffd15 	stw	r5,-12(fp)
   448ac:	e1bffc15 	stw	r6,-16(fp)
   448b0:	e0bffe17 	ldw	r2,-8(fp)
   448b4:	10800017 	ldw	r2,0(r2)
   448b8:	e0bfff15 	stw	r2,-4(fp)
   448bc:	e0bfff17 	ldw	r2,-4(fp)
   448c0:	10c00a04 	addi	r3,r2,40
   448c4:	e0bffe17 	ldw	r2,-8(fp)
   448c8:	10800217 	ldw	r2,8(r2)
   448cc:	100f883a 	mov	r7,r2
   448d0:	e1bffc17 	ldw	r6,-16(fp)
   448d4:	e17ffd17 	ldw	r5,-12(fp)
   448d8:	1809883a 	mov	r4,r3
   448dc:	0044ec00 	call	44ec0 <altera_avalon_jtag_uart_read>
   448e0:	e037883a 	mov	sp,fp
   448e4:	dfc00117 	ldw	ra,4(sp)
   448e8:	df000017 	ldw	fp,0(sp)
   448ec:	dec00204 	addi	sp,sp,8
   448f0:	f800283a 	ret

000448f4 <altera_avalon_jtag_uart_write_fd>:
   448f4:	defffa04 	addi	sp,sp,-24
   448f8:	dfc00515 	stw	ra,20(sp)
   448fc:	df000415 	stw	fp,16(sp)
   44900:	df000404 	addi	fp,sp,16
   44904:	e13ffe15 	stw	r4,-8(fp)
   44908:	e17ffd15 	stw	r5,-12(fp)
   4490c:	e1bffc15 	stw	r6,-16(fp)
   44910:	e0bffe17 	ldw	r2,-8(fp)
   44914:	10800017 	ldw	r2,0(r2)
   44918:	e0bfff15 	stw	r2,-4(fp)
   4491c:	e0bfff17 	ldw	r2,-4(fp)
   44920:	10c00a04 	addi	r3,r2,40
   44924:	e0bffe17 	ldw	r2,-8(fp)
   44928:	10800217 	ldw	r2,8(r2)
   4492c:	100f883a 	mov	r7,r2
   44930:	e1bffc17 	ldw	r6,-16(fp)
   44934:	e17ffd17 	ldw	r5,-12(fp)
   44938:	1809883a 	mov	r4,r3
   4493c:	00450e00 	call	450e0 <altera_avalon_jtag_uart_write>
   44940:	e037883a 	mov	sp,fp
   44944:	dfc00117 	ldw	ra,4(sp)
   44948:	df000017 	ldw	fp,0(sp)
   4494c:	dec00204 	addi	sp,sp,8
   44950:	f800283a 	ret

00044954 <altera_avalon_jtag_uart_close_fd>:
   44954:	defffc04 	addi	sp,sp,-16
   44958:	dfc00315 	stw	ra,12(sp)
   4495c:	df000215 	stw	fp,8(sp)
   44960:	df000204 	addi	fp,sp,8
   44964:	e13ffe15 	stw	r4,-8(fp)
   44968:	e0bffe17 	ldw	r2,-8(fp)
   4496c:	10800017 	ldw	r2,0(r2)
   44970:	e0bfff15 	stw	r2,-4(fp)
   44974:	e0bfff17 	ldw	r2,-4(fp)
   44978:	10c00a04 	addi	r3,r2,40
   4497c:	e0bffe17 	ldw	r2,-8(fp)
   44980:	10800217 	ldw	r2,8(r2)
   44984:	100b883a 	mov	r5,r2
   44988:	1809883a 	mov	r4,r3
   4498c:	0044d640 	call	44d64 <altera_avalon_jtag_uart_close>
   44990:	e037883a 	mov	sp,fp
   44994:	dfc00117 	ldw	ra,4(sp)
   44998:	df000017 	ldw	fp,0(sp)
   4499c:	dec00204 	addi	sp,sp,8
   449a0:	f800283a 	ret

000449a4 <altera_avalon_jtag_uart_ioctl_fd>:
   449a4:	defffa04 	addi	sp,sp,-24
   449a8:	dfc00515 	stw	ra,20(sp)
   449ac:	df000415 	stw	fp,16(sp)
   449b0:	df000404 	addi	fp,sp,16
   449b4:	e13ffe15 	stw	r4,-8(fp)
   449b8:	e17ffd15 	stw	r5,-12(fp)
   449bc:	e1bffc15 	stw	r6,-16(fp)
   449c0:	e0bffe17 	ldw	r2,-8(fp)
   449c4:	10800017 	ldw	r2,0(r2)
   449c8:	e0bfff15 	stw	r2,-4(fp)
   449cc:	e0bfff17 	ldw	r2,-4(fp)
   449d0:	10800a04 	addi	r2,r2,40
   449d4:	e1bffc17 	ldw	r6,-16(fp)
   449d8:	e17ffd17 	ldw	r5,-12(fp)
   449dc:	1009883a 	mov	r4,r2
   449e0:	0044dcc0 	call	44dcc <altera_avalon_jtag_uart_ioctl>
   449e4:	e037883a 	mov	sp,fp
   449e8:	dfc00117 	ldw	ra,4(sp)
   449ec:	df000017 	ldw	fp,0(sp)
   449f0:	dec00204 	addi	sp,sp,8
   449f4:	f800283a 	ret

000449f8 <altera_avalon_jtag_uart_init>:
   449f8:	defffa04 	addi	sp,sp,-24
   449fc:	dfc00515 	stw	ra,20(sp)
   44a00:	df000415 	stw	fp,16(sp)
   44a04:	df000404 	addi	fp,sp,16
   44a08:	e13fff15 	stw	r4,-4(fp)
   44a0c:	e17ffe15 	stw	r5,-8(fp)
   44a10:	e1bffd15 	stw	r6,-12(fp)
   44a14:	e0bfff17 	ldw	r2,-4(fp)
   44a18:	00c00044 	movi	r3,1
   44a1c:	10c00815 	stw	r3,32(r2)
   44a20:	e0bfff17 	ldw	r2,-4(fp)
   44a24:	10800017 	ldw	r2,0(r2)
   44a28:	10800104 	addi	r2,r2,4
   44a2c:	1007883a 	mov	r3,r2
   44a30:	e0bfff17 	ldw	r2,-4(fp)
   44a34:	10800817 	ldw	r2,32(r2)
   44a38:	18800035 	stwio	r2,0(r3)
   44a3c:	e0bffe17 	ldw	r2,-8(fp)
   44a40:	e0fffd17 	ldw	r3,-12(fp)
   44a44:	d8000015 	stw	zero,0(sp)
   44a48:	e1ffff17 	ldw	r7,-4(fp)
   44a4c:	01800134 	movhi	r6,4
   44a50:	3192ae04 	addi	r6,r6,19128
   44a54:	180b883a 	mov	r5,r3
   44a58:	1009883a 	mov	r4,r2
   44a5c:	00458c40 	call	458c4 <alt_ic_isr_register>
   44a60:	e0bfff17 	ldw	r2,-4(fp)
   44a64:	10000915 	stw	zero,36(r2)
   44a68:	e0bfff17 	ldw	r2,-4(fp)
   44a6c:	10800204 	addi	r2,r2,8
   44a70:	d0e5a717 	ldw	r3,-26980(gp)
   44a74:	e1ffff17 	ldw	r7,-4(fp)
   44a78:	01800134 	movhi	r6,4
   44a7c:	31933104 	addi	r6,r6,19652
   44a80:	180b883a 	mov	r5,r3
   44a84:	1009883a 	mov	r4,r2
   44a88:	00453080 	call	45308 <alt_alarm_start>
   44a8c:	1000040e 	bge	r2,zero,44aa0 <altera_avalon_jtag_uart_init+0xa8>
   44a90:	e0ffff17 	ldw	r3,-4(fp)
   44a94:	00a00034 	movhi	r2,32768
   44a98:	10bfffc4 	addi	r2,r2,-1
   44a9c:	18800115 	stw	r2,4(r3)
   44aa0:	0001883a 	nop
   44aa4:	e037883a 	mov	sp,fp
   44aa8:	dfc00117 	ldw	ra,4(sp)
   44aac:	df000017 	ldw	fp,0(sp)
   44ab0:	dec00204 	addi	sp,sp,8
   44ab4:	f800283a 	ret

00044ab8 <altera_avalon_jtag_uart_irq>:
   44ab8:	defff804 	addi	sp,sp,-32
   44abc:	df000715 	stw	fp,28(sp)
   44ac0:	df000704 	addi	fp,sp,28
   44ac4:	e13ff915 	stw	r4,-28(fp)
   44ac8:	e0bff917 	ldw	r2,-28(fp)
   44acc:	e0bffd15 	stw	r2,-12(fp)
   44ad0:	e0bffd17 	ldw	r2,-12(fp)
   44ad4:	10800017 	ldw	r2,0(r2)
   44ad8:	e0bffc15 	stw	r2,-16(fp)
   44adc:	e0bffc17 	ldw	r2,-16(fp)
   44ae0:	10800104 	addi	r2,r2,4
   44ae4:	10800037 	ldwio	r2,0(r2)
   44ae8:	e0bffb15 	stw	r2,-20(fp)
   44aec:	e0bffb17 	ldw	r2,-20(fp)
   44af0:	1080c00c 	andi	r2,r2,768
   44af4:	10006d26 	beq	r2,zero,44cac <altera_avalon_jtag_uart_irq+0x1f4>
   44af8:	e0bffb17 	ldw	r2,-20(fp)
   44afc:	1080400c 	andi	r2,r2,256
   44b00:	10003526 	beq	r2,zero,44bd8 <altera_avalon_jtag_uart_irq+0x120>
   44b04:	00800074 	movhi	r2,1
   44b08:	e0bfff15 	stw	r2,-4(fp)
   44b0c:	e0bffd17 	ldw	r2,-12(fp)
   44b10:	10800a17 	ldw	r2,40(r2)
   44b14:	10800044 	addi	r2,r2,1
   44b18:	1081ffcc 	andi	r2,r2,2047
   44b1c:	e0bffa15 	stw	r2,-24(fp)
   44b20:	e0bffd17 	ldw	r2,-12(fp)
   44b24:	10800b17 	ldw	r2,44(r2)
   44b28:	e0fffa17 	ldw	r3,-24(fp)
   44b2c:	18801526 	beq	r3,r2,44b84 <altera_avalon_jtag_uart_irq+0xcc>
   44b30:	e0bffc17 	ldw	r2,-16(fp)
   44b34:	10800037 	ldwio	r2,0(r2)
   44b38:	e0bfff15 	stw	r2,-4(fp)
   44b3c:	e0bfff17 	ldw	r2,-4(fp)
   44b40:	10a0000c 	andi	r2,r2,32768
   44b44:	10001126 	beq	r2,zero,44b8c <altera_avalon_jtag_uart_irq+0xd4>
   44b48:	e0bffd17 	ldw	r2,-12(fp)
   44b4c:	10800a17 	ldw	r2,40(r2)
   44b50:	e0ffff17 	ldw	r3,-4(fp)
   44b54:	1809883a 	mov	r4,r3
   44b58:	e0fffd17 	ldw	r3,-12(fp)
   44b5c:	1885883a 	add	r2,r3,r2
   44b60:	11000e05 	stb	r4,56(r2)
   44b64:	e0bffd17 	ldw	r2,-12(fp)
   44b68:	10800a17 	ldw	r2,40(r2)
   44b6c:	10800044 	addi	r2,r2,1
   44b70:	10c1ffcc 	andi	r3,r2,2047
   44b74:	e0bffd17 	ldw	r2,-12(fp)
   44b78:	10c00a15 	stw	r3,40(r2)
   44b7c:	0001883a 	nop
   44b80:	003fe206 	br	44b0c <altera_avalon_jtag_uart_irq+0x54>
   44b84:	0001883a 	nop
   44b88:	00000106 	br	44b90 <altera_avalon_jtag_uart_irq+0xd8>
   44b8c:	0001883a 	nop
   44b90:	e0bfff17 	ldw	r2,-4(fp)
   44b94:	10bfffec 	andhi	r2,r2,65535
   44b98:	10000f26 	beq	r2,zero,44bd8 <altera_avalon_jtag_uart_irq+0x120>
   44b9c:	e0bffd17 	ldw	r2,-12(fp)
   44ba0:	10c00817 	ldw	r3,32(r2)
   44ba4:	00bfff84 	movi	r2,-2
   44ba8:	1886703a 	and	r3,r3,r2
   44bac:	e0bffd17 	ldw	r2,-12(fp)
   44bb0:	10c00815 	stw	r3,32(r2)
   44bb4:	e0bffc17 	ldw	r2,-16(fp)
   44bb8:	10800104 	addi	r2,r2,4
   44bbc:	1007883a 	mov	r3,r2
   44bc0:	e0bffd17 	ldw	r2,-12(fp)
   44bc4:	10800817 	ldw	r2,32(r2)
   44bc8:	18800035 	stwio	r2,0(r3)
   44bcc:	e0bffc17 	ldw	r2,-16(fp)
   44bd0:	10800104 	addi	r2,r2,4
   44bd4:	10800037 	ldwio	r2,0(r2)
   44bd8:	e0bffb17 	ldw	r2,-20(fp)
   44bdc:	1080800c 	andi	r2,r2,512
   44be0:	103fbe26 	beq	r2,zero,44adc <altera_avalon_jtag_uart_irq+0x24>
   44be4:	e0bffb17 	ldw	r2,-20(fp)
   44be8:	1004d43a 	srli	r2,r2,16
   44bec:	e0bffe15 	stw	r2,-8(fp)
   44bf0:	00001406 	br	44c44 <altera_avalon_jtag_uart_irq+0x18c>
   44bf4:	e0bffc17 	ldw	r2,-16(fp)
   44bf8:	e0fffd17 	ldw	r3,-12(fp)
   44bfc:	18c00d17 	ldw	r3,52(r3)
   44c00:	e13ffd17 	ldw	r4,-12(fp)
   44c04:	20c7883a 	add	r3,r4,r3
   44c08:	18c20e03 	ldbu	r3,2104(r3)
   44c0c:	18c03fcc 	andi	r3,r3,255
   44c10:	18c0201c 	xori	r3,r3,128
   44c14:	18ffe004 	addi	r3,r3,-128
   44c18:	10c00035 	stwio	r3,0(r2)
   44c1c:	e0bffd17 	ldw	r2,-12(fp)
   44c20:	10800d17 	ldw	r2,52(r2)
   44c24:	10800044 	addi	r2,r2,1
   44c28:	10c1ffcc 	andi	r3,r2,2047
   44c2c:	e0bffd17 	ldw	r2,-12(fp)
   44c30:	10c00d15 	stw	r3,52(r2)
   44c34:	0001883a 	nop
   44c38:	e0bffe17 	ldw	r2,-8(fp)
   44c3c:	10bfffc4 	addi	r2,r2,-1
   44c40:	e0bffe15 	stw	r2,-8(fp)
   44c44:	e0bffe17 	ldw	r2,-8(fp)
   44c48:	10000526 	beq	r2,zero,44c60 <altera_avalon_jtag_uart_irq+0x1a8>
   44c4c:	e0bffd17 	ldw	r2,-12(fp)
   44c50:	10c00d17 	ldw	r3,52(r2)
   44c54:	e0bffd17 	ldw	r2,-12(fp)
   44c58:	10800c17 	ldw	r2,48(r2)
   44c5c:	18bfe51e 	bne	r3,r2,44bf4 <altera_avalon_jtag_uart_irq+0x13c>
   44c60:	e0bffe17 	ldw	r2,-8(fp)
   44c64:	103f9d26 	beq	r2,zero,44adc <altera_avalon_jtag_uart_irq+0x24>
   44c68:	e0bffd17 	ldw	r2,-12(fp)
   44c6c:	10c00817 	ldw	r3,32(r2)
   44c70:	00bfff44 	movi	r2,-3
   44c74:	1886703a 	and	r3,r3,r2
   44c78:	e0bffd17 	ldw	r2,-12(fp)
   44c7c:	10c00815 	stw	r3,32(r2)
   44c80:	e0bffd17 	ldw	r2,-12(fp)
   44c84:	10800017 	ldw	r2,0(r2)
   44c88:	10800104 	addi	r2,r2,4
   44c8c:	1007883a 	mov	r3,r2
   44c90:	e0bffd17 	ldw	r2,-12(fp)
   44c94:	10800817 	ldw	r2,32(r2)
   44c98:	18800035 	stwio	r2,0(r3)
   44c9c:	e0bffc17 	ldw	r2,-16(fp)
   44ca0:	10800104 	addi	r2,r2,4
   44ca4:	10800037 	ldwio	r2,0(r2)
   44ca8:	003f8c06 	br	44adc <altera_avalon_jtag_uart_irq+0x24>
   44cac:	0001883a 	nop
   44cb0:	0001883a 	nop
   44cb4:	e037883a 	mov	sp,fp
   44cb8:	df000017 	ldw	fp,0(sp)
   44cbc:	dec00104 	addi	sp,sp,4
   44cc0:	f800283a 	ret

00044cc4 <altera_avalon_jtag_uart_timeout>:
   44cc4:	defffc04 	addi	sp,sp,-16
   44cc8:	df000315 	stw	fp,12(sp)
   44ccc:	df000304 	addi	fp,sp,12
   44cd0:	e13ffd15 	stw	r4,-12(fp)
   44cd4:	e0bffd17 	ldw	r2,-12(fp)
   44cd8:	e0bfff15 	stw	r2,-4(fp)
   44cdc:	e0bfff17 	ldw	r2,-4(fp)
   44ce0:	10800017 	ldw	r2,0(r2)
   44ce4:	10800104 	addi	r2,r2,4
   44ce8:	10800037 	ldwio	r2,0(r2)
   44cec:	e0bffe15 	stw	r2,-8(fp)
   44cf0:	e0bffe17 	ldw	r2,-8(fp)
   44cf4:	1081000c 	andi	r2,r2,1024
   44cf8:	10000b26 	beq	r2,zero,44d28 <altera_avalon_jtag_uart_timeout+0x64>
   44cfc:	e0bfff17 	ldw	r2,-4(fp)
   44d00:	10800017 	ldw	r2,0(r2)
   44d04:	10800104 	addi	r2,r2,4
   44d08:	1007883a 	mov	r3,r2
   44d0c:	e0bfff17 	ldw	r2,-4(fp)
   44d10:	10800817 	ldw	r2,32(r2)
   44d14:	10810014 	ori	r2,r2,1024
   44d18:	18800035 	stwio	r2,0(r3)
   44d1c:	e0bfff17 	ldw	r2,-4(fp)
   44d20:	10000915 	stw	zero,36(r2)
   44d24:	00000a06 	br	44d50 <altera_avalon_jtag_uart_timeout+0x8c>
   44d28:	e0bfff17 	ldw	r2,-4(fp)
   44d2c:	10c00917 	ldw	r3,36(r2)
   44d30:	00a00034 	movhi	r2,32768
   44d34:	10bfff04 	addi	r2,r2,-4
   44d38:	10c00536 	bltu	r2,r3,44d50 <altera_avalon_jtag_uart_timeout+0x8c>
   44d3c:	e0bfff17 	ldw	r2,-4(fp)
   44d40:	10800917 	ldw	r2,36(r2)
   44d44:	10c00044 	addi	r3,r2,1
   44d48:	e0bfff17 	ldw	r2,-4(fp)
   44d4c:	10c00915 	stw	r3,36(r2)
   44d50:	d0a5a717 	ldw	r2,-26980(gp)
   44d54:	e037883a 	mov	sp,fp
   44d58:	df000017 	ldw	fp,0(sp)
   44d5c:	dec00104 	addi	sp,sp,4
   44d60:	f800283a 	ret

00044d64 <altera_avalon_jtag_uart_close>:
   44d64:	defffd04 	addi	sp,sp,-12
   44d68:	df000215 	stw	fp,8(sp)
   44d6c:	df000204 	addi	fp,sp,8
   44d70:	e13fff15 	stw	r4,-4(fp)
   44d74:	e17ffe15 	stw	r5,-8(fp)
   44d78:	00000506 	br	44d90 <altera_avalon_jtag_uart_close+0x2c>
   44d7c:	e0bffe17 	ldw	r2,-8(fp)
   44d80:	1090000c 	andi	r2,r2,16384
   44d84:	10000226 	beq	r2,zero,44d90 <altera_avalon_jtag_uart_close+0x2c>
   44d88:	00bffd44 	movi	r2,-11
   44d8c:	00000b06 	br	44dbc <altera_avalon_jtag_uart_close+0x58>
   44d90:	e0bfff17 	ldw	r2,-4(fp)
   44d94:	10c00d17 	ldw	r3,52(r2)
   44d98:	e0bfff17 	ldw	r2,-4(fp)
   44d9c:	10800c17 	ldw	r2,48(r2)
   44da0:	18800526 	beq	r3,r2,44db8 <altera_avalon_jtag_uart_close+0x54>
   44da4:	e0bfff17 	ldw	r2,-4(fp)
   44da8:	10c00917 	ldw	r3,36(r2)
   44dac:	e0bfff17 	ldw	r2,-4(fp)
   44db0:	10800117 	ldw	r2,4(r2)
   44db4:	18bff136 	bltu	r3,r2,44d7c <altera_avalon_jtag_uart_close+0x18>
   44db8:	0005883a 	mov	r2,zero
   44dbc:	e037883a 	mov	sp,fp
   44dc0:	df000017 	ldw	fp,0(sp)
   44dc4:	dec00104 	addi	sp,sp,4
   44dc8:	f800283a 	ret

00044dcc <altera_avalon_jtag_uart_ioctl>:
   44dcc:	defffa04 	addi	sp,sp,-24
   44dd0:	df000515 	stw	fp,20(sp)
   44dd4:	df000504 	addi	fp,sp,20
   44dd8:	e13ffd15 	stw	r4,-12(fp)
   44ddc:	e17ffc15 	stw	r5,-16(fp)
   44de0:	e1bffb15 	stw	r6,-20(fp)
   44de4:	00bff9c4 	movi	r2,-25
   44de8:	e0bfff15 	stw	r2,-4(fp)
   44dec:	e0bffc17 	ldw	r2,-16(fp)
   44df0:	109a8060 	cmpeqi	r2,r2,27137
   44df4:	1000041e 	bne	r2,zero,44e08 <altera_avalon_jtag_uart_ioctl+0x3c>
   44df8:	e0bffc17 	ldw	r2,-16(fp)
   44dfc:	109a80a0 	cmpeqi	r2,r2,27138
   44e00:	1000181e 	bne	r2,zero,44e64 <altera_avalon_jtag_uart_ioctl+0x98>
   44e04:	00002906 	br	44eac <altera_avalon_jtag_uart_ioctl+0xe0>
   44e08:	e0bffd17 	ldw	r2,-12(fp)
   44e0c:	10c00117 	ldw	r3,4(r2)
   44e10:	00a00034 	movhi	r2,32768
   44e14:	10bfffc4 	addi	r2,r2,-1
   44e18:	18802126 	beq	r3,r2,44ea0 <altera_avalon_jtag_uart_ioctl+0xd4>
   44e1c:	e0bffb17 	ldw	r2,-20(fp)
   44e20:	10800017 	ldw	r2,0(r2)
   44e24:	e0bffe15 	stw	r2,-8(fp)
   44e28:	e0bffe17 	ldw	r2,-8(fp)
   44e2c:	10800090 	cmplti	r2,r2,2
   44e30:	1000061e 	bne	r2,zero,44e4c <altera_avalon_jtag_uart_ioctl+0x80>
   44e34:	e0fffe17 	ldw	r3,-8(fp)
   44e38:	00a00034 	movhi	r2,32768
   44e3c:	10bfffc4 	addi	r2,r2,-1
   44e40:	18800226 	beq	r3,r2,44e4c <altera_avalon_jtag_uart_ioctl+0x80>
   44e44:	e0bffe17 	ldw	r2,-8(fp)
   44e48:	00000206 	br	44e54 <altera_avalon_jtag_uart_ioctl+0x88>
   44e4c:	00a00034 	movhi	r2,32768
   44e50:	10bfff84 	addi	r2,r2,-2
   44e54:	e0fffd17 	ldw	r3,-12(fp)
   44e58:	18800115 	stw	r2,4(r3)
   44e5c:	e03fff15 	stw	zero,-4(fp)
   44e60:	00000f06 	br	44ea0 <altera_avalon_jtag_uart_ioctl+0xd4>
   44e64:	e0bffd17 	ldw	r2,-12(fp)
   44e68:	10c00117 	ldw	r3,4(r2)
   44e6c:	00a00034 	movhi	r2,32768
   44e70:	10bfffc4 	addi	r2,r2,-1
   44e74:	18800c26 	beq	r3,r2,44ea8 <altera_avalon_jtag_uart_ioctl+0xdc>
   44e78:	e0bffd17 	ldw	r2,-12(fp)
   44e7c:	10c00917 	ldw	r3,36(r2)
   44e80:	e0bffd17 	ldw	r2,-12(fp)
   44e84:	10800117 	ldw	r2,4(r2)
   44e88:	1885803a 	cmpltu	r2,r3,r2
   44e8c:	10c03fcc 	andi	r3,r2,255
   44e90:	e0bffb17 	ldw	r2,-20(fp)
   44e94:	10c00015 	stw	r3,0(r2)
   44e98:	e03fff15 	stw	zero,-4(fp)
   44e9c:	00000206 	br	44ea8 <altera_avalon_jtag_uart_ioctl+0xdc>
   44ea0:	0001883a 	nop
   44ea4:	00000106 	br	44eac <altera_avalon_jtag_uart_ioctl+0xe0>
   44ea8:	0001883a 	nop
   44eac:	e0bfff17 	ldw	r2,-4(fp)
   44eb0:	e037883a 	mov	sp,fp
   44eb4:	df000017 	ldw	fp,0(sp)
   44eb8:	dec00104 	addi	sp,sp,4
   44ebc:	f800283a 	ret

00044ec0 <altera_avalon_jtag_uart_read>:
   44ec0:	defff304 	addi	sp,sp,-52
   44ec4:	dfc00c15 	stw	ra,48(sp)
   44ec8:	df000b15 	stw	fp,44(sp)
   44ecc:	df000b04 	addi	fp,sp,44
   44ed0:	e13ff815 	stw	r4,-32(fp)
   44ed4:	e17ff715 	stw	r5,-36(fp)
   44ed8:	e1bff615 	stw	r6,-40(fp)
   44edc:	e1fff515 	stw	r7,-44(fp)
   44ee0:	e0bff717 	ldw	r2,-36(fp)
   44ee4:	e0bfff15 	stw	r2,-4(fp)
   44ee8:	00004706 	br	45008 <altera_avalon_jtag_uart_read+0x148>
   44eec:	e0bff817 	ldw	r2,-32(fp)
   44ef0:	10800a17 	ldw	r2,40(r2)
   44ef4:	e0bffd15 	stw	r2,-12(fp)
   44ef8:	e0bff817 	ldw	r2,-32(fp)
   44efc:	10800b17 	ldw	r2,44(r2)
   44f00:	e0bffc15 	stw	r2,-16(fp)
   44f04:	e0fffd17 	ldw	r3,-12(fp)
   44f08:	e0bffc17 	ldw	r2,-16(fp)
   44f0c:	18800536 	bltu	r3,r2,44f24 <altera_avalon_jtag_uart_read+0x64>
   44f10:	e0fffd17 	ldw	r3,-12(fp)
   44f14:	e0bffc17 	ldw	r2,-16(fp)
   44f18:	1885c83a 	sub	r2,r3,r2
   44f1c:	e0bffe15 	stw	r2,-8(fp)
   44f20:	00000406 	br	44f34 <altera_avalon_jtag_uart_read+0x74>
   44f24:	00c20004 	movi	r3,2048
   44f28:	e0bffc17 	ldw	r2,-16(fp)
   44f2c:	1885c83a 	sub	r2,r3,r2
   44f30:	e0bffe15 	stw	r2,-8(fp)
   44f34:	e0bffe17 	ldw	r2,-8(fp)
   44f38:	10001e26 	beq	r2,zero,44fb4 <altera_avalon_jtag_uart_read+0xf4>
   44f3c:	e0fff617 	ldw	r3,-40(fp)
   44f40:	e0bffe17 	ldw	r2,-8(fp)
   44f44:	1880022e 	bgeu	r3,r2,44f50 <altera_avalon_jtag_uart_read+0x90>
   44f48:	e0bff617 	ldw	r2,-40(fp)
   44f4c:	e0bffe15 	stw	r2,-8(fp)
   44f50:	e0bff817 	ldw	r2,-32(fp)
   44f54:	10c00e04 	addi	r3,r2,56
   44f58:	e0bffc17 	ldw	r2,-16(fp)
   44f5c:	1885883a 	add	r2,r3,r2
   44f60:	e1bffe17 	ldw	r6,-8(fp)
   44f64:	100b883a 	mov	r5,r2
   44f68:	e13fff17 	ldw	r4,-4(fp)
   44f6c:	004650c0 	call	4650c <memcpy>
   44f70:	e0ffff17 	ldw	r3,-4(fp)
   44f74:	e0bffe17 	ldw	r2,-8(fp)
   44f78:	1885883a 	add	r2,r3,r2
   44f7c:	e0bfff15 	stw	r2,-4(fp)
   44f80:	e0fff617 	ldw	r3,-40(fp)
   44f84:	e0bffe17 	ldw	r2,-8(fp)
   44f88:	1885c83a 	sub	r2,r3,r2
   44f8c:	e0bff615 	stw	r2,-40(fp)
   44f90:	e0fffc17 	ldw	r3,-16(fp)
   44f94:	e0bffe17 	ldw	r2,-8(fp)
   44f98:	1885883a 	add	r2,r3,r2
   44f9c:	10c1ffcc 	andi	r3,r2,2047
   44fa0:	e0bff817 	ldw	r2,-32(fp)
   44fa4:	10c00b15 	stw	r3,44(r2)
   44fa8:	e0bff617 	ldw	r2,-40(fp)
   44fac:	00bfcf16 	blt	zero,r2,44eec <altera_avalon_jtag_uart_read+0x2c>
   44fb0:	00000106 	br	44fb8 <altera_avalon_jtag_uart_read+0xf8>
   44fb4:	0001883a 	nop
   44fb8:	e0ffff17 	ldw	r3,-4(fp)
   44fbc:	e0bff717 	ldw	r2,-36(fp)
   44fc0:	1880141e 	bne	r3,r2,45014 <altera_avalon_jtag_uart_read+0x154>
   44fc4:	e0bff517 	ldw	r2,-44(fp)
   44fc8:	1090000c 	andi	r2,r2,16384
   44fcc:	1000131e 	bne	r2,zero,4501c <altera_avalon_jtag_uart_read+0x15c>
   44fd0:	0001883a 	nop
   44fd4:	e0bff817 	ldw	r2,-32(fp)
   44fd8:	10800a17 	ldw	r2,40(r2)
   44fdc:	e0fffd17 	ldw	r3,-12(fp)
   44fe0:	1880051e 	bne	r3,r2,44ff8 <altera_avalon_jtag_uart_read+0x138>
   44fe4:	e0bff817 	ldw	r2,-32(fp)
   44fe8:	10c00917 	ldw	r3,36(r2)
   44fec:	e0bff817 	ldw	r2,-32(fp)
   44ff0:	10800117 	ldw	r2,4(r2)
   44ff4:	18bff736 	bltu	r3,r2,44fd4 <altera_avalon_jtag_uart_read+0x114>
   44ff8:	e0bff817 	ldw	r2,-32(fp)
   44ffc:	10800a17 	ldw	r2,40(r2)
   45000:	e0fffd17 	ldw	r3,-12(fp)
   45004:	18800726 	beq	r3,r2,45024 <altera_avalon_jtag_uart_read+0x164>
   45008:	e0bff617 	ldw	r2,-40(fp)
   4500c:	00bfb716 	blt	zero,r2,44eec <altera_avalon_jtag_uart_read+0x2c>
   45010:	00000506 	br	45028 <altera_avalon_jtag_uart_read+0x168>
   45014:	0001883a 	nop
   45018:	00000306 	br	45028 <altera_avalon_jtag_uart_read+0x168>
   4501c:	0001883a 	nop
   45020:	00000106 	br	45028 <altera_avalon_jtag_uart_read+0x168>
   45024:	0001883a 	nop
   45028:	e0ffff17 	ldw	r3,-4(fp)
   4502c:	e0bff717 	ldw	r2,-36(fp)
   45030:	18801926 	beq	r3,r2,45098 <altera_avalon_jtag_uart_read+0x1d8>
   45034:	0005303a 	rdctl	r2,status
   45038:	e0bff915 	stw	r2,-28(fp)
   4503c:	e0fff917 	ldw	r3,-28(fp)
   45040:	00bfff84 	movi	r2,-2
   45044:	1884703a 	and	r2,r3,r2
   45048:	1001703a 	wrctl	status,r2
   4504c:	e0bff917 	ldw	r2,-28(fp)
   45050:	e0bffb15 	stw	r2,-20(fp)
   45054:	e0bff817 	ldw	r2,-32(fp)
   45058:	10800817 	ldw	r2,32(r2)
   4505c:	10c00054 	ori	r3,r2,1
   45060:	e0bff817 	ldw	r2,-32(fp)
   45064:	10c00815 	stw	r3,32(r2)
   45068:	e0bff817 	ldw	r2,-32(fp)
   4506c:	10800017 	ldw	r2,0(r2)
   45070:	10800104 	addi	r2,r2,4
   45074:	1007883a 	mov	r3,r2
   45078:	e0bff817 	ldw	r2,-32(fp)
   4507c:	10800817 	ldw	r2,32(r2)
   45080:	18800035 	stwio	r2,0(r3)
   45084:	e0bffb17 	ldw	r2,-20(fp)
   45088:	e0bffa15 	stw	r2,-24(fp)
   4508c:	e0bffa17 	ldw	r2,-24(fp)
   45090:	1001703a 	wrctl	status,r2
   45094:	0001883a 	nop
   45098:	e0ffff17 	ldw	r3,-4(fp)
   4509c:	e0bff717 	ldw	r2,-36(fp)
   450a0:	18800426 	beq	r3,r2,450b4 <altera_avalon_jtag_uart_read+0x1f4>
   450a4:	e0ffff17 	ldw	r3,-4(fp)
   450a8:	e0bff717 	ldw	r2,-36(fp)
   450ac:	1885c83a 	sub	r2,r3,r2
   450b0:	00000606 	br	450cc <altera_avalon_jtag_uart_read+0x20c>
   450b4:	e0bff517 	ldw	r2,-44(fp)
   450b8:	1090000c 	andi	r2,r2,16384
   450bc:	10000226 	beq	r2,zero,450c8 <altera_avalon_jtag_uart_read+0x208>
   450c0:	00bffd44 	movi	r2,-11
   450c4:	00000106 	br	450cc <altera_avalon_jtag_uart_read+0x20c>
   450c8:	00bffec4 	movi	r2,-5
   450cc:	e037883a 	mov	sp,fp
   450d0:	dfc00117 	ldw	ra,4(sp)
   450d4:	df000017 	ldw	fp,0(sp)
   450d8:	dec00204 	addi	sp,sp,8
   450dc:	f800283a 	ret

000450e0 <altera_avalon_jtag_uart_write>:
   450e0:	defff304 	addi	sp,sp,-52
   450e4:	dfc00c15 	stw	ra,48(sp)
   450e8:	df000b15 	stw	fp,44(sp)
   450ec:	df000b04 	addi	fp,sp,44
   450f0:	e13ff815 	stw	r4,-32(fp)
   450f4:	e17ff715 	stw	r5,-36(fp)
   450f8:	e1bff615 	stw	r6,-40(fp)
   450fc:	e1fff515 	stw	r7,-44(fp)
   45100:	e03fff15 	stw	zero,-4(fp)
   45104:	e0bff717 	ldw	r2,-36(fp)
   45108:	e0bffd15 	stw	r2,-12(fp)
   4510c:	00003706 	br	451ec <altera_avalon_jtag_uart_write+0x10c>
   45110:	e0bff817 	ldw	r2,-32(fp)
   45114:	10800c17 	ldw	r2,48(r2)
   45118:	e0bffc15 	stw	r2,-16(fp)
   4511c:	e0bff817 	ldw	r2,-32(fp)
   45120:	10800d17 	ldw	r2,52(r2)
   45124:	e0bfff15 	stw	r2,-4(fp)
   45128:	e0fffc17 	ldw	r3,-16(fp)
   4512c:	e0bfff17 	ldw	r2,-4(fp)
   45130:	1880062e 	bgeu	r3,r2,4514c <altera_avalon_jtag_uart_write+0x6c>
   45134:	e0ffff17 	ldw	r3,-4(fp)
   45138:	e0bffc17 	ldw	r2,-16(fp)
   4513c:	1885c83a 	sub	r2,r3,r2
   45140:	10bfffc4 	addi	r2,r2,-1
   45144:	e0bffe15 	stw	r2,-8(fp)
   45148:	00000b06 	br	45178 <altera_avalon_jtag_uart_write+0x98>
   4514c:	e0bfff17 	ldw	r2,-4(fp)
   45150:	10000526 	beq	r2,zero,45168 <altera_avalon_jtag_uart_write+0x88>
   45154:	00c20004 	movi	r3,2048
   45158:	e0bffc17 	ldw	r2,-16(fp)
   4515c:	1885c83a 	sub	r2,r3,r2
   45160:	e0bffe15 	stw	r2,-8(fp)
   45164:	00000406 	br	45178 <altera_avalon_jtag_uart_write+0x98>
   45168:	00c1ffc4 	movi	r3,2047
   4516c:	e0bffc17 	ldw	r2,-16(fp)
   45170:	1885c83a 	sub	r2,r3,r2
   45174:	e0bffe15 	stw	r2,-8(fp)
   45178:	e0bffe17 	ldw	r2,-8(fp)
   4517c:	10001e26 	beq	r2,zero,451f8 <altera_avalon_jtag_uart_write+0x118>
   45180:	e0fff617 	ldw	r3,-40(fp)
   45184:	e0bffe17 	ldw	r2,-8(fp)
   45188:	1880022e 	bgeu	r3,r2,45194 <altera_avalon_jtag_uart_write+0xb4>
   4518c:	e0bff617 	ldw	r2,-40(fp)
   45190:	e0bffe15 	stw	r2,-8(fp)
   45194:	e0bff817 	ldw	r2,-32(fp)
   45198:	10c20e04 	addi	r3,r2,2104
   4519c:	e0bffc17 	ldw	r2,-16(fp)
   451a0:	1885883a 	add	r2,r3,r2
   451a4:	e1bffe17 	ldw	r6,-8(fp)
   451a8:	e17ff717 	ldw	r5,-36(fp)
   451ac:	1009883a 	mov	r4,r2
   451b0:	004650c0 	call	4650c <memcpy>
   451b4:	e0fff717 	ldw	r3,-36(fp)
   451b8:	e0bffe17 	ldw	r2,-8(fp)
   451bc:	1885883a 	add	r2,r3,r2
   451c0:	e0bff715 	stw	r2,-36(fp)
   451c4:	e0fff617 	ldw	r3,-40(fp)
   451c8:	e0bffe17 	ldw	r2,-8(fp)
   451cc:	1885c83a 	sub	r2,r3,r2
   451d0:	e0bff615 	stw	r2,-40(fp)
   451d4:	e0fffc17 	ldw	r3,-16(fp)
   451d8:	e0bffe17 	ldw	r2,-8(fp)
   451dc:	1885883a 	add	r2,r3,r2
   451e0:	10c1ffcc 	andi	r3,r2,2047
   451e4:	e0bff817 	ldw	r2,-32(fp)
   451e8:	10c00c15 	stw	r3,48(r2)
   451ec:	e0bff617 	ldw	r2,-40(fp)
   451f0:	00bfc716 	blt	zero,r2,45110 <altera_avalon_jtag_uart_write+0x30>
   451f4:	00000106 	br	451fc <altera_avalon_jtag_uart_write+0x11c>
   451f8:	0001883a 	nop
   451fc:	0005303a 	rdctl	r2,status
   45200:	e0bff915 	stw	r2,-28(fp)
   45204:	e0fff917 	ldw	r3,-28(fp)
   45208:	00bfff84 	movi	r2,-2
   4520c:	1884703a 	and	r2,r3,r2
   45210:	1001703a 	wrctl	status,r2
   45214:	e0bff917 	ldw	r2,-28(fp)
   45218:	e0bffb15 	stw	r2,-20(fp)
   4521c:	e0bff817 	ldw	r2,-32(fp)
   45220:	10800817 	ldw	r2,32(r2)
   45224:	10c00094 	ori	r3,r2,2
   45228:	e0bff817 	ldw	r2,-32(fp)
   4522c:	10c00815 	stw	r3,32(r2)
   45230:	e0bff817 	ldw	r2,-32(fp)
   45234:	10800017 	ldw	r2,0(r2)
   45238:	10800104 	addi	r2,r2,4
   4523c:	1007883a 	mov	r3,r2
   45240:	e0bff817 	ldw	r2,-32(fp)
   45244:	10800817 	ldw	r2,32(r2)
   45248:	18800035 	stwio	r2,0(r3)
   4524c:	e0bffb17 	ldw	r2,-20(fp)
   45250:	e0bffa15 	stw	r2,-24(fp)
   45254:	e0bffa17 	ldw	r2,-24(fp)
   45258:	1001703a 	wrctl	status,r2
   4525c:	0001883a 	nop
   45260:	e0bff617 	ldw	r2,-40(fp)
   45264:	0080100e 	bge	zero,r2,452a8 <altera_avalon_jtag_uart_write+0x1c8>
   45268:	e0bff517 	ldw	r2,-44(fp)
   4526c:	1090000c 	andi	r2,r2,16384
   45270:	1000101e 	bne	r2,zero,452b4 <altera_avalon_jtag_uart_write+0x1d4>
   45274:	0001883a 	nop
   45278:	e0bff817 	ldw	r2,-32(fp)
   4527c:	10800d17 	ldw	r2,52(r2)
   45280:	e0ffff17 	ldw	r3,-4(fp)
   45284:	1880051e 	bne	r3,r2,4529c <altera_avalon_jtag_uart_write+0x1bc>
   45288:	e0bff817 	ldw	r2,-32(fp)
   4528c:	10c00917 	ldw	r3,36(r2)
   45290:	e0bff817 	ldw	r2,-32(fp)
   45294:	10800117 	ldw	r2,4(r2)
   45298:	18bff736 	bltu	r3,r2,45278 <altera_avalon_jtag_uart_write+0x198>
   4529c:	e0bff817 	ldw	r2,-32(fp)
   452a0:	10800917 	ldw	r2,36(r2)
   452a4:	1000051e 	bne	r2,zero,452bc <altera_avalon_jtag_uart_write+0x1dc>
   452a8:	e0bff617 	ldw	r2,-40(fp)
   452ac:	00bfcf16 	blt	zero,r2,451ec <altera_avalon_jtag_uart_write+0x10c>
   452b0:	00000306 	br	452c0 <altera_avalon_jtag_uart_write+0x1e0>
   452b4:	0001883a 	nop
   452b8:	00000106 	br	452c0 <altera_avalon_jtag_uart_write+0x1e0>
   452bc:	0001883a 	nop
   452c0:	e0fff717 	ldw	r3,-36(fp)
   452c4:	e0bffd17 	ldw	r2,-12(fp)
   452c8:	18800426 	beq	r3,r2,452dc <altera_avalon_jtag_uart_write+0x1fc>
   452cc:	e0fff717 	ldw	r3,-36(fp)
   452d0:	e0bffd17 	ldw	r2,-12(fp)
   452d4:	1885c83a 	sub	r2,r3,r2
   452d8:	00000606 	br	452f4 <altera_avalon_jtag_uart_write+0x214>
   452dc:	e0bff517 	ldw	r2,-44(fp)
   452e0:	1090000c 	andi	r2,r2,16384
   452e4:	10000226 	beq	r2,zero,452f0 <altera_avalon_jtag_uart_write+0x210>
   452e8:	00bffd44 	movi	r2,-11
   452ec:	00000106 	br	452f4 <altera_avalon_jtag_uart_write+0x214>
   452f0:	00bffec4 	movi	r2,-5
   452f4:	e037883a 	mov	sp,fp
   452f8:	dfc00117 	ldw	ra,4(sp)
   452fc:	df000017 	ldw	fp,0(sp)
   45300:	dec00204 	addi	sp,sp,8
   45304:	f800283a 	ret

00045308 <alt_alarm_start>:
   45308:	defff504 	addi	sp,sp,-44
   4530c:	df000a15 	stw	fp,40(sp)
   45310:	df000a04 	addi	fp,sp,40
   45314:	e13ff915 	stw	r4,-28(fp)
   45318:	e17ff815 	stw	r5,-32(fp)
   4531c:	e1bff715 	stw	r6,-36(fp)
   45320:	e1fff615 	stw	r7,-40(fp)
   45324:	e03fff15 	stw	zero,-4(fp)
   45328:	d0a5a717 	ldw	r2,-26980(gp)
   4532c:	10003e26 	beq	r2,zero,45428 <alt_alarm_start+0x120>
   45330:	e0bff917 	ldw	r2,-28(fp)
   45334:	10003a26 	beq	r2,zero,45420 <alt_alarm_start+0x118>
   45338:	e0bff917 	ldw	r2,-28(fp)
   4533c:	e0fff717 	ldw	r3,-36(fp)
   45340:	10c00315 	stw	r3,12(r2)
   45344:	e0bff917 	ldw	r2,-28(fp)
   45348:	e0fff617 	ldw	r3,-40(fp)
   4534c:	10c00515 	stw	r3,20(r2)
   45350:	0005303a 	rdctl	r2,status
   45354:	e0bffd15 	stw	r2,-12(fp)
   45358:	e0fffd17 	ldw	r3,-12(fp)
   4535c:	00bfff84 	movi	r2,-2
   45360:	1884703a 	and	r2,r3,r2
   45364:	1001703a 	wrctl	status,r2
   45368:	e0bffd17 	ldw	r2,-12(fp)
   4536c:	e0bffe15 	stw	r2,-8(fp)
   45370:	d0a5a817 	ldw	r2,-26976(gp)
   45374:	e0bfff15 	stw	r2,-4(fp)
   45378:	e0fff817 	ldw	r3,-32(fp)
   4537c:	e0bfff17 	ldw	r2,-4(fp)
   45380:	1885883a 	add	r2,r3,r2
   45384:	10c00044 	addi	r3,r2,1
   45388:	e0bff917 	ldw	r2,-28(fp)
   4538c:	10c00215 	stw	r3,8(r2)
   45390:	e0bff917 	ldw	r2,-28(fp)
   45394:	10c00217 	ldw	r3,8(r2)
   45398:	e0bfff17 	ldw	r2,-4(fp)
   4539c:	1880042e 	bgeu	r3,r2,453b0 <alt_alarm_start+0xa8>
   453a0:	e0bff917 	ldw	r2,-28(fp)
   453a4:	00c00044 	movi	r3,1
   453a8:	10c00405 	stb	r3,16(r2)
   453ac:	00000206 	br	453b8 <alt_alarm_start+0xb0>
   453b0:	e0bff917 	ldw	r2,-28(fp)
   453b4:	10000405 	stb	zero,16(r2)
   453b8:	e0bff917 	ldw	r2,-28(fp)
   453bc:	d0e00a04 	addi	r3,gp,-32728
   453c0:	e0fffb15 	stw	r3,-20(fp)
   453c4:	e0bffa15 	stw	r2,-24(fp)
   453c8:	e0bffa17 	ldw	r2,-24(fp)
   453cc:	e0fffb17 	ldw	r3,-20(fp)
   453d0:	10c00115 	stw	r3,4(r2)
   453d4:	e0bffb17 	ldw	r2,-20(fp)
   453d8:	10c00017 	ldw	r3,0(r2)
   453dc:	e0bffa17 	ldw	r2,-24(fp)
   453e0:	10c00015 	stw	r3,0(r2)
   453e4:	e0bffb17 	ldw	r2,-20(fp)
   453e8:	10800017 	ldw	r2,0(r2)
   453ec:	e0fffa17 	ldw	r3,-24(fp)
   453f0:	10c00115 	stw	r3,4(r2)
   453f4:	e0bffb17 	ldw	r2,-20(fp)
   453f8:	e0fffa17 	ldw	r3,-24(fp)
   453fc:	10c00015 	stw	r3,0(r2)
   45400:	0001883a 	nop
   45404:	e0bffe17 	ldw	r2,-8(fp)
   45408:	e0bffc15 	stw	r2,-16(fp)
   4540c:	e0bffc17 	ldw	r2,-16(fp)
   45410:	1001703a 	wrctl	status,r2
   45414:	0001883a 	nop
   45418:	0005883a 	mov	r2,zero
   4541c:	00000306 	br	4542c <alt_alarm_start+0x124>
   45420:	00bffa84 	movi	r2,-22
   45424:	00000106 	br	4542c <alt_alarm_start+0x124>
   45428:	00bfde84 	movi	r2,-134
   4542c:	e037883a 	mov	sp,fp
   45430:	df000017 	ldw	fp,0(sp)
   45434:	dec00104 	addi	sp,sp,4
   45438:	f800283a 	ret

0004543c <alt_busy_sleep>:
   4543c:	defffa04 	addi	sp,sp,-24
   45440:	dfc00515 	stw	ra,20(sp)
   45444:	df000415 	stw	fp,16(sp)
   45448:	df000404 	addi	fp,sp,16
   4544c:	e13ffc15 	stw	r4,-16(fp)
   45450:	00800244 	movi	r2,9
   45454:	e0bffe15 	stw	r2,-8(fp)
   45458:	014003f4 	movhi	r5,15
   4545c:	29509004 	addi	r5,r5,16960
   45460:	e13ffe17 	ldw	r4,-8(fp)
   45464:	00446100 	call	44610 <__mulsi3>
   45468:	100b883a 	mov	r5,r2
   4546c:	0100bef4 	movhi	r4,763
   45470:	213c2004 	addi	r4,r4,-3968
   45474:	0040a9c0 	call	40a9c <__udivsi3>
   45478:	100b883a 	mov	r5,r2
   4547c:	01200034 	movhi	r4,32768
   45480:	213fffc4 	addi	r4,r4,-1
   45484:	0040a9c0 	call	40a9c <__udivsi3>
   45488:	100b883a 	mov	r5,r2
   4548c:	e13ffc17 	ldw	r4,-16(fp)
   45490:	0040a9c0 	call	40a9c <__udivsi3>
   45494:	e0bffd15 	stw	r2,-12(fp)
   45498:	e0bffd17 	ldw	r2,-12(fp)
   4549c:	10002a26 	beq	r2,zero,45548 <alt_busy_sleep+0x10c>
   454a0:	e03fff15 	stw	zero,-4(fp)
   454a4:	00001706 	br	45504 <alt_busy_sleep+0xc8>
   454a8:	00a00034 	movhi	r2,32768
   454ac:	10bfffc4 	addi	r2,r2,-1
   454b0:	10bfffc4 	addi	r2,r2,-1
   454b4:	103ffe1e 	bne	r2,zero,454b0 <alt_busy_sleep+0x74>
   454b8:	014003f4 	movhi	r5,15
   454bc:	29509004 	addi	r5,r5,16960
   454c0:	e13ffe17 	ldw	r4,-8(fp)
   454c4:	00446100 	call	44610 <__mulsi3>
   454c8:	100b883a 	mov	r5,r2
   454cc:	0100bef4 	movhi	r4,763
   454d0:	213c2004 	addi	r4,r4,-3968
   454d4:	0040a9c0 	call	40a9c <__udivsi3>
   454d8:	100b883a 	mov	r5,r2
   454dc:	01200034 	movhi	r4,32768
   454e0:	213fffc4 	addi	r4,r4,-1
   454e4:	0040a9c0 	call	40a9c <__udivsi3>
   454e8:	1007883a 	mov	r3,r2
   454ec:	e0bffc17 	ldw	r2,-16(fp)
   454f0:	10c5c83a 	sub	r2,r2,r3
   454f4:	e0bffc15 	stw	r2,-16(fp)
   454f8:	e0bfff17 	ldw	r2,-4(fp)
   454fc:	10800044 	addi	r2,r2,1
   45500:	e0bfff15 	stw	r2,-4(fp)
   45504:	e0ffff17 	ldw	r3,-4(fp)
   45508:	e0bffd17 	ldw	r2,-12(fp)
   4550c:	18bfe616 	blt	r3,r2,454a8 <alt_busy_sleep+0x6c>
   45510:	014003f4 	movhi	r5,15
   45514:	29509004 	addi	r5,r5,16960
   45518:	e13ffe17 	ldw	r4,-8(fp)
   4551c:	00446100 	call	44610 <__mulsi3>
   45520:	100b883a 	mov	r5,r2
   45524:	0100bef4 	movhi	r4,763
   45528:	213c2004 	addi	r4,r4,-3968
   4552c:	0040a9c0 	call	40a9c <__udivsi3>
   45530:	e17ffc17 	ldw	r5,-16(fp)
   45534:	1009883a 	mov	r4,r2
   45538:	00446100 	call	44610 <__mulsi3>
   4553c:	10bfffc4 	addi	r2,r2,-1
   45540:	103ffe1e 	bne	r2,zero,4553c <alt_busy_sleep+0x100>
   45544:	00000d06 	br	4557c <alt_busy_sleep+0x140>
   45548:	014003f4 	movhi	r5,15
   4554c:	29509004 	addi	r5,r5,16960
   45550:	e13ffe17 	ldw	r4,-8(fp)
   45554:	00446100 	call	44610 <__mulsi3>
   45558:	100b883a 	mov	r5,r2
   4555c:	0100bef4 	movhi	r4,763
   45560:	213c2004 	addi	r4,r4,-3968
   45564:	0040a9c0 	call	40a9c <__udivsi3>
   45568:	e17ffc17 	ldw	r5,-16(fp)
   4556c:	1009883a 	mov	r4,r2
   45570:	00446100 	call	44610 <__mulsi3>
   45574:	10bfffc4 	addi	r2,r2,-1
   45578:	00bffe16 	blt	zero,r2,45574 <alt_busy_sleep+0x138>
   4557c:	0005883a 	mov	r2,zero
   45580:	e037883a 	mov	sp,fp
   45584:	dfc00117 	ldw	ra,4(sp)
   45588:	df000017 	ldw	fp,0(sp)
   4558c:	dec00204 	addi	sp,sp,8
   45590:	f800283a 	ret

00045594 <alt_get_errno>:
   45594:	defffe04 	addi	sp,sp,-8
   45598:	dfc00115 	stw	ra,4(sp)
   4559c:	df000015 	stw	fp,0(sp)
   455a0:	d839883a 	mov	fp,sp
   455a4:	d0a00817 	ldw	r2,-32736(gp)
   455a8:	10000326 	beq	r2,zero,455b8 <alt_get_errno+0x24>
   455ac:	d0a00817 	ldw	r2,-32736(gp)
   455b0:	103ee83a 	callr	r2
   455b4:	00000106 	br	455bc <alt_get_errno+0x28>
   455b8:	d0a5aa04 	addi	r2,gp,-26968
   455bc:	e037883a 	mov	sp,fp
   455c0:	dfc00117 	ldw	ra,4(sp)
   455c4:	df000017 	ldw	fp,0(sp)
   455c8:	dec00204 	addi	sp,sp,8
   455cc:	f800283a 	ret

000455d0 <close>:
   455d0:	defffb04 	addi	sp,sp,-20
   455d4:	dfc00415 	stw	ra,16(sp)
   455d8:	df000315 	stw	fp,12(sp)
   455dc:	df000304 	addi	fp,sp,12
   455e0:	e13ffd15 	stw	r4,-12(fp)
   455e4:	e0bffd17 	ldw	r2,-12(fp)
   455e8:	10000916 	blt	r2,zero,45610 <close+0x40>
   455ec:	e0fffd17 	ldw	r3,-12(fp)
   455f0:	1805883a 	mov	r2,r3
   455f4:	1085883a 	add	r2,r2,r2
   455f8:	10c5883a 	add	r2,r2,r3
   455fc:	100490ba 	slli	r2,r2,2
   45600:	00c00134 	movhi	r3,4
   45604:	18df9704 	addi	r3,r3,32348
   45608:	10c5883a 	add	r2,r2,r3
   4560c:	00000106 	br	45614 <close+0x44>
   45610:	0005883a 	mov	r2,zero
   45614:	e0bfff15 	stw	r2,-4(fp)
   45618:	e0bfff17 	ldw	r2,-4(fp)
   4561c:	10001926 	beq	r2,zero,45684 <close+0xb4>
   45620:	e0bfff17 	ldw	r2,-4(fp)
   45624:	10800017 	ldw	r2,0(r2)
   45628:	10800417 	ldw	r2,16(r2)
   4562c:	10000626 	beq	r2,zero,45648 <close+0x78>
   45630:	e0bfff17 	ldw	r2,-4(fp)
   45634:	10800017 	ldw	r2,0(r2)
   45638:	10800417 	ldw	r2,16(r2)
   4563c:	e13fff17 	ldw	r4,-4(fp)
   45640:	103ee83a 	callr	r2
   45644:	00000106 	br	4564c <close+0x7c>
   45648:	0005883a 	mov	r2,zero
   4564c:	e0bffe15 	stw	r2,-8(fp)
   45650:	e13ffd17 	ldw	r4,-12(fp)
   45654:	0045f240 	call	45f24 <alt_release_fd>
   45658:	e0bffe17 	ldw	r2,-8(fp)
   4565c:	1000070e 	bge	r2,zero,4567c <close+0xac>
   45660:	00455940 	call	45594 <alt_get_errno>
   45664:	1007883a 	mov	r3,r2
   45668:	e0bffe17 	ldw	r2,-8(fp)
   4566c:	0085c83a 	sub	r2,zero,r2
   45670:	18800015 	stw	r2,0(r3)
   45674:	00bfffc4 	movi	r2,-1
   45678:	00000706 	br	45698 <close+0xc8>
   4567c:	0005883a 	mov	r2,zero
   45680:	00000506 	br	45698 <close+0xc8>
   45684:	00455940 	call	45594 <alt_get_errno>
   45688:	1007883a 	mov	r3,r2
   4568c:	00801444 	movi	r2,81
   45690:	18800015 	stw	r2,0(r3)
   45694:	00bfffc4 	movi	r2,-1
   45698:	e037883a 	mov	sp,fp
   4569c:	dfc00117 	ldw	ra,4(sp)
   456a0:	df000017 	ldw	fp,0(sp)
   456a4:	dec00204 	addi	sp,sp,8
   456a8:	f800283a 	ret

000456ac <alt_dcache_flush_all>:
   456ac:	deffff04 	addi	sp,sp,-4
   456b0:	df000015 	stw	fp,0(sp)
   456b4:	d839883a 	mov	fp,sp
   456b8:	0001883a 	nop
   456bc:	e037883a 	mov	sp,fp
   456c0:	df000017 	ldw	fp,0(sp)
   456c4:	dec00104 	addi	sp,sp,4
   456c8:	f800283a 	ret

000456cc <alt_dev_null_write>:
   456cc:	defffc04 	addi	sp,sp,-16
   456d0:	df000315 	stw	fp,12(sp)
   456d4:	df000304 	addi	fp,sp,12
   456d8:	e13fff15 	stw	r4,-4(fp)
   456dc:	e17ffe15 	stw	r5,-8(fp)
   456e0:	e1bffd15 	stw	r6,-12(fp)
   456e4:	e0bffd17 	ldw	r2,-12(fp)
   456e8:	e037883a 	mov	sp,fp
   456ec:	df000017 	ldw	fp,0(sp)
   456f0:	dec00104 	addi	sp,sp,4
   456f4:	f800283a 	ret

000456f8 <alt_get_errno>:
   456f8:	defffe04 	addi	sp,sp,-8
   456fc:	dfc00115 	stw	ra,4(sp)
   45700:	df000015 	stw	fp,0(sp)
   45704:	d839883a 	mov	fp,sp
   45708:	d0a00817 	ldw	r2,-32736(gp)
   4570c:	10000326 	beq	r2,zero,4571c <alt_get_errno+0x24>
   45710:	d0a00817 	ldw	r2,-32736(gp)
   45714:	103ee83a 	callr	r2
   45718:	00000106 	br	45720 <alt_get_errno+0x28>
   4571c:	d0a5aa04 	addi	r2,gp,-26968
   45720:	e037883a 	mov	sp,fp
   45724:	dfc00117 	ldw	ra,4(sp)
   45728:	df000017 	ldw	fp,0(sp)
   4572c:	dec00204 	addi	sp,sp,8
   45730:	f800283a 	ret

00045734 <alt_dev_llist_insert>:
   45734:	defffa04 	addi	sp,sp,-24
   45738:	dfc00515 	stw	ra,20(sp)
   4573c:	df000415 	stw	fp,16(sp)
   45740:	df000404 	addi	fp,sp,16
   45744:	e13ffd15 	stw	r4,-12(fp)
   45748:	e17ffc15 	stw	r5,-16(fp)
   4574c:	e0bffd17 	ldw	r2,-12(fp)
   45750:	10000326 	beq	r2,zero,45760 <alt_dev_llist_insert+0x2c>
   45754:	e0bffd17 	ldw	r2,-12(fp)
   45758:	10800217 	ldw	r2,8(r2)
   4575c:	1000061e 	bne	r2,zero,45778 <alt_dev_llist_insert+0x44>
   45760:	00456f80 	call	456f8 <alt_get_errno>
   45764:	1007883a 	mov	r3,r2
   45768:	00800584 	movi	r2,22
   4576c:	18800015 	stw	r2,0(r3)
   45770:	00bffa84 	movi	r2,-22
   45774:	00001406 	br	457c8 <alt_dev_llist_insert+0x94>
   45778:	e0bffd17 	ldw	r2,-12(fp)
   4577c:	e0fffc17 	ldw	r3,-16(fp)
   45780:	e0ffff15 	stw	r3,-4(fp)
   45784:	e0bffe15 	stw	r2,-8(fp)
   45788:	e0bffe17 	ldw	r2,-8(fp)
   4578c:	e0ffff17 	ldw	r3,-4(fp)
   45790:	10c00115 	stw	r3,4(r2)
   45794:	e0bfff17 	ldw	r2,-4(fp)
   45798:	10c00017 	ldw	r3,0(r2)
   4579c:	e0bffe17 	ldw	r2,-8(fp)
   457a0:	10c00015 	stw	r3,0(r2)
   457a4:	e0bfff17 	ldw	r2,-4(fp)
   457a8:	10800017 	ldw	r2,0(r2)
   457ac:	e0fffe17 	ldw	r3,-8(fp)
   457b0:	10c00115 	stw	r3,4(r2)
   457b4:	e0bfff17 	ldw	r2,-4(fp)
   457b8:	e0fffe17 	ldw	r3,-8(fp)
   457bc:	10c00015 	stw	r3,0(r2)
   457c0:	0001883a 	nop
   457c4:	0005883a 	mov	r2,zero
   457c8:	e037883a 	mov	sp,fp
   457cc:	dfc00117 	ldw	ra,4(sp)
   457d0:	df000017 	ldw	fp,0(sp)
   457d4:	dec00204 	addi	sp,sp,8
   457d8:	f800283a 	ret

000457dc <_do_ctors>:
   457dc:	defffd04 	addi	sp,sp,-12
   457e0:	dfc00215 	stw	ra,8(sp)
   457e4:	df000115 	stw	fp,4(sp)
   457e8:	df000104 	addi	fp,sp,4
   457ec:	00800134 	movhi	r2,4
   457f0:	109a2204 	addi	r2,r2,26760
   457f4:	e0bfff15 	stw	r2,-4(fp)
   457f8:	00000606 	br	45814 <_do_ctors+0x38>
   457fc:	e0bfff17 	ldw	r2,-4(fp)
   45800:	10800017 	ldw	r2,0(r2)
   45804:	103ee83a 	callr	r2
   45808:	e0bfff17 	ldw	r2,-4(fp)
   4580c:	10bfff04 	addi	r2,r2,-4
   45810:	e0bfff15 	stw	r2,-4(fp)
   45814:	e0ffff17 	ldw	r3,-4(fp)
   45818:	00800134 	movhi	r2,4
   4581c:	109a2304 	addi	r2,r2,26764
   45820:	18bff62e 	bgeu	r3,r2,457fc <_do_ctors+0x20>
   45824:	0001883a 	nop
   45828:	0001883a 	nop
   4582c:	e037883a 	mov	sp,fp
   45830:	dfc00117 	ldw	ra,4(sp)
   45834:	df000017 	ldw	fp,0(sp)
   45838:	dec00204 	addi	sp,sp,8
   4583c:	f800283a 	ret

00045840 <_do_dtors>:
   45840:	defffd04 	addi	sp,sp,-12
   45844:	dfc00215 	stw	ra,8(sp)
   45848:	df000115 	stw	fp,4(sp)
   4584c:	df000104 	addi	fp,sp,4
   45850:	00800134 	movhi	r2,4
   45854:	109a2204 	addi	r2,r2,26760
   45858:	e0bfff15 	stw	r2,-4(fp)
   4585c:	00000606 	br	45878 <_do_dtors+0x38>
   45860:	e0bfff17 	ldw	r2,-4(fp)
   45864:	10800017 	ldw	r2,0(r2)
   45868:	103ee83a 	callr	r2
   4586c:	e0bfff17 	ldw	r2,-4(fp)
   45870:	10bfff04 	addi	r2,r2,-4
   45874:	e0bfff15 	stw	r2,-4(fp)
   45878:	e0ffff17 	ldw	r3,-4(fp)
   4587c:	00800134 	movhi	r2,4
   45880:	109a2304 	addi	r2,r2,26764
   45884:	18bff62e 	bgeu	r3,r2,45860 <_do_dtors+0x20>
   45888:	0001883a 	nop
   4588c:	0001883a 	nop
   45890:	e037883a 	mov	sp,fp
   45894:	dfc00117 	ldw	ra,4(sp)
   45898:	df000017 	ldw	fp,0(sp)
   4589c:	dec00204 	addi	sp,sp,8
   458a0:	f800283a 	ret

000458a4 <alt_icache_flush_all>:
   458a4:	deffff04 	addi	sp,sp,-4
   458a8:	df000015 	stw	fp,0(sp)
   458ac:	d839883a 	mov	fp,sp
   458b0:	0001883a 	nop
   458b4:	e037883a 	mov	sp,fp
   458b8:	df000017 	ldw	fp,0(sp)
   458bc:	dec00104 	addi	sp,sp,4
   458c0:	f800283a 	ret

000458c4 <alt_ic_isr_register>:
   458c4:	defff904 	addi	sp,sp,-28
   458c8:	dfc00615 	stw	ra,24(sp)
   458cc:	df000515 	stw	fp,20(sp)
   458d0:	df000504 	addi	fp,sp,20
   458d4:	e13fff15 	stw	r4,-4(fp)
   458d8:	e17ffe15 	stw	r5,-8(fp)
   458dc:	e1bffd15 	stw	r6,-12(fp)
   458e0:	e1fffc15 	stw	r7,-16(fp)
   458e4:	e0800217 	ldw	r2,8(fp)
   458e8:	d8800015 	stw	r2,0(sp)
   458ec:	e1fffc17 	ldw	r7,-16(fp)
   458f0:	e1bffd17 	ldw	r6,-12(fp)
   458f4:	e17ffe17 	ldw	r5,-8(fp)
   458f8:	e13fff17 	ldw	r4,-4(fp)
   458fc:	0045a740 	call	45a74 <alt_iic_isr_register>
   45900:	e037883a 	mov	sp,fp
   45904:	dfc00117 	ldw	ra,4(sp)
   45908:	df000017 	ldw	fp,0(sp)
   4590c:	dec00204 	addi	sp,sp,8
   45910:	f800283a 	ret

00045914 <alt_ic_irq_enable>:
   45914:	defff904 	addi	sp,sp,-28
   45918:	df000615 	stw	fp,24(sp)
   4591c:	df000604 	addi	fp,sp,24
   45920:	e13ffb15 	stw	r4,-20(fp)
   45924:	e17ffa15 	stw	r5,-24(fp)
   45928:	e0bffa17 	ldw	r2,-24(fp)
   4592c:	e0bfff15 	stw	r2,-4(fp)
   45930:	0005303a 	rdctl	r2,status
   45934:	e0bffe15 	stw	r2,-8(fp)
   45938:	e0fffe17 	ldw	r3,-8(fp)
   4593c:	00bfff84 	movi	r2,-2
   45940:	1884703a 	and	r2,r3,r2
   45944:	1001703a 	wrctl	status,r2
   45948:	e0bffe17 	ldw	r2,-8(fp)
   4594c:	e0bffd15 	stw	r2,-12(fp)
   45950:	00c00044 	movi	r3,1
   45954:	e0bfff17 	ldw	r2,-4(fp)
   45958:	1884983a 	sll	r2,r3,r2
   4595c:	1007883a 	mov	r3,r2
   45960:	d0a5a617 	ldw	r2,-26984(gp)
   45964:	1884b03a 	or	r2,r3,r2
   45968:	d0a5a615 	stw	r2,-26984(gp)
   4596c:	d0a5a617 	ldw	r2,-26984(gp)
   45970:	100170fa 	wrctl	ienable,r2
   45974:	e0bffd17 	ldw	r2,-12(fp)
   45978:	e0bffc15 	stw	r2,-16(fp)
   4597c:	e0bffc17 	ldw	r2,-16(fp)
   45980:	1001703a 	wrctl	status,r2
   45984:	0001883a 	nop
   45988:	0005883a 	mov	r2,zero
   4598c:	e037883a 	mov	sp,fp
   45990:	df000017 	ldw	fp,0(sp)
   45994:	dec00104 	addi	sp,sp,4
   45998:	f800283a 	ret

0004599c <alt_ic_irq_disable>:
   4599c:	defff904 	addi	sp,sp,-28
   459a0:	df000615 	stw	fp,24(sp)
   459a4:	df000604 	addi	fp,sp,24
   459a8:	e13ffb15 	stw	r4,-20(fp)
   459ac:	e17ffa15 	stw	r5,-24(fp)
   459b0:	e0bffa17 	ldw	r2,-24(fp)
   459b4:	e0bfff15 	stw	r2,-4(fp)
   459b8:	0005303a 	rdctl	r2,status
   459bc:	e0bffe15 	stw	r2,-8(fp)
   459c0:	e0fffe17 	ldw	r3,-8(fp)
   459c4:	00bfff84 	movi	r2,-2
   459c8:	1884703a 	and	r2,r3,r2
   459cc:	1001703a 	wrctl	status,r2
   459d0:	e0bffe17 	ldw	r2,-8(fp)
   459d4:	e0bffd15 	stw	r2,-12(fp)
   459d8:	00c00044 	movi	r3,1
   459dc:	e0bfff17 	ldw	r2,-4(fp)
   459e0:	1884983a 	sll	r2,r3,r2
   459e4:	0084303a 	nor	r2,zero,r2
   459e8:	1007883a 	mov	r3,r2
   459ec:	d0a5a617 	ldw	r2,-26984(gp)
   459f0:	1884703a 	and	r2,r3,r2
   459f4:	d0a5a615 	stw	r2,-26984(gp)
   459f8:	d0a5a617 	ldw	r2,-26984(gp)
   459fc:	100170fa 	wrctl	ienable,r2
   45a00:	e0bffd17 	ldw	r2,-12(fp)
   45a04:	e0bffc15 	stw	r2,-16(fp)
   45a08:	e0bffc17 	ldw	r2,-16(fp)
   45a0c:	1001703a 	wrctl	status,r2
   45a10:	0001883a 	nop
   45a14:	0005883a 	mov	r2,zero
   45a18:	e037883a 	mov	sp,fp
   45a1c:	df000017 	ldw	fp,0(sp)
   45a20:	dec00104 	addi	sp,sp,4
   45a24:	f800283a 	ret

00045a28 <alt_ic_irq_enabled>:
   45a28:	defffc04 	addi	sp,sp,-16
   45a2c:	df000315 	stw	fp,12(sp)
   45a30:	df000304 	addi	fp,sp,12
   45a34:	e13ffe15 	stw	r4,-8(fp)
   45a38:	e17ffd15 	stw	r5,-12(fp)
   45a3c:	000530fa 	rdctl	r2,ienable
   45a40:	e0bfff15 	stw	r2,-4(fp)
   45a44:	00c00044 	movi	r3,1
   45a48:	e0bffd17 	ldw	r2,-12(fp)
   45a4c:	1884983a 	sll	r2,r3,r2
   45a50:	1007883a 	mov	r3,r2
   45a54:	e0bfff17 	ldw	r2,-4(fp)
   45a58:	1884703a 	and	r2,r3,r2
   45a5c:	1004c03a 	cmpne	r2,r2,zero
   45a60:	10803fcc 	andi	r2,r2,255
   45a64:	e037883a 	mov	sp,fp
   45a68:	df000017 	ldw	fp,0(sp)
   45a6c:	dec00104 	addi	sp,sp,4
   45a70:	f800283a 	ret

00045a74 <alt_iic_isr_register>:
   45a74:	defff504 	addi	sp,sp,-44
   45a78:	dfc00a15 	stw	ra,40(sp)
   45a7c:	df000915 	stw	fp,36(sp)
   45a80:	df000904 	addi	fp,sp,36
   45a84:	e13ffa15 	stw	r4,-24(fp)
   45a88:	e17ff915 	stw	r5,-28(fp)
   45a8c:	e1bff815 	stw	r6,-32(fp)
   45a90:	e1fff715 	stw	r7,-36(fp)
   45a94:	00bffa84 	movi	r2,-22
   45a98:	e0bfff15 	stw	r2,-4(fp)
   45a9c:	e0bff917 	ldw	r2,-28(fp)
   45aa0:	e0bffe15 	stw	r2,-8(fp)
   45aa4:	e0bffe17 	ldw	r2,-8(fp)
   45aa8:	10800808 	cmpgei	r2,r2,32
   45aac:	1000251e 	bne	r2,zero,45b44 <alt_iic_isr_register+0xd0>
   45ab0:	0005303a 	rdctl	r2,status
   45ab4:	e0bffc15 	stw	r2,-16(fp)
   45ab8:	e0fffc17 	ldw	r3,-16(fp)
   45abc:	00bfff84 	movi	r2,-2
   45ac0:	1884703a 	and	r2,r3,r2
   45ac4:	1001703a 	wrctl	status,r2
   45ac8:	e0bffc17 	ldw	r2,-16(fp)
   45acc:	e0bffd15 	stw	r2,-12(fp)
   45ad0:	e0bffe17 	ldw	r2,-8(fp)
   45ad4:	100890fa 	slli	r4,r2,3
   45ad8:	e0fff817 	ldw	r3,-32(fp)
   45adc:	00800174 	movhi	r2,5
   45ae0:	2085883a 	add	r2,r4,r2
   45ae4:	10e5a215 	stw	r3,-27000(r2)
   45ae8:	e0bffe17 	ldw	r2,-8(fp)
   45aec:	100890fa 	slli	r4,r2,3
   45af0:	e0fff717 	ldw	r3,-36(fp)
   45af4:	00800174 	movhi	r2,5
   45af8:	2085883a 	add	r2,r4,r2
   45afc:	10e5a315 	stw	r3,-26996(r2)
   45b00:	e0bff817 	ldw	r2,-32(fp)
   45b04:	10000526 	beq	r2,zero,45b1c <alt_iic_isr_register+0xa8>
   45b08:	e0bffe17 	ldw	r2,-8(fp)
   45b0c:	100b883a 	mov	r5,r2
   45b10:	e13ffa17 	ldw	r4,-24(fp)
   45b14:	00459140 	call	45914 <alt_ic_irq_enable>
   45b18:	00000406 	br	45b2c <alt_iic_isr_register+0xb8>
   45b1c:	e0bffe17 	ldw	r2,-8(fp)
   45b20:	100b883a 	mov	r5,r2
   45b24:	e13ffa17 	ldw	r4,-24(fp)
   45b28:	004599c0 	call	4599c <alt_ic_irq_disable>
   45b2c:	e0bfff15 	stw	r2,-4(fp)
   45b30:	e0bffd17 	ldw	r2,-12(fp)
   45b34:	e0bffb15 	stw	r2,-20(fp)
   45b38:	e0bffb17 	ldw	r2,-20(fp)
   45b3c:	1001703a 	wrctl	status,r2
   45b40:	0001883a 	nop
   45b44:	e0bfff17 	ldw	r2,-4(fp)
   45b48:	e037883a 	mov	sp,fp
   45b4c:	dfc00117 	ldw	ra,4(sp)
   45b50:	df000017 	ldw	fp,0(sp)
   45b54:	dec00204 	addi	sp,sp,8
   45b58:	f800283a 	ret

00045b5c <alt_open_fd>:
   45b5c:	defff904 	addi	sp,sp,-28
   45b60:	dfc00615 	stw	ra,24(sp)
   45b64:	df000515 	stw	fp,20(sp)
   45b68:	df000504 	addi	fp,sp,20
   45b6c:	e13ffe15 	stw	r4,-8(fp)
   45b70:	e17ffd15 	stw	r5,-12(fp)
   45b74:	e1bffc15 	stw	r6,-16(fp)
   45b78:	e1fffb15 	stw	r7,-20(fp)
   45b7c:	e1bffb17 	ldw	r6,-20(fp)
   45b80:	e17ffc17 	ldw	r5,-16(fp)
   45b84:	e13ffd17 	ldw	r4,-12(fp)
   45b88:	0045dc40 	call	45dc4 <open>
   45b8c:	e0bfff15 	stw	r2,-4(fp)
   45b90:	e0bfff17 	ldw	r2,-4(fp)
   45b94:	10002016 	blt	r2,zero,45c18 <alt_open_fd+0xbc>
   45b98:	e0ffff17 	ldw	r3,-4(fp)
   45b9c:	1805883a 	mov	r2,r3
   45ba0:	1085883a 	add	r2,r2,r2
   45ba4:	10c5883a 	add	r2,r2,r3
   45ba8:	100490ba 	slli	r2,r2,2
   45bac:	00c00134 	movhi	r3,4
   45bb0:	10c7883a 	add	r3,r2,r3
   45bb4:	18df9717 	ldw	r3,32348(r3)
   45bb8:	e0bffe17 	ldw	r2,-8(fp)
   45bbc:	10c00015 	stw	r3,0(r2)
   45bc0:	e0ffff17 	ldw	r3,-4(fp)
   45bc4:	1805883a 	mov	r2,r3
   45bc8:	1085883a 	add	r2,r2,r2
   45bcc:	10c5883a 	add	r2,r2,r3
   45bd0:	100490ba 	slli	r2,r2,2
   45bd4:	00c00134 	movhi	r3,4
   45bd8:	10c7883a 	add	r3,r2,r3
   45bdc:	18df9817 	ldw	r3,32352(r3)
   45be0:	e0bffe17 	ldw	r2,-8(fp)
   45be4:	10c00115 	stw	r3,4(r2)
   45be8:	e0ffff17 	ldw	r3,-4(fp)
   45bec:	1805883a 	mov	r2,r3
   45bf0:	1085883a 	add	r2,r2,r2
   45bf4:	10c5883a 	add	r2,r2,r3
   45bf8:	100490ba 	slli	r2,r2,2
   45bfc:	00c00134 	movhi	r3,4
   45c00:	10c7883a 	add	r3,r2,r3
   45c04:	18df9917 	ldw	r3,32356(r3)
   45c08:	e0bffe17 	ldw	r2,-8(fp)
   45c0c:	10c00215 	stw	r3,8(r2)
   45c10:	e13fff17 	ldw	r4,-4(fp)
   45c14:	0045f240 	call	45f24 <alt_release_fd>
   45c18:	0001883a 	nop
   45c1c:	e037883a 	mov	sp,fp
   45c20:	dfc00117 	ldw	ra,4(sp)
   45c24:	df000017 	ldw	fp,0(sp)
   45c28:	dec00204 	addi	sp,sp,8
   45c2c:	f800283a 	ret

00045c30 <alt_io_redirect>:
   45c30:	defffb04 	addi	sp,sp,-20
   45c34:	dfc00415 	stw	ra,16(sp)
   45c38:	df000315 	stw	fp,12(sp)
   45c3c:	df000304 	addi	fp,sp,12
   45c40:	e13fff15 	stw	r4,-4(fp)
   45c44:	e17ffe15 	stw	r5,-8(fp)
   45c48:	e1bffd15 	stw	r6,-12(fp)
   45c4c:	01c07fc4 	movi	r7,511
   45c50:	01800044 	movi	r6,1
   45c54:	e17fff17 	ldw	r5,-4(fp)
   45c58:	01000134 	movhi	r4,4
   45c5c:	211f9a04 	addi	r4,r4,32360
   45c60:	0045b5c0 	call	45b5c <alt_open_fd>
   45c64:	01c07fc4 	movi	r7,511
   45c68:	000d883a 	mov	r6,zero
   45c6c:	e17ffe17 	ldw	r5,-8(fp)
   45c70:	01000134 	movhi	r4,4
   45c74:	211f9704 	addi	r4,r4,32348
   45c78:	0045b5c0 	call	45b5c <alt_open_fd>
   45c7c:	01c07fc4 	movi	r7,511
   45c80:	01800044 	movi	r6,1
   45c84:	e17ffd17 	ldw	r5,-12(fp)
   45c88:	01000134 	movhi	r4,4
   45c8c:	211f9d04 	addi	r4,r4,32372
   45c90:	0045b5c0 	call	45b5c <alt_open_fd>
   45c94:	0001883a 	nop
   45c98:	e037883a 	mov	sp,fp
   45c9c:	dfc00117 	ldw	ra,4(sp)
   45ca0:	df000017 	ldw	fp,0(sp)
   45ca4:	dec00204 	addi	sp,sp,8
   45ca8:	f800283a 	ret

00045cac <alt_get_errno>:
   45cac:	defffe04 	addi	sp,sp,-8
   45cb0:	dfc00115 	stw	ra,4(sp)
   45cb4:	df000015 	stw	fp,0(sp)
   45cb8:	d839883a 	mov	fp,sp
   45cbc:	d0a00817 	ldw	r2,-32736(gp)
   45cc0:	10000326 	beq	r2,zero,45cd0 <alt_get_errno+0x24>
   45cc4:	d0a00817 	ldw	r2,-32736(gp)
   45cc8:	103ee83a 	callr	r2
   45ccc:	00000106 	br	45cd4 <alt_get_errno+0x28>
   45cd0:	d0a5aa04 	addi	r2,gp,-26968
   45cd4:	e037883a 	mov	sp,fp
   45cd8:	dfc00117 	ldw	ra,4(sp)
   45cdc:	df000017 	ldw	fp,0(sp)
   45ce0:	dec00204 	addi	sp,sp,8
   45ce4:	f800283a 	ret

00045ce8 <alt_file_locked>:
   45ce8:	defffd04 	addi	sp,sp,-12
   45cec:	df000215 	stw	fp,8(sp)
   45cf0:	df000204 	addi	fp,sp,8
   45cf4:	e13ffe15 	stw	r4,-8(fp)
   45cf8:	e0bffe17 	ldw	r2,-8(fp)
   45cfc:	10800217 	ldw	r2,8(r2)
   45d00:	10d00034 	orhi	r3,r2,16384
   45d04:	e0bffe17 	ldw	r2,-8(fp)
   45d08:	10c00215 	stw	r3,8(r2)
   45d0c:	e03fff15 	stw	zero,-4(fp)
   45d10:	00002306 	br	45da0 <alt_file_locked+0xb8>
   45d14:	e0ffff17 	ldw	r3,-4(fp)
   45d18:	1805883a 	mov	r2,r3
   45d1c:	1085883a 	add	r2,r2,r2
   45d20:	10c5883a 	add	r2,r2,r3
   45d24:	100490ba 	slli	r2,r2,2
   45d28:	00c00134 	movhi	r3,4
   45d2c:	10c7883a 	add	r3,r2,r3
   45d30:	18df9717 	ldw	r3,32348(r3)
   45d34:	e0bffe17 	ldw	r2,-8(fp)
   45d38:	10800017 	ldw	r2,0(r2)
   45d3c:	1880151e 	bne	r3,r2,45d94 <alt_file_locked+0xac>
   45d40:	e0ffff17 	ldw	r3,-4(fp)
   45d44:	1805883a 	mov	r2,r3
   45d48:	1085883a 	add	r2,r2,r2
   45d4c:	10c5883a 	add	r2,r2,r3
   45d50:	100490ba 	slli	r2,r2,2
   45d54:	00c00134 	movhi	r3,4
   45d58:	10c7883a 	add	r3,r2,r3
   45d5c:	189f9917 	ldw	r2,32356(r3)
   45d60:	10000c0e 	bge	r2,zero,45d94 <alt_file_locked+0xac>
   45d64:	e0ffff17 	ldw	r3,-4(fp)
   45d68:	1805883a 	mov	r2,r3
   45d6c:	1085883a 	add	r2,r2,r2
   45d70:	10c5883a 	add	r2,r2,r3
   45d74:	100490ba 	slli	r2,r2,2
   45d78:	00c00134 	movhi	r3,4
   45d7c:	18df9704 	addi	r3,r3,32348
   45d80:	10c5883a 	add	r2,r2,r3
   45d84:	e0fffe17 	ldw	r3,-8(fp)
   45d88:	18800226 	beq	r3,r2,45d94 <alt_file_locked+0xac>
   45d8c:	00bffcc4 	movi	r2,-13
   45d90:	00000806 	br	45db4 <alt_file_locked+0xcc>
   45d94:	e0bfff17 	ldw	r2,-4(fp)
   45d98:	10800044 	addi	r2,r2,1
   45d9c:	e0bfff15 	stw	r2,-4(fp)
   45da0:	d0a00717 	ldw	r2,-32740(gp)
   45da4:	1007883a 	mov	r3,r2
   45da8:	e0bfff17 	ldw	r2,-4(fp)
   45dac:	18bfd92e 	bgeu	r3,r2,45d14 <alt_file_locked+0x2c>
   45db0:	0005883a 	mov	r2,zero
   45db4:	e037883a 	mov	sp,fp
   45db8:	df000017 	ldw	fp,0(sp)
   45dbc:	dec00104 	addi	sp,sp,4
   45dc0:	f800283a 	ret

00045dc4 <open>:
   45dc4:	defff604 	addi	sp,sp,-40
   45dc8:	dfc00915 	stw	ra,36(sp)
   45dcc:	df000815 	stw	fp,32(sp)
   45dd0:	df000804 	addi	fp,sp,32
   45dd4:	e13ffa15 	stw	r4,-24(fp)
   45dd8:	e17ff915 	stw	r5,-28(fp)
   45ddc:	e1bff815 	stw	r6,-32(fp)
   45de0:	00bfffc4 	movi	r2,-1
   45de4:	e0bffe15 	stw	r2,-8(fp)
   45de8:	00bffb44 	movi	r2,-19
   45dec:	e0bffd15 	stw	r2,-12(fp)
   45df0:	e03ffc15 	stw	zero,-16(fp)
   45df4:	d1600504 	addi	r5,gp,-32748
   45df8:	e13ffa17 	ldw	r4,-24(fp)
   45dfc:	00461640 	call	46164 <alt_find_dev>
   45e00:	e0bfff15 	stw	r2,-4(fp)
   45e04:	e0bfff17 	ldw	r2,-4(fp)
   45e08:	1000051e 	bne	r2,zero,45e20 <open+0x5c>
   45e0c:	e13ffa17 	ldw	r4,-24(fp)
   45e10:	00461f40 	call	461f4 <alt_find_file>
   45e14:	e0bfff15 	stw	r2,-4(fp)
   45e18:	00800044 	movi	r2,1
   45e1c:	e0bffc15 	stw	r2,-16(fp)
   45e20:	e0bfff17 	ldw	r2,-4(fp)
   45e24:	10002c26 	beq	r2,zero,45ed8 <open+0x114>
   45e28:	e13fff17 	ldw	r4,-4(fp)
   45e2c:	00462fc0 	call	462fc <alt_get_fd>
   45e30:	e0bffe15 	stw	r2,-8(fp)
   45e34:	e0bffe17 	ldw	r2,-8(fp)
   45e38:	1000030e 	bge	r2,zero,45e48 <open+0x84>
   45e3c:	e0bffe17 	ldw	r2,-8(fp)
   45e40:	e0bffd15 	stw	r2,-12(fp)
   45e44:	00002606 	br	45ee0 <open+0x11c>
   45e48:	e0fffe17 	ldw	r3,-8(fp)
   45e4c:	1805883a 	mov	r2,r3
   45e50:	1085883a 	add	r2,r2,r2
   45e54:	10c5883a 	add	r2,r2,r3
   45e58:	100490ba 	slli	r2,r2,2
   45e5c:	00c00134 	movhi	r3,4
   45e60:	18df9704 	addi	r3,r3,32348
   45e64:	10c5883a 	add	r2,r2,r3
   45e68:	e0bffb15 	stw	r2,-20(fp)
   45e6c:	e0fff917 	ldw	r3,-28(fp)
   45e70:	00900034 	movhi	r2,16384
   45e74:	10bfffc4 	addi	r2,r2,-1
   45e78:	1886703a 	and	r3,r3,r2
   45e7c:	e0bffb17 	ldw	r2,-20(fp)
   45e80:	10c00215 	stw	r3,8(r2)
   45e84:	e0bffc17 	ldw	r2,-16(fp)
   45e88:	1000051e 	bne	r2,zero,45ea0 <open+0xdc>
   45e8c:	e13ffb17 	ldw	r4,-20(fp)
   45e90:	0045ce80 	call	45ce8 <alt_file_locked>
   45e94:	e0bffd15 	stw	r2,-12(fp)
   45e98:	e0bffd17 	ldw	r2,-12(fp)
   45e9c:	10001016 	blt	r2,zero,45ee0 <open+0x11c>
   45ea0:	e0bfff17 	ldw	r2,-4(fp)
   45ea4:	10800317 	ldw	r2,12(r2)
   45ea8:	10000826 	beq	r2,zero,45ecc <open+0x108>
   45eac:	e0bfff17 	ldw	r2,-4(fp)
   45eb0:	10800317 	ldw	r2,12(r2)
   45eb4:	e1fff817 	ldw	r7,-32(fp)
   45eb8:	e1bff917 	ldw	r6,-28(fp)
   45ebc:	e17ffa17 	ldw	r5,-24(fp)
   45ec0:	e13ffb17 	ldw	r4,-20(fp)
   45ec4:	103ee83a 	callr	r2
   45ec8:	00000106 	br	45ed0 <open+0x10c>
   45ecc:	0005883a 	mov	r2,zero
   45ed0:	e0bffd15 	stw	r2,-12(fp)
   45ed4:	00000206 	br	45ee0 <open+0x11c>
   45ed8:	00bffb44 	movi	r2,-19
   45edc:	e0bffd15 	stw	r2,-12(fp)
   45ee0:	e0bffd17 	ldw	r2,-12(fp)
   45ee4:	1000090e 	bge	r2,zero,45f0c <open+0x148>
   45ee8:	e13ffe17 	ldw	r4,-8(fp)
   45eec:	0045f240 	call	45f24 <alt_release_fd>
   45ef0:	0045cac0 	call	45cac <alt_get_errno>
   45ef4:	1007883a 	mov	r3,r2
   45ef8:	e0bffd17 	ldw	r2,-12(fp)
   45efc:	0085c83a 	sub	r2,zero,r2
   45f00:	18800015 	stw	r2,0(r3)
   45f04:	00bfffc4 	movi	r2,-1
   45f08:	00000106 	br	45f10 <open+0x14c>
   45f0c:	e0bffe17 	ldw	r2,-8(fp)
   45f10:	e037883a 	mov	sp,fp
   45f14:	dfc00117 	ldw	ra,4(sp)
   45f18:	df000017 	ldw	fp,0(sp)
   45f1c:	dec00204 	addi	sp,sp,8
   45f20:	f800283a 	ret

00045f24 <alt_release_fd>:
   45f24:	defffe04 	addi	sp,sp,-8
   45f28:	df000115 	stw	fp,4(sp)
   45f2c:	df000104 	addi	fp,sp,4
   45f30:	e13fff15 	stw	r4,-4(fp)
   45f34:	e0bfff17 	ldw	r2,-4(fp)
   45f38:	108000d0 	cmplti	r2,r2,3
   45f3c:	1000101e 	bne	r2,zero,45f80 <alt_release_fd+0x5c>
   45f40:	e0ffff17 	ldw	r3,-4(fp)
   45f44:	1805883a 	mov	r2,r3
   45f48:	1085883a 	add	r2,r2,r2
   45f4c:	10c5883a 	add	r2,r2,r3
   45f50:	100490ba 	slli	r2,r2,2
   45f54:	00c00134 	movhi	r3,4
   45f58:	10c7883a 	add	r3,r2,r3
   45f5c:	181f9915 	stw	zero,32356(r3)
   45f60:	e0ffff17 	ldw	r3,-4(fp)
   45f64:	1805883a 	mov	r2,r3
   45f68:	1085883a 	add	r2,r2,r2
   45f6c:	10c5883a 	add	r2,r2,r3
   45f70:	100490ba 	slli	r2,r2,2
   45f74:	00c00134 	movhi	r3,4
   45f78:	10c7883a 	add	r3,r2,r3
   45f7c:	181f9715 	stw	zero,32348(r3)
   45f80:	0001883a 	nop
   45f84:	e037883a 	mov	sp,fp
   45f88:	df000017 	ldw	fp,0(sp)
   45f8c:	dec00104 	addi	sp,sp,4
   45f90:	f800283a 	ret

00045f94 <alt_alarm_stop>:
   45f94:	defffa04 	addi	sp,sp,-24
   45f98:	df000515 	stw	fp,20(sp)
   45f9c:	df000504 	addi	fp,sp,20
   45fa0:	e13ffb15 	stw	r4,-20(fp)
   45fa4:	0005303a 	rdctl	r2,status
   45fa8:	e0bffc15 	stw	r2,-16(fp)
   45fac:	e0fffc17 	ldw	r3,-16(fp)
   45fb0:	00bfff84 	movi	r2,-2
   45fb4:	1884703a 	and	r2,r3,r2
   45fb8:	1001703a 	wrctl	status,r2
   45fbc:	e0bffc17 	ldw	r2,-16(fp)
   45fc0:	e0bfff15 	stw	r2,-4(fp)
   45fc4:	e0bffb17 	ldw	r2,-20(fp)
   45fc8:	e0bffd15 	stw	r2,-12(fp)
   45fcc:	e0bffd17 	ldw	r2,-12(fp)
   45fd0:	10800017 	ldw	r2,0(r2)
   45fd4:	e0fffd17 	ldw	r3,-12(fp)
   45fd8:	18c00117 	ldw	r3,4(r3)
   45fdc:	10c00115 	stw	r3,4(r2)
   45fe0:	e0bffd17 	ldw	r2,-12(fp)
   45fe4:	10800117 	ldw	r2,4(r2)
   45fe8:	e0fffd17 	ldw	r3,-12(fp)
   45fec:	18c00017 	ldw	r3,0(r3)
   45ff0:	10c00015 	stw	r3,0(r2)
   45ff4:	e0bffd17 	ldw	r2,-12(fp)
   45ff8:	e0fffd17 	ldw	r3,-12(fp)
   45ffc:	10c00115 	stw	r3,4(r2)
   46000:	e0bffd17 	ldw	r2,-12(fp)
   46004:	e0fffd17 	ldw	r3,-12(fp)
   46008:	10c00015 	stw	r3,0(r2)
   4600c:	0001883a 	nop
   46010:	e0bfff17 	ldw	r2,-4(fp)
   46014:	e0bffe15 	stw	r2,-8(fp)
   46018:	e0bffe17 	ldw	r2,-8(fp)
   4601c:	1001703a 	wrctl	status,r2
   46020:	0001883a 	nop
   46024:	0001883a 	nop
   46028:	e037883a 	mov	sp,fp
   4602c:	df000017 	ldw	fp,0(sp)
   46030:	dec00104 	addi	sp,sp,4
   46034:	f800283a 	ret

00046038 <alt_tick>:
   46038:	defffb04 	addi	sp,sp,-20
   4603c:	dfc00415 	stw	ra,16(sp)
   46040:	df000315 	stw	fp,12(sp)
   46044:	df000304 	addi	fp,sp,12
   46048:	d0a00a17 	ldw	r2,-32728(gp)
   4604c:	e0bfff15 	stw	r2,-4(fp)
   46050:	d0a5a817 	ldw	r2,-26976(gp)
   46054:	10800044 	addi	r2,r2,1
   46058:	d0a5a815 	stw	r2,-26976(gp)
   4605c:	00002e06 	br	46118 <alt_tick+0xe0>
   46060:	e0bfff17 	ldw	r2,-4(fp)
   46064:	10800017 	ldw	r2,0(r2)
   46068:	e0bffe15 	stw	r2,-8(fp)
   4606c:	e0bfff17 	ldw	r2,-4(fp)
   46070:	10800403 	ldbu	r2,16(r2)
   46074:	10803fcc 	andi	r2,r2,255
   46078:	10000426 	beq	r2,zero,4608c <alt_tick+0x54>
   4607c:	d0a5a817 	ldw	r2,-26976(gp)
   46080:	1000021e 	bne	r2,zero,4608c <alt_tick+0x54>
   46084:	e0bfff17 	ldw	r2,-4(fp)
   46088:	10000405 	stb	zero,16(r2)
   4608c:	e0bfff17 	ldw	r2,-4(fp)
   46090:	10800217 	ldw	r2,8(r2)
   46094:	d0e5a817 	ldw	r3,-26976(gp)
   46098:	18801d36 	bltu	r3,r2,46110 <alt_tick+0xd8>
   4609c:	e0bfff17 	ldw	r2,-4(fp)
   460a0:	10800403 	ldbu	r2,16(r2)
   460a4:	10803fcc 	andi	r2,r2,255
   460a8:	1000191e 	bne	r2,zero,46110 <alt_tick+0xd8>
   460ac:	e0bfff17 	ldw	r2,-4(fp)
   460b0:	10800317 	ldw	r2,12(r2)
   460b4:	e0ffff17 	ldw	r3,-4(fp)
   460b8:	18c00517 	ldw	r3,20(r3)
   460bc:	1809883a 	mov	r4,r3
   460c0:	103ee83a 	callr	r2
   460c4:	e0bffd15 	stw	r2,-12(fp)
   460c8:	e0bffd17 	ldw	r2,-12(fp)
   460cc:	1000031e 	bne	r2,zero,460dc <alt_tick+0xa4>
   460d0:	e13fff17 	ldw	r4,-4(fp)
   460d4:	0045f940 	call	45f94 <alt_alarm_stop>
   460d8:	00000d06 	br	46110 <alt_tick+0xd8>
   460dc:	e0bfff17 	ldw	r2,-4(fp)
   460e0:	10c00217 	ldw	r3,8(r2)
   460e4:	e0bffd17 	ldw	r2,-12(fp)
   460e8:	1887883a 	add	r3,r3,r2
   460ec:	e0bfff17 	ldw	r2,-4(fp)
   460f0:	10c00215 	stw	r3,8(r2)
   460f4:	e0bfff17 	ldw	r2,-4(fp)
   460f8:	10c00217 	ldw	r3,8(r2)
   460fc:	d0a5a817 	ldw	r2,-26976(gp)
   46100:	1880032e 	bgeu	r3,r2,46110 <alt_tick+0xd8>
   46104:	e0bfff17 	ldw	r2,-4(fp)
   46108:	00c00044 	movi	r3,1
   4610c:	10c00405 	stb	r3,16(r2)
   46110:	e0bffe17 	ldw	r2,-8(fp)
   46114:	e0bfff15 	stw	r2,-4(fp)
   46118:	e0ffff17 	ldw	r3,-4(fp)
   4611c:	d0a00a04 	addi	r2,gp,-32728
   46120:	18bfcf1e 	bne	r3,r2,46060 <alt_tick+0x28>
   46124:	0001883a 	nop
   46128:	0001883a 	nop
   4612c:	e037883a 	mov	sp,fp
   46130:	dfc00117 	ldw	ra,4(sp)
   46134:	df000017 	ldw	fp,0(sp)
   46138:	dec00204 	addi	sp,sp,8
   4613c:	f800283a 	ret

00046140 <altera_nios2_gen2_irq_init>:
   46140:	deffff04 	addi	sp,sp,-4
   46144:	df000015 	stw	fp,0(sp)
   46148:	d839883a 	mov	fp,sp
   4614c:	000170fa 	wrctl	ienable,zero
   46150:	0001883a 	nop
   46154:	e037883a 	mov	sp,fp
   46158:	df000017 	ldw	fp,0(sp)
   4615c:	dec00104 	addi	sp,sp,4
   46160:	f800283a 	ret

00046164 <alt_find_dev>:
   46164:	defffa04 	addi	sp,sp,-24
   46168:	dfc00515 	stw	ra,20(sp)
   4616c:	df000415 	stw	fp,16(sp)
   46170:	df000404 	addi	fp,sp,16
   46174:	e13ffd15 	stw	r4,-12(fp)
   46178:	e17ffc15 	stw	r5,-16(fp)
   4617c:	e0bffc17 	ldw	r2,-16(fp)
   46180:	10800017 	ldw	r2,0(r2)
   46184:	e0bfff15 	stw	r2,-4(fp)
   46188:	e13ffd17 	ldw	r4,-12(fp)
   4618c:	004660c0 	call	4660c <strlen>
   46190:	10800044 	addi	r2,r2,1
   46194:	e0bffe15 	stw	r2,-8(fp)
   46198:	00000d06 	br	461d0 <alt_find_dev+0x6c>
   4619c:	e0bfff17 	ldw	r2,-4(fp)
   461a0:	10800217 	ldw	r2,8(r2)
   461a4:	e0fffe17 	ldw	r3,-8(fp)
   461a8:	180d883a 	mov	r6,r3
   461ac:	e17ffd17 	ldw	r5,-12(fp)
   461b0:	1009883a 	mov	r4,r2
   461b4:	00464940 	call	46494 <memcmp>
   461b8:	1000021e 	bne	r2,zero,461c4 <alt_find_dev+0x60>
   461bc:	e0bfff17 	ldw	r2,-4(fp)
   461c0:	00000706 	br	461e0 <alt_find_dev+0x7c>
   461c4:	e0bfff17 	ldw	r2,-4(fp)
   461c8:	10800017 	ldw	r2,0(r2)
   461cc:	e0bfff15 	stw	r2,-4(fp)
   461d0:	e0ffff17 	ldw	r3,-4(fp)
   461d4:	e0bffc17 	ldw	r2,-16(fp)
   461d8:	18bff01e 	bne	r3,r2,4619c <alt_find_dev+0x38>
   461dc:	0005883a 	mov	r2,zero
   461e0:	e037883a 	mov	sp,fp
   461e4:	dfc00117 	ldw	ra,4(sp)
   461e8:	df000017 	ldw	fp,0(sp)
   461ec:	dec00204 	addi	sp,sp,8
   461f0:	f800283a 	ret

000461f4 <alt_find_file>:
   461f4:	defffb04 	addi	sp,sp,-20
   461f8:	dfc00415 	stw	ra,16(sp)
   461fc:	df000315 	stw	fp,12(sp)
   46200:	df000304 	addi	fp,sp,12
   46204:	e13ffd15 	stw	r4,-12(fp)
   46208:	d0a00317 	ldw	r2,-32756(gp)
   4620c:	e0bfff15 	stw	r2,-4(fp)
   46210:	00003106 	br	462d8 <alt_find_file+0xe4>
   46214:	e0bfff17 	ldw	r2,-4(fp)
   46218:	10800217 	ldw	r2,8(r2)
   4621c:	1009883a 	mov	r4,r2
   46220:	004660c0 	call	4660c <strlen>
   46224:	e0bffe15 	stw	r2,-8(fp)
   46228:	e0bfff17 	ldw	r2,-4(fp)
   4622c:	10c00217 	ldw	r3,8(r2)
   46230:	e0bffe17 	ldw	r2,-8(fp)
   46234:	10bfffc4 	addi	r2,r2,-1
   46238:	1885883a 	add	r2,r3,r2
   4623c:	10800003 	ldbu	r2,0(r2)
   46240:	10803fcc 	andi	r2,r2,255
   46244:	1080201c 	xori	r2,r2,128
   46248:	10bfe004 	addi	r2,r2,-128
   4624c:	10800bd8 	cmpnei	r2,r2,47
   46250:	1000031e 	bne	r2,zero,46260 <alt_find_file+0x6c>
   46254:	e0bffe17 	ldw	r2,-8(fp)
   46258:	10bfffc4 	addi	r2,r2,-1
   4625c:	e0bffe15 	stw	r2,-8(fp)
   46260:	e0bffe17 	ldw	r2,-8(fp)
   46264:	e0fffd17 	ldw	r3,-12(fp)
   46268:	1885883a 	add	r2,r3,r2
   4626c:	10800003 	ldbu	r2,0(r2)
   46270:	10803fcc 	andi	r2,r2,255
   46274:	1080201c 	xori	r2,r2,128
   46278:	10bfe004 	addi	r2,r2,-128
   4627c:	10800be0 	cmpeqi	r2,r2,47
   46280:	1000081e 	bne	r2,zero,462a4 <alt_find_file+0xb0>
   46284:	e0bffe17 	ldw	r2,-8(fp)
   46288:	e0fffd17 	ldw	r3,-12(fp)
   4628c:	1885883a 	add	r2,r3,r2
   46290:	10800003 	ldbu	r2,0(r2)
   46294:	10803fcc 	andi	r2,r2,255
   46298:	1080201c 	xori	r2,r2,128
   4629c:	10bfe004 	addi	r2,r2,-128
   462a0:	10000a1e 	bne	r2,zero,462cc <alt_find_file+0xd8>
   462a4:	e0bfff17 	ldw	r2,-4(fp)
   462a8:	10800217 	ldw	r2,8(r2)
   462ac:	e0fffe17 	ldw	r3,-8(fp)
   462b0:	180d883a 	mov	r6,r3
   462b4:	e17ffd17 	ldw	r5,-12(fp)
   462b8:	1009883a 	mov	r4,r2
   462bc:	00464940 	call	46494 <memcmp>
   462c0:	1000021e 	bne	r2,zero,462cc <alt_find_file+0xd8>
   462c4:	e0bfff17 	ldw	r2,-4(fp)
   462c8:	00000706 	br	462e8 <alt_find_file+0xf4>
   462cc:	e0bfff17 	ldw	r2,-4(fp)
   462d0:	10800017 	ldw	r2,0(r2)
   462d4:	e0bfff15 	stw	r2,-4(fp)
   462d8:	e0ffff17 	ldw	r3,-4(fp)
   462dc:	d0a00304 	addi	r2,gp,-32756
   462e0:	18bfcc1e 	bne	r3,r2,46214 <alt_find_file+0x20>
   462e4:	0005883a 	mov	r2,zero
   462e8:	e037883a 	mov	sp,fp
   462ec:	dfc00117 	ldw	ra,4(sp)
   462f0:	df000017 	ldw	fp,0(sp)
   462f4:	dec00204 	addi	sp,sp,8
   462f8:	f800283a 	ret

000462fc <alt_get_fd>:
   462fc:	defffc04 	addi	sp,sp,-16
   46300:	df000315 	stw	fp,12(sp)
   46304:	df000304 	addi	fp,sp,12
   46308:	e13ffd15 	stw	r4,-12(fp)
   4630c:	00bffa04 	movi	r2,-24
   46310:	e0bffe15 	stw	r2,-8(fp)
   46314:	e03fff15 	stw	zero,-4(fp)
   46318:	00001d06 	br	46390 <alt_get_fd+0x94>
   4631c:	e0ffff17 	ldw	r3,-4(fp)
   46320:	1805883a 	mov	r2,r3
   46324:	1085883a 	add	r2,r2,r2
   46328:	10c5883a 	add	r2,r2,r3
   4632c:	100490ba 	slli	r2,r2,2
   46330:	00c00134 	movhi	r3,4
   46334:	10c7883a 	add	r3,r2,r3
   46338:	189f9717 	ldw	r2,32348(r3)
   4633c:	1000111e 	bne	r2,zero,46384 <alt_get_fd+0x88>
   46340:	e0ffff17 	ldw	r3,-4(fp)
   46344:	1805883a 	mov	r2,r3
   46348:	1085883a 	add	r2,r2,r2
   4634c:	10c5883a 	add	r2,r2,r3
   46350:	100490ba 	slli	r2,r2,2
   46354:	e13ffd17 	ldw	r4,-12(fp)
   46358:	00c00134 	movhi	r3,4
   4635c:	10c7883a 	add	r3,r2,r3
   46360:	191f9715 	stw	r4,32348(r3)
   46364:	d0e00717 	ldw	r3,-32740(gp)
   46368:	e0bfff17 	ldw	r2,-4(fp)
   4636c:	1880020e 	bge	r3,r2,46378 <alt_get_fd+0x7c>
   46370:	e0bfff17 	ldw	r2,-4(fp)
   46374:	d0a00715 	stw	r2,-32740(gp)
   46378:	e0bfff17 	ldw	r2,-4(fp)
   4637c:	e0bffe15 	stw	r2,-8(fp)
   46380:	00000706 	br	463a0 <alt_get_fd+0xa4>
   46384:	e0bfff17 	ldw	r2,-4(fp)
   46388:	10800044 	addi	r2,r2,1
   4638c:	e0bfff15 	stw	r2,-4(fp)
   46390:	e0bfff17 	ldw	r2,-4(fp)
   46394:	10800810 	cmplti	r2,r2,32
   46398:	103fe01e 	bne	r2,zero,4631c <alt_get_fd+0x20>
   4639c:	0001883a 	nop
   463a0:	e0bffe17 	ldw	r2,-8(fp)
   463a4:	e037883a 	mov	sp,fp
   463a8:	df000017 	ldw	fp,0(sp)
   463ac:	dec00104 	addi	sp,sp,4
   463b0:	f800283a 	ret

000463b4 <alt_exception_cause_generated_bad_addr>:
   463b4:	defffe04 	addi	sp,sp,-8
   463b8:	df000115 	stw	fp,4(sp)
   463bc:	df000104 	addi	fp,sp,4
   463c0:	e13fff15 	stw	r4,-4(fp)
   463c4:	e0bfff17 	ldw	r2,-4(fp)
   463c8:	10bffe84 	addi	r2,r2,-6
   463cc:	10c00428 	cmpgeui	r3,r2,16
   463d0:	1800191e 	bne	r3,zero,46438 <alt_exception_cause_generated_bad_addr+0x84>
   463d4:	100690ba 	slli	r3,r2,2
   463d8:	00800134 	movhi	r2,4
   463dc:	1885883a 	add	r2,r3,r2
   463e0:	1098fa17 	ldw	r2,25576(r2)
   463e4:	1000683a 	jmp	r2
   463e8:	00046428 	cmpgeui	zero,zero,4496
   463ec:	00046428 	cmpgeui	zero,zero,4496
   463f0:	00046438 	rdprs	zero,zero,4496
   463f4:	00046438 	rdprs	zero,zero,4496
   463f8:	00046438 	rdprs	zero,zero,4496
   463fc:	00046428 	cmpgeui	zero,zero,4496
   46400:	00046430 	cmpltui	zero,zero,4496
   46404:	00046438 	rdprs	zero,zero,4496
   46408:	00046428 	cmpgeui	zero,zero,4496
   4640c:	00046428 	cmpgeui	zero,zero,4496
   46410:	00046438 	rdprs	zero,zero,4496
   46414:	00046428 	cmpgeui	zero,zero,4496
   46418:	00046430 	cmpltui	zero,zero,4496
   4641c:	00046438 	rdprs	zero,zero,4496
   46420:	00046438 	rdprs	zero,zero,4496
   46424:	00046428 	cmpgeui	zero,zero,4496
   46428:	00800044 	movi	r2,1
   4642c:	00000306 	br	4643c <alt_exception_cause_generated_bad_addr+0x88>
   46430:	0005883a 	mov	r2,zero
   46434:	00000106 	br	4643c <alt_exception_cause_generated_bad_addr+0x88>
   46438:	0005883a 	mov	r2,zero
   4643c:	e037883a 	mov	sp,fp
   46440:	df000017 	ldw	fp,0(sp)
   46444:	dec00104 	addi	sp,sp,4
   46448:	f800283a 	ret

0004644c <atexit>:
   4644c:	200b883a 	mov	r5,r4
   46450:	000f883a 	mov	r7,zero
   46454:	000d883a 	mov	r6,zero
   46458:	0009883a 	mov	r4,zero
   4645c:	00466a41 	jmpi	466a4 <__register_exitproc>

00046460 <exit>:
   46460:	defffe04 	addi	sp,sp,-8
   46464:	000b883a 	mov	r5,zero
   46468:	dc000015 	stw	r16,0(sp)
   4646c:	dfc00115 	stw	ra,4(sp)
   46470:	2021883a 	mov	r16,r4
   46474:	00467340 	call	46734 <__call_exitprocs>
   46478:	00800134 	movhi	r2,4
   4647c:	111ff817 	ldw	r4,32736(r2)
   46480:	20800f17 	ldw	r2,60(r4)
   46484:	10000126 	beq	r2,zero,4648c <exit+0x2c>
   46488:	103ee83a 	callr	r2
   4648c:	8009883a 	mov	r4,r16
   46490:	00468540 	call	46854 <_exit>

00046494 <memcmp>:
   46494:	30800130 	cmpltui	r2,r6,4
   46498:	10000b1e 	bne	r2,zero,464c8 <memcmp+0x34>
   4649c:	2144b03a 	or	r2,r4,r5
   464a0:	108000cc 	andi	r2,r2,3
   464a4:	1000171e 	bne	r2,zero,46504 <memcmp+0x70>
   464a8:	20c00017 	ldw	r3,0(r4)
   464ac:	28800017 	ldw	r2,0(r5)
   464b0:	1880141e 	bne	r3,r2,46504 <memcmp+0x70>
   464b4:	31bfff04 	addi	r6,r6,-4
   464b8:	30800128 	cmpgeui	r2,r6,4
   464bc:	21000104 	addi	r4,r4,4
   464c0:	29400104 	addi	r5,r5,4
   464c4:	103ff81e 	bne	r2,zero,464a8 <memcmp+0x14>
   464c8:	30bfffc4 	addi	r2,r6,-1
   464cc:	30000b26 	beq	r6,zero,464fc <memcmp+0x68>
   464d0:	11800044 	addi	r6,r2,1
   464d4:	298d883a 	add	r6,r5,r6
   464d8:	00000106 	br	464e0 <memcmp+0x4c>
   464dc:	29800726 	beq	r5,r6,464fc <memcmp+0x68>
   464e0:	20800003 	ldbu	r2,0(r4)
   464e4:	28c00003 	ldbu	r3,0(r5)
   464e8:	21000044 	addi	r4,r4,1
   464ec:	29400044 	addi	r5,r5,1
   464f0:	10fffa26 	beq	r2,r3,464dc <memcmp+0x48>
   464f4:	10c5c83a 	sub	r2,r2,r3
   464f8:	f800283a 	ret
   464fc:	0005883a 	mov	r2,zero
   46500:	f800283a 	ret
   46504:	30bfffc4 	addi	r2,r6,-1
   46508:	003ff106 	br	464d0 <memcmp+0x3c>

0004650c <memcpy>:
   4650c:	30c00430 	cmpltui	r3,r6,16
   46510:	2005883a 	mov	r2,r4
   46514:	18002d1e 	bne	r3,zero,465cc <memcpy+0xc0>
   46518:	2906b03a 	or	r3,r5,r4
   4651c:	18c000cc 	andi	r3,r3,3
   46520:	1800351e 	bne	r3,zero,465f8 <memcpy+0xec>
   46524:	32fffc04 	addi	r11,r6,-16
   46528:	5816d13a 	srli	r11,r11,4
   4652c:	280f883a 	mov	r7,r5
   46530:	2007883a 	mov	r3,r4
   46534:	5ac00044 	addi	r11,r11,1
   46538:	5816913a 	slli	r11,r11,4
   4653c:	22d5883a 	add	r10,r4,r11
   46540:	39000117 	ldw	r4,4(r7)
   46544:	3a400017 	ldw	r9,0(r7)
   46548:	3a000217 	ldw	r8,8(r7)
   4654c:	19000115 	stw	r4,4(r3)
   46550:	39000317 	ldw	r4,12(r7)
   46554:	1a400015 	stw	r9,0(r3)
   46558:	1a000215 	stw	r8,8(r3)
   4655c:	19000315 	stw	r4,12(r3)
   46560:	18c00404 	addi	r3,r3,16
   46564:	39c00404 	addi	r7,r7,16
   46568:	50fff51e 	bne	r10,r3,46540 <memcpy+0x34>
   4656c:	3100030c 	andi	r4,r6,12
   46570:	2acb883a 	add	r5,r5,r11
   46574:	320003cc 	andi	r8,r6,15
   46578:	20002226 	beq	r4,zero,46604 <memcpy+0xf8>
   4657c:	280f883a 	mov	r7,r5
   46580:	1813883a 	mov	r9,r3
   46584:	39c00104 	addi	r7,r7,4
   46588:	3abfff17 	ldw	r10,-4(r7)
   4658c:	41c9c83a 	sub	r4,r8,r7
   46590:	2909883a 	add	r4,r5,r4
   46594:	4a800015 	stw	r10,0(r9)
   46598:	21000128 	cmpgeui	r4,r4,4
   4659c:	4a400104 	addi	r9,r9,4
   465a0:	203ff81e 	bne	r4,zero,46584 <memcpy+0x78>
   465a4:	413fff04 	addi	r4,r8,-4
   465a8:	2008d0ba 	srli	r4,r4,2
   465ac:	318000cc 	andi	r6,r6,3
   465b0:	31ffffc4 	addi	r7,r6,-1
   465b4:	21000044 	addi	r4,r4,1
   465b8:	200890ba 	slli	r4,r4,2
   465bc:	1907883a 	add	r3,r3,r4
   465c0:	290b883a 	add	r5,r5,r4
   465c4:	3000041e 	bne	r6,zero,465d8 <memcpy+0xcc>
   465c8:	f800283a 	ret
   465cc:	2007883a 	mov	r3,r4
   465d0:	31ffffc4 	addi	r7,r6,-1
   465d4:	303ffc26 	beq	r6,zero,465c8 <memcpy+0xbc>
   465d8:	39c00044 	addi	r7,r7,1
   465dc:	19cf883a 	add	r7,r3,r7
   465e0:	29800003 	ldbu	r6,0(r5)
   465e4:	18c00044 	addi	r3,r3,1
   465e8:	29400044 	addi	r5,r5,1
   465ec:	19bfffc5 	stb	r6,-1(r3)
   465f0:	38fffb1e 	bne	r7,r3,465e0 <memcpy+0xd4>
   465f4:	f800283a 	ret
   465f8:	31ffffc4 	addi	r7,r6,-1
   465fc:	2007883a 	mov	r3,r4
   46600:	003ff506 	br	465d8 <memcpy+0xcc>
   46604:	400d883a 	mov	r6,r8
   46608:	003ff106 	br	465d0 <memcpy+0xc4>

0004660c <strlen>:
   4660c:	208000cc 	andi	r2,r4,3
   46610:	10000926 	beq	r2,zero,46638 <strlen+0x2c>
   46614:	2005883a 	mov	r2,r4
   46618:	00000306 	br	46628 <strlen+0x1c>
   4661c:	10800044 	addi	r2,r2,1
   46620:	10c000cc 	andi	r3,r2,3
   46624:	18000526 	beq	r3,zero,4663c <strlen+0x30>
   46628:	10c00007 	ldb	r3,0(r2)
   4662c:	183ffb1e 	bne	r3,zero,4661c <strlen+0x10>
   46630:	1105c83a 	sub	r2,r2,r4
   46634:	f800283a 	ret
   46638:	2005883a 	mov	r2,r4
   4663c:	11400017 	ldw	r5,0(r2)
   46640:	01ffbff4 	movhi	r7,65279
   46644:	39ffbfc4 	addi	r7,r7,-257
   46648:	29c7883a 	add	r3,r5,r7
   4664c:	01a02074 	movhi	r6,32897
   46650:	014a303a 	nor	r5,zero,r5
   46654:	1946703a 	and	r3,r3,r5
   46658:	31a02004 	addi	r6,r6,-32640
   4665c:	1986703a 	and	r3,r3,r6
   46660:	1800071e 	bne	r3,zero,46680 <strlen+0x74>
   46664:	11400117 	ldw	r5,4(r2)
   46668:	10800104 	addi	r2,r2,4
   4666c:	29c7883a 	add	r3,r5,r7
   46670:	014a303a 	nor	r5,zero,r5
   46674:	1946703a 	and	r3,r3,r5
   46678:	1986703a 	and	r3,r3,r6
   4667c:	183ff926 	beq	r3,zero,46664 <strlen+0x58>
   46680:	10c00007 	ldb	r3,0(r2)
   46684:	183fea26 	beq	r3,zero,46630 <strlen+0x24>
   46688:	10c00047 	ldb	r3,1(r2)
   4668c:	10800044 	addi	r2,r2,1
   46690:	183fe726 	beq	r3,zero,46630 <strlen+0x24>
   46694:	10c00047 	ldb	r3,1(r2)
   46698:	10800044 	addi	r2,r2,1
   4669c:	183ffa1e 	bne	r3,zero,46688 <strlen+0x7c>
   466a0:	003fe306 	br	46630 <strlen+0x24>

000466a4 <__register_exitproc>:
   466a4:	00800134 	movhi	r2,4
   466a8:	10dff817 	ldw	r3,32736(r2)
   466ac:	18805217 	ldw	r2,328(r3)
   466b0:	10001726 	beq	r2,zero,46710 <__register_exitproc+0x6c>
   466b4:	10c00117 	ldw	r3,4(r2)
   466b8:	1a000808 	cmpgei	r8,r3,32
   466bc:	40001b1e 	bne	r8,zero,4672c <__register_exitproc+0x88>
   466c0:	20000b26 	beq	r4,zero,466f0 <__register_exitproc+0x4c>
   466c4:	181090ba 	slli	r8,r3,2
   466c8:	02400044 	movi	r9,1
   466cc:	48d2983a 	sll	r9,r9,r3
   466d0:	1211883a 	add	r8,r2,r8
   466d4:	41802215 	stw	r6,136(r8)
   466d8:	11806217 	ldw	r6,392(r2)
   466dc:	21000098 	cmpnei	r4,r4,2
   466e0:	324cb03a 	or	r6,r6,r9
   466e4:	11806215 	stw	r6,392(r2)
   466e8:	41c04215 	stw	r7,264(r8)
   466ec:	20000b26 	beq	r4,zero,4671c <__register_exitproc+0x78>
   466f0:	19000084 	addi	r4,r3,2
   466f4:	200890ba 	slli	r4,r4,2
   466f8:	18c00044 	addi	r3,r3,1
   466fc:	10c00115 	stw	r3,4(r2)
   46700:	1105883a 	add	r2,r2,r4
   46704:	11400015 	stw	r5,0(r2)
   46708:	0005883a 	mov	r2,zero
   4670c:	f800283a 	ret
   46710:	18805304 	addi	r2,r3,332
   46714:	18805215 	stw	r2,328(r3)
   46718:	003fe606 	br	466b4 <__register_exitproc+0x10>
   4671c:	11006317 	ldw	r4,396(r2)
   46720:	2252b03a 	or	r9,r4,r9
   46724:	12406315 	stw	r9,396(r2)
   46728:	003ff106 	br	466f0 <__register_exitproc+0x4c>
   4672c:	00bfffc4 	movi	r2,-1
   46730:	f800283a 	ret

00046734 <__call_exitprocs>:
   46734:	defff704 	addi	sp,sp,-36
   46738:	00800134 	movhi	r2,4
   4673c:	dcc00315 	stw	r19,12(sp)
   46740:	14dff817 	ldw	r19,32736(r2)
   46744:	dc800215 	stw	r18,8(sp)
   46748:	dfc00815 	stw	ra,32(sp)
   4674c:	9c805217 	ldw	r18,328(r19)
   46750:	ddc00715 	stw	r23,28(sp)
   46754:	dd800615 	stw	r22,24(sp)
   46758:	dd400515 	stw	r21,20(sp)
   4675c:	dd000415 	stw	r20,16(sp)
   46760:	dc400115 	stw	r17,4(sp)
   46764:	dc000015 	stw	r16,0(sp)
   46768:	90001026 	beq	r18,zero,467ac <__call_exitprocs+0x78>
   4676c:	202b883a 	mov	r21,r4
   46770:	282d883a 	mov	r22,r5
   46774:	05000044 	movi	r20,1
   46778:	94000117 	ldw	r16,4(r18)
   4677c:	847fffc4 	addi	r17,r16,-1
   46780:	88000a16 	blt	r17,zero,467ac <__call_exitprocs+0x78>
   46784:	84000044 	addi	r16,r16,1
   46788:	802090ba 	slli	r16,r16,2
   4678c:	9421883a 	add	r16,r18,r16
   46790:	b0001126 	beq	r22,zero,467d8 <__call_exitprocs+0xa4>
   46794:	80804017 	ldw	r2,256(r16)
   46798:	15800f26 	beq	r2,r22,467d8 <__call_exitprocs+0xa4>
   4679c:	8c7fffc4 	addi	r17,r17,-1
   467a0:	88bfffd8 	cmpnei	r2,r17,-1
   467a4:	843fff04 	addi	r16,r16,-4
   467a8:	103ff91e 	bne	r2,zero,46790 <__call_exitprocs+0x5c>
   467ac:	dfc00817 	ldw	ra,32(sp)
   467b0:	ddc00717 	ldw	r23,28(sp)
   467b4:	dd800617 	ldw	r22,24(sp)
   467b8:	dd400517 	ldw	r21,20(sp)
   467bc:	dd000417 	ldw	r20,16(sp)
   467c0:	dcc00317 	ldw	r19,12(sp)
   467c4:	dc800217 	ldw	r18,8(sp)
   467c8:	dc400117 	ldw	r17,4(sp)
   467cc:	dc000017 	ldw	r16,0(sp)
   467d0:	dec00904 	addi	sp,sp,36
   467d4:	f800283a 	ret
   467d8:	90800117 	ldw	r2,4(r18)
   467dc:	81800017 	ldw	r6,0(r16)
   467e0:	10bfffc4 	addi	r2,r2,-1
   467e4:	14401726 	beq	r2,r17,46844 <__call_exitprocs+0x110>
   467e8:	80000015 	stw	zero,0(r16)
   467ec:	303feb26 	beq	r6,zero,4679c <__call_exitprocs+0x68>
   467f0:	a446983a 	sll	r3,r20,r17
   467f4:	90806217 	ldw	r2,392(r18)
   467f8:	95c00117 	ldw	r23,4(r18)
   467fc:	1884703a 	and	r2,r3,r2
   46800:	1000081e 	bne	r2,zero,46824 <__call_exitprocs+0xf0>
   46804:	303ee83a 	callr	r6
   46808:	90c00117 	ldw	r3,4(r18)
   4680c:	98805217 	ldw	r2,328(r19)
   46810:	1dc0011e 	bne	r3,r23,46818 <__call_exitprocs+0xe4>
   46814:	90bfe126 	beq	r18,r2,4679c <__call_exitprocs+0x68>
   46818:	103fe426 	beq	r2,zero,467ac <__call_exitprocs+0x78>
   4681c:	1025883a 	mov	r18,r2
   46820:	003fd506 	br	46778 <__call_exitprocs+0x44>
   46824:	90806317 	ldw	r2,396(r18)
   46828:	81002017 	ldw	r4,128(r16)
   4682c:	1886703a 	and	r3,r3,r2
   46830:	1800061e 	bne	r3,zero,4684c <__call_exitprocs+0x118>
   46834:	200b883a 	mov	r5,r4
   46838:	a809883a 	mov	r4,r21
   4683c:	303ee83a 	callr	r6
   46840:	003ff106 	br	46808 <__call_exitprocs+0xd4>
   46844:	94400115 	stw	r17,4(r18)
   46848:	003fe806 	br	467ec <__call_exitprocs+0xb8>
   4684c:	303ee83a 	callr	r6
   46850:	003fed06 	br	46808 <__call_exitprocs+0xd4>

00046854 <_exit>:
   46854:	defffd04 	addi	sp,sp,-12
   46858:	df000215 	stw	fp,8(sp)
   4685c:	df000204 	addi	fp,sp,8
   46860:	e13ffe15 	stw	r4,-8(fp)
   46864:	0001883a 	nop
   46868:	e0bffe17 	ldw	r2,-8(fp)
   4686c:	e0bfff15 	stw	r2,-4(fp)
   46870:	e0bfff17 	ldw	r2,-4(fp)
   46874:	10000226 	beq	r2,zero,46880 <_exit+0x2c>
   46878:	002af070 	cmpltui	zero,zero,43969
   4687c:	00000106 	br	46884 <_exit+0x30>
   46880:	002af0b0 	cmpltui	zero,zero,43970
   46884:	0001883a 	nop
   46888:	003fff06 	br	46888 <_exit+0x34>
