
drive_logic.elf:     file format elf32-littlenios2
drive_logic.elf
architecture: nios2:r1, flags 0x00000112:
EXEC_P, HAS_SYMS, D_PAGED
start address 0x00040238

Program Header:
    LOAD off    0x00001000 vaddr 0x00040000 paddr 0x00040000 align 2**12
         filesz 0x00000020 memsz 0x00000020 flags r-x
    LOAD off    0x00001020 vaddr 0x00040020 paddr 0x00040020 align 2**12
         filesz 0x0001607c memsz 0x0001607c flags r-x
    LOAD off    0x0001709c vaddr 0x0005609c paddr 0x00057ca0 align 2**12
         filesz 0x00001c04 memsz 0x00001c04 flags rw-
    LOAD off    0x000198a4 vaddr 0x000598a4 paddr 0x000598a4 align 2**12
         filesz 0x00000000 memsz 0x0000017c flags rw-

Sections:
Idx Name          Size      VMA       LMA       File off  Algn
  0 .entry        00000020  00040000  00040000  00001000  2**5
                  CONTENTS, ALLOC, LOAD, READONLY, CODE
  1 .exceptions   00000218  00040020  00040020  00001020  2**2
                  CONTENTS, ALLOC, LOAD, READONLY, CODE
  2 .text         00015508  00040238  00040238  00001238  2**2
                  CONTENTS, ALLOC, LOAD, READONLY, CODE
  3 .rodata       0000095c  00055740  00055740  00016740  2**2
                  CONTENTS, ALLOC, LOAD, READONLY, DATA
  4 .rwdata       00001c04  0005609c  00057ca0  0001709c  2**2
                  CONTENTS, ALLOC, LOAD, DATA, SMALL_DATA
  5 .bss          0000017c  000598a4  000598a4  000198a4  2**2
                  ALLOC, SMALL_DATA
  6 .Memory       00000000  00059a20  00059a20  00018ca0  2**0
                  CONTENTS
  7 .comment      0000002c  00000000  00000000  00018ca0  2**0
                  CONTENTS, READONLY
  8 .debug_aranges 000015c0  00000000  00000000  00018cd0  2**3
                  CONTENTS, READONLY, DEBUGGING
  9 .debug_info   00066c8f  00000000  00000000  0001a290  2**0
                  CONTENTS, READONLY, DEBUGGING
 10 .debug_abbrev 00016d2c  00000000  00000000  00080f1f  2**0
                  CONTENTS, READONLY, DEBUGGING
 11 .debug_line   00023eeb  00000000  00000000  00097c4b  2**0
                  CONTENTS, READONLY, DEBUGGING
 12 .debug_frame  000032a4  00000000  00000000  000bbb38  2**2
                  CONTENTS, READONLY, DEBUGGING
 13 .debug_str    00007f5c  00000000  00000000  000beddc  2**0
                  CONTENTS, READONLY, DEBUGGING
 14 .debug_loc    00027a24  00000000  00000000  000c6d38  2**0
                  CONTENTS, READONLY, DEBUGGING
 15 .debug_alt_sim_info 00000060  00000000  00000000  000ee75c  2**2
                  CONTENTS, READONLY, DEBUGGING
 16 .debug_ranges 00002ca8  00000000  00000000  000ee7c0  2**3
                  CONTENTS, READONLY, DEBUGGING
 17 .thread_model 00000003  00000000  00000000  000f68aa  2**0
                  CONTENTS, READONLY
 18 .cpu          00000003  00000000  00000000  000f68ad  2**0
                  CONTENTS, READONLY
 19 .qsys         00000001  00000000  00000000  000f68b0  2**0
                  CONTENTS, READONLY
 20 .simulation_enabled 00000001  00000000  00000000  000f68b1  2**0
                  CONTENTS, READONLY
 21 .stderr_dev   00000004  00000000  00000000  000f68b2  2**0
                  CONTENTS, READONLY
 22 .stdin_dev    00000004  00000000  00000000  000f68b6  2**0
                  CONTENTS, READONLY
 23 .stdout_dev   00000004  00000000  00000000  000f68ba  2**0
                  CONTENTS, READONLY
 24 .sopc_system_name 0000000b  00000000  00000000  000f68be  2**0
                  CONTENTS, READONLY
SYMBOL TABLE:
00040000 l    d  .entry	00000000 .entry
00040020 l    d  .exceptions	00000000 .exceptions
00040238 l    d  .text	00000000 .text
00055740 l    d  .rodata	00000000 .rodata
0005609c l    d  .rwdata	00000000 .rwdata
000598a4 l    d  .bss	00000000 .bss
00059a20 l    d  .Memory	00000000 .Memory
00000000 l    d  .comment	00000000 .comment
00000000 l    d  .debug_aranges	00000000 .debug_aranges
00000000 l    d  .debug_info	00000000 .debug_info
00000000 l    d  .debug_abbrev	00000000 .debug_abbrev
00000000 l    d  .debug_line	00000000 .debug_line
00000000 l    d  .debug_frame	00000000 .debug_frame
00000000 l    d  .debug_str	00000000 .debug_str
00000000 l    d  .debug_loc	00000000 .debug_loc
00000000 l    d  .debug_alt_sim_info	00000000 .debug_alt_sim_info
00000000 l    d  .debug_ranges	00000000 .debug_ranges
00000000 l    df *ABS*	00000000 C:/Users/joshn/iCloudDrive/Desktop/Uni/MTRX3700/Major-Project/mtrx3700-major-project/VerilogCam_project/software/drive_logic_bsp/obj/HAL/src/crt0.o
00040280 l       .text	00000000 alt_after_alt_main
00000000 l    df *ABS*	00000000 alt_irq_handler.c
00000000 l    df *ABS*	00000000 alt_instruction_exception_entry.c
00000000 l    df *ABS*	00000000 command_translator.cpp
000598a4 l     O .bss	00000004 _ZZN10CCommander13sendNextAsciiEvE13current_index
00000000 l    df *ABS*	00000000 drive_logic_booyah.cpp
00000000 l    df *ABS*	00000000 main.cpp
00000000 l    df *ABS*	00000000 del_ops.cc
00000000 l    df *ABS*	00000000 eh_personality.cc
00040c34 l     F .text	00000090 _ZL16get_adjusted_ptrPKSt9type_infoS1_PPv
00040cc4 l     F .text	000001e8 _ZL28read_encoded_value_with_basehjPKhPj
00040eac l     F .text	00000094 _ZL15get_ttype_entryP16lsda_header_infom
00040f40 l     F .text	000000a0 _ZL20check_exception_specP16lsda_header_infoPKSt9type_infoPvl
00040fe0 l     F .text	00000070 _ZL21base_of_encoded_valuehP15_Unwind_Context
00041050 l     F .text	0000012c _ZL17parse_lsda_headerP15_Unwind_ContextPKhP16lsda_header_info
00000000 l    df *ABS*	00000000 eh_terminate.cc
00000000 l    df *ABS*	00000000 eh_throw.cc
00041a6c l     F .text	00000068 _ZL23__gxx_exception_cleanup19_Unwind_Reason_CodeP17_Unwind_Exception
00000000 l    df *ABS*	00000000 eh_unex_handler.cc
00000000 l    df *ABS*	00000000 new_op.cc
00000000 l    df *ABS*	00000000 bad_alloc.cc
00000000 l    df *ABS*	00000000 del_op.cc
00000000 l    df *ABS*	00000000 eh_alloc.cc
00041d18 l     F .text	000000cc _ZN12_GLOBAL__N_14pool4freeEPv.constprop.0
000598e8 l     O .bss	00000010 _ZN12_GLOBAL__N_114emergency_poolE
00041de4 l     F .text	0000008c _ZN12_GLOBAL__N_14pool8allocateEj.constprop.0
00041f90 l     F .text	00000064 _GLOBAL__sub_I__ZN9__gnu_cxx9__freeresEv
00000000 l    df *ABS*	00000000 eh_call.cc
00000000 l    df *ABS*	00000000 eh_catch.cc
00000000 l    df *ABS*	00000000 eh_exception.cc
00000000 l    df *ABS*	00000000 eh_globals.cc
000598a8 l     O .bss	00000008 _ZL10eh_globals
00000000 l    df *ABS*	00000000 eh_term_handler.cc
00000000 l    df *ABS*	00000000 new_handler.cc
000598b0 l     O .bss	00000004 _ZN12_GLOBAL__N_113__new_handlerE
00000000 l    df *ABS*	00000000 pure.cc
00000000 l    df *ABS*	00000000 si_class_type_info.cc
00000000 l    df *ABS*	00000000 tinfo.cc
00000000 l    df *ABS*	00000000 class_type_info.cc
00000000 l    df *ABS*	00000000 lib2-divmod.c
00000000 l    df *ABS*	00000000 floatsisf.c
00000000 l    df *ABS*	00000000 extendsfdf2.c
00000000 l    df *ABS*	00000000 unwind-sjlj.c
00042c48 l     F .text	00000114 _Unwind_ForcedUnwind_Phase2
000598b4 l     O .bss	00000004 fc_static
00042d5c l     F .text	000000d8 _Unwind_RaiseException_Phase2
00042e34 l     F .text	0000002c uw_install_context.isra.0
00000000 l    df *ABS*	00000000 libgcc2.c
00000000 l    df *ABS*	00000000 libgcc2.c
00000000 l    df *ABS*	00000000 abort.c
00000000 l    df *ABS*	00000000 malloc.c
00000000 l    df *ABS*	00000000 mallocr.c
00000000 l    df *ABS*	00000000 memset.c
00000000 l    df *ABS*	00000000 printf.c
00000000 l    df *ABS*	00000000 puts.c
00000000 l    df *ABS*	00000000 sbrkr.c
00000000 l    df *ABS*	00000000 signal.c
00043c70 l     F .text	0000004c _init_signal_r.part.0
00000000 l    df *ABS*	00000000 signalr.c
00000000 l    df *ABS*	00000000 snprintf.c
00000000 l    df *ABS*	00000000 strcmp.c
00000000 l    df *ABS*	00000000 strlen.c
00000000 l    df *ABS*	00000000 vfprintf.c
00055b74 l     O .rodata	00000010 blanks.5157
00055b64 l     O .rodata	00000010 zeroes.5158
00000000 l    df *ABS*	00000000 vfprintf.c
000483fc l     F .text	000000c0 __sbprintf
00055b94 l     O .rodata	00000010 blanks.5176
00055b84 l     O .rodata	00000010 zeroes.5177
00000000 l    df *ABS*	00000000 wsetup.c
00000000 l    df *ABS*	00000000 dtoa.c
00048618 l     F .text	000001fc quorem
00000000 l    df *ABS*	00000000 fflush.c
00000000 l    df *ABS*	00000000 findfp.c
0004a214 l     F .text	00000008 __fp_lock
0004a228 l     F .text	00000168 __sinit.part.0
0004a390 l     F .text	00000008 __fp_unlock
00000000 l    df *ABS*	00000000 mallocr.c
00000000 l    df *ABS*	00000000 fvwrite.c
00000000 l    df *ABS*	00000000 fwalk.c
00000000 l    df *ABS*	00000000 impure.c
000564a4 l     O .rwdata	00000424 impure_data
00000000 l    df *ABS*	00000000 int_errno.c
00000000 l    df *ABS*	00000000 localeconv.c
00000000 l    df *ABS*	00000000 makebuf.c
00000000 l    df *ABS*	00000000 memchr.c
00000000 l    df *ABS*	00000000 memcpy.c
00000000 l    df *ABS*	00000000 memmove.c
00000000 l    df *ABS*	00000000 mprec.c
00055c40 l     O .rodata	0000000c p05.3991
00000000 l    df *ABS*	00000000 mallocr.c
00000000 l    df *ABS*	00000000 stdio.c
00000000 l    df *ABS*	00000000 vfprintf.c
00055d74 l     O .rodata	00000010 blanks.5137
00055d64 l     O .rodata	00000010 zeroes.5138
00000000 l    df *ABS*	00000000 vfprintf.c
0004de48 l     F .text	000000f4 __sprint_r.part.0
0004f274 l     F .text	000000c0 __sbprintf
00055d94 l     O .rodata	00000010 blanks.5153
00055d84 l     O .rodata	00000010 zeroes.5154
00000000 l    df *ABS*	00000000 writer.c
00000000 l    df *ABS*	00000000 closer.c
00000000 l    df *ABS*	00000000 assert.c
00000000 l    df *ABS*	00000000 mallocr.c
00000000 l    df *ABS*	00000000 fclose.c
00000000 l    df *ABS*	00000000 fiprintf.c
00000000 l    df *ABS*	00000000 fputwc.c
00000000 l    df *ABS*	00000000 fstatr.c
00000000 l    df *ABS*	00000000 isattyr.c
00000000 l    df *ABS*	00000000 locale.c
00000000 l    df *ABS*	00000000 lseekr.c
00000000 l    df *ABS*	00000000 mbtowc_r.c
00000000 l    df *ABS*	00000000 readr.c
00000000 l    df *ABS*	00000000 vfiprintfr_1.c
00000000 l    df *ABS*	00000000 wbuf.c
00000000 l    df *ABS*	00000000 wcrtomb.c
00000000 l    df *ABS*	00000000 wctomb_r.c
00000000 l    df *ABS*	00000000 ctype_.c
00000000 l    df *ABS*	00000000 libgcc2.c
00000000 l    df *ABS*	00000000 libgcc2.c
00000000 l    df *ABS*	00000000 adddf3.c
00000000 l    df *ABS*	00000000 divdf3.c
00000000 l    df *ABS*	00000000 eqdf2.c
00000000 l    df *ABS*	00000000 gedf2.c
00000000 l    df *ABS*	00000000 ledf2.c
00000000 l    df *ABS*	00000000 muldf3.c
00000000 l    df *ABS*	00000000 subdf3.c
00000000 l    df *ABS*	00000000 unorddf2.c
00000000 l    df *ABS*	00000000 fixdfsi.c
00000000 l    df *ABS*	00000000 floatsidf.c
00000000 l    df *ABS*	00000000 floatunsidf.c
00000000 l    df *ABS*	00000000 alt_close.c
00052e38 l     F .text	0000003c alt_get_errno
00000000 l    df *ABS*	00000000 alt_dev.c
00052f44 l     F .text	0000002c alt_dev_null_write
00000000 l    df *ABS*	00000000 alt_errno.c
00000000 l    df *ABS*	00000000 alt_exit.c
00000000 l    df *ABS*	00000000 alt_fstat.c
00052fa8 l     F .text	0000003c alt_get_errno
00000000 l    df *ABS*	00000000 alt_getpid.c
00000000 l    df *ABS*	00000000 alt_isatty.c
000530b4 l     F .text	0000003c alt_get_errno
00000000 l    df *ABS*	00000000 alt_kill.c
00053194 l     F .text	0000003c alt_get_errno
00000000 l    df *ABS*	00000000 alt_load.c
000532fc l     F .text	00000068 alt_load_section
00000000 l    df *ABS*	00000000 alt_lseek.c
000533e8 l     F .text	0000003c alt_get_errno
00000000 l    df *ABS*	00000000 alt_main.c
00000000 l    df *ABS*	00000000 alt_malloc_lock.c
00000000 l    df *ABS*	00000000 alt_read.c
000535bc l     F .text	0000003c alt_get_errno
00000000 l    df *ABS*	00000000 alt_release_fd.c
00000000 l    df *ABS*	00000000 alt_sbrk.c
00057c90 l     O .rwdata	00000004 heap_end
00000000 l    df *ABS*	00000000 alt_usleep.c
00000000 l    df *ABS*	00000000 alt_write.c
00053834 l     F .text	0000003c alt_get_errno
00000000 l    df *ABS*	00000000 alt_sys_init.c
00053968 l     F .text	00000034 alt_dev_reg
00056bdc l     O .rwdata	00001060 jtag
00000000 l    df *ABS*	00000000 altera_avalon_jtag_uart_fd.c
00000000 l    df *ABS*	00000000 altera_avalon_jtag_uart_init.c
00053c44 l     F .text	0000020c altera_avalon_jtag_uart_irq
00053e50 l     F .text	000000a0 altera_avalon_jtag_uart_timeout
00000000 l    df *ABS*	00000000 altera_avalon_jtag_uart_ioctl.c
00000000 l    df *ABS*	00000000 altera_avalon_jtag_uart_read.c
00000000 l    df *ABS*	00000000 altera_avalon_jtag_uart_write.c
00000000 l    df *ABS*	00000000 alt_alarm_start.c
00000000 l    df *ABS*	00000000 alt_busy_sleep.c
00000000 l    df *ABS*	00000000 alt_dcache_flush_all.c
00000000 l    df *ABS*	00000000 alt_dev_llist_insert.c
0005476c l     F .text	0000003c alt_get_errno
00000000 l    df *ABS*	00000000 alt_do_ctors.c
00000000 l    df *ABS*	00000000 alt_do_dtors.c
00000000 l    df *ABS*	00000000 alt_icache_flush_all.c
00000000 l    df *ABS*	00000000 alt_iic.c
00000000 l    df *ABS*	00000000 alt_iic_isr_register.c
00000000 l    df *ABS*	00000000 alt_io_redirect.c
00054be4 l     F .text	000000b0 alt_open_fd
00000000 l    df *ABS*	00000000 alt_irq_vars.c
00000000 l    df *ABS*	00000000 alt_open.c
00054d10 l     F .text	0000003c alt_get_errno
00054d4c l     F .text	000000b8 alt_file_locked
00000000 l    df *ABS*	00000000 alt_tick.c
00000000 l    df *ABS*	00000000 altera_nios2_gen2_irq.c
00000000 l    df *ABS*	00000000 alt_find_dev.c
00000000 l    df *ABS*	00000000 alt_find_file.c
00000000 l    df *ABS*	00000000 alt_get_fd.c
00000000 l    df *ABS*	00000000 alt_icache_flush.c
00000000 l    df *ABS*	00000000 atexit.c
00000000 l    df *ABS*	00000000 exit.c
00000000 l    df *ABS*	00000000 memcmp.c
00000000 l    df *ABS*	00000000 __atexit.c
00000000 l    df *ABS*	00000000 __call_atexit.c
000598e4 g     O .bss	00000004 alt_instruction_exception_handler
00041ef8 g     F .text	00000028 __cxa_free_exception
00042568 g     F .text	00000008 _ZNKSt9type_info15__is_function_pEv
0004c3c4 g     F .text	00000070 _mprec_log10
000419f8 g     F .text	00000014 _ZSt10unexpectedv
0004c4a0 g     F .text	00000060 __any_on
0004f8dc g     F .text	00000058 _isatty_r
00055c4c g     O .rodata	00000028 __mprec_tinytens
000534f8 g     F .text	0000007c alt_main
00043b3c g     F .text	000000cc _puts_r
00059920 g     O .bss	00000100 alt_irq
0004222c g     F .text	00000004 _ZN10__cxxabiv115__forced_unwindD1Ev
0004f9cc g     F .text	00000064 _lseek_r
00042ee0 g     F .text	00000020 .hidden _Unwind_GetIPInfo
00057ca0 g       *ABS*	00000000 __flash_rwdata_start
00051a14 g     F .text	00000080 .hidden __eqdf2
00041bcc g     F .text	00000084 __cxa_rethrow
00042e78 g     F .text	00000010 .hidden _Unwind_SjLj_Unregister
00041a3c g     F .text	00000024 _ZSt14set_unexpectedPFvvE
00040630 g     F .text	00000044 _ZN14CDriveComputerD2Ev
00042ed0 g     F .text	00000010 .hidden _Unwind_GetIP
00059a20 g       *ABS*	00000000 __alt_heap_start
00043f24 g     F .text	00000060 _kill_r
00041ccc g     F .text	00000010 _ZNSt9bad_allocD2Ev
00043b04 g     F .text	00000038 printf
0004fc48 g     F .text	0000006c _wcrtomb_r
00043cd0 g     F .text	00000084 _signal_r
0004cb40 g     F .text	0000005c __sseek
0004a510 g     F .text	00000010 __sinit
0004fae8 g     F .text	00000148 __swbuf_r
00041f64 g     F .text	0000002c __cxa_free_dependent_exception
0004229c g     F .text	00000010 _ZN10__cxxabiv120__si_class_type_infoD2Ev
0004f934 g     F .text	00000074 _setlocale_r
00055930  w    O .rodata	00000025 _ZTSN10__cxxabiv120__si_class_type_infoE
0004a398 g     F .text	00000068 __sfmoreglue
00053598 g     F .text	00000024 __malloc_unlock
000404c0 g     F .text	00000170 _ZN14CDriveComputerC2Ev
0004222c g     F .text	00000004 _ZN10__cxxabiv115__forced_unwindD2Ev
000421c0 g     F .text	00000020 _ZSt18uncaught_exceptionv
00042290 g     F .text	0000000c __cxa_deleted_virtual
0004b338 g     F .text	0000012c memmove
000421fc g     F .text	00000004 _ZNSt9exceptionD2Ev
0004a4fc g     F .text	00000014 _cleanup
0004404c g     F .text	000000cc snprintf
0004b464 g     F .text	000000a4 _Balloc
00051a94 g     F .text	000000f0 .hidden __gtdf2
000558f4  w    O .rodata	00000014 _ZTVSt13bad_exception
00055104 g     F .text	00000024 altera_nios2_gen2_irq_init
000409c4 g     F .text	00000030 _Z9write_pioi
00040000 g     F .entry	0000001c __reset
0004af6c g     F .text	00000008 __localeconv_l
00042f1c g     F .text	00000008 .hidden _Unwind_GetRegionStart
00040020 g       *ABS*	00000000 __flash_exceptions_start
0004f87c g     F .text	00000060 _fstat_r
000598c4 g     O .bss	00000004 errno
0004cab8 g     F .text	00000008 __seofread
0004cd64 g     F .text	000010e4 ___svfiprintf_internal_r
000430f0 g     F .text	00000088 .hidden _Unwind_Backtrace
000598d0 g     O .bss	00000004 alt_argv
0005fc3c g       *ABS*	00000000 _gp
00053804 g     F .text	00000030 usleep
00053094 g     F .text	00000020 getpid
00041788 g     F .text	00000180 __cxa_call_unexpected
0004204c g     F .text	00000008 __cxa_get_exception_ptr
00056a5c g     O .rwdata	00000180 alt_fd_list
00043004 g     F .text	00000044 .hidden _Unwind_SjLj_ForcedUnwind
00042ea0 g     F .text	00000018 .hidden _Unwind_GetCFA
00041a0c g     F .text	00000024 _ZSt13set_terminatePFvvE
00055128 g     F .text	00000090 alt_find_dev
0004b238 g     F .text	00000100 memcpy
00041f20 g     F .text	00000044 __cxa_allocate_dependent_exception
0004a21c g     F .text	0000000c _cleanup_r
0004263c g     F .text	00000018 _ZNK10__cxxabiv117__class_type_info20__do_find_public_srcEiPKvPKS0_S2_
00052cec g     F .text	000000bc .hidden __floatsidf
00054c94 g     F .text	0000007c alt_io_redirect
00051b84 g     F .text	000000f0 .hidden __ltdf2
00055740 g       *ABS*	00000000 __DTOR_END__
00042654 g     F .text	00000010 _ZN10__cxxabiv117__class_type_infoD1Ev
00043c08 g     F .text	00000010 puts
000553f0 g     F .text	00000098 alt_exception_cause_generated_bad_addr
0004c31c g     F .text	000000a8 __ratio
0004f258 g     F .text	0000001c __vfiprintf_internal
0005404c g     F .text	00000220 altera_avalon_jtag_uart_read
000431e4 g     F .text	00000010 malloc
00043ad4 g     F .text	00000030 _printf_r
00042968 g     F .text	00000064 .hidden __udivsi3
000530f0 g     F .text	000000a4 isatty
00043d54 g     F .text	000000c4 _raise_r
000406bc g     F .text	00000048 _ZN14CDriveComputer19DecrementFollowDistEv
0004f3f0 g     F .text	00000064 __assert_func
00055c9c g     O .rodata	000000c8 __mprec_tens
00055360 g     F .text	00000090 alt_icache_flush
000598c0 g     O .bss	00000004 __malloc_top_pad
00043f84 g     F .text	00000004 _getpid_r
0004af74 g     F .text	0000000c _localeconv_r
000421e0 g     F .text	0000001c _ZSt19uncaught_exceptionsv
00041e70 g     F .text	00000030 _ZN9__gnu_cxx9__freeresEv
0004b8b0 g     F .text	00000054 __i2b
0004a970 g     F .text	000004bc __sfvwrite_r
000427cc g     F .text	000000a8 _ZNK10__cxxabiv117__class_type_info10__do_catchEPKSt9type_infoPPvj
00043e18 g     F .text	000000b8 __sigtramp_r
00043c18 g     F .text	00000058 _sbrk_r
00042204 g     F .text	0000000c _ZGTtNKSt9exception4whatEv
000559a0  w    O .rodata	00000020 _ZTVSt9type_info
0004fa80 g     F .text	00000064 _read_r
00042204 g     F .text	0000000c _ZNKSt9exception4whatEv
00057c88 g     O .rwdata	00000004 alt_max_fd
0004f51c g     F .text	000000f8 _fclose_r
00055828  w    O .rodata	0000000c _ZTISt9bad_alloc
0004a1ec g     F .text	00000028 fflush
000598bc g     O .bss	00000004 __malloc_max_sbrked_mem
00042b4c g     F .text	000000fc .hidden __extendsfdf2
0005083c g     F .text	00000978 .hidden __adddf3
00055964  w    O .rodata	0000002c _ZTVN10__cxxabiv120__si_class_type_infoE
0004c0b4 g     F .text	00000104 __b2d
00050308 g     F .text	00000534 .hidden __umoddi3
00053424 g     F .text	000000d4 lseek
00042760 g     F .text	0000006c _ZNK10__cxxabiv117__class_type_info11__do_upcastEPKS0_PKvRNS0_15__upcast_resultE
00041d14 g     F .text	00000004 _ZdlPv
00040284 g     F .text	00000044 _ZN10CCommanderC2Ev
00057c70 g     O .rwdata	00000004 _global_impure_ptr
0004c500 g     F .text	00000564 _realloc_r
00059a20 g       *ABS*	00000000 __bss_end
00042278 g     F .text	0000000c _ZSt15get_new_handlerv
00054afc g     F .text	000000e8 alt_iic_isr_register
00054ffc g     F .text	00000108 alt_tick
00042e60 g     F .text	00000018 .hidden _Unwind_SjLj_Register
0004fd78 g     F .text	00000590 .hidden __udivdi3
0004f7e0 g     F .text	00000024 _fputwc_r
00055c74 g     O .rodata	00000028 __mprec_bigtens
0004b664 g     F .text	00000138 __s2b
000431cc g     F .text	00000018 abort
00052da8 g     F .text	00000090 .hidden __floatunsidf
0004bdd4 g     F .text	00000058 __mcmp
0004210c g     F .text	000000b4 __cxa_end_catch
0004a530 g     F .text	00000014 __fp_lock_all
00054ab0 g     F .text	0000004c alt_ic_irq_enabled
00042200 g     F .text	00000004 _ZNSt13bad_exceptionD2Ev
00054f58 g     F .text	000000a4 alt_alarm_stop
000598d8 g     O .bss	00000004 alt_irq_active
000419d4 g     F .text	00000014 _ZSt9terminatev
00040284 g     F .text	00000044 _ZN10CCommanderC1Ev
000400fc g     F .exceptions	000000c8 alt_irq_handler
00056a34 g     O .rwdata	00000028 alt_dev_null
00042238 g     F .text	00000004 _ZN10__cxxabiv119__foreign_exceptionD2Ev
000559c0  w    O .rodata	00000022 _ZTSN10__cxxabiv117__class_type_infoE
00054720 g     F .text	0000004c alt_dcache_flush_all
0004b79c g     F .text	00000064 __hi0bits
00057c40  w    O .rwdata	00000008 _ZTISt9exception
00052c6c g     F .text	00000080 .hidden __fixdfsi
00057ca0 g       *ABS*	00000000 __ram_rwdata_end
00042564 g     F .text	00000004 _ZNSt9type_infoD1Ev
00057c80 g     O .rwdata	00000008 alt_dev_list
00042238 g     F .text	00000004 _ZN10__cxxabiv119__foreign_exceptionD1Ev
00053870 g     F .text	000000f8 write
00042578 g     F .text	00000008 _ZNSt9type_infoD0Ev
0005609c g       *ABS*	00000000 __ram_rodata_end
00040c30 g     F .text	00000004 _ZdlPvj
00052fe4 g     F .text	000000b0 fstat
000531d0 g     F .text	0000012c kill
00051b84 g     F .text	000000f0 .hidden __ledf2
0004bb34 g     F .text	00000118 __pow5mult
0004df54 g     F .text	00001304 ___vfiprintf_internal_r
000429cc g     F .text	0000005c .hidden __umodsi3
00042570 g     F .text	00000008 _ZNKSt9type_info11__do_upcastEPKN10__cxxabiv117__class_type_infoEPPv
00041ad4 g     F .text	00000064 __cxa_init_primary_exception
00041a30 g     F .text	0000000c _ZSt13get_terminatev
00059a20 g       *ABS*	00000000 end
000430d8 g     F .text	00000018 .hidden _Unwind_DeleteException
00053b84 g     F .text	000000c0 altera_avalon_jtag_uart_init
000401c4 g     F .exceptions	00000074 alt_instruction_exception_entry
0004269c g     F .text	000000c4 _ZNK10__cxxabiv117__class_type_info12__do_dyncastEiNS0_10__sub_kindEPKS0_PKvS3_S5_RNS0_16__dyncast_resultE
00055739 g       *ABS*	00000000 __CTOR_LIST__
00072000 g       *ABS*	00000000 __alt_stack_pointer
00043178 g     F .text	00000054 .hidden __clzsi2
00043f88 g     F .text	000000c4 _snprintf_r
000425c4 g     F .text	00000078 _ZNK10__cxxabiv117__class_type_info11__do_upcastEPKS0_PPv
0005426c g     F .text	00000228 altera_avalon_jtag_uart_write
0004a520 g     F .text	00000004 __sfp_lock_acquire
0005587c  w    O .rodata	00000012 _ZTSSt13bad_exception
0004b164 g     F .text	000000d4 memchr
00046304 g     F .text	000020dc ___vfprintf_internal_r
0004a674 g     F .text	000002fc _free_r
00055ef8 g     O .rodata	00000180 _ctype_b
0004f9a8 g     F .text	0000000c __locale_mb_cur_max
000555d8 g     F .text	00000120 __call_exitprocs
00057c68 g     O .rwdata	00000004 __malloc_sbrk_base
00040238 g     F .text	0000004c _start
000598dc g     O .bss	00000004 _alt_tick_rate
00055990  w    O .rodata	0000000d _ZTSSt9type_info
00041cc0 g     F .text	0000000c _ZNKSt9bad_alloc4whatEv
00042284 g     F .text	0000000c __cxa_pure_virtual
0004bc4c g     F .text	00000188 __lshift
00055834  w    O .rodata	00000014 _ZTVSt9bad_alloc
000598e0 g     O .bss	00000004 _alt_nticks
00043ee0 g     F .text	00000018 signal
000535f8 g     F .text	000000fc read
000539d8 g     F .text	00000048 alt_sys_init
00042a28 g     F .text	00000124 .hidden __floatsisf
0004cba4 g     F .text	000001c0 __ssprint_r
00055548 g     F .text	00000090 __register_exitproc
00055818  w    O .rodata	0000000d _ZTSSt9bad_alloc
00042210 g     F .text	0000000c _ZGTtNKSt13bad_exception4whatEv
00042380 g     F .text	00000160 _ZNK10__cxxabiv120__si_class_type_info12__do_dyncastEiNS_17__class_type_info10__sub_kindEPKS1_PKvS4_S6_RNS1_16__dyncast_resultE
0004b904 g     F .text	00000230 __multiply
00053ef0 g     F .text	00000068 altera_avalon_jtag_uart_close
0005609c g       *ABS*	00000000 __ram_rwdata_start
00042f3c g     F .text	000000c8 .hidden _Unwind_SjLj_RaiseException
00055740 g       *ABS*	00000000 __ram_rodata_start
000598f8 g     O .bss	00000028 __malloc_current_mallinfo
00043048 g     F .text	00000044 .hidden _Unwind_SjLj_Resume
0004c1b8 g     F .text	00000164 __d2b
0005591c  w    O .rodata	00000014 _ZTVN10__cxxabiv119__foreign_exceptionE
00042564 g     F .text	00000004 _ZNSt9type_infoD2Ev
0004223c g     F .text	00000008 _ZN10__cxxabiv119__foreign_exceptionD0Ev
000424e0 g     F .text	00000084 _ZNK10__cxxabiv120__si_class_type_info11__do_upcastEPKNS_17__class_type_infoEPKvRNS1_15__upcast_resultE
00053a20 g     F .text	00000060 altera_avalon_jtag_uart_read_fd
000552c0 g     F .text	000000a0 alt_get_fd
000545c8 g     F .text	00000158 alt_busy_sleep
00057c50  w    O .rwdata	00000008 _ZTIN10__cxxabiv119__foreign_exceptionE
0004f398 g     F .text	00000058 _close_r
000402c8 g     F .text	0000007c _ZN10CCommander11SendCommandEff
000554d0 g     F .text	00000078 memcmp
00053ae0 g     F .text	00000050 altera_avalon_jtag_uart_close_fd
00059a20 g       *ABS*	00000000 __alt_stack_base
00053b30 g     F .text	00000054 altera_avalon_jtag_uart_ioctl_fd
00041cdc g     F .text	00000038 _ZNSt9bad_allocD0Ev
0004229c g     F .text	00000010 _ZN10__cxxabiv120__si_class_type_infoD1Ev
000484bc g     F .text	0000015c __swsetup_r
0004308c g     F .text	0000004c .hidden _Unwind_SjLj_Resume_or_Rethrow
000511b4 g     F .text	00000860 .hidden __divdf3
0004a400 g     F .text	000000fc __sfp
0004c434 g     F .text	0000006c __copybits
00042568 g     F .text	00000008 _ZNKSt9type_info14__is_pointer_pEv
0005609c g     O .rwdata	00000408 __malloc_av_
0004a52c g     F .text	00000004 __sinit_lock_release
00040674 g     F .text	00000048 _ZN14CDriveComputer19IncrementFollowDistEv
00051c74 g     F .text	00000670 .hidden __muldf3
0004ca64 g     F .text	00000054 __sread
000558e0  w    O .rodata	00000014 _ZTVSt9exception
00042230 g     F .text	00000008 _ZN10__cxxabiv115__forced_unwindD0Ev
000551b8 g     F .text	00000108 alt_find_file
000547a8 g     F .text	000000a8 alt_dev_llist_insert
00053574 g     F .text	00000024 __malloc_lock
0005374c g     F .text	000000b8 sbrk
00044268 g     F .text	0000209c ___svfprintf_internal_r
000559f0  w    O .rodata	0000002c _ZTVN10__cxxabiv117__class_type_infoE
00041b38 g     F .text	00000094 __cxa_throw
0004a18c g     F .text	00000060 _fflush_r
00042f00 g     F .text	00000010 .hidden _Unwind_SetIP
0004f468 g     F .text	000000b4 _calloc_r
000598a4 g       *ABS*	00000000 __bss_start
000439e4 g     F .text	000000f0 memset
000409f4 g     F .text	0000023c main
000598d4 g     O .bss	00000004 alt_envp
000598b8 g     O .bss	00000004 __malloc_max_total_mem
00053a80 g     F .text	00000060 altera_avalon_jtag_uart_write_fd
0004fc30 g     F .text	00000018 __swbuf
00042244 g     F .text	00000004 _ZGTtNKSt9exceptionD1Ev
00040000 g       *ABS*	00000000 __alt_mem_Memory
0004224c g     F .text	0000000c __cxa_get_globals_fast
0004cb9c g     F .text	00000008 __sclose
00072000 g       *ABS*	00000000 __alt_heap_limit
0004f614 g     F .text	00000010 fclose
00048814 g     F .text	00001750 _dtoa_r
00043204 g     F .text	000007e0 _malloc_r
0004fd48 g     F .text	00000030 __ascii_wctomb
00042210 g     F .text	0000000c _ZNKSt13bad_exception4whatEv
00057c8c g     O .rwdata	00000004 alt_errno
0004f624 g     F .text	00000020 _fiprintf_r
00043ef8 g     F .text	0000001c _init_signal
000559e4  w    O .rodata	0000000c _ZTIN10__cxxabiv117__class_type_infoE
0004ae2c g     F .text	00000098 _fwalk
00040344 g     F .text	000000d4 _ZN10CCommander18prepareJsonCommandEv
000409a0 g     F .text	00000024 _Z8read_piov
0004fa30 g     F .text	0000000c _mbtowc_r
00042200 g     F .text	00000004 _ZNSt13bad_exceptionD1Ev
00042874 g     F .text	00000080 .hidden __divsi3
0004a558 g     F .text	0000011c _malloc_trim_r
00055740 g       *ABS*	00000000 __CTOR_END__
00040418 g     F .text	000000a8 _ZN10CCommander13sendNextAsciiEv
00044118 g     F .text	000000b8 strcmp
00055740 g       *ABS*	00000000 __flash_rodata_start
00055908  w    O .rodata	00000014 _ZTVN10__cxxabiv115__forced_unwindE
00055740 g       *ABS*	00000000 __DTOR_LIST__
00051a14 g     F .text	00000080 .hidden __nedf2
0005399c g     F .text	0000003c alt_irq_init
000536f4 g     F .text	00000058 alt_release_fd
000422ac g     F .text	00000038 _ZN10__cxxabiv120__si_class_type_infoD0Ev
00055a1c g     O .rodata	00000100 .hidden __clz_tab
000598c8 g     O .bss	00000004 _PathLocale
00055488 g     F .text	00000014 atexit
0004f334 g     F .text	00000064 _write_r
0004f9b4 g     F .text	00000018 setlocale
00042f34 g     F .text	00000008 .hidden _Unwind_GetTextRelBase
00041ff4 g     F .text	00000058 __cxa_call_terminate
000407d4 g     F .text	00000090 _ZN14CDriveComputer13UpdateSensorsEbbiiiii
00057c74 g     O .rwdata	00000004 _impure_ptr
00057c48  w    O .rwdata	00000008 _ZTIN10__cxxabiv115__forced_unwindE
000598cc g     O .bss	00000004 alt_argc
00049f64 g     F .text	00000228 __sflush_r
000548b4 g     F .text	00000064 _do_dtors
00041a60 g     F .text	0000000c _ZSt14get_unexpectedv
00040020 g       .exceptions	00000000 alt_irq_entry
0004fa3c g     F .text	00000044 __ascii_mbtowc
0004c058 g     F .text	0000005c __ulp
00042f24 g     F .text	00000008 .hidden _Unwind_FindEnclosingFunction
0004a544 g     F .text	00000014 __fp_unlock_all
00057c78 g     O .rwdata	00000008 alt_fs_list
000558bc  w    O .rodata	00000024 _ZTSN10__cxxabiv119__foreign_exceptionE
00042f10 g     F .text	0000000c .hidden _Unwind_GetLanguageSpecificData
00042054 g     F .text	000000b8 __cxa_begin_catch
00042654 g     F .text	00000010 _ZN10__cxxabiv117__class_type_infoD2Ev
000419e8 g     F .text	00000010 _ZN10__cxxabiv112__unexpectedEPFvvE
00040020 g       *ABS*	00000000 __ram_exceptions_start
0004af80 g     F .text	0000000c localeconv
0004af8c g     F .text	00000098 __swhatbuf_r
00042224 g     F .text	00000008 _ZNSt13bad_exceptionD0Ev
00057c58 g     O .rwdata	00000004 _ZN10__cxxabiv119__terminate_handlerE
0005494c g     F .text	00000050 alt_ic_isr_register
00041ea0 g     F .text	00000058 __cxa_allocate_exception
00055958  w    O .rodata	0000000c _ZTIN10__cxxabiv120__si_class_type_infoE
00042264 g     F .text	00000014 _ZSt15set_new_handlerPFvvE
00057ca0 g       *ABS*	00000000 _edata
00059a20 g       *ABS*	00000000 _end
00057c5c g     O .rwdata	00000001 _ZSt7nothrow
0004117c g     F .text	0000060c __gxx_personality_sj0
0004f67c g     F .text	00000164 __fputwc
00040238 g       *ABS*	00000000 __ram_exceptions_end
00053f58 g     F .text	000000f4 altera_avalon_jtag_uart_ioctl
000421fc g     F .text	00000004 _ZNSt9exceptionD1Ev
00054a24 g     F .text	0000008c alt_ic_irq_disable
0004cac0 g     F .text	00000080 __swrite
00041c50 g     F .text	00000070 _Znwj
00057c6c g     O .rwdata	00000004 __malloc_trim_threshold
0005549c g     F .text	00000034 exit
0004f644 g     F .text	00000038 fiprintf
00042eb8 g     F .text	00000018 .hidden _Unwind_SetGR
0004fae4 g     F .text	00000004 _vfiprintf_r
0004aec4 g     F .text	000000a8 _fwalk_reent
000422e4 g     F .text	0000009c _ZNK10__cxxabiv120__si_class_type_info20__do_find_public_srcEiPKvPKNS_17__class_type_infoES2_
0004be2c g     F .text	0000022c __mdiff
00041908 g     F .text	000000cc _ZN10__cxxabiv111__terminateEPFvvE
000428f4 g     F .text	00000074 .hidden __modsi3
00041ccc g     F .text	00000010 _ZNSt9bad_allocD1Ev
00072000 g       *ABS*	00000000 __alt_data_end
00040020 g     F .exceptions	00000000 alt_exception
0004a524 g     F .text	00000004 __sfp_lock_release
00055890  w    O .rodata	0000000c _ZTISt13bad_exception
00055df4 g     O .rodata	00000101 _ctype_
00052c18 g     F .text	00000054 .hidden __unorddf2
00052f70 g     F .text	00000038 _exit
00054494 g     F .text	00000134 alt_alarm_start
00042e88 g     F .text	00000018 .hidden _Unwind_GetGR
00042258 g     F .text	0000000c __cxa_get_globals
0004b024 g     F .text	00000140 __smakebuf_r
00057c3c g     O .rwdata	00000004 _ZN10__cxxabiv120__unexpected_handlerE
000441d0 g     F .text	00000098 strlen
00043cbc g     F .text	00000014 _init_signal_r
00057c60  w    O .rwdata	00000008 _ZTISt9type_info
00054e04 g     F .text	00000154 open
00042248 g     F .text	00000004 _ZGTtNKSt13bad_exceptionD1Ev
00051a94 g     F .text	000000f0 .hidden __gedf2
0005586c  w    O .rodata	0000000d _ZTSSt9exception
0004f454 g     F .text	00000014 __assert
0004221c g     F .text	00000008 _ZNSt9exceptionD0Ev
0004df3c g     F .text	00000018 __sprint_r
00054918 g     F .text	00000034 alt_icache_flush_all
00042f2c g     F .text	00000008 .hidden _Unwind_GetDataRelBase
00057c94 g     O .rwdata	00000004 alt_priority_mask
0005499c g     F .text	00000088 alt_ic_irq_enable
000483e0 g     F .text	0000001c __vfprintf_internal
0004fd3c g     F .text	0000000c _wctomb_r
00040630 g     F .text	00000044 _ZN14CDriveComputerD1Ev
00040864 g     F .text	0000013c _ZN14CDriveComputer17UpdateWheelSpeedsEv
000522e4 g     F .text	00000934 .hidden __subdf3
000404c0 g     F .text	00000170 _ZN14CDriveComputerC1Ev
0004b800 g     F .text	000000b0 __lo0bits
00057c98 g     O .rwdata	00000008 alt_alarm_list
00040768 g     F .text	0000006c _ZN14CDriveComputer19CalculateRightSpeedEv
00054850 g     F .text	00000064 _do_ctors
00043f14 g     F .text	00000010 __sigtramp
0004fcb4 g     F .text	00000088 wcrtomb
00040704 g     F .text	00000064 _ZN14CDriveComputer18CalculateLeftSpeedEv
00052e74 g     F .text	000000d0 close
000568c8 g     O .rwdata	0000016c __global_locale
0005589c  w    O .rodata	00000020 _ZTSN10__cxxabiv115__forced_unwindE
00053364 g     F .text	00000084 alt_load
00042580 g     F .text	00000044 _ZNKSt9type_info10__do_catchEPKS_PPvj
0004f804 g     F .text	00000078 fputwc
00043ed0 g     F .text	00000010 raise
000431f4 g     F .text	00000010 free
0004a528 g     F .text	00000004 __sinit_lock_acquire
0004b52c g     F .text	00000138 __multadd
00042664 g     F .text	00000038 _ZN10__cxxabiv117__class_type_infoD0Ev
0004b508 g     F .text	00000024 _Bfree



Disassembly of section .entry:

00040000 <__reset>:
   40000:	00840014 	movui	r2,4096
   40004:	1001483a 	initi	r2
   40008:	10bff804 	addi	r2,r2,-32
   4000c:	00bffd16 	blt	zero,r2,40004 <__reset+0x4>
   40010:	00400134 	movhi	at,4
   40014:	08408e14 	ori	at,at,568
   40018:	0800683a 	jmp	at
   4001c:	00000000 	call	0 <__alt_mem_Memory-0x40000>

Disassembly of section .exceptions:

00040020 <alt_exception>:
   40020:	deffed04 	addi	sp,sp,-76
   40024:	dfc00015 	stw	ra,0(sp)
   40028:	d8400215 	stw	at,8(sp)
   4002c:	d8800315 	stw	r2,12(sp)
   40030:	d8c00415 	stw	r3,16(sp)
   40034:	d9000515 	stw	r4,20(sp)
   40038:	d9400615 	stw	r5,24(sp)
   4003c:	d9800715 	stw	r6,28(sp)
   40040:	d9c00815 	stw	r7,32(sp)
   40044:	000b307a 	rdctl	r5,estatus
   40048:	da000915 	stw	r8,36(sp)
   4004c:	da400a15 	stw	r9,40(sp)
   40050:	da800b15 	stw	r10,44(sp)
   40054:	dac00c15 	stw	r11,48(sp)
   40058:	db000d15 	stw	r12,52(sp)
   4005c:	db400e15 	stw	r13,56(sp)
   40060:	db800f15 	stw	r14,60(sp)
   40064:	dbc01015 	stw	r15,64(sp)
   40068:	d9401115 	stw	r5,68(sp)
   4006c:	ebffff04 	addi	r15,ea,-4
   40070:	dbc01215 	stw	r15,72(sp)
   40074:	0009313a 	rdctl	r4,ipending
   40078:	2880004c 	andi	r2,r5,1
   4007c:	10000326 	beq	r2,zero,4008c <alt_exception+0x6c>
   40080:	20000226 	beq	r4,zero,4008c <alt_exception+0x6c>
   40084:	00400fc0 	call	400fc <alt_irq_handler>
   40088:	00000706 	br	400a8 <alt_exception+0x88>
   4008c:	df401215 	stw	ea,72(sp)
   40090:	e8bfff17 	ldw	r2,-4(ea)
   40094:	e93fff04 	addi	r4,ea,-4
   40098:	00401c40 	call	401c4 <alt_instruction_exception_entry>
   4009c:	1000021e 	bne	r2,zero,400a8 <alt_exception+0x88>
   400a0:	ebffff04 	addi	r15,ea,-4
   400a4:	dbc01215 	stw	r15,72(sp)
   400a8:	d9401117 	ldw	r5,68(sp)
   400ac:	df401217 	ldw	ea,72(sp)
   400b0:	dfc00017 	ldw	ra,0(sp)
   400b4:	2801707a 	wrctl	estatus,r5
   400b8:	d8400217 	ldw	at,8(sp)
   400bc:	d8800317 	ldw	r2,12(sp)
   400c0:	d8c00417 	ldw	r3,16(sp)
   400c4:	d9000517 	ldw	r4,20(sp)
   400c8:	d9400617 	ldw	r5,24(sp)
   400cc:	d9800717 	ldw	r6,28(sp)
   400d0:	d9c00817 	ldw	r7,32(sp)
   400d4:	da000917 	ldw	r8,36(sp)
   400d8:	da400a17 	ldw	r9,40(sp)
   400dc:	da800b17 	ldw	r10,44(sp)
   400e0:	dac00c17 	ldw	r11,48(sp)
   400e4:	db000d17 	ldw	r12,52(sp)
   400e8:	db400e17 	ldw	r13,56(sp)
   400ec:	db800f17 	ldw	r14,60(sp)
   400f0:	dbc01017 	ldw	r15,64(sp)
   400f4:	dec01304 	addi	sp,sp,76
   400f8:	ef80083a 	eret

000400fc <alt_irq_handler>:
   400fc:	defff904 	addi	sp,sp,-28
   40100:	dfc00615 	stw	ra,24(sp)
   40104:	df000515 	stw	fp,20(sp)
   40108:	df000504 	addi	fp,sp,20
   4010c:	0001883a 	nop
   40110:	0005313a 	rdctl	r2,ipending
   40114:	e0bffc15 	stw	r2,-16(fp)
   40118:	e0bffc17 	ldw	r2,-16(fp)
   4011c:	e0bfff15 	stw	r2,-4(fp)
   40120:	e03ffd15 	stw	zero,-12(fp)
   40124:	00800044 	movi	r2,1
   40128:	e0bffe15 	stw	r2,-8(fp)
   4012c:	e0ffff17 	ldw	r3,-4(fp)
   40130:	e0bffe17 	ldw	r2,-8(fp)
   40134:	1884703a 	and	r2,r3,r2
   40138:	10001126 	beq	r2,zero,40180 <alt_irq_handler+0x84>
   4013c:	e0bffd17 	ldw	r2,-12(fp)
   40140:	100690fa 	slli	r3,r2,3
   40144:	008001b4 	movhi	r2,6
   40148:	1885883a 	add	r2,r3,r2
   4014c:	10e64817 	ldw	r3,-26336(r2)
   40150:	e0bffd17 	ldw	r2,-12(fp)
   40154:	100890fa 	slli	r4,r2,3
   40158:	008001b4 	movhi	r2,6
   4015c:	2085883a 	add	r2,r4,r2
   40160:	10a64917 	ldw	r2,-26332(r2)
   40164:	1009883a 	mov	r4,r2
   40168:	183ee83a 	callr	r3
   4016c:	0001883a 	nop
   40170:	0005313a 	rdctl	r2,ipending
   40174:	e0bffb15 	stw	r2,-20(fp)
   40178:	e0bffb17 	ldw	r2,-20(fp)
   4017c:	00000706 	br	4019c <alt_irq_handler+0xa0>
   40180:	e0bffe17 	ldw	r2,-8(fp)
   40184:	1085883a 	add	r2,r2,r2
   40188:	e0bffe15 	stw	r2,-8(fp)
   4018c:	e0bffd17 	ldw	r2,-12(fp)
   40190:	10800044 	addi	r2,r2,1
   40194:	e0bffd15 	stw	r2,-12(fp)
   40198:	003fe406 	br	4012c <alt_irq_handler+0x30>
   4019c:	e0bfff15 	stw	r2,-4(fp)
   401a0:	e0bfff17 	ldw	r2,-4(fp)
   401a4:	103fde1e 	bne	r2,zero,40120 <alt_irq_handler+0x24>
   401a8:	0001883a 	nop
   401ac:	0001883a 	nop
   401b0:	e037883a 	mov	sp,fp
   401b4:	dfc00117 	ldw	ra,4(sp)
   401b8:	df000017 	ldw	fp,0(sp)
   401bc:	dec00204 	addi	sp,sp,8
   401c0:	f800283a 	ret

000401c4 <alt_instruction_exception_entry>:
   401c4:	defffb04 	addi	sp,sp,-20
   401c8:	dfc00415 	stw	ra,16(sp)
   401cc:	df000315 	stw	fp,12(sp)
   401d0:	df000304 	addi	fp,sp,12
   401d4:	e13ffd15 	stw	r4,-12(fp)
   401d8:	000531fa 	rdctl	r2,exception
   401dc:	e0bfff15 	stw	r2,-4(fp)
   401e0:	e0bfff17 	ldw	r2,-4(fp)
   401e4:	1004d0ba 	srli	r2,r2,2
   401e8:	108007cc 	andi	r2,r2,31
   401ec:	e0bfff15 	stw	r2,-4(fp)
   401f0:	0005333a 	rdctl	r2,badaddr
   401f4:	e0bffe15 	stw	r2,-8(fp)
   401f8:	d0a72a17 	ldw	r2,-25432(gp)
   401fc:	10000726 	beq	r2,zero,4021c <alt_instruction_exception_entry+0x58>
   40200:	d0a72a17 	ldw	r2,-25432(gp)
   40204:	e0ffff17 	ldw	r3,-4(fp)
   40208:	e1bffe17 	ldw	r6,-8(fp)
   4020c:	e17ffd17 	ldw	r5,-12(fp)
   40210:	1809883a 	mov	r4,r3
   40214:	103ee83a 	callr	r2
   40218:	00000206 	br	40224 <alt_instruction_exception_entry+0x60>
   4021c:	003da03a 	break	0
   40220:	0005883a 	mov	r2,zero
   40224:	e037883a 	mov	sp,fp
   40228:	dfc00117 	ldw	ra,4(sp)
   4022c:	df000017 	ldw	fp,0(sp)
   40230:	dec00204 	addi	sp,sp,8
   40234:	f800283a 	ret

Disassembly of section .text:

00040238 <_start>:
   40238:	00820014 	movui	r2,2048
   4023c:	10000033 	initd	0(r2)
   40240:	10bff804 	addi	r2,r2,-32
   40244:	00bffd16 	blt	zero,r2,4023c <_start+0x4>
   40248:	06c001f4 	movhi	sp,7
   4024c:	dec80014 	ori	sp,sp,8192
   40250:	06800174 	movhi	gp,5
   40254:	d6bf0f14 	ori	gp,gp,64572
   40258:	00800174 	movhi	r2,5
   4025c:	10a62914 	ori	r2,r2,39076
   40260:	00c00174 	movhi	r3,5
   40264:	18e68814 	ori	r3,r3,39456
   40268:	10c00326 	beq	r2,r3,40278 <_start+0x40>
   4026c:	10000015 	stw	zero,0(r2)
   40270:	10800104 	addi	r2,r2,4
   40274:	10fffd36 	bltu	r2,r3,4026c <_start+0x34>
   40278:	00533640 	call	53364 <alt_load>
   4027c:	00534f80 	call	534f8 <alt_main>

00040280 <alt_after_alt_main>:
   40280:	003fff06 	br	40280 <alt_after_alt_main>

00040284 <_ZN10CCommanderC1Ev>:
   40284:	defffd04 	addi	sp,sp,-12
   40288:	dfc00215 	stw	ra,8(sp)
   4028c:	df000115 	stw	fp,4(sp)
   40290:	df000104 	addi	fp,sp,4
   40294:	e13fff15 	stw	r4,-4(fp)
   40298:	e0bfff17 	ldw	r2,-4(fp)
   4029c:	10800204 	addi	r2,r2,8
   402a0:	01800c84 	movi	r6,50
   402a4:	000b883a 	mov	r5,zero
   402a8:	1009883a 	mov	r4,r2
   402ac:	00439e40 	call	439e4 <memset>
   402b0:	0001883a 	nop
   402b4:	e037883a 	mov	sp,fp
   402b8:	dfc00117 	ldw	ra,4(sp)
   402bc:	df000017 	ldw	fp,0(sp)
   402c0:	dec00204 	addi	sp,sp,8
   402c4:	f800283a 	ret

000402c8 <_ZN10CCommander11SendCommandEff>:
   402c8:	defffb04 	addi	sp,sp,-20
   402cc:	dfc00415 	stw	ra,16(sp)
   402d0:	df000315 	stw	fp,12(sp)
   402d4:	df000304 	addi	fp,sp,12
   402d8:	e13fff15 	stw	r4,-4(fp)
   402dc:	e17ffe15 	stw	r5,-8(fp)
   402e0:	e1bffd15 	stw	r6,-12(fp)
   402e4:	e0bfff17 	ldw	r2,-4(fp)
   402e8:	e0fffe17 	ldw	r3,-8(fp)
   402ec:	10c00015 	stw	r3,0(r2)
   402f0:	e0bfff17 	ldw	r2,-4(fp)
   402f4:	e0fffd17 	ldw	r3,-12(fp)
   402f8:	10c00115 	stw	r3,4(r2)
   402fc:	e13fff17 	ldw	r4,-4(fp)
   40300:	00403440 	call	40344 <_ZN10CCommander18prepareJsonCommandEv>
   40304:	e0bfff17 	ldw	r2,-4(fp)
   40308:	00c00044 	movi	r3,1
   4030c:	10c01005 	stb	r3,64(r2)
   40310:	e0bfff17 	ldw	r2,-4(fp)
   40314:	10801003 	ldbu	r2,64(r2)
   40318:	10803fcc 	andi	r2,r2,255
   4031c:	10000326 	beq	r2,zero,4032c <_ZN10CCommander11SendCommandEff+0x64>
   40320:	e13fff17 	ldw	r4,-4(fp)
   40324:	00404180 	call	40418 <_ZN10CCommander13sendNextAsciiEv>
   40328:	003ff906 	br	40310 <_ZN10CCommander11SendCommandEff+0x48>
   4032c:	0001883a 	nop
   40330:	e037883a 	mov	sp,fp
   40334:	dfc00117 	ldw	ra,4(sp)
   40338:	df000017 	ldw	fp,0(sp)
   4033c:	dec00204 	addi	sp,sp,8
   40340:	f800283a 	ret

00040344 <_ZN10CCommander18prepareJsonCommandEv>:
   40344:	defff704 	addi	sp,sp,-36
   40348:	dfc00815 	stw	ra,32(sp)
   4034c:	df000715 	stw	fp,28(sp)
   40350:	dc800615 	stw	r18,24(sp)
   40354:	dc400515 	stw	r17,20(sp)
   40358:	dc000415 	stw	r16,16(sp)
   4035c:	df000704 	addi	fp,sp,28
   40360:	e13ffc15 	stw	r4,-16(fp)
   40364:	e0bffc17 	ldw	r2,-16(fp)
   40368:	10800204 	addi	r2,r2,8
   4036c:	01800c84 	movi	r6,50
   40370:	000b883a 	mov	r5,zero
   40374:	1009883a 	mov	r4,r2
   40378:	00439e40 	call	439e4 <memset>
   4037c:	e0bffc17 	ldw	r2,-16(fp)
   40380:	14800204 	addi	r18,r2,8
   40384:	e0bffc17 	ldw	r2,-16(fp)
   40388:	10c00017 	ldw	r3,0(r2)
   4038c:	1809883a 	mov	r4,r3
   40390:	0042b4c0 	call	42b4c <__extendsfdf2>
   40394:	1021883a 	mov	r16,r2
   40398:	1823883a 	mov	r17,r3
   4039c:	e0bffc17 	ldw	r2,-16(fp)
   403a0:	10c00117 	ldw	r3,4(r2)
   403a4:	1809883a 	mov	r4,r3
   403a8:	0042b4c0 	call	42b4c <__extendsfdf2>
   403ac:	1009883a 	mov	r4,r2
   403b0:	180b883a 	mov	r5,r3
   403b4:	d9000115 	stw	r4,4(sp)
   403b8:	d9400215 	stw	r5,8(sp)
   403bc:	dc400015 	stw	r17,0(sp)
   403c0:	800f883a 	mov	r7,r16
   403c4:	01800174 	movhi	r6,5
   403c8:	3195d004 	addi	r6,r6,22336
   403cc:	01400c84 	movi	r5,50
   403d0:	9009883a 	mov	r4,r18
   403d4:	004404c0 	call	4404c <snprintf>
   403d8:	e0bffc17 	ldw	r2,-16(fp)
   403dc:	10800204 	addi	r2,r2,8
   403e0:	1009883a 	mov	r4,r2
   403e4:	00441d00 	call	441d0 <strlen>
   403e8:	1007883a 	mov	r3,r2
   403ec:	e0bffc17 	ldw	r2,-16(fp)
   403f0:	10c00f15 	stw	r3,60(r2)
   403f4:	0001883a 	nop
   403f8:	e6fffd04 	addi	sp,fp,-12
   403fc:	dfc00417 	ldw	ra,16(sp)
   40400:	df000317 	ldw	fp,12(sp)
   40404:	dc800217 	ldw	r18,8(sp)
   40408:	dc400117 	ldw	r17,4(sp)
   4040c:	dc000017 	ldw	r16,0(sp)
   40410:	dec00504 	addi	sp,sp,20
   40414:	f800283a 	ret

00040418 <_ZN10CCommander13sendNextAsciiEv>:
   40418:	defffb04 	addi	sp,sp,-20
   4041c:	dfc00415 	stw	ra,16(sp)
   40420:	df000315 	stw	fp,12(sp)
   40424:	df000304 	addi	fp,sp,12
   40428:	e13ffd15 	stw	r4,-12(fp)
   4042c:	e0bffd17 	ldw	r2,-12(fp)
   40430:	10800f17 	ldw	r2,60(r2)
   40434:	d0e71a17 	ldw	r3,-25496(gp)
   40438:	1880180e 	bge	r3,r2,4049c <_ZN10CCommander13sendNextAsciiEv+0x84>
   4043c:	d0a71a17 	ldw	r2,-25496(gp)
   40440:	10c00044 	addi	r3,r2,1
   40444:	d0e71a15 	stw	r3,-25496(gp)
   40448:	e0fffd17 	ldw	r3,-12(fp)
   4044c:	1885883a 	add	r2,r3,r2
   40450:	10800203 	ldbu	r2,8(r2)
   40454:	e0bfffc5 	stb	r2,-1(fp)
   40458:	e0bfffc3 	ldbu	r2,-1(fp)
   4045c:	1006923a 	slli	r3,r2,8
   40460:	e0bffd17 	ldw	r2,-12(fp)
   40464:	10801003 	ldbu	r2,64(r2)
   40468:	10803fcc 	andi	r2,r2,255
   4046c:	1884b03a 	or	r2,r3,r2
   40470:	e0bffe15 	stw	r2,-8(fp)
   40474:	e0fffe17 	ldw	r3,-8(fp)
   40478:	00800234 	movhi	r2,8
   4047c:	10c40035 	stwio	r3,4096(r2)
   40480:	e17ffe17 	ldw	r5,-8(fp)
   40484:	01000174 	movhi	r4,5
   40488:	2115d704 	addi	r4,r4,22364
   4048c:	0043b040 	call	43b04 <printf>
   40490:	01001904 	movi	r4,100
   40494:	00538040 	call	53804 <usleep>
   40498:	00000306 	br	404a8 <_ZN10CCommander13sendNextAsciiEv+0x90>
   4049c:	e0bffd17 	ldw	r2,-12(fp)
   404a0:	10001005 	stb	zero,64(r2)
   404a4:	d0271a15 	stw	zero,-25496(gp)
   404a8:	0001883a 	nop
   404ac:	e037883a 	mov	sp,fp
   404b0:	dfc00117 	ldw	ra,4(sp)
   404b4:	df000017 	ldw	fp,0(sp)
   404b8:	dec00204 	addi	sp,sp,8
   404bc:	f800283a 	ret

000404c0 <_ZN14CDriveComputerC1Ev>:
   404c0:	deffe604 	addi	sp,sp,-104
   404c4:	dfc01915 	stw	ra,100(sp)
   404c8:	df001815 	stw	fp,96(sp)
   404cc:	ddc01715 	stw	r23,92(sp)
   404d0:	dd801615 	stw	r22,88(sp)
   404d4:	dd401515 	stw	r21,84(sp)
   404d8:	dd001415 	stw	r20,80(sp)
   404dc:	dcc01315 	stw	r19,76(sp)
   404e0:	dc801215 	stw	r18,72(sp)
   404e4:	dc401115 	stw	r17,68(sp)
   404e8:	dc001015 	stw	r16,64(sp)
   404ec:	df001804 	addi	fp,sp,96
   404f0:	e13ff715 	stw	r4,-36(fp)
   404f4:	00800134 	movhi	r2,4
   404f8:	10845f04 	addi	r2,r2,4476
   404fc:	e0bff015 	stw	r2,-64(fp)
   40500:	00800174 	movhi	r2,5
   40504:	1095be04 	addi	r2,r2,22264
   40508:	e0bff115 	stw	r2,-60(fp)
   4050c:	e0bff204 	addi	r2,fp,-56
   40510:	e0fff804 	addi	r3,fp,-32
   40514:	10c00015 	stw	r3,0(r2)
   40518:	00c00134 	movhi	r3,4
   4051c:	18c17104 	addi	r3,r3,1476
   40520:	10c00115 	stw	r3,4(r2)
   40524:	16c00215 	stw	sp,8(r2)
   40528:	e0bfea04 	addi	r2,fp,-88
   4052c:	1009883a 	mov	r4,r2
   40530:	0042e600 	call	42e60 <_Unwind_SjLj_Register>
   40534:	e0bff717 	ldw	r2,-36(fp)
   40538:	00c00044 	movi	r3,1
   4053c:	10c00005 	stb	r3,0(r2)
   40540:	e0bff717 	ldw	r2,-36(fp)
   40544:	10000045 	stb	zero,1(r2)
   40548:	e0bff717 	ldw	r2,-36(fp)
   4054c:	10000115 	stw	zero,4(r2)
   40550:	e0bff717 	ldw	r2,-36(fp)
   40554:	10000215 	stw	zero,8(r2)
   40558:	e0bff717 	ldw	r2,-36(fp)
   4055c:	10000315 	stw	zero,12(r2)
   40560:	e0bff717 	ldw	r2,-36(fp)
   40564:	10000415 	stw	zero,16(r2)
   40568:	e0bff717 	ldw	r2,-36(fp)
   4056c:	10000515 	stw	zero,20(r2)
   40570:	e0bff717 	ldw	r2,-36(fp)
   40574:	00c00504 	movi	r3,20
   40578:	10c00615 	stw	r3,24(r2)
   4057c:	e0bff717 	ldw	r2,-36(fp)
   40580:	10000715 	stw	zero,28(r2)
   40584:	e0bff717 	ldw	r2,-36(fp)
   40588:	10000815 	stw	zero,32(r2)
   4058c:	00bfffc4 	movi	r2,-1
   40590:	e0bfeb15 	stw	r2,-84(fp)
   40594:	01000044 	movi	r4,1
   40598:	0041c500 	call	41c50 <_Znwj>
   4059c:	1007883a 	mov	r3,r2
   405a0:	00800044 	movi	r2,1
   405a4:	e0bfeb15 	stw	r2,-84(fp)
   405a8:	e0ffe915 	stw	r3,-92(fp)
   405ac:	1809883a 	mov	r4,r3
   405b0:	00402840 	call	40284 <_ZN10CCommanderC1Ev>
   405b4:	e0bff717 	ldw	r2,-36(fp)
   405b8:	e0ffe917 	ldw	r3,-92(fp)
   405bc:	10c00915 	stw	r3,36(r2)
   405c0:	00000b06 	br	405f0 <_ZN14CDriveComputerC1Ev+0x130>
   405c4:	e7000804 	addi	fp,fp,32
   405c8:	e0bfec17 	ldw	r2,-80(fp)
   405cc:	e0bfe815 	stw	r2,-96(fp)
   405d0:	01400044 	movi	r5,1
   405d4:	e13fe917 	ldw	r4,-92(fp)
   405d8:	0040c300 	call	40c30 <_ZdlPvj>
   405dc:	e0ffe817 	ldw	r3,-96(fp)
   405e0:	00bfffc4 	movi	r2,-1
   405e4:	e0bfeb15 	stw	r2,-84(fp)
   405e8:	1809883a 	mov	r4,r3
   405ec:	00430480 	call	43048 <_Unwind_SjLj_Resume>
   405f0:	e0bfea04 	addi	r2,fp,-88
   405f4:	1009883a 	mov	r4,r2
   405f8:	0042e780 	call	42e78 <_Unwind_SjLj_Unregister>
   405fc:	e6fff804 	addi	sp,fp,-32
   40600:	dfc00917 	ldw	ra,36(sp)
   40604:	df000817 	ldw	fp,32(sp)
   40608:	ddc00717 	ldw	r23,28(sp)
   4060c:	dd800617 	ldw	r22,24(sp)
   40610:	dd400517 	ldw	r21,20(sp)
   40614:	dd000417 	ldw	r20,16(sp)
   40618:	dcc00317 	ldw	r19,12(sp)
   4061c:	dc800217 	ldw	r18,8(sp)
   40620:	dc400117 	ldw	r17,4(sp)
   40624:	dc000017 	ldw	r16,0(sp)
   40628:	dec00a04 	addi	sp,sp,40
   4062c:	f800283a 	ret

00040630 <_ZN14CDriveComputerD1Ev>:
   40630:	defffd04 	addi	sp,sp,-12
   40634:	dfc00215 	stw	ra,8(sp)
   40638:	df000115 	stw	fp,4(sp)
   4063c:	df000104 	addi	fp,sp,4
   40640:	e13fff15 	stw	r4,-4(fp)
   40644:	e0bfff17 	ldw	r2,-4(fp)
   40648:	10800917 	ldw	r2,36(r2)
   4064c:	10000326 	beq	r2,zero,4065c <_ZN14CDriveComputerD1Ev+0x2c>
   40650:	01400044 	movi	r5,1
   40654:	1009883a 	mov	r4,r2
   40658:	0040c300 	call	40c30 <_ZdlPvj>
   4065c:	0001883a 	nop
   40660:	e037883a 	mov	sp,fp
   40664:	dfc00117 	ldw	ra,4(sp)
   40668:	df000017 	ldw	fp,0(sp)
   4066c:	dec00204 	addi	sp,sp,8
   40670:	f800283a 	ret

00040674 <_ZN14CDriveComputer19IncrementFollowDistEv>:
   40674:	defffe04 	addi	sp,sp,-8
   40678:	df000115 	stw	fp,4(sp)
   4067c:	df000104 	addi	fp,sp,4
   40680:	e13fff15 	stw	r4,-4(fp)
   40684:	e0bfff17 	ldw	r2,-4(fp)
   40688:	10800617 	ldw	r2,24(r2)
   4068c:	10801908 	cmpgei	r2,r2,100
   40690:	1000051e 	bne	r2,zero,406a8 <_ZN14CDriveComputer19IncrementFollowDistEv+0x34>
   40694:	e0bfff17 	ldw	r2,-4(fp)
   40698:	10800617 	ldw	r2,24(r2)
   4069c:	10c00284 	addi	r3,r2,10
   406a0:	e0bfff17 	ldw	r2,-4(fp)
   406a4:	10c00615 	stw	r3,24(r2)
   406a8:	0001883a 	nop
   406ac:	e037883a 	mov	sp,fp
   406b0:	df000017 	ldw	fp,0(sp)
   406b4:	dec00104 	addi	sp,sp,4
   406b8:	f800283a 	ret

000406bc <_ZN14CDriveComputer19DecrementFollowDistEv>:
   406bc:	defffe04 	addi	sp,sp,-8
   406c0:	df000115 	stw	fp,4(sp)
   406c4:	df000104 	addi	fp,sp,4
   406c8:	e13fff15 	stw	r4,-4(fp)
   406cc:	e0bfff17 	ldw	r2,-4(fp)
   406d0:	10800617 	ldw	r2,24(r2)
   406d4:	10800550 	cmplti	r2,r2,21
   406d8:	1000051e 	bne	r2,zero,406f0 <_ZN14CDriveComputer19DecrementFollowDistEv+0x34>
   406dc:	e0bfff17 	ldw	r2,-4(fp)
   406e0:	10800617 	ldw	r2,24(r2)
   406e4:	10fffd84 	addi	r3,r2,-10
   406e8:	e0bfff17 	ldw	r2,-4(fp)
   406ec:	10c00615 	stw	r3,24(r2)
   406f0:	0001883a 	nop
   406f4:	e037883a 	mov	sp,fp
   406f8:	df000017 	ldw	fp,0(sp)
   406fc:	dec00104 	addi	sp,sp,4
   40700:	f800283a 	ret

00040704 <_ZN14CDriveComputer18CalculateLeftSpeedEv>:
   40704:	defffd04 	addi	sp,sp,-12
   40708:	dfc00215 	stw	ra,8(sp)
   4070c:	df000115 	stw	fp,4(sp)
   40710:	df000104 	addi	fp,sp,4
   40714:	e13fff15 	stw	r4,-4(fp)
   40718:	e0bfff17 	ldw	r2,-4(fp)
   4071c:	10800003 	ldbu	r2,0(r2)
   40720:	10803fcc 	andi	r2,r2,255
   40724:	10000226 	beq	r2,zero,40730 <_ZN14CDriveComputer18CalculateLeftSpeedEv+0x2c>
   40728:	0007883a 	mov	r3,zero
   4072c:	00000806 	br	40750 <_ZN14CDriveComputer18CalculateLeftSpeedEv+0x4c>
   40730:	e0bfff17 	ldw	r2,-4(fp)
   40734:	10800117 	ldw	r2,4(r2)
   40738:	01400644 	movi	r5,25
   4073c:	1009883a 	mov	r4,r2
   40740:	00428740 	call	42874 <__divsi3>
   40744:	1009883a 	mov	r4,r2
   40748:	0042a280 	call	42a28 <__floatsisf>
   4074c:	1007883a 	mov	r3,r2
   40750:	1805883a 	mov	r2,r3
   40754:	e037883a 	mov	sp,fp
   40758:	dfc00117 	ldw	ra,4(sp)
   4075c:	df000017 	ldw	fp,0(sp)
   40760:	dec00204 	addi	sp,sp,8
   40764:	f800283a 	ret

00040768 <_ZN14CDriveComputer19CalculateRightSpeedEv>:
   40768:	defffd04 	addi	sp,sp,-12
   4076c:	dfc00215 	stw	ra,8(sp)
   40770:	df000115 	stw	fp,4(sp)
   40774:	df000104 	addi	fp,sp,4
   40778:	e13fff15 	stw	r4,-4(fp)
   4077c:	e0bfff17 	ldw	r2,-4(fp)
   40780:	10800003 	ldbu	r2,0(r2)
   40784:	10803fcc 	andi	r2,r2,255
   40788:	10000226 	beq	r2,zero,40794 <_ZN14CDriveComputer19CalculateRightSpeedEv+0x2c>
   4078c:	0007883a 	mov	r3,zero
   40790:	00000a06 	br	407bc <_ZN14CDriveComputer19CalculateRightSpeedEv+0x54>
   40794:	e0bfff17 	ldw	r2,-4(fp)
   40798:	10800117 	ldw	r2,4(r2)
   4079c:	00c00644 	movi	r3,25
   407a0:	1885c83a 	sub	r2,r3,r2
   407a4:	01400644 	movi	r5,25
   407a8:	1009883a 	mov	r4,r2
   407ac:	00428740 	call	42874 <__divsi3>
   407b0:	1009883a 	mov	r4,r2
   407b4:	0042a280 	call	42a28 <__floatsisf>
   407b8:	1007883a 	mov	r3,r2
   407bc:	1805883a 	mov	r2,r3
   407c0:	e037883a 	mov	sp,fp
   407c4:	dfc00117 	ldw	ra,4(sp)
   407c8:	df000017 	ldw	fp,0(sp)
   407cc:	dec00204 	addi	sp,sp,8
   407d0:	f800283a 	ret

000407d4 <_ZN14CDriveComputer13UpdateSensorsEbbiiiii>:
   407d4:	defffb04 	addi	sp,sp,-20
   407d8:	df000415 	stw	fp,16(sp)
   407dc:	df000404 	addi	fp,sp,16
   407e0:	e13fff15 	stw	r4,-4(fp)
   407e4:	2805883a 	mov	r2,r5
   407e8:	3007883a 	mov	r3,r6
   407ec:	e1fffc15 	stw	r7,-16(fp)
   407f0:	e0bffe05 	stb	r2,-8(fp)
   407f4:	1805883a 	mov	r2,r3
   407f8:	e0bffd05 	stb	r2,-12(fp)
   407fc:	e0bfff17 	ldw	r2,-4(fp)
   40800:	e0fffe03 	ldbu	r3,-8(fp)
   40804:	10c00005 	stb	r3,0(r2)
   40808:	e0bfff17 	ldw	r2,-4(fp)
   4080c:	e0fffd03 	ldbu	r3,-12(fp)
   40810:	10c00045 	stb	r3,1(r2)
   40814:	e0bfff17 	ldw	r2,-4(fp)
   40818:	e0fffc17 	ldw	r3,-16(fp)
   4081c:	10c00115 	stw	r3,4(r2)
   40820:	e0bfff17 	ldw	r2,-4(fp)
   40824:	e0c00117 	ldw	r3,4(fp)
   40828:	10c00215 	stw	r3,8(r2)
   4082c:	e0bfff17 	ldw	r2,-4(fp)
   40830:	e0c00217 	ldw	r3,8(fp)
   40834:	10c00315 	stw	r3,12(r2)
   40838:	e0bfff17 	ldw	r2,-4(fp)
   4083c:	e0c00317 	ldw	r3,12(fp)
   40840:	10c00415 	stw	r3,16(r2)
   40844:	e0bfff17 	ldw	r2,-4(fp)
   40848:	e0c00417 	ldw	r3,16(fp)
   4084c:	10c00515 	stw	r3,20(r2)
   40850:	0001883a 	nop
   40854:	e037883a 	mov	sp,fp
   40858:	df000017 	ldw	fp,0(sp)
   4085c:	dec00104 	addi	sp,sp,4
   40860:	f800283a 	ret

00040864 <_ZN14CDriveComputer17UpdateWheelSpeedsEv>:
   40864:	defffb04 	addi	sp,sp,-20
   40868:	dfc00415 	stw	ra,16(sp)
   4086c:	df000315 	stw	fp,12(sp)
   40870:	df000304 	addi	fp,sp,12
   40874:	e13ffd15 	stw	r4,-12(fp)
   40878:	e0bffd17 	ldw	r2,-12(fp)
   4087c:	10c00217 	ldw	r3,8(r2)
   40880:	e0bffd17 	ldw	r2,-12(fp)
   40884:	10800617 	ldw	r2,24(r2)
   40888:	1884803a 	cmplt	r2,r3,r2
   4088c:	10803fcc 	andi	r2,r2,255
   40890:	e0bffe15 	stw	r2,-8(fp)
   40894:	e0bffd17 	ldw	r2,-12(fp)
   40898:	10800043 	ldbu	r2,1(r2)
   4089c:	10803fcc 	andi	r2,r2,255
   408a0:	10001a26 	beq	r2,zero,4090c <_ZN14CDriveComputer17UpdateWheelSpeedsEv+0xa8>
   408a4:	e0bffd17 	ldw	r2,-12(fp)
   408a8:	10800517 	ldw	r2,20(r2)
   408ac:	10c003a0 	cmpeqi	r3,r2,14
   408b0:	1800131e 	bne	r3,zero,40900 <_ZN14CDriveComputer17UpdateWheelSpeedsEv+0x9c>
   408b4:	10c003c8 	cmpgei	r3,r2,15
   408b8:	1800141e 	bne	r3,zero,4090c <_ZN14CDriveComputer17UpdateWheelSpeedsEv+0xa8>
   408bc:	10c002a0 	cmpeqi	r3,r2,10
   408c0:	18000c1e 	bne	r3,zero,408f4 <_ZN14CDriveComputer17UpdateWheelSpeedsEv+0x90>
   408c4:	10c002c8 	cmpgei	r3,r2,11
   408c8:	1800101e 	bne	r3,zero,4090c <_ZN14CDriveComputer17UpdateWheelSpeedsEv+0xa8>
   408cc:	10c000a0 	cmpeqi	r3,r2,2
   408d0:	1800031e 	bne	r3,zero,408e0 <_ZN14CDriveComputer17UpdateWheelSpeedsEv+0x7c>
   408d4:	108001a0 	cmpeqi	r2,r2,6
   408d8:	1000041e 	bne	r2,zero,408ec <_ZN14CDriveComputer17UpdateWheelSpeedsEv+0x88>
   408dc:	00000b06 	br	4090c <_ZN14CDriveComputer17UpdateWheelSpeedsEv+0xa8>
   408e0:	00800044 	movi	r2,1
   408e4:	e0bfffc5 	stb	r2,-1(fp)
   408e8:	00000806 	br	4090c <_ZN14CDriveComputer17UpdateWheelSpeedsEv+0xa8>
   408ec:	e03fffc5 	stb	zero,-1(fp)
   408f0:	00000606 	br	4090c <_ZN14CDriveComputer17UpdateWheelSpeedsEv+0xa8>
   408f4:	e13ffd17 	ldw	r4,-12(fp)
   408f8:	00406740 	call	40674 <_ZN14CDriveComputer19IncrementFollowDistEv>
   408fc:	00000306 	br	4090c <_ZN14CDriveComputer17UpdateWheelSpeedsEv+0xa8>
   40900:	e13ffd17 	ldw	r4,-12(fp)
   40904:	00406bc0 	call	406bc <_ZN14CDriveComputer19DecrementFollowDistEv>
   40908:	0001883a 	nop
   4090c:	e0bffd17 	ldw	r2,-12(fp)
   40910:	10800003 	ldbu	r2,0(r2)
   40914:	1080005c 	xori	r2,r2,1
   40918:	10803fcc 	andi	r2,r2,255
   4091c:	10001a26 	beq	r2,zero,40988 <_ZN14CDriveComputer17UpdateWheelSpeedsEv+0x124>
   40920:	e0bffe17 	ldw	r2,-8(fp)
   40924:	1000181e 	bne	r2,zero,40988 <_ZN14CDriveComputer17UpdateWheelSpeedsEv+0x124>
   40928:	e0bfffc3 	ldbu	r2,-1(fp)
   4092c:	1080005c 	xori	r2,r2,1
   40930:	10803fcc 	andi	r2,r2,255
   40934:	10001426 	beq	r2,zero,40988 <_ZN14CDriveComputer17UpdateWheelSpeedsEv+0x124>
   40938:	e13ffd17 	ldw	r4,-12(fp)
   4093c:	00407040 	call	40704 <_ZN14CDriveComputer18CalculateLeftSpeedEv>
   40940:	1007883a 	mov	r3,r2
   40944:	e0bffd17 	ldw	r2,-12(fp)
   40948:	10c00715 	stw	r3,28(r2)
   4094c:	e13ffd17 	ldw	r4,-12(fp)
   40950:	00407680 	call	40768 <_ZN14CDriveComputer19CalculateRightSpeedEv>
   40954:	1007883a 	mov	r3,r2
   40958:	e0bffd17 	ldw	r2,-12(fp)
   4095c:	10c00815 	stw	r3,32(r2)
   40960:	e0bffd17 	ldw	r2,-12(fp)
   40964:	10c00917 	ldw	r3,36(r2)
   40968:	e0bffd17 	ldw	r2,-12(fp)
   4096c:	11000717 	ldw	r4,28(r2)
   40970:	e0bffd17 	ldw	r2,-12(fp)
   40974:	11400817 	ldw	r5,32(r2)
   40978:	280d883a 	mov	r6,r5
   4097c:	200b883a 	mov	r5,r4
   40980:	1809883a 	mov	r4,r3
   40984:	00402c80 	call	402c8 <_ZN10CCommander11SendCommandEff>
   40988:	0001883a 	nop
   4098c:	e037883a 	mov	sp,fp
   40990:	dfc00117 	ldw	ra,4(sp)
   40994:	df000017 	ldw	fp,0(sp)
   40998:	dec00204 	addi	sp,sp,8
   4099c:	f800283a 	ret

000409a0 <_Z8read_piov>:
   409a0:	deffff04 	addi	sp,sp,-4
   409a4:	df000015 	stw	fp,0(sp)
   409a8:	d839883a 	mov	fp,sp
   409ac:	00800234 	movhi	r2,8
   409b0:	10840037 	ldwio	r2,4096(r2)
   409b4:	e037883a 	mov	sp,fp
   409b8:	df000017 	ldw	fp,0(sp)
   409bc:	dec00104 	addi	sp,sp,4
   409c0:	f800283a 	ret

000409c4 <_Z9write_pioi>:
   409c4:	defffe04 	addi	sp,sp,-8
   409c8:	df000115 	stw	fp,4(sp)
   409cc:	df000104 	addi	fp,sp,4
   409d0:	e13fff15 	stw	r4,-4(fp)
   409d4:	e0ffff17 	ldw	r3,-4(fp)
   409d8:	00800234 	movhi	r2,8
   409dc:	10c40035 	stwio	r3,4096(r2)
   409e0:	0001883a 	nop
   409e4:	e037883a 	mov	sp,fp
   409e8:	df000017 	ldw	fp,0(sp)
   409ec:	dec00104 	addi	sp,sp,4
   409f0:	f800283a 	ret

000409f4 <main>:
   409f4:	deffd304 	addi	sp,sp,-180
   409f8:	dfc02c15 	stw	ra,176(sp)
   409fc:	df002b15 	stw	fp,172(sp)
   40a00:	ddc02a15 	stw	r23,168(sp)
   40a04:	dd802915 	stw	r22,164(sp)
   40a08:	dd402815 	stw	r21,160(sp)
   40a0c:	dd002715 	stw	r20,156(sp)
   40a10:	dcc02615 	stw	r19,152(sp)
   40a14:	dc802515 	stw	r18,148(sp)
   40a18:	dc402415 	stw	r17,144(sp)
   40a1c:	dc002315 	stw	r16,140(sp)
   40a20:	df002b04 	addi	fp,sp,172
   40a24:	00800134 	movhi	r2,4
   40a28:	10845f04 	addi	r2,r2,4476
   40a2c:	e0bfe015 	stw	r2,-128(fp)
   40a30:	00800174 	movhi	r2,5
   40a34:	1095bf84 	addi	r2,r2,22270
   40a38:	e0bfe115 	stw	r2,-124(fp)
   40a3c:	e0bfe204 	addi	r2,fp,-120
   40a40:	e0fff804 	addi	r3,fp,-32
   40a44:	10c00015 	stw	r3,0(r2)
   40a48:	00c00134 	movhi	r3,4
   40a4c:	18c30104 	addi	r3,r3,3076
   40a50:	10c00115 	stw	r3,4(r2)
   40a54:	16c00215 	stw	sp,8(r2)
   40a58:	e0bfda04 	addi	r2,fp,-152
   40a5c:	1009883a 	mov	r4,r2
   40a60:	0042e600 	call	42e60 <_Unwind_SjLj_Register>
   40a64:	e0ffe704 	addi	r3,fp,-100
   40a68:	00bfffc4 	movi	r2,-1
   40a6c:	e0bfdb15 	stw	r2,-148(fp)
   40a70:	1809883a 	mov	r4,r3
   40a74:	00404c00 	call	404c0 <_ZN14CDriveComputerC1Ev>
   40a78:	00409a00 	call	409a0 <_Z8read_piov>
   40a7c:	e0bff715 	stw	r2,-36(fp)
   40a80:	e0bff717 	ldw	r2,-36(fp)
   40a84:	1090000c 	andi	r2,r2,16384
   40a88:	1004c03a 	cmpne	r2,r2,zero
   40a8c:	e0bff6c5 	stb	r2,-37(fp)
   40a90:	e0bff717 	ldw	r2,-36(fp)
   40a94:	1088000c 	andi	r2,r2,8192
   40a98:	1004c03a 	cmpne	r2,r2,zero
   40a9c:	e0bff685 	stb	r2,-38(fp)
   40aa0:	e0bff717 	ldw	r2,-36(fp)
   40aa4:	1004d13a 	srli	r2,r2,4
   40aa8:	108003cc 	andi	r2,r2,15
   40aac:	e0bff515 	stw	r2,-44(fp)
   40ab0:	e0bff717 	ldw	r2,-36(fp)
   40ab4:	1004d4fa 	srli	r2,r2,19
   40ab8:	10801fcc 	andi	r2,r2,127
   40abc:	e0bff415 	stw	r2,-48(fp)
   40ac0:	e0bff717 	ldw	r2,-36(fp)
   40ac4:	1004d3fa 	srli	r2,r2,15
   40ac8:	108003cc 	andi	r2,r2,15
   40acc:	e0bff315 	stw	r2,-52(fp)
   40ad0:	e0bff717 	ldw	r2,-36(fp)
   40ad4:	108003cc 	andi	r2,r2,15
   40ad8:	e0bff215 	stw	r2,-56(fp)
   40adc:	e0bff717 	ldw	r2,-36(fp)
   40ae0:	1004d27a 	srli	r2,r2,9
   40ae4:	108003cc 	andi	r2,r2,15
   40ae8:	e0bff115 	stw	r2,-60(fp)
   40aec:	00800044 	movi	r2,1
   40af0:	e0bfdb15 	stw	r2,-148(fp)
   40af4:	01000174 	movhi	r4,5
   40af8:	2115d904 	addi	r4,r4,22372
   40afc:	0043c080 	call	43c08 <puts>
   40b00:	e0bff6c3 	ldbu	r2,-37(fp)
   40b04:	10000326 	beq	r2,zero,40b14 <main+0x120>
   40b08:	00800174 	movhi	r2,5
   40b0c:	1095de04 	addi	r2,r2,22392
   40b10:	00000206 	br	40b1c <main+0x128>
   40b14:	00800174 	movhi	r2,5
   40b18:	1095e004 	addi	r2,r2,22400
   40b1c:	00c00044 	movi	r3,1
   40b20:	e0ffdb15 	stw	r3,-148(fp)
   40b24:	100b883a 	mov	r5,r2
   40b28:	01000174 	movhi	r4,5
   40b2c:	2115e204 	addi	r4,r4,22408
   40b30:	0043b040 	call	43b04 <printf>
   40b34:	e0bff683 	ldbu	r2,-38(fp)
   40b38:	10000326 	beq	r2,zero,40b48 <main+0x154>
   40b3c:	00800174 	movhi	r2,5
   40b40:	1095de04 	addi	r2,r2,22392
   40b44:	00000206 	br	40b50 <main+0x15c>
   40b48:	00800174 	movhi	r2,5
   40b4c:	1095e004 	addi	r2,r2,22400
   40b50:	00c00044 	movi	r3,1
   40b54:	e0ffdb15 	stw	r3,-148(fp)
   40b58:	100b883a 	mov	r5,r2
   40b5c:	01000174 	movhi	r4,5
   40b60:	2115e504 	addi	r4,r4,22420
   40b64:	0043b040 	call	43b04 <printf>
   40b68:	e17ff517 	ldw	r5,-44(fp)
   40b6c:	01000174 	movhi	r4,5
   40b70:	2115e904 	addi	r4,r4,22436
   40b74:	0043b040 	call	43b04 <printf>
   40b78:	e17ff417 	ldw	r5,-48(fp)
   40b7c:	01000174 	movhi	r4,5
   40b80:	2115f004 	addi	r4,r4,22464
   40b84:	0043b040 	call	43b04 <printf>
   40b88:	e17ff317 	ldw	r5,-52(fp)
   40b8c:	01000174 	movhi	r4,5
   40b90:	2115f604 	addi	r4,r4,22488
   40b94:	0043b040 	call	43b04 <printf>
   40b98:	e17ff217 	ldw	r5,-56(fp)
   40b9c:	01000174 	movhi	r4,5
   40ba0:	2115f904 	addi	r4,r4,22500
   40ba4:	0043b040 	call	43b04 <printf>
   40ba8:	e17ff117 	ldw	r5,-60(fp)
   40bac:	01000174 	movhi	r4,5
   40bb0:	2115fd04 	addi	r4,r4,22516
   40bb4:	0043b040 	call	43b04 <printf>
   40bb8:	0100fa04 	movi	r4,1000
   40bbc:	00538040 	call	53804 <usleep>
   40bc0:	e13ff6c3 	ldbu	r4,-37(fp)
   40bc4:	e17ff683 	ldbu	r5,-38(fp)
   40bc8:	e0ffe704 	addi	r3,fp,-100
   40bcc:	e0bff117 	ldw	r2,-60(fp)
   40bd0:	d8800315 	stw	r2,12(sp)
   40bd4:	e0bff217 	ldw	r2,-56(fp)
   40bd8:	d8800215 	stw	r2,8(sp)
   40bdc:	e0bff317 	ldw	r2,-52(fp)
   40be0:	d8800115 	stw	r2,4(sp)
   40be4:	e0bff417 	ldw	r2,-48(fp)
   40be8:	d8800015 	stw	r2,0(sp)
   40bec:	e1fff517 	ldw	r7,-44(fp)
   40bf0:	280d883a 	mov	r6,r5
   40bf4:	200b883a 	mov	r5,r4
   40bf8:	1809883a 	mov	r4,r3
   40bfc:	00407d40 	call	407d4 <_ZN14CDriveComputer13UpdateSensorsEbbiiiii>
   40c00:	003f9d06 	br	40a78 <main+0x84>
   40c04:	e7000804 	addi	fp,fp,32
   40c08:	e0bfdc17 	ldw	r2,-144(fp)
   40c0c:	e0bfd915 	stw	r2,-156(fp)
   40c10:	e0bfe704 	addi	r2,fp,-100
   40c14:	1009883a 	mov	r4,r2
   40c18:	00406300 	call	40630 <_ZN14CDriveComputerD1Ev>
   40c1c:	e0ffd917 	ldw	r3,-156(fp)
   40c20:	00bfffc4 	movi	r2,-1
   40c24:	e0bfdb15 	stw	r2,-148(fp)
   40c28:	1809883a 	mov	r4,r3
   40c2c:	00430480 	call	43048 <_Unwind_SjLj_Resume>

00040c30 <_ZdlPvj>:
   40c30:	0041d141 	jmpi	41d14 <_ZdlPv>

00040c34 <_ZL16get_adjusted_ptrPKSt9type_infoS1_PPv>:
   40c34:	28800017 	ldw	r2,0(r5)
   40c38:	30c00017 	ldw	r3,0(r6)
   40c3c:	defffb04 	addi	sp,sp,-20
   40c40:	10800217 	ldw	r2,8(r2)
   40c44:	dc800315 	stw	r18,12(sp)
   40c48:	dc400215 	stw	r17,8(sp)
   40c4c:	dc000115 	stw	r16,4(sp)
   40c50:	dfc00415 	stw	ra,16(sp)
   40c54:	2023883a 	mov	r17,r4
   40c58:	d8c00015 	stw	r3,0(sp)
   40c5c:	2809883a 	mov	r4,r5
   40c60:	2821883a 	mov	r16,r5
   40c64:	3025883a 	mov	r18,r6
   40c68:	103ee83a 	callr	r2
   40c6c:	10803fcc 	andi	r2,r2,255
   40c70:	10000326 	beq	r2,zero,40c80 <_ZL16get_adjusted_ptrPKSt9type_infoS1_PPv+0x4c>
   40c74:	d8800017 	ldw	r2,0(sp)
   40c78:	10800017 	ldw	r2,0(r2)
   40c7c:	d8800015 	stw	r2,0(sp)
   40c80:	88800017 	ldw	r2,0(r17)
   40c84:	01c00044 	movi	r7,1
   40c88:	d80d883a 	mov	r6,sp
   40c8c:	10800417 	ldw	r2,16(r2)
   40c90:	800b883a 	mov	r5,r16
   40c94:	8809883a 	mov	r4,r17
   40c98:	103ee83a 	callr	r2
   40c9c:	10c03fcc 	andi	r3,r2,255
   40ca0:	18000226 	beq	r3,zero,40cac <_ZL16get_adjusted_ptrPKSt9type_infoS1_PPv+0x78>
   40ca4:	d8c00017 	ldw	r3,0(sp)
   40ca8:	90c00015 	stw	r3,0(r18)
   40cac:	dfc00417 	ldw	ra,16(sp)
   40cb0:	dc800317 	ldw	r18,12(sp)
   40cb4:	dc400217 	ldw	r17,8(sp)
   40cb8:	dc000117 	ldw	r16,4(sp)
   40cbc:	dec00504 	addi	sp,sp,20
   40cc0:	f800283a 	ret

00040cc4 <_ZL28read_encoded_value_with_basehjPKhPj>:
   40cc4:	20c03fcc 	andi	r3,r4,255
   40cc8:	18c01418 	cmpnei	r3,r3,80
   40ccc:	18002c26 	beq	r3,zero,40d80 <_ZL28read_encoded_value_with_basehjPKhPj+0xbc>
   40cd0:	208003cc 	andi	r2,r4,15
   40cd4:	10c00368 	cmpgeui	r3,r2,13
   40cd8:	1800711e 	bne	r3,zero,40ea0 <_ZL28read_encoded_value_with_basehjPKhPj+0x1dc>
   40cdc:	100490ba 	slli	r2,r2,2
   40ce0:	00c00134 	movhi	r3,4
   40ce4:	10c7883a 	add	r3,r2,r3
   40ce8:	18833c17 	ldw	r2,3312(r3)
   40cec:	1000683a 	jmp	r2
   40cf0:	00040d24 	muli	zero,zero,4148
   40cf4:	00040e14 	movui	zero,4152
   40cf8:	00040dd8 	cmpnei	zero,zero,4151
   40cfc:	00040d24 	muli	zero,zero,4148
   40d00:	00040da8 	cmpgeui	zero,zero,4150
   40d04:	00040ea0 	cmpeqi	zero,zero,4154
   40d08:	00040ea0 	cmpeqi	zero,zero,4154
   40d0c:	00040ea0 	cmpeqi	zero,zero,4154
   40d10:	00040ea0 	cmpeqi	zero,zero,4154
   40d14:	00040e4c 	andi	zero,zero,4153
   40d18:	00040df0 	cmpltui	zero,zero,4151
   40d1c:	00040d24 	muli	zero,zero,4148
   40d20:	00040da8 	cmpgeui	zero,zero,4150
   40d24:	32000043 	ldbu	r8,1(r6)
   40d28:	30800083 	ldbu	r2,2(r6)
   40d2c:	30c000c3 	ldbu	r3,3(r6)
   40d30:	32400003 	ldbu	r9,0(r6)
   40d34:	4010923a 	slli	r8,r8,8
   40d38:	1004943a 	slli	r2,r2,16
   40d3c:	1806963a 	slli	r3,r3,24
   40d40:	4250b03a 	or	r8,r8,r9
   40d44:	1204b03a 	or	r2,r2,r8
   40d48:	1886b03a 	or	r3,r3,r2
   40d4c:	30800104 	addi	r2,r6,4
   40d50:	18000926 	beq	r3,zero,40d78 <_ZL28read_encoded_value_with_basehjPKhPj+0xb4>
   40d54:	22001c0c 	andi	r8,r4,112
   40d58:	42000418 	cmpnei	r8,r8,16
   40d5c:	4000011e 	bne	r8,zero,40d64 <_ZL28read_encoded_value_with_basehjPKhPj+0xa0>
   40d60:	300b883a 	mov	r5,r6
   40d64:	21003fcc 	andi	r4,r4,255
   40d68:	2100201c 	xori	r4,r4,128
   40d6c:	213fe004 	addi	r4,r4,-128
   40d70:	1947883a 	add	r3,r3,r5
   40d74:	20000916 	blt	r4,zero,40d9c <_ZL28read_encoded_value_with_basehjPKhPj+0xd8>
   40d78:	38c00015 	stw	r3,0(r7)
   40d7c:	f800283a 	ret
   40d80:	308000c4 	addi	r2,r6,3
   40d84:	01bfff04 	movi	r6,-4
   40d88:	1184703a 	and	r2,r2,r6
   40d8c:	10c00017 	ldw	r3,0(r2)
   40d90:	10800104 	addi	r2,r2,4
   40d94:	38c00015 	stw	r3,0(r7)
   40d98:	f800283a 	ret
   40d9c:	18c00017 	ldw	r3,0(r3)
   40da0:	38c00015 	stw	r3,0(r7)
   40da4:	f800283a 	ret
   40da8:	32000043 	ldbu	r8,1(r6)
   40dac:	30800083 	ldbu	r2,2(r6)
   40db0:	30c000c3 	ldbu	r3,3(r6)
   40db4:	32400003 	ldbu	r9,0(r6)
   40db8:	4010923a 	slli	r8,r8,8
   40dbc:	1004943a 	slli	r2,r2,16
   40dc0:	1806963a 	slli	r3,r3,24
   40dc4:	4250b03a 	or	r8,r8,r9
   40dc8:	1204b03a 	or	r2,r2,r8
   40dcc:	1886b03a 	or	r3,r3,r2
   40dd0:	30800204 	addi	r2,r6,8
   40dd4:	003fde06 	br	40d50 <_ZL28read_encoded_value_with_basehjPKhPj+0x8c>
   40dd8:	30c00043 	ldbu	r3,1(r6)
   40ddc:	32000003 	ldbu	r8,0(r6)
   40de0:	30800084 	addi	r2,r6,2
   40de4:	1806923a 	slli	r3,r3,8
   40de8:	1a06b03a 	or	r3,r3,r8
   40dec:	003fd806 	br	40d50 <_ZL28read_encoded_value_with_basehjPKhPj+0x8c>
   40df0:	30c00043 	ldbu	r3,1(r6)
   40df4:	32000003 	ldbu	r8,0(r6)
   40df8:	30800084 	addi	r2,r6,2
   40dfc:	1806923a 	slli	r3,r3,8
   40e00:	1a06b03a 	or	r3,r3,r8
   40e04:	18ffffcc 	andi	r3,r3,65535
   40e08:	18e0001c 	xori	r3,r3,32768
   40e0c:	18e00004 	addi	r3,r3,-32768
   40e10:	003fcf06 	br	40d50 <_ZL28read_encoded_value_with_basehjPKhPj+0x8c>
   40e14:	3005883a 	mov	r2,r6
   40e18:	0007883a 	mov	r3,zero
   40e1c:	0015883a 	mov	r10,zero
   40e20:	12000003 	ldbu	r8,0(r2)
   40e24:	10800044 	addi	r2,r2,1
   40e28:	42401fcc 	andi	r9,r8,127
   40e2c:	4a92983a 	sll	r9,r9,r10
   40e30:	42003fcc 	andi	r8,r8,255
   40e34:	4200201c 	xori	r8,r8,128
   40e38:	423fe004 	addi	r8,r8,-128
   40e3c:	1a46b03a 	or	r3,r3,r9
   40e40:	528001c4 	addi	r10,r10,7
   40e44:	403ff616 	blt	r8,zero,40e20 <_ZL28read_encoded_value_with_basehjPKhPj+0x15c>
   40e48:	003fc106 	br	40d50 <_ZL28read_encoded_value_with_basehjPKhPj+0x8c>
   40e4c:	3005883a 	mov	r2,r6
   40e50:	0007883a 	mov	r3,zero
   40e54:	0013883a 	mov	r9,zero
   40e58:	12800003 	ldbu	r10,0(r2)
   40e5c:	10800044 	addi	r2,r2,1
   40e60:	52001fcc 	andi	r8,r10,127
   40e64:	4250983a 	sll	r8,r8,r9
   40e68:	52c03fcc 	andi	r11,r10,255
   40e6c:	5ac0201c 	xori	r11,r11,128
   40e70:	5affe004 	addi	r11,r11,-128
   40e74:	1a06b03a 	or	r3,r3,r8
   40e78:	4a4001c4 	addi	r9,r9,7
   40e7c:	583ff616 	blt	r11,zero,40e58 <_ZL28read_encoded_value_with_basehjPKhPj+0x194>
   40e80:	4a000828 	cmpgeui	r8,r9,32
   40e84:	403fb21e 	bne	r8,zero,40d50 <_ZL28read_encoded_value_with_basehjPKhPj+0x8c>
   40e88:	5280100c 	andi	r10,r10,64
   40e8c:	503fb026 	beq	r10,zero,40d50 <_ZL28read_encoded_value_with_basehjPKhPj+0x8c>
   40e90:	023fffc4 	movi	r8,-1
   40e94:	4252983a 	sll	r9,r8,r9
   40e98:	1a46b03a 	or	r3,r3,r9
   40e9c:	003fad06 	br	40d54 <_ZL28read_encoded_value_with_basehjPKhPj+0x90>
   40ea0:	deffff04 	addi	sp,sp,-4
   40ea4:	dfc00015 	stw	ra,0(sp)
   40ea8:	00431cc0 	call	431cc <abort>

00040eac <_ZL15get_ttype_entryP16lsda_header_infom>:
   40eac:	defffe04 	addi	sp,sp,-8
   40eb0:	dfc00115 	stw	ra,4(sp)
   40eb4:	20800503 	ldbu	r2,20(r4)
   40eb8:	2007883a 	mov	r3,r4
   40ebc:	11003fcc 	andi	r4,r2,255
   40ec0:	21803fe0 	cmpeqi	r6,r4,255
   40ec4:	30001b1e 	bne	r6,zero,40f34 <_ZL15get_ttype_entryP16lsda_header_infom+0x88>
   40ec8:	108001cc 	andi	r2,r2,7
   40ecc:	118000a0 	cmpeqi	r6,r2,2
   40ed0:	3000151e 	bne	r6,zero,40f28 <_ZL15get_ttype_entryP16lsda_header_infom+0x7c>
   40ed4:	118000e8 	cmpgeui	r6,r2,3
   40ed8:	30000f26 	beq	r6,zero,40f18 <_ZL15get_ttype_entryP16lsda_header_infom+0x6c>
   40edc:	118000e0 	cmpeqi	r6,r2,3
   40ee0:	30000e1e 	bne	r6,zero,40f1c <_ZL15get_ttype_entryP16lsda_header_infom+0x70>
   40ee4:	10800120 	cmpeqi	r2,r2,4
   40ee8:	10001426 	beq	r2,zero,40f3c <_ZL15get_ttype_entryP16lsda_header_infom+0x90>
   40eec:	280a90fa 	slli	r5,r5,3
   40ef0:	0145c83a 	sub	r2,zero,r5
   40ef4:	19800317 	ldw	r6,12(r3)
   40ef8:	19400217 	ldw	r5,8(r3)
   40efc:	d80f883a 	mov	r7,sp
   40f00:	308d883a 	add	r6,r6,r2
   40f04:	0040cc40 	call	40cc4 <_ZL28read_encoded_value_with_basehjPKhPj>
   40f08:	d8800017 	ldw	r2,0(sp)
   40f0c:	dfc00117 	ldw	ra,4(sp)
   40f10:	dec00204 	addi	sp,sp,8
   40f14:	f800283a 	ret
   40f18:	1000081e 	bne	r2,zero,40f3c <_ZL15get_ttype_entryP16lsda_header_infom+0x90>
   40f1c:	280a90ba 	slli	r5,r5,2
   40f20:	0145c83a 	sub	r2,zero,r5
   40f24:	003ff306 	br	40ef4 <_ZL15get_ttype_entryP16lsda_header_infom+0x48>
   40f28:	294b883a 	add	r5,r5,r5
   40f2c:	0145c83a 	sub	r2,zero,r5
   40f30:	003ff006 	br	40ef4 <_ZL15get_ttype_entryP16lsda_header_infom+0x48>
   40f34:	0005883a 	mov	r2,zero
   40f38:	003fee06 	br	40ef4 <_ZL15get_ttype_entryP16lsda_header_infom+0x48>
   40f3c:	00431cc0 	call	431cc <abort>

00040f40 <_ZL20check_exception_specP16lsda_header_infoPKSt9type_infoPvl>:
   40f40:	defffb04 	addi	sp,sp,-20
   40f44:	dc000115 	stw	r16,4(sp)
   40f48:	24000317 	ldw	r16,12(r4)
   40f4c:	01ce303a 	nor	r7,zero,r7
   40f50:	dc800315 	stw	r18,12(sp)
   40f54:	dc400215 	stw	r17,8(sp)
   40f58:	dfc00415 	stw	ra,16(sp)
   40f5c:	2023883a 	mov	r17,r4
   40f60:	2825883a 	mov	r18,r5
   40f64:	d9800015 	stw	r6,0(sp)
   40f68:	81e1883a 	add	r16,r16,r7
   40f6c:	000b883a 	mov	r5,zero
   40f70:	000d883a 	mov	r6,zero
   40f74:	80800003 	ldbu	r2,0(r16)
   40f78:	84000044 	addi	r16,r16,1
   40f7c:	10c01fcc 	andi	r3,r2,127
   40f80:	1986983a 	sll	r3,r3,r6
   40f84:	10803fcc 	andi	r2,r2,255
   40f88:	1080201c 	xori	r2,r2,128
   40f8c:	10bfe004 	addi	r2,r2,-128
   40f90:	28cab03a 	or	r5,r5,r3
   40f94:	318001c4 	addi	r6,r6,7
   40f98:	103ff616 	blt	r2,zero,40f74 <_ZL20check_exception_specP16lsda_header_infoPKSt9type_infoPvl+0x34>
   40f9c:	28000e26 	beq	r5,zero,40fd8 <_ZL20check_exception_specP16lsda_header_infoPKSt9type_infoPvl+0x98>
   40fa0:	8809883a 	mov	r4,r17
   40fa4:	0040eac0 	call	40eac <_ZL15get_ttype_entryP16lsda_header_infom>
   40fa8:	d80d883a 	mov	r6,sp
   40fac:	900b883a 	mov	r5,r18
   40fb0:	1009883a 	mov	r4,r2
   40fb4:	0040c340 	call	40c34 <_ZL16get_adjusted_ptrPKSt9type_infoS1_PPv>
   40fb8:	10c03fcc 	andi	r3,r2,255
   40fbc:	183feb26 	beq	r3,zero,40f6c <_ZL20check_exception_specP16lsda_header_infoPKSt9type_infoPvl+0x2c>
   40fc0:	dfc00417 	ldw	ra,16(sp)
   40fc4:	dc800317 	ldw	r18,12(sp)
   40fc8:	dc400217 	ldw	r17,8(sp)
   40fcc:	dc000117 	ldw	r16,4(sp)
   40fd0:	dec00504 	addi	sp,sp,20
   40fd4:	f800283a 	ret
   40fd8:	0005883a 	mov	r2,zero
   40fdc:	003ff806 	br	40fc0 <_ZL20check_exception_specP16lsda_header_infoPKSt9type_infoPvl+0x80>

00040fe0 <_ZL21base_of_encoded_valuehP15_Unwind_Context>:
   40fe0:	20803fcc 	andi	r2,r4,255
   40fe4:	10803fe0 	cmpeqi	r2,r2,255
   40fe8:	1000161e 	bne	r2,zero,41044 <_ZL21base_of_encoded_valuehP15_Unwind_Context+0x64>
   40fec:	2007883a 	mov	r3,r4
   40ff0:	18801c0c 	andi	r2,r3,112
   40ff4:	2809883a 	mov	r4,r5
   40ff8:	11400c20 	cmpeqi	r5,r2,48
   40ffc:	2800131e 	bne	r5,zero,4104c <_ZL21base_of_encoded_valuehP15_Unwind_Context+0x6c>
   41000:	11400c68 	cmpgeui	r5,r2,49
   41004:	2800031e 	bne	r5,zero,41014 <_ZL21base_of_encoded_valuehP15_Unwind_Context+0x34>
   41008:	11400820 	cmpeqi	r5,r2,32
   4100c:	28000426 	beq	r5,zero,41020 <_ZL21base_of_encoded_valuehP15_Unwind_Context+0x40>
   41010:	0042f341 	jmpi	42f34 <_Unwind_GetTextRelBase>
   41014:	10c01020 	cmpeqi	r3,r2,64
   41018:	18000826 	beq	r3,zero,4103c <_ZL21base_of_encoded_valuehP15_Unwind_Context+0x5c>
   4101c:	0042f1c1 	jmpi	42f1c <_Unwind_GetRegionStart>
   41020:	10800868 	cmpgeui	r2,r2,33
   41024:	1000021e 	bne	r2,zero,41030 <_ZL21base_of_encoded_valuehP15_Unwind_Context+0x50>
   41028:	18c0180c 	andi	r3,r3,96
   4102c:	18000526 	beq	r3,zero,41044 <_ZL21base_of_encoded_valuehP15_Unwind_Context+0x64>
   41030:	deffff04 	addi	sp,sp,-4
   41034:	dfc00015 	stw	ra,0(sp)
   41038:	00431cc0 	call	431cc <abort>
   4103c:	10801420 	cmpeqi	r2,r2,80
   41040:	103ffb26 	beq	r2,zero,41030 <_ZL21base_of_encoded_valuehP15_Unwind_Context+0x50>
   41044:	0005883a 	mov	r2,zero
   41048:	f800283a 	ret
   4104c:	0042f2c1 	jmpi	42f2c <_Unwind_GetDataRelBase>

00041050 <_ZL17parse_lsda_headerP15_Unwind_ContextPKhP16lsda_header_info>:
   41050:	defffb04 	addi	sp,sp,-20
   41054:	dc800215 	stw	r18,8(sp)
   41058:	dc400115 	stw	r17,4(sp)
   4105c:	dc000015 	stw	r16,0(sp)
   41060:	dfc00415 	stw	ra,16(sp)
   41064:	dcc00315 	stw	r19,12(sp)
   41068:	2025883a 	mov	r18,r4
   4106c:	2821883a 	mov	r16,r5
   41070:	3023883a 	mov	r17,r6
   41074:	20003d26 	beq	r4,zero,4116c <_ZL17parse_lsda_headerP15_Unwind_ContextPKhP16lsda_header_info+0x11c>
   41078:	0042f1c0 	call	42f1c <_Unwind_GetRegionStart>
   4107c:	88800015 	stw	r2,0(r17)
   41080:	84c00003 	ldbu	r19,0(r16)
   41084:	84000044 	addi	r16,r16,1
   41088:	98c03fe0 	cmpeqi	r3,r19,255
   4108c:	18002d26 	beq	r3,zero,41144 <_ZL17parse_lsda_headerP15_Unwind_ContextPKhP16lsda_header_info+0xf4>
   41090:	88800115 	stw	r2,4(r17)
   41094:	81000003 	ldbu	r4,0(r16)
   41098:	80800044 	addi	r2,r16,1
   4109c:	20c03fcc 	andi	r3,r4,255
   410a0:	89000505 	stb	r4,20(r17)
   410a4:	18c03fe0 	cmpeqi	r3,r3,255
   410a8:	1800321e 	bne	r3,zero,41174 <_ZL17parse_lsda_headerP15_Unwind_ContextPKhP16lsda_header_info+0x124>
   410ac:	000d883a 	mov	r6,zero
   410b0:	000b883a 	mov	r5,zero
   410b4:	10c00003 	ldbu	r3,0(r2)
   410b8:	10800044 	addi	r2,r2,1
   410bc:	19001fcc 	andi	r4,r3,127
   410c0:	2148983a 	sll	r4,r4,r5
   410c4:	18c03fcc 	andi	r3,r3,255
   410c8:	18c0201c 	xori	r3,r3,128
   410cc:	18ffe004 	addi	r3,r3,-128
   410d0:	310cb03a 	or	r6,r6,r4
   410d4:	294001c4 	addi	r5,r5,7
   410d8:	183ff616 	blt	r3,zero,410b4 <_ZL17parse_lsda_headerP15_Unwind_ContextPKhP16lsda_header_info+0x64>
   410dc:	118d883a 	add	r6,r2,r6
   410e0:	89800315 	stw	r6,12(r17)
   410e4:	10c00003 	ldbu	r3,0(r2)
   410e8:	000f883a 	mov	r7,zero
   410ec:	10800044 	addi	r2,r2,1
   410f0:	88c00545 	stb	r3,21(r17)
   410f4:	000b883a 	mov	r5,zero
   410f8:	10c00003 	ldbu	r3,0(r2)
   410fc:	10800044 	addi	r2,r2,1
   41100:	19001fcc 	andi	r4,r3,127
   41104:	2148983a 	sll	r4,r4,r5
   41108:	18c03fcc 	andi	r3,r3,255
   4110c:	18c0201c 	xori	r3,r3,128
   41110:	18ffe004 	addi	r3,r3,-128
   41114:	390eb03a 	or	r7,r7,r4
   41118:	294001c4 	addi	r5,r5,7
   4111c:	183ff616 	blt	r3,zero,410f8 <_ZL17parse_lsda_headerP15_Unwind_ContextPKhP16lsda_header_info+0xa8>
   41120:	11cf883a 	add	r7,r2,r7
   41124:	89c00415 	stw	r7,16(r17)
   41128:	dfc00417 	ldw	ra,16(sp)
   4112c:	dcc00317 	ldw	r19,12(sp)
   41130:	dc800217 	ldw	r18,8(sp)
   41134:	dc400117 	ldw	r17,4(sp)
   41138:	dc000017 	ldw	r16,0(sp)
   4113c:	dec00504 	addi	sp,sp,20
   41140:	f800283a 	ret
   41144:	900b883a 	mov	r5,r18
   41148:	9809883a 	mov	r4,r19
   4114c:	0040fe00 	call	40fe0 <_ZL21base_of_encoded_valuehP15_Unwind_Context>
   41150:	800d883a 	mov	r6,r16
   41154:	89c00104 	addi	r7,r17,4
   41158:	100b883a 	mov	r5,r2
   4115c:	9809883a 	mov	r4,r19
   41160:	0040cc40 	call	40cc4 <_ZL28read_encoded_value_with_basehjPKhPj>
   41164:	1021883a 	mov	r16,r2
   41168:	003fca06 	br	41094 <_ZL17parse_lsda_headerP15_Unwind_ContextPKhP16lsda_header_info+0x44>
   4116c:	0005883a 	mov	r2,zero
   41170:	003fc206 	br	4107c <_ZL17parse_lsda_headerP15_Unwind_ContextPKhP16lsda_header_info+0x2c>
   41174:	88000315 	stw	zero,12(r17)
   41178:	003fda06 	br	410e4 <_ZL17parse_lsda_headerP15_Unwind_ContextPKhP16lsda_header_info+0x94>

0004117c <__gxx_personality_sj0>:
   4117c:	00c00174 	movhi	r3,5
   41180:	deffdc04 	addi	sp,sp,-144
   41184:	18d5c104 	addi	r3,r3,22276
   41188:	02000134 	movhi	r8,4
   4118c:	00800134 	movhi	r2,4
   41190:	1085dc04 	addi	r2,r2,6000
   41194:	42045f04 	addi	r8,r8,4476
   41198:	d9000015 	stw	r4,0(sp)
   4119c:	d8c01415 	stw	r3,80(sp)
   411a0:	d9000d04 	addi	r4,sp,52
   411a4:	d8c02204 	addi	r3,sp,136
   411a8:	d8801615 	stw	r2,88(sp)
   411ac:	dfc02315 	stw	ra,140(sp)
   411b0:	df002215 	stw	fp,136(sp)
   411b4:	da001315 	stw	r8,76(sp)
   411b8:	d8c01515 	stw	r3,84(sp)
   411bc:	dec01715 	stw	sp,92(sp)
   411c0:	d9400315 	stw	r5,12(sp)
   411c4:	d9800115 	stw	r6,4(sp)
   411c8:	d9c00215 	stw	r7,8(sp)
   411cc:	0042e600 	call	42e60 <_Unwind_SjLj_Register>
   411d0:	d8800017 	ldw	r2,0(sp)
   411d4:	d8001a15 	stw	zero,104(sp)
   411d8:	d8001b15 	stw	zero,108(sp)
   411dc:	10800058 	cmpnei	r2,r2,1
   411e0:	1000471e 	bne	r2,zero,41300 <__gxx_personality_sj0+0x184>
   411e4:	d9800117 	ldw	r6,4(sp)
   411e8:	00af3574 	movhi	r2,48341
   411ec:	10b54004 	addi	r2,r2,-11008
   411f0:	3085883a 	add	r2,r6,r2
   411f4:	d8800715 	stw	r2,28(sp)
   411f8:	1185803a 	cmpltu	r2,r2,r6
   411fc:	d9800217 	ldw	r6,8(sp)
   41200:	00ee2cb4 	movhi	r3,47282
   41204:	d9000317 	ldw	r4,12(sp)
   41208:	18eaaf04 	addi	r3,r3,-21828
   4120c:	30c7883a 	add	r3,r6,r3
   41210:	10c7883a 	add	r3,r2,r3
   41214:	21000198 	cmpnei	r4,r4,6
   41218:	d8c00615 	stw	r3,24(sp)
   4121c:	2000011e 	bne	r4,zero,41224 <__gxx_personality_sj0+0xa8>
   41220:	1800cf26 	beq	r3,zero,41560 <__gxx_personality_sj0+0x3e4>
   41224:	d9002517 	ldw	r4,148(sp)
   41228:	00bfffc4 	movi	r2,-1
   4122c:	d8800e15 	stw	r2,56(sp)
   41230:	0042f100 	call	42f10 <_Unwind_GetLanguageSpecificData>
   41234:	d8800515 	stw	r2,20(sp)
   41238:	10006026 	beq	r2,zero,413bc <__gxx_personality_sj0+0x240>
   4123c:	d9400517 	ldw	r5,20(sp)
   41240:	d9002517 	ldw	r4,148(sp)
   41244:	d9801c04 	addi	r6,sp,112
   41248:	00bfffc4 	movi	r2,-1
   4124c:	d8800e15 	stw	r2,56(sp)
   41250:	00410500 	call	41050 <_ZL17parse_lsda_headerP15_Unwind_ContextPKhP16lsda_header_info>
   41254:	d9002103 	ldbu	r4,132(sp)
   41258:	d9402517 	ldw	r5,148(sp)
   4125c:	d8800015 	stw	r2,0(sp)
   41260:	0040fe00 	call	40fe0 <_ZL21base_of_encoded_valuehP15_Unwind_Context>
   41264:	d9002517 	ldw	r4,148(sp)
   41268:	d9401b04 	addi	r5,sp,108
   4126c:	d8801e15 	stw	r2,120(sp)
   41270:	0042ee00 	call	42ee0 <_Unwind_GetIPInfo>
   41274:	d8c01b17 	ldw	r3,108(sp)
   41278:	d8800115 	stw	r2,4(sp)
   4127c:	18005226 	beq	r3,zero,413c8 <__gxx_personality_sj0+0x24c>
   41280:	d8800117 	ldw	r2,4(sp)
   41284:	10004d16 	blt	r2,zero,413bc <__gxx_personality_sj0+0x240>
   41288:	1000381e 	bne	r2,zero,4136c <__gxx_personality_sj0+0x1f0>
   4128c:	d8000415 	stw	zero,16(sp)
   41290:	d8000215 	stw	zero,8(sp)
   41294:	00800044 	movi	r2,1
   41298:	d8c00317 	ldw	r3,12(sp)
   4129c:	18c0004c 	andi	r3,r3,1
   412a0:	1800f51e 	bne	r3,zero,41678 <__gxx_personality_sj0+0x4fc>
   412a4:	d8c00317 	ldw	r3,12(sp)
   412a8:	18c0020c 	andi	r3,r3,8
   412ac:	1800b526 	beq	r3,zero,41584 <__gxx_personality_sj0+0x408>
   412b0:	10800058 	cmpnei	r2,r2,1
   412b4:	10013026 	beq	r2,zero,41778 <__gxx_personality_sj0+0x5fc>
   412b8:	d8800417 	ldw	r2,16(sp)
   412bc:	10012916 	blt	r2,zero,41764 <__gxx_personality_sj0+0x5e8>
   412c0:	d9002517 	ldw	r4,148(sp)
   412c4:	d9802417 	ldw	r6,144(sp)
   412c8:	00bfffc4 	movi	r2,-1
   412cc:	000b883a 	mov	r5,zero
   412d0:	d8800e15 	stw	r2,56(sp)
   412d4:	0042eb80 	call	42eb8 <_Unwind_SetGR>
   412d8:	d9800417 	ldw	r6,16(sp)
   412dc:	d9002517 	ldw	r4,148(sp)
   412e0:	01400044 	movi	r5,1
   412e4:	0042eb80 	call	42eb8 <_Unwind_SetGR>
   412e8:	d9400117 	ldw	r5,4(sp)
   412ec:	d9002517 	ldw	r4,148(sp)
   412f0:	0042f000 	call	42f00 <_Unwind_SetIP>
   412f4:	008001c4 	movi	r2,7
   412f8:	d8800015 	stw	r2,0(sp)
   412fc:	00000206 	br	41308 <__gxx_personality_sj0+0x18c>
   41300:	008000c4 	movi	r2,3
   41304:	d8800015 	stw	r2,0(sp)
   41308:	d9000d04 	addi	r4,sp,52
   4130c:	0042e780 	call	42e78 <_Unwind_SjLj_Unregister>
   41310:	d8800017 	ldw	r2,0(sp)
   41314:	dfc02317 	ldw	ra,140(sp)
   41318:	df002217 	ldw	fp,136(sp)
   4131c:	dec02404 	addi	sp,sp,144
   41320:	f800283a 	ret
   41324:	000b883a 	mov	r5,zero
   41328:	0009883a 	mov	r4,zero
   4132c:	d8c00017 	ldw	r3,0(sp)
   41330:	18800003 	ldbu	r2,0(r3)
   41334:	18c00044 	addi	r3,r3,1
   41338:	d8c00015 	stw	r3,0(sp)
   4133c:	10c01fcc 	andi	r3,r2,127
   41340:	1906983a 	sll	r3,r3,r4
   41344:	10803fcc 	andi	r2,r2,255
   41348:	1080201c 	xori	r2,r2,128
   4134c:	10bfe004 	addi	r2,r2,-128
   41350:	28cab03a 	or	r5,r5,r3
   41354:	210001c4 	addi	r4,r4,7
   41358:	103ff416 	blt	r2,zero,4132c <__gxx_personality_sj0+0x1b0>
   4135c:	d8800117 	ldw	r2,4(sp)
   41360:	10bfffc4 	addi	r2,r2,-1
   41364:	d8800115 	stw	r2,4(sp)
   41368:	10001a26 	beq	r2,zero,413d4 <__gxx_personality_sj0+0x258>
   4136c:	000d883a 	mov	r6,zero
   41370:	0009883a 	mov	r4,zero
   41374:	d8c00017 	ldw	r3,0(sp)
   41378:	18800003 	ldbu	r2,0(r3)
   4137c:	18c00044 	addi	r3,r3,1
   41380:	d8c00015 	stw	r3,0(sp)
   41384:	10c01fcc 	andi	r3,r2,127
   41388:	1906983a 	sll	r3,r3,r4
   4138c:	10803fcc 	andi	r2,r2,255
   41390:	1080201c 	xori	r2,r2,128
   41394:	10bfe004 	addi	r2,r2,-128
   41398:	30ccb03a 	or	r6,r6,r3
   4139c:	210001c4 	addi	r4,r4,7
   413a0:	103ff416 	blt	r2,zero,41374 <__gxx_personality_sj0+0x1f8>
   413a4:	003fdf06 	br	41324 <__gxx_personality_sj0+0x1a8>
   413a8:	d88008c3 	ldbu	r2,35(sp)
   413ac:	10000326 	beq	r2,zero,413bc <__gxx_personality_sj0+0x240>
   413b0:	d8800317 	ldw	r2,12(sp)
   413b4:	1080004c 	andi	r2,r2,1
   413b8:	1000e226 	beq	r2,zero,41744 <__gxx_personality_sj0+0x5c8>
   413bc:	00800204 	movi	r2,8
   413c0:	d8800015 	stw	r2,0(sp)
   413c4:	003fd006 	br	41308 <__gxx_personality_sj0+0x18c>
   413c8:	10bfffc4 	addi	r2,r2,-1
   413cc:	d8800115 	stw	r2,4(sp)
   413d0:	003fab06 	br	41280 <__gxx_personality_sj0+0x104>
   413d4:	30800044 	addi	r2,r6,1
   413d8:	d8800b15 	stw	r2,44(sp)
   413dc:	283ff326 	beq	r5,zero,413ac <__gxx_personality_sj0+0x230>
   413e0:	d8800b17 	ldw	r2,44(sp)
   413e4:	103ff526 	beq	r2,zero,413bc <__gxx_personality_sj0+0x240>
   413e8:	d8802017 	ldw	r2,128(sp)
   413ec:	297fffc4 	addi	r5,r5,-1
   413f0:	1145883a 	add	r2,r2,r5
   413f4:	d8800215 	stw	r2,8(sp)
   413f8:	103fed26 	beq	r2,zero,413b0 <__gxx_personality_sj0+0x234>
   413fc:	d8800317 	ldw	r2,12(sp)
   41400:	1080020c 	andi	r2,r2,8
   41404:	d8800a15 	stw	r2,40(sp)
   41408:	1000a71e 	bne	r2,zero,416a8 <__gxx_personality_sj0+0x52c>
   4140c:	d8800617 	ldw	r2,24(sp)
   41410:	1000bc26 	beq	r2,zero,41704 <__gxx_personality_sj0+0x588>
   41414:	00800174 	movhi	r2,5
   41418:	109f1404 	addi	r2,r2,31824
   4141c:	d8800915 	stw	r2,36(sp)
   41420:	d8800717 	ldw	r2,28(sp)
   41424:	d80008c5 	stb	zero,35(sp)
   41428:	108000a8 	cmpgeui	r2,r2,2
   4142c:	d8800c15 	stw	r2,48(sp)
   41430:	d8800217 	ldw	r2,8(sp)
   41434:	000b883a 	mov	r5,zero
   41438:	0007883a 	mov	r3,zero
   4143c:	d8800015 	stw	r2,0(sp)
   41440:	d8800017 	ldw	r2,0(sp)
   41444:	11000003 	ldbu	r4,0(r2)
   41448:	10800044 	addi	r2,r2,1
   4144c:	d8800015 	stw	r2,0(sp)
   41450:	20801fcc 	andi	r2,r4,127
   41454:	10c4983a 	sll	r2,r2,r3
   41458:	21803fcc 	andi	r6,r4,255
   4145c:	3180201c 	xori	r6,r6,128
   41460:	31bfe004 	addi	r6,r6,-128
   41464:	288ab03a 	or	r5,r5,r2
   41468:	18c001c4 	addi	r3,r3,7
   4146c:	303ff416 	blt	r6,zero,41440 <__gxx_personality_sj0+0x2c4>
   41470:	18800828 	cmpgeui	r2,r3,32
   41474:	1000061e 	bne	r2,zero,41490 <__gxx_personality_sj0+0x314>
   41478:	2100100c 	andi	r4,r4,64
   4147c:	20000426 	beq	r4,zero,41490 <__gxx_personality_sj0+0x314>
   41480:	00800044 	movi	r2,1
   41484:	10c6983a 	sll	r3,r2,r3
   41488:	00c7c83a 	sub	r3,zero,r3
   4148c:	28cab03a 	or	r5,r5,r3
   41490:	d9800017 	ldw	r6,0(sp)
   41494:	d9400415 	stw	r5,16(sp)
   41498:	d8000115 	stw	zero,4(sp)
   4149c:	0007883a 	mov	r3,zero
   414a0:	31000003 	ldbu	r4,0(r6)
   414a4:	da000117 	ldw	r8,4(sp)
   414a8:	31800044 	addi	r6,r6,1
   414ac:	20801fcc 	andi	r2,r4,127
   414b0:	10c4983a 	sll	r2,r2,r3
   414b4:	21c03fcc 	andi	r7,r4,255
   414b8:	39c0201c 	xori	r7,r7,128
   414bc:	4084b03a 	or	r2,r8,r2
   414c0:	39ffe004 	addi	r7,r7,-128
   414c4:	d8800115 	stw	r2,4(sp)
   414c8:	18c001c4 	addi	r3,r3,7
   414cc:	383ff416 	blt	r7,zero,414a0 <__gxx_personality_sj0+0x324>
   414d0:	18800828 	cmpgeui	r2,r3,32
   414d4:	1000081e 	bne	r2,zero,414f8 <__gxx_personality_sj0+0x37c>
   414d8:	2100100c 	andi	r4,r4,64
   414dc:	20000626 	beq	r4,zero,414f8 <__gxx_personality_sj0+0x37c>
   414e0:	00800044 	movi	r2,1
   414e4:	10c6983a 	sll	r3,r2,r3
   414e8:	d8800117 	ldw	r2,4(sp)
   414ec:	00c7c83a 	sub	r3,zero,r3
   414f0:	10c4b03a 	or	r2,r2,r3
   414f4:	d8800115 	stw	r2,4(sp)
   414f8:	28003b26 	beq	r5,zero,415e8 <__gxx_personality_sj0+0x46c>
   414fc:	01403d16 	blt	zero,r5,415f4 <__gxx_personality_sj0+0x478>
   41500:	d8c00917 	ldw	r3,36(sp)
   41504:	18004b26 	beq	r3,zero,41634 <__gxx_personality_sj0+0x4b8>
   41508:	d8800a17 	ldw	r2,40(sp)
   4150c:	1000491e 	bne	r2,zero,41634 <__gxx_personality_sj0+0x4b8>
   41510:	d8800617 	ldw	r2,24(sp)
   41514:	1000471e 	bne	r2,zero,41634 <__gxx_personality_sj0+0x4b8>
   41518:	d8800c17 	ldw	r2,48(sp)
   4151c:	1000451e 	bne	r2,zero,41634 <__gxx_personality_sj0+0x4b8>
   41520:	d9801a17 	ldw	r6,104(sp)
   41524:	00bfffc4 	movi	r2,-1
   41528:	280f883a 	mov	r7,r5
   4152c:	d9001c04 	addi	r4,sp,112
   41530:	180b883a 	mov	r5,r3
   41534:	d8800e15 	stw	r2,56(sp)
   41538:	0040f400 	call	40f40 <_ZL20check_exception_specP16lsda_header_infoPKSt9type_infoPvl>
   4153c:	1100005c 	xori	r4,r2,1
   41540:	20803fcc 	andi	r2,r4,255
   41544:	1000371e 	bne	r2,zero,41624 <__gxx_personality_sj0+0x4a8>
   41548:	d8800117 	ldw	r2,4(sp)
   4154c:	103f9626 	beq	r2,zero,413a8 <__gxx_personality_sj0+0x22c>
   41550:	d8c00017 	ldw	r3,0(sp)
   41554:	1885883a 	add	r2,r3,r2
   41558:	d8800215 	stw	r2,8(sp)
   4155c:	003fb406 	br	41430 <__gxx_personality_sj0+0x2b4>
   41560:	d8800717 	ldw	r2,28(sp)
   41564:	108000a8 	cmpgeui	r2,r2,2
   41568:	103f2e1e 	bne	r2,zero,41224 <__gxx_personality_sj0+0xa8>
   4156c:	d8802417 	ldw	r2,144(sp)
   41570:	10bffe17 	ldw	r2,-8(r2)
   41574:	d8800115 	stw	r2,4(sp)
   41578:	1000441e 	bne	r2,zero,4168c <__gxx_personality_sj0+0x510>
   4157c:	d9002417 	ldw	r4,144(sp)
   41580:	0041ff40 	call	41ff4 <__cxa_call_terminate>
   41584:	d8c00617 	ldw	r3,24(sp)
   41588:	183f491e 	bne	r3,zero,412b0 <__gxx_personality_sj0+0x134>
   4158c:	d8c00717 	ldw	r3,28(sp)
   41590:	18c000a8 	cmpgeui	r3,r3,2
   41594:	183f461e 	bne	r3,zero,412b0 <__gxx_personality_sj0+0x134>
   41598:	10800060 	cmpeqi	r2,r2,1
   4159c:	103ff71e 	bne	r2,zero,4157c <__gxx_personality_sj0+0x400>
   415a0:	d8800417 	ldw	r2,16(sp)
   415a4:	103f460e 	bge	r2,zero,412c0 <__gxx_personality_sj0+0x144>
   415a8:	d9002517 	ldw	r4,148(sp)
   415ac:	d9400517 	ldw	r5,20(sp)
   415b0:	d9801c04 	addi	r6,sp,112
   415b4:	00bfffc4 	movi	r2,-1
   415b8:	d8800e15 	stw	r2,56(sp)
   415bc:	00410500 	call	41050 <_ZL17parse_lsda_headerP15_Unwind_ContextPKhP16lsda_header_info>
   415c0:	d9402517 	ldw	r5,148(sp)
   415c4:	d9002103 	ldbu	r4,132(sp)
   415c8:	0040fe00 	call	40fe0 <_ZL21base_of_encoded_valuehP15_Unwind_Context>
   415cc:	d9002103 	ldbu	r4,132(sp)
   415d0:	d9402517 	ldw	r5,148(sp)
   415d4:	d8801e15 	stw	r2,120(sp)
   415d8:	0040fe00 	call	40fe0 <_ZL21base_of_encoded_valuehP15_Unwind_Context>
   415dc:	d8c02417 	ldw	r3,144(sp)
   415e0:	18bffe15 	stw	r2,-8(r3)
   415e4:	003f3606 	br	412c0 <__gxx_personality_sj0+0x144>
   415e8:	00800044 	movi	r2,1
   415ec:	d88008c5 	stb	r2,35(sp)
   415f0:	003fd506 	br	41548 <__gxx_personality_sj0+0x3cc>
   415f4:	00bfffc4 	movi	r2,-1
   415f8:	d9001c04 	addi	r4,sp,112
   415fc:	d8800e15 	stw	r2,56(sp)
   41600:	0040eac0 	call	40eac <_ZL15get_ttype_entryP16lsda_header_infom>
   41604:	1009883a 	mov	r4,r2
   41608:	10000626 	beq	r2,zero,41624 <__gxx_personality_sj0+0x4a8>
   4160c:	d9400917 	ldw	r5,36(sp)
   41610:	283fcd26 	beq	r5,zero,41548 <__gxx_personality_sj0+0x3cc>
   41614:	d9801a04 	addi	r6,sp,104
   41618:	0040c340 	call	40c34 <_ZL16get_adjusted_ptrPKSt9type_infoS1_PPv>
   4161c:	10803fcc 	andi	r2,r2,255
   41620:	103fc926 	beq	r2,zero,41548 <__gxx_personality_sj0+0x3cc>
   41624:	d8800b17 	ldw	r2,44(sp)
   41628:	d8800115 	stw	r2,4(sp)
   4162c:	008000c4 	movi	r2,3
   41630:	003f1906 	br	41298 <__gxx_personality_sj0+0x11c>
   41634:	d8801f17 	ldw	r2,124(sp)
   41638:	014a303a 	nor	r5,zero,r5
   4163c:	0009883a 	mov	r4,zero
   41640:	114b883a 	add	r5,r2,r5
   41644:	000d883a 	mov	r6,zero
   41648:	28800003 	ldbu	r2,0(r5)
   4164c:	29400044 	addi	r5,r5,1
   41650:	10c01fcc 	andi	r3,r2,127
   41654:	1986983a 	sll	r3,r3,r6
   41658:	10803fcc 	andi	r2,r2,255
   4165c:	1080201c 	xori	r2,r2,128
   41660:	10bfe004 	addi	r2,r2,-128
   41664:	20c8b03a 	or	r4,r4,r3
   41668:	318001c4 	addi	r6,r6,7
   4166c:	103ff616 	blt	r2,zero,41648 <__gxx_personality_sj0+0x4cc>
   41670:	2009003a 	cmpeq	r4,r4,zero
   41674:	003fb206 	br	41540 <__gxx_personality_sj0+0x3c4>
   41678:	d8800617 	ldw	r2,24(sp)
   4167c:	10000e26 	beq	r2,zero,416b8 <__gxx_personality_sj0+0x53c>
   41680:	00800184 	movi	r2,6
   41684:	d8800015 	stw	r2,0(sp)
   41688:	003f1f06 	br	41308 <__gxx_personality_sj0+0x18c>
   4168c:	d8802417 	ldw	r2,144(sp)
   41690:	10bffb17 	ldw	r2,-20(r2)
   41694:	d8800415 	stw	r2,16(sp)
   41698:	d8802417 	ldw	r2,144(sp)
   4169c:	10bffd17 	ldw	r2,-12(r2)
   416a0:	d8800515 	stw	r2,20(sp)
   416a4:	003fbe06 	br	415a0 <__gxx_personality_sj0+0x424>
   416a8:	00800174 	movhi	r2,5
   416ac:	109f1204 	addi	r2,r2,31816
   416b0:	d8800915 	stw	r2,36(sp)
   416b4:	003f5a06 	br	41420 <__gxx_personality_sj0+0x2a4>
   416b8:	d8800717 	ldw	r2,28(sp)
   416bc:	108000a8 	cmpgeui	r2,r2,2
   416c0:	103fef1e 	bne	r2,zero,41680 <__gxx_personality_sj0+0x504>
   416c4:	d8802417 	ldw	r2,144(sp)
   416c8:	d8c00417 	ldw	r3,16(sp)
   416cc:	10fffb15 	stw	r3,-20(r2)
   416d0:	d8c00217 	ldw	r3,8(sp)
   416d4:	10fffc15 	stw	r3,-16(r2)
   416d8:	d8c00517 	ldw	r3,20(sp)
   416dc:	10fffd15 	stw	r3,-12(r2)
   416e0:	d8c02417 	ldw	r3,144(sp)
   416e4:	d8801a17 	ldw	r2,104(sp)
   416e8:	18bfff15 	stw	r2,-4(r3)
   416ec:	1805883a 	mov	r2,r3
   416f0:	d8c00117 	ldw	r3,4(sp)
   416f4:	10fffe15 	stw	r3,-8(r2)
   416f8:	00800184 	movi	r2,6
   416fc:	d8800015 	stw	r2,0(sp)
   41700:	003f0106 	br	41308 <__gxx_personality_sj0+0x18c>
   41704:	d8800717 	ldw	r2,28(sp)
   41708:	108000a8 	cmpgeui	r2,r2,2
   4170c:	103f411e 	bne	r2,zero,41414 <__gxx_personality_sj0+0x298>
   41710:	d8802417 	ldw	r2,144(sp)
   41714:	10800003 	ldbu	r2,0(r2)
   41718:	1080004c 	andi	r2,r2,1
   4171c:	10000626 	beq	r2,zero,41738 <__gxx_personality_sj0+0x5bc>
   41720:	d8802417 	ldw	r2,144(sp)
   41724:	10bff517 	ldw	r2,-44(r2)
   41728:	10fff017 	ldw	r3,-64(r2)
   4172c:	d8801a15 	stw	r2,104(sp)
   41730:	d8c00915 	stw	r3,36(sp)
   41734:	003f3a06 	br	41420 <__gxx_personality_sj0+0x2a4>
   41738:	d8802417 	ldw	r2,144(sp)
   4173c:	10800504 	addi	r2,r2,20
   41740:	003ff906 	br	41728 <__gxx_personality_sj0+0x5ac>
   41744:	d8800317 	ldw	r2,12(sp)
   41748:	1080020c 	andi	r2,r2,8
   4174c:	d8800415 	stw	r2,16(sp)
   41750:	10000a26 	beq	r2,zero,4177c <__gxx_personality_sj0+0x600>
   41754:	d8800b17 	ldw	r2,44(sp)
   41758:	d8000415 	stw	zero,16(sp)
   4175c:	d8800115 	stw	r2,4(sp)
   41760:	003ed706 	br	412c0 <__gxx_personality_sj0+0x144>
   41764:	00800044 	movi	r2,1
   41768:	d8800e15 	stw	r2,56(sp)
   4176c:	00419f80 	call	419f8 <_ZSt10unexpectedv>
   41770:	d9000f17 	ldw	r4,60(sp)
   41774:	00420540 	call	42054 <__cxa_begin_catch>
   41778:	00419d40 	call	419d4 <_ZSt9terminatev>
   4177c:	d8800b17 	ldw	r2,44(sp)
   41780:	d8800115 	stw	r2,4(sp)
   41784:	003ece06 	br	412c0 <__gxx_personality_sj0+0x144>

00041788 <__cxa_call_unexpected>:
   41788:	00c00174 	movhi	r3,5
   4178c:	deffe704 	addi	sp,sp,-100
   41790:	18d5c504 	addi	r3,r3,22292
   41794:	01400134 	movhi	r5,4
   41798:	00800134 	movhi	r2,4
   4179c:	29445f04 	addi	r5,r5,4476
   417a0:	10860304 	addi	r2,r2,6156
   417a4:	d9000015 	stw	r4,0(sp)
   417a8:	d8c00b15 	stw	r3,44(sp)
   417ac:	d9000404 	addi	r4,sp,16
   417b0:	d8c01704 	addi	r3,sp,92
   417b4:	d8c00c15 	stw	r3,48(sp)
   417b8:	dfc01815 	stw	ra,96(sp)
   417bc:	d9400a15 	stw	r5,40(sp)
   417c0:	d8800d15 	stw	r2,52(sp)
   417c4:	df001715 	stw	fp,92(sp)
   417c8:	dec00e15 	stw	sp,56(sp)
   417cc:	0042e600 	call	42e60 <_Unwind_SjLj_Register>
   417d0:	d9000017 	ldw	r4,0(sp)
   417d4:	00420540 	call	42054 <__cxa_begin_catch>
   417d8:	d9000017 	ldw	r4,0(sp)
   417dc:	20fffd17 	ldw	r3,-12(r4)
   417e0:	20bffe17 	ldw	r2,-8(r4)
   417e4:	d8c00115 	stw	r3,4(sp)
   417e8:	20fffb17 	ldw	r3,-20(r4)
   417ec:	d8801315 	stw	r2,76(sp)
   417f0:	d8c00015 	stw	r3,0(sp)
   417f4:	20fff817 	ldw	r3,-32(r4)
   417f8:	d8c00215 	stw	r3,8(sp)
   417fc:	00c00044 	movi	r3,1
   41800:	d8c00515 	stw	r3,20(sp)
   41804:	213ff717 	ldw	r4,-36(r4)
   41808:	00419e80 	call	419e8 <_ZN10__cxxabiv112__unexpectedEPFvvE>
   4180c:	d8c00617 	ldw	r3,24(sp)
   41810:	d8800517 	ldw	r2,20(sp)
   41814:	d8c00315 	stw	r3,12(sp)
   41818:	10002b1e 	bne	r2,zero,418c8 <__cxa_call_unexpected+0x140>
   4181c:	d9000617 	ldw	r4,24(sp)
   41820:	00420540 	call	42054 <__cxa_begin_catch>
   41824:	004224c0 	call	4224c <__cxa_get_globals_fast>
   41828:	10800017 	ldw	r2,0(r2)
   4182c:	10c00b03 	ldbu	r3,44(r2)
   41830:	18c0004c 	andi	r3,r3,1
   41834:	18002e26 	beq	r3,zero,418f0 <__cxa_call_unexpected+0x168>
   41838:	10800017 	ldw	r2,0(r2)
   4183c:	d8800315 	stw	r2,12(sp)
   41840:	d9400117 	ldw	r5,4(sp)
   41844:	00800084 	movi	r2,2
   41848:	d9801104 	addi	r6,sp,68
   4184c:	0009883a 	mov	r4,zero
   41850:	d8800515 	stw	r2,20(sp)
   41854:	00410500 	call	41050 <_ZL17parse_lsda_headerP15_Unwind_ContextPKhP16lsda_header_info>
   41858:	d9800317 	ldw	r6,12(sp)
   4185c:	d9c00017 	ldw	r7,0(sp)
   41860:	d9001104 	addi	r4,sp,68
   41864:	317ff017 	ldw	r5,-64(r6)
   41868:	0040f400 	call	40f40 <_ZL20check_exception_specP16lsda_header_infoPKSt9type_infoPvl>
   4186c:	10803fcc 	andi	r2,r2,255
   41870:	1000221e 	bne	r2,zero,418fc <__cxa_call_unexpected+0x174>
   41874:	d9c00017 	ldw	r7,0(sp)
   41878:	01400174 	movhi	r5,5
   4187c:	00800084 	movi	r2,2
   41880:	000d883a 	mov	r6,zero
   41884:	29562404 	addi	r5,r5,22672
   41888:	d9001104 	addi	r4,sp,68
   4188c:	d8800515 	stw	r2,20(sp)
   41890:	0040f400 	call	40f40 <_ZL20check_exception_specP16lsda_header_infoPKSt9type_infoPvl>
   41894:	10803fcc 	andi	r2,r2,255
   41898:	10001926 	beq	r2,zero,41900 <__cxa_call_unexpected+0x178>
   4189c:	01000104 	movi	r4,4
   418a0:	0041ea00 	call	41ea0 <__cxa_allocate_exception>
   418a4:	1009883a 	mov	r4,r2
   418a8:	00800174 	movhi	r2,5
   418ac:	01800134 	movhi	r6,4
   418b0:	01400174 	movhi	r5,5
   418b4:	10963f04 	addi	r2,r2,22780
   418b8:	31888004 	addi	r6,r6,8704
   418bc:	29562404 	addi	r5,r5,22672
   418c0:	20800015 	stw	r2,0(r4)
   418c4:	0041b380 	call	41b38 <__cxa_throw>
   418c8:	10bfffc4 	addi	r2,r2,-1
   418cc:	10000126 	beq	r2,zero,418d4 <__cxa_call_unexpected+0x14c>
   418d0:	003b68fa 	trap	3
   418d4:	d8000515 	stw	zero,20(sp)
   418d8:	004210c0 	call	4210c <__cxa_end_catch>
   418dc:	004210c0 	call	4210c <__cxa_end_catch>
   418e0:	d9000317 	ldw	r4,12(sp)
   418e4:	00bfffc4 	movi	r2,-1
   418e8:	d8800515 	stw	r2,20(sp)
   418ec:	00430480 	call	43048 <_Unwind_SjLj_Resume>
   418f0:	10801004 	addi	r2,r2,64
   418f4:	d8800315 	stw	r2,12(sp)
   418f8:	003fd106 	br	41840 <__cxa_call_unexpected+0xb8>
   418fc:	0041bcc0 	call	41bcc <__cxa_rethrow>
   41900:	d9000217 	ldw	r4,8(sp)
   41904:	00419080 	call	41908 <_ZN10__cxxabiv111__terminateEPFvvE>

00041908 <_ZN10__cxxabiv111__terminateEPFvvE>:
   41908:	00c00174 	movhi	r3,5
   4190c:	deffef04 	addi	sp,sp,-68
   41910:	18d5c904 	addi	r3,r3,22308
   41914:	01400134 	movhi	r5,4
   41918:	00800134 	movhi	r2,4
   4191c:	10865a04 	addi	r2,r2,6504
   41920:	200d883a 	mov	r6,r4
   41924:	29445f04 	addi	r5,r5,4476
   41928:	d8c00915 	stw	r3,36(sp)
   4192c:	d9000204 	addi	r4,sp,8
   41930:	d8c00f04 	addi	r3,sp,60
   41934:	d8800b15 	stw	r2,44(sp)
   41938:	dfc01015 	stw	ra,64(sp)
   4193c:	df000f15 	stw	fp,60(sp)
   41940:	d9400815 	stw	r5,32(sp)
   41944:	d8c00a15 	stw	r3,40(sp)
   41948:	dec00c15 	stw	sp,48(sp)
   4194c:	d9800015 	stw	r6,0(sp)
   41950:	0042e600 	call	42e60 <_Unwind_SjLj_Register>
   41954:	00800044 	movi	r2,1
   41958:	d8800315 	stw	r2,12(sp)
   4195c:	d8800017 	ldw	r2,0(sp)
   41960:	103ee83a 	callr	r2
   41964:	00431cc0 	call	431cc <abort>
   41968:	d8c00417 	ldw	r3,16(sp)
   4196c:	d8800317 	ldw	r2,12(sp)
   41970:	d8c00015 	stw	r3,0(sp)
   41974:	d8c00517 	ldw	r3,20(sp)
   41978:	d8c00115 	stw	r3,4(sp)
   4197c:	1000051e 	bne	r2,zero,41994 <_ZN10__cxxabiv111__terminateEPFvvE+0x8c>
   41980:	d9000417 	ldw	r4,16(sp)
   41984:	00420540 	call	42054 <__cxa_begin_catch>
   41988:	00800084 	movi	r2,2
   4198c:	d8800315 	stw	r2,12(sp)
   41990:	00431cc0 	call	431cc <abort>
   41994:	10bfffc4 	addi	r2,r2,-1
   41998:	10000126 	beq	r2,zero,419a0 <_ZN10__cxxabiv111__terminateEPFvvE+0x98>
   4199c:	003b68fa 	trap	3
   419a0:	d8000315 	stw	zero,12(sp)
   419a4:	004210c0 	call	4210c <__cxa_end_catch>
   419a8:	d8c00117 	ldw	r3,4(sp)
   419ac:	18bfffe0 	cmpeqi	r2,r3,-1
   419b0:	10000426 	beq	r2,zero,419c4 <_ZN10__cxxabiv111__terminateEPFvvE+0xbc>
   419b4:	d8800117 	ldw	r2,4(sp)
   419b8:	d9000017 	ldw	r4,0(sp)
   419bc:	d8800315 	stw	r2,12(sp)
   419c0:	00417880 	call	41788 <__cxa_call_unexpected>
   419c4:	d9000017 	ldw	r4,0(sp)
   419c8:	00bfffc4 	movi	r2,-1
   419cc:	d8800315 	stw	r2,12(sp)
   419d0:	00430480 	call	43048 <_Unwind_SjLj_Resume>

000419d4 <_ZSt9terminatev>:
   419d4:	00800174 	movhi	r2,5
   419d8:	111f1617 	ldw	r4,31832(r2)
   419dc:	deffff04 	addi	sp,sp,-4
   419e0:	dfc00015 	stw	ra,0(sp)
   419e4:	00419080 	call	41908 <_ZN10__cxxabiv111__terminateEPFvvE>

000419e8 <_ZN10__cxxabiv112__unexpectedEPFvvE>:
   419e8:	deffff04 	addi	sp,sp,-4
   419ec:	dfc00015 	stw	ra,0(sp)
   419f0:	203ee83a 	callr	r4
   419f4:	00419d40 	call	419d4 <_ZSt9terminatev>

000419f8 <_ZSt10unexpectedv>:
   419f8:	00800174 	movhi	r2,5
   419fc:	111f0f17 	ldw	r4,31804(r2)
   41a00:	deffff04 	addi	sp,sp,-4
   41a04:	dfc00015 	stw	ra,0(sp)
   41a08:	00419e80 	call	419e8 <_ZN10__cxxabiv112__unexpectedEPFvvE>

00041a0c <_ZSt13set_terminatePFvvE>:
   41a0c:	20000526 	beq	r4,zero,41a24 <_ZSt13set_terminatePFvvE+0x18>
   41a10:	00c00174 	movhi	r3,5
   41a14:	00800174 	movhi	r2,5
   41a18:	109f1617 	ldw	r2,31832(r2)
   41a1c:	191f1615 	stw	r4,31832(r3)
   41a20:	f800283a 	ret
   41a24:	01000134 	movhi	r4,4
   41a28:	210c7304 	addi	r4,r4,12748
   41a2c:	003ff806 	br	41a10 <_ZSt13set_terminatePFvvE+0x4>

00041a30 <_ZSt13get_terminatev>:
   41a30:	00800174 	movhi	r2,5
   41a34:	109f1617 	ldw	r2,31832(r2)
   41a38:	f800283a 	ret

00041a3c <_ZSt14set_unexpectedPFvvE>:
   41a3c:	20000526 	beq	r4,zero,41a54 <_ZSt14set_unexpectedPFvvE+0x18>
   41a40:	00c00174 	movhi	r3,5
   41a44:	00800174 	movhi	r2,5
   41a48:	109f0f17 	ldw	r2,31804(r2)
   41a4c:	191f0f15 	stw	r4,31804(r3)
   41a50:	f800283a 	ret
   41a54:	01000134 	movhi	r4,4
   41a58:	21067504 	addi	r4,r4,6612
   41a5c:	003ff806 	br	41a40 <_ZSt14set_unexpectedPFvvE+0x4>

00041a60 <_ZSt14get_unexpectedv>:
   41a60:	00800174 	movhi	r2,5
   41a64:	109f0f17 	ldw	r2,31804(r2)
   41a68:	f800283a 	ret

00041a6c <_ZL23__gxx_exception_cleanup19_Unwind_Reason_CodeP17_Unwind_Exception>:
   41a6c:	defffe04 	addi	sp,sp,-8
   41a70:	dfc00115 	stw	ra,4(sp)
   41a74:	dc000015 	stw	r16,0(sp)
   41a78:	210000b0 	cmpltui	r4,r4,2
   41a7c:	20001326 	beq	r4,zero,41acc <_ZL23__gxx_exception_cleanup19_Unwind_Reason_CodeP17_Unwind_Exception+0x60>
   41a80:	28bff417 	ldw	r2,-48(r5)
   41a84:	10ffffc4 	addi	r3,r2,-1
   41a88:	28fff415 	stw	r3,-48(r5)
   41a8c:	10800058 	cmpnei	r2,r2,1
   41a90:	10000426 	beq	r2,zero,41aa4 <_ZL23__gxx_exception_cleanup19_Unwind_Reason_CodeP17_Unwind_Exception+0x38>
   41a94:	dfc00117 	ldw	ra,4(sp)
   41a98:	dc000017 	ldw	r16,0(sp)
   41a9c:	dec00204 	addi	sp,sp,8
   41aa0:	f800283a 	ret
   41aa4:	28bff617 	ldw	r2,-40(r5)
   41aa8:	2c000504 	addi	r16,r5,20
   41aac:	10000226 	beq	r2,zero,41ab8 <_ZL23__gxx_exception_cleanup19_Unwind_Reason_CodeP17_Unwind_Exception+0x4c>
   41ab0:	8009883a 	mov	r4,r16
   41ab4:	103ee83a 	callr	r2
   41ab8:	8009883a 	mov	r4,r16
   41abc:	dfc00117 	ldw	ra,4(sp)
   41ac0:	dc000017 	ldw	r16,0(sp)
   41ac4:	dec00204 	addi	sp,sp,8
   41ac8:	0041ef81 	jmpi	41ef8 <__cxa_free_exception>
   41acc:	293ff817 	ldw	r4,-32(r5)
   41ad0:	00419080 	call	41908 <_ZN10__cxxabiv111__terminateEPFvvE>

00041ad4 <__cxa_init_primary_exception>:
   41ad4:	defffe04 	addi	sp,sp,-8
   41ad8:	dfc00115 	stw	ra,4(sp)
   41adc:	dc000015 	stw	r16,0(sp)
   41ae0:	217ff015 	stw	r5,-64(r4)
   41ae4:	21bff115 	stw	r6,-60(r4)
   41ae8:	203fef15 	stw	zero,-68(r4)
   41aec:	2021883a 	mov	r16,r4
   41af0:	0041a600 	call	41a60 <_ZSt14get_unexpectedv>
   41af4:	80bff215 	stw	r2,-56(r16)
   41af8:	0041a300 	call	41a30 <_ZSt13get_terminatev>
   41afc:	0150caf4 	movhi	r5,17195
   41b00:	0111d3b4 	movhi	r4,18254
   41b04:	00c00134 	movhi	r3,4
   41b08:	294ac004 	addi	r5,r5,11008
   41b0c:	211550c4 	addi	r4,r4,21827
   41b10:	18c69b04 	addi	r3,r3,6764
   41b14:	80bff315 	stw	r2,-52(r16)
   41b18:	80bfef04 	addi	r2,r16,-68
   41b1c:	817ffb15 	stw	r5,-20(r16)
   41b20:	813ffc15 	stw	r4,-16(r16)
   41b24:	80fffd15 	stw	r3,-12(r16)
   41b28:	dfc00117 	ldw	ra,4(sp)
   41b2c:	dc000017 	ldw	r16,0(sp)
   41b30:	dec00204 	addi	sp,sp,8
   41b34:	f800283a 	ret

00041b38 <__cxa_throw>:
   41b38:	defffb04 	addi	sp,sp,-20
   41b3c:	dfc00415 	stw	ra,16(sp)
   41b40:	dcc00315 	stw	r19,12(sp)
   41b44:	dc800215 	stw	r18,8(sp)
   41b48:	dc400115 	stw	r17,4(sp)
   41b4c:	2825883a 	mov	r18,r5
   41b50:	3023883a 	mov	r17,r6
   41b54:	dc000015 	stw	r16,0(sp)
   41b58:	2021883a 	mov	r16,r4
   41b5c:	00422580 	call	42258 <__cxa_get_globals>
   41b60:	10c00117 	ldw	r3,4(r2)
   41b64:	84fffb04 	addi	r19,r16,-20
   41b68:	18c00044 	addi	r3,r3,1
   41b6c:	10c00115 	stw	r3,4(r2)
   41b70:	803fef15 	stw	zero,-68(r16)
   41b74:	84bff015 	stw	r18,-64(r16)
   41b78:	847ff115 	stw	r17,-60(r16)
   41b7c:	0041a600 	call	41a60 <_ZSt14get_unexpectedv>
   41b80:	80bff215 	stw	r2,-56(r16)
   41b84:	0041a300 	call	41a30 <_ZSt13get_terminatev>
   41b88:	0190caf4 	movhi	r6,17195
   41b8c:	0151d3b4 	movhi	r5,18254
   41b90:	00c00134 	movhi	r3,4
   41b94:	318ac004 	addi	r6,r6,11008
   41b98:	295550c4 	addi	r5,r5,21827
   41b9c:	18c69b04 	addi	r3,r3,6764
   41ba0:	80bff315 	stw	r2,-52(r16)
   41ba4:	00800044 	movi	r2,1
   41ba8:	81bffb15 	stw	r6,-20(r16)
   41bac:	817ffc15 	stw	r5,-16(r16)
   41bb0:	80fffd15 	stw	r3,-12(r16)
   41bb4:	9809883a 	mov	r4,r19
   41bb8:	80bfef15 	stw	r2,-68(r16)
   41bbc:	0042f3c0 	call	42f3c <_Unwind_SjLj_RaiseException>
   41bc0:	9809883a 	mov	r4,r19
   41bc4:	00420540 	call	42054 <__cxa_begin_catch>
   41bc8:	00419d40 	call	419d4 <_ZSt9terminatev>

00041bcc <__cxa_rethrow>:
   41bcc:	defffe04 	addi	sp,sp,-8
   41bd0:	dfc00115 	stw	ra,4(sp)
   41bd4:	dc000015 	stw	r16,0(sp)
   41bd8:	00422580 	call	42258 <__cxa_get_globals>
   41bdc:	10c00117 	ldw	r3,4(r2)
   41be0:	11000017 	ldw	r4,0(r2)
   41be4:	18c00044 	addi	r3,r3,1
   41be8:	10c00115 	stw	r3,4(r2)
   41bec:	20001126 	beq	r4,zero,41c34 <__cxa_rethrow+0x68>
   41bf0:	20c00b17 	ldw	r3,44(r4)
   41bf4:	21800c17 	ldw	r6,48(r4)
   41bf8:	016f3574 	movhi	r5,48341
   41bfc:	29754004 	addi	r5,r5,-11008
   41c00:	01ee2cb4 	movhi	r7,47282
   41c04:	39eaaf04 	addi	r7,r7,-21828
   41c08:	194b883a 	add	r5,r3,r5
   41c0c:	28c7803a 	cmpltu	r3,r5,r3
   41c10:	31cd883a 	add	r6,r6,r7
   41c14:	1987883a 	add	r3,r3,r6
   41c18:	18000726 	beq	r3,zero,41c38 <__cxa_rethrow+0x6c>
   41c1c:	10000015 	stw	zero,0(r2)
   41c20:	24000b04 	addi	r16,r4,44
   41c24:	8009883a 	mov	r4,r16
   41c28:	004308c0 	call	4308c <_Unwind_SjLj_Resume_or_Rethrow>
   41c2c:	8009883a 	mov	r4,r16
   41c30:	00420540 	call	42054 <__cxa_begin_catch>
   41c34:	00419d40 	call	419d4 <_ZSt9terminatev>
   41c38:	294000a8 	cmpgeui	r5,r5,2
   41c3c:	283ff71e 	bne	r5,zero,41c1c <__cxa_rethrow+0x50>
   41c40:	20800517 	ldw	r2,20(r4)
   41c44:	0085c83a 	sub	r2,zero,r2
   41c48:	20800515 	stw	r2,20(r4)
   41c4c:	003ff406 	br	41c20 <__cxa_rethrow+0x54>

00041c50 <_Znwj>:
   41c50:	defffe04 	addi	sp,sp,-8
   41c54:	dc000015 	stw	r16,0(sp)
   41c58:	dfc00115 	stw	ra,4(sp)
   41c5c:	2021883a 	mov	r16,r4
   41c60:	2000011e 	bne	r4,zero,41c68 <_Znwj+0x18>
   41c64:	04000044 	movi	r16,1
   41c68:	8009883a 	mov	r4,r16
   41c6c:	00431e40 	call	431e4 <malloc>
   41c70:	10000426 	beq	r2,zero,41c84 <_Znwj+0x34>
   41c74:	dfc00117 	ldw	ra,4(sp)
   41c78:	dc000017 	ldw	r16,0(sp)
   41c7c:	dec00204 	addi	sp,sp,8
   41c80:	f800283a 	ret
   41c84:	00422780 	call	42278 <_ZSt15get_new_handlerv>
   41c88:	10000226 	beq	r2,zero,41c94 <_Znwj+0x44>
   41c8c:	103ee83a 	callr	r2
   41c90:	003ff506 	br	41c68 <_Znwj+0x18>
   41c94:	01000104 	movi	r4,4
   41c98:	0041ea00 	call	41ea0 <__cxa_allocate_exception>
   41c9c:	1009883a 	mov	r4,r2
   41ca0:	00800174 	movhi	r2,5
   41ca4:	01800134 	movhi	r6,4
   41ca8:	01400174 	movhi	r5,5
   41cac:	10960f04 	addi	r2,r2,22588
   41cb0:	31873304 	addi	r6,r6,7372
   41cb4:	29560a04 	addi	r5,r5,22568
   41cb8:	20800015 	stw	r2,0(r4)
   41cbc:	0041b380 	call	41b38 <__cxa_throw>

00041cc0 <_ZNKSt9bad_alloc4whatEv>:
   41cc0:	00800174 	movhi	r2,5
   41cc4:	10960204 	addi	r2,r2,22536
   41cc8:	f800283a 	ret

00041ccc <_ZNSt9bad_allocD1Ev>:
   41ccc:	00800174 	movhi	r2,5
   41cd0:	10960f04 	addi	r2,r2,22588
   41cd4:	20800015 	stw	r2,0(r4)
   41cd8:	00421fc1 	jmpi	421fc <_ZNSt9exceptionD1Ev>

00041cdc <_ZNSt9bad_allocD0Ev>:
   41cdc:	defffe04 	addi	sp,sp,-8
   41ce0:	00800174 	movhi	r2,5
   41ce4:	dc000015 	stw	r16,0(sp)
   41ce8:	dfc00115 	stw	ra,4(sp)
   41cec:	10960f04 	addi	r2,r2,22588
   41cf0:	20800015 	stw	r2,0(r4)
   41cf4:	2021883a 	mov	r16,r4
   41cf8:	00421fc0 	call	421fc <_ZNSt9exceptionD1Ev>
   41cfc:	01400104 	movi	r5,4
   41d00:	8009883a 	mov	r4,r16
   41d04:	dfc00117 	ldw	ra,4(sp)
   41d08:	dc000017 	ldw	r16,0(sp)
   41d0c:	dec00204 	addi	sp,sp,8
   41d10:	0040c301 	jmpi	40c30 <_ZdlPvj>

00041d14 <_ZdlPv>:
   41d14:	00431f41 	jmpi	431f4 <free>

00041d18 <_ZN12_GLOBAL__N_14pool4freeEPv.constprop.0>:
   41d18:	014001b4 	movhi	r5,6
   41d1c:	29663a04 	addi	r5,r5,-26392
   41d20:	28c00117 	ldw	r3,4(r5)
   41d24:	223fff04 	addi	r8,r4,-4
   41d28:	18001a26 	beq	r3,zero,41d94 <_ZN12_GLOBAL__N_14pool4freeEPv.constprop.0+0x7c>
   41d2c:	227fff17 	ldw	r9,-4(r4)
   41d30:	424d883a 	add	r6,r8,r9
   41d34:	30c01736 	bltu	r6,r3,41d94 <_ZN12_GLOBAL__N_14pool4freeEPv.constprop.0+0x7c>
   41d38:	18800117 	ldw	r2,4(r3)
   41d3c:	19802326 	beq	r3,r6,41dcc <_ZN12_GLOBAL__N_14pool4freeEPv.constprop.0+0xb4>
   41d40:	01c001b4 	movhi	r7,6
   41d44:	39e63b04 	addi	r7,r7,-26388
   41d48:	10000726 	beq	r2,zero,41d68 <_ZN12_GLOBAL__N_14pool4freeEPv.constprop.0+0x50>
   41d4c:	3080062e 	bgeu	r6,r2,41d68 <_ZN12_GLOBAL__N_14pool4freeEPv.constprop.0+0x50>
   41d50:	11400117 	ldw	r5,4(r2)
   41d54:	19c00104 	addi	r7,r3,4
   41d58:	1007883a 	mov	r3,r2
   41d5c:	28001826 	beq	r5,zero,41dc0 <_ZN12_GLOBAL__N_14pool4freeEPv.constprop.0+0xa8>
   41d60:	2805883a 	mov	r2,r5
   41d64:	30bffa36 	bltu	r6,r2,41d50 <_ZN12_GLOBAL__N_14pool4freeEPv.constprop.0+0x38>
   41d68:	30801026 	beq	r6,r2,41dac <_ZN12_GLOBAL__N_14pool4freeEPv.constprop.0+0x94>
   41d6c:	38800017 	ldw	r2,0(r7)
   41d70:	10c00017 	ldw	r3,0(r2)
   41d74:	10cb883a 	add	r5,r2,r3
   41d78:	41400926 	beq	r8,r5,41da0 <_ZN12_GLOBAL__N_14pool4freeEPv.constprop.0+0x88>
   41d7c:	10800117 	ldw	r2,4(r2)
   41d80:	227fff15 	stw	r9,-4(r4)
   41d84:	20800015 	stw	r2,0(r4)
   41d88:	38800017 	ldw	r2,0(r7)
   41d8c:	12000115 	stw	r8,4(r2)
   41d90:	f800283a 	ret
   41d94:	20c00015 	stw	r3,0(r4)
   41d98:	2a000115 	stw	r8,4(r5)
   41d9c:	f800283a 	ret
   41da0:	1a53883a 	add	r9,r3,r9
   41da4:	12400015 	stw	r9,0(r2)
   41da8:	f800283a 	ret
   41dac:	31400017 	ldw	r5,0(r6)
   41db0:	30800117 	ldw	r2,4(r6)
   41db4:	4953883a 	add	r9,r9,r5
   41db8:	18800115 	stw	r2,4(r3)
   41dbc:	003feb06 	br	41d6c <_ZN12_GLOBAL__N_14pool4freeEPv.constprop.0+0x54>
   41dc0:	0005883a 	mov	r2,zero
   41dc4:	30bfe91e 	bne	r6,r2,41d6c <_ZN12_GLOBAL__N_14pool4freeEPv.constprop.0+0x54>
   41dc8:	003ff806 	br	41dac <_ZN12_GLOBAL__N_14pool4freeEPv.constprop.0+0x94>
   41dcc:	18c00017 	ldw	r3,0(r3)
   41dd0:	20800015 	stw	r2,0(r4)
   41dd4:	1a53883a 	add	r9,r3,r9
   41dd8:	227fff15 	stw	r9,-4(r4)
   41ddc:	2a000115 	stw	r8,4(r5)
   41de0:	f800283a 	ret

00041de4 <_ZN12_GLOBAL__N_14pool8allocateEj.constprop.0>:
   41de4:	21000104 	addi	r4,r4,4
   41de8:	20800228 	cmpgeui	r2,r4,8
   41dec:	1000011e 	bne	r2,zero,41df4 <_ZN12_GLOBAL__N_14pool8allocateEj.constprop.0+0x10>
   41df0:	01000204 	movi	r4,8
   41df4:	008001b4 	movhi	r2,6
   41df8:	10a63b17 	ldw	r2,-26388(r2)
   41dfc:	210000c4 	addi	r4,r4,3
   41e00:	017fff04 	movi	r5,-4
   41e04:	214a703a 	and	r5,r4,r5
   41e08:	10000f26 	beq	r2,zero,41e48 <_ZN12_GLOBAL__N_14pool8allocateEj.constprop.0+0x64>
   41e0c:	018001b4 	movhi	r6,6
   41e10:	31a63b04 	addi	r6,r6,-26388
   41e14:	00000206 	br	41e20 <_ZN12_GLOBAL__N_14pool8allocateEj.constprop.0+0x3c>
   41e18:	21800104 	addi	r6,r4,4
   41e1c:	10001326 	beq	r2,zero,41e6c <_ZN12_GLOBAL__N_14pool8allocateEj.constprop.0+0x88>
   41e20:	10c00017 	ldw	r3,0(r2)
   41e24:	1009883a 	mov	r4,r2
   41e28:	10800117 	ldw	r2,4(r2)
   41e2c:	197ffa36 	bltu	r3,r5,41e18 <_ZN12_GLOBAL__N_14pool8allocateEj.constprop.0+0x34>
   41e30:	1947c83a 	sub	r3,r3,r5
   41e34:	19c00228 	cmpgeui	r7,r3,8
   41e38:	3800041e 	bne	r7,zero,41e4c <_ZN12_GLOBAL__N_14pool8allocateEj.constprop.0+0x68>
   41e3c:	30800015 	stw	r2,0(r6)
   41e40:	20800104 	addi	r2,r4,4
   41e44:	f800283a 	ret
   41e48:	f800283a 	ret
   41e4c:	214f883a 	add	r7,r4,r5
   41e50:	38800115 	stw	r2,4(r7)
   41e54:	31000017 	ldw	r4,0(r6)
   41e58:	38c00015 	stw	r3,0(r7)
   41e5c:	21400015 	stw	r5,0(r4)
   41e60:	31c00015 	stw	r7,0(r6)
   41e64:	20800104 	addi	r2,r4,4
   41e68:	f800283a 	ret
   41e6c:	f800283a 	ret

00041e70 <_ZN9__gnu_cxx9__freeresEv>:
   41e70:	008001b4 	movhi	r2,6
   41e74:	11263c17 	ldw	r4,-26384(r2)
   41e78:	20000826 	beq	r4,zero,41e9c <_ZN9__gnu_cxx9__freeresEv+0x2c>
   41e7c:	deffff04 	addi	sp,sp,-4
   41e80:	dfc00015 	stw	ra,0(sp)
   41e84:	00431f40 	call	431f4 <free>
   41e88:	008001b4 	movhi	r2,6
   41e8c:	10263c15 	stw	zero,-26384(r2)
   41e90:	dfc00017 	ldw	ra,0(sp)
   41e94:	dec00104 	addi	sp,sp,4
   41e98:	f800283a 	ret
   41e9c:	f800283a 	ret

00041ea0 <__cxa_allocate_exception>:
   41ea0:	defffe04 	addi	sp,sp,-8
   41ea4:	dc000015 	stw	r16,0(sp)
   41ea8:	24001104 	addi	r16,r4,68
   41eac:	8009883a 	mov	r4,r16
   41eb0:	dfc00115 	stw	ra,4(sp)
   41eb4:	00431e40 	call	431e4 <malloc>
   41eb8:	1007883a 	mov	r3,r2
   41ebc:	10000926 	beq	r2,zero,41ee4 <__cxa_allocate_exception+0x44>
   41ec0:	01801104 	movi	r6,68
   41ec4:	000b883a 	mov	r5,zero
   41ec8:	1809883a 	mov	r4,r3
   41ecc:	00439e40 	call	439e4 <memset>
   41ed0:	10801104 	addi	r2,r2,68
   41ed4:	dfc00117 	ldw	ra,4(sp)
   41ed8:	dc000017 	ldw	r16,0(sp)
   41edc:	dec00204 	addi	sp,sp,8
   41ee0:	f800283a 	ret
   41ee4:	8009883a 	mov	r4,r16
   41ee8:	0041de40 	call	41de4 <_ZN12_GLOBAL__N_14pool8allocateEj.constprop.0>
   41eec:	1007883a 	mov	r3,r2
   41ef0:	103ff31e 	bne	r2,zero,41ec0 <__cxa_allocate_exception+0x20>
   41ef4:	00419d40 	call	419d4 <_ZSt9terminatev>

00041ef8 <__cxa_free_exception>:
   41ef8:	008001b4 	movhi	r2,6
   41efc:	10a63a04 	addi	r2,r2,-26392
   41f00:	10c00217 	ldw	r3,8(r2)
   41f04:	213fef04 	addi	r4,r4,-68
   41f08:	1900042e 	bgeu	r3,r4,41f1c <__cxa_free_exception+0x24>
   41f0c:	10800317 	ldw	r2,12(r2)
   41f10:	1887883a 	add	r3,r3,r2
   41f14:	20c0012e 	bgeu	r4,r3,41f1c <__cxa_free_exception+0x24>
   41f18:	0041d181 	jmpi	41d18 <_ZN12_GLOBAL__N_14pool4freeEPv.constprop.0>
   41f1c:	00431f41 	jmpi	431f4 <free>

00041f20 <__cxa_allocate_dependent_exception>:
   41f20:	deffff04 	addi	sp,sp,-4
   41f24:	01001004 	movi	r4,64
   41f28:	dfc00015 	stw	ra,0(sp)
   41f2c:	00431e40 	call	431e4 <malloc>
   41f30:	1009883a 	mov	r4,r2
   41f34:	10000626 	beq	r2,zero,41f50 <__cxa_allocate_dependent_exception+0x30>
   41f38:	01801004 	movi	r6,64
   41f3c:	000b883a 	mov	r5,zero
   41f40:	00439e40 	call	439e4 <memset>
   41f44:	dfc00017 	ldw	ra,0(sp)
   41f48:	dec00104 	addi	sp,sp,4
   41f4c:	f800283a 	ret
   41f50:	01001004 	movi	r4,64
   41f54:	0041de40 	call	41de4 <_ZN12_GLOBAL__N_14pool8allocateEj.constprop.0>
   41f58:	1009883a 	mov	r4,r2
   41f5c:	103ff61e 	bne	r2,zero,41f38 <__cxa_allocate_dependent_exception+0x18>
   41f60:	00419d40 	call	419d4 <_ZSt9terminatev>

00041f64 <__cxa_free_dependent_exception>:
   41f64:	00c001b4 	movhi	r3,6
   41f68:	18e63a04 	addi	r3,r3,-26392
   41f6c:	19400217 	ldw	r5,8(r3)
   41f70:	2005883a 	mov	r2,r4
   41f74:	2900042e 	bgeu	r5,r4,41f88 <__cxa_free_dependent_exception+0x24>
   41f78:	18c00317 	ldw	r3,12(r3)
   41f7c:	28cb883a 	add	r5,r5,r3
   41f80:	2140012e 	bgeu	r4,r5,41f88 <__cxa_free_dependent_exception+0x24>
   41f84:	0041d181 	jmpi	41d18 <_ZN12_GLOBAL__N_14pool4freeEPv.constprop.0>
   41f88:	1009883a 	mov	r4,r2
   41f8c:	00431f41 	jmpi	431f4 <free>

00041f90 <_GLOBAL__sub_I__ZN9__gnu_cxx9__freeresEv>:
   41f90:	defffd04 	addi	sp,sp,-12
   41f94:	dc000015 	stw	r16,0(sp)
   41f98:	040001b4 	movhi	r16,6
   41f9c:	dc400115 	stw	r17,4(sp)
   41fa0:	84263a04 	addi	r16,r16,-26392
   41fa4:	04424004 	movi	r17,2304
   41fa8:	01024004 	movi	r4,2304
   41fac:	dfc00215 	stw	ra,8(sp)
   41fb0:	84400315 	stw	r17,12(r16)
   41fb4:	00431e40 	call	431e4 <malloc>
   41fb8:	80800215 	stw	r2,8(r16)
   41fbc:	10000826 	beq	r2,zero,41fe0 <_GLOBAL__sub_I__ZN9__gnu_cxx9__freeresEv+0x50>
   41fc0:	80800115 	stw	r2,4(r16)
   41fc4:	14400015 	stw	r17,0(r2)
   41fc8:	10000115 	stw	zero,4(r2)
   41fcc:	dfc00217 	ldw	ra,8(sp)
   41fd0:	dc400117 	ldw	r17,4(sp)
   41fd4:	dc000017 	ldw	r16,0(sp)
   41fd8:	dec00304 	addi	sp,sp,12
   41fdc:	f800283a 	ret
   41fe0:	008001b4 	movhi	r2,6
   41fe4:	10263d15 	stw	zero,-26380(r2)
   41fe8:	008001b4 	movhi	r2,6
   41fec:	10263b15 	stw	zero,-26388(r2)
   41ff0:	003ff606 	br	41fcc <_GLOBAL__sub_I__ZN9__gnu_cxx9__freeresEv+0x3c>

00041ff4 <__cxa_call_terminate>:
   41ff4:	defffe04 	addi	sp,sp,-8
   41ff8:	dfc00115 	stw	ra,4(sp)
   41ffc:	dc000015 	stw	r16,0(sp)
   42000:	20000d26 	beq	r4,zero,42038 <__cxa_call_terminate+0x44>
   42004:	2021883a 	mov	r16,r4
   42008:	00420540 	call	42054 <__cxa_begin_catch>
   4200c:	80800017 	ldw	r2,0(r16)
   42010:	81000117 	ldw	r4,4(r16)
   42014:	00ef3574 	movhi	r3,48341
   42018:	18f54004 	addi	r3,r3,-11008
   4201c:	016e2cb4 	movhi	r5,47282
   42020:	296aaf04 	addi	r5,r5,-21828
   42024:	10c7883a 	add	r3,r2,r3
   42028:	1885803a 	cmpltu	r2,r3,r2
   4202c:	2149883a 	add	r4,r4,r5
   42030:	1105883a 	add	r2,r2,r4
   42034:	10000126 	beq	r2,zero,4203c <__cxa_call_terminate+0x48>
   42038:	00419d40 	call	419d4 <_ZSt9terminatev>
   4203c:	18c000a8 	cmpgeui	r3,r3,2
   42040:	183ffd1e 	bne	r3,zero,42038 <__cxa_call_terminate+0x44>
   42044:	813ff817 	ldw	r4,-32(r16)
   42048:	00419080 	call	41908 <_ZN10__cxxabiv111__terminateEPFvvE>

0004204c <__cxa_get_exception_ptr>:
   4204c:	20bfff17 	ldw	r2,-4(r4)
   42050:	f800283a 	ret

00042054 <__cxa_begin_catch>:
   42054:	defffe04 	addi	sp,sp,-8
   42058:	dc000015 	stw	r16,0(sp)
   4205c:	dfc00115 	stw	ra,4(sp)
   42060:	2021883a 	mov	r16,r4
   42064:	00422580 	call	42258 <__cxa_get_globals>
   42068:	80c00017 	ldw	r3,0(r16)
   4206c:	81800117 	ldw	r6,4(r16)
   42070:	012f3574 	movhi	r4,48341
   42074:	21354004 	addi	r4,r4,-11008
   42078:	016e2cb4 	movhi	r5,47282
   4207c:	296aaf04 	addi	r5,r5,-21828
   42080:	1909883a 	add	r4,r3,r4
   42084:	314d883a 	add	r6,r6,r5
   42088:	20c7803a 	cmpltu	r3,r4,r3
   4208c:	1987883a 	add	r3,r3,r6
   42090:	100b883a 	mov	r5,r2
   42094:	81bff504 	addi	r6,r16,-44
   42098:	10800017 	ldw	r2,0(r2)
   4209c:	18000626 	beq	r3,zero,420b8 <__cxa_begin_catch+0x64>
   420a0:	1000191e 	bne	r2,zero,42108 <__cxa_begin_catch+0xb4>
   420a4:	29800015 	stw	r6,0(r5)
   420a8:	dfc00117 	ldw	ra,4(sp)
   420ac:	dc000017 	ldw	r16,0(sp)
   420b0:	dec00204 	addi	sp,sp,8
   420b4:	f800283a 	ret
   420b8:	210000a8 	cmpgeui	r4,r4,2
   420bc:	203ff81e 	bne	r4,zero,420a0 <__cxa_begin_catch+0x4c>
   420c0:	80fffa17 	ldw	r3,-24(r16)
   420c4:	18000d16 	blt	r3,zero,420fc <__cxa_begin_catch+0xa8>
   420c8:	18c00044 	addi	r3,r3,1
   420cc:	29000117 	ldw	r4,4(r5)
   420d0:	80fffa15 	stw	r3,-24(r16)
   420d4:	20ffffc4 	addi	r3,r4,-1
   420d8:	28c00115 	stw	r3,4(r5)
   420dc:	11800226 	beq	r2,r6,420e8 <__cxa_begin_catch+0x94>
   420e0:	80bff915 	stw	r2,-28(r16)
   420e4:	29800015 	stw	r6,0(r5)
   420e8:	80bfff17 	ldw	r2,-4(r16)
   420ec:	dfc00117 	ldw	ra,4(sp)
   420f0:	dc000017 	ldw	r16,0(sp)
   420f4:	dec00204 	addi	sp,sp,8
   420f8:	f800283a 	ret
   420fc:	01000044 	movi	r4,1
   42100:	20c7c83a 	sub	r3,r4,r3
   42104:	003ff106 	br	420cc <__cxa_begin_catch+0x78>
   42108:	00419d40 	call	419d4 <_ZSt9terminatev>

0004210c <__cxa_end_catch>:
   4210c:	deffff04 	addi	sp,sp,-4
   42110:	dfc00015 	stw	ra,0(sp)
   42114:	004224c0 	call	4224c <__cxa_get_globals_fast>
   42118:	11000017 	ldw	r4,0(r2)
   4211c:	20001426 	beq	r4,zero,42170 <__cxa_end_catch+0x64>
   42120:	20c00b17 	ldw	r3,44(r4)
   42124:	21800c17 	ldw	r6,48(r4)
   42128:	016f3574 	movhi	r5,48341
   4212c:	29754004 	addi	r5,r5,-11008
   42130:	01ee2cb4 	movhi	r7,47282
   42134:	39eaaf04 	addi	r7,r7,-21828
   42138:	194b883a 	add	r5,r3,r5
   4213c:	28c7803a 	cmpltu	r3,r5,r3
   42140:	31cd883a 	add	r6,r6,r7
   42144:	1987883a 	add	r3,r3,r6
   42148:	1800111e 	bne	r3,zero,42190 <__cxa_end_catch+0x84>
   4214c:	294000a8 	cmpgeui	r5,r5,2
   42150:	28000f1e 	bne	r5,zero,42190 <__cxa_end_catch+0x84>
   42154:	20c00517 	ldw	r3,20(r4)
   42158:	18000816 	blt	r3,zero,4217c <__cxa_end_catch+0x70>
   4215c:	18ffffc4 	addi	r3,r3,-1
   42160:	18001026 	beq	r3,zero,421a4 <__cxa_end_catch+0x98>
   42164:	18bfffd8 	cmpnei	r2,r3,-1
   42168:	10001426 	beq	r2,zero,421bc <__cxa_end_catch+0xb0>
   4216c:	20c00515 	stw	r3,20(r4)
   42170:	dfc00017 	ldw	ra,0(sp)
   42174:	dec00104 	addi	sp,sp,4
   42178:	f800283a 	ret
   4217c:	18c00044 	addi	r3,r3,1
   42180:	183ffa1e 	bne	r3,zero,4216c <__cxa_end_catch+0x60>
   42184:	21400417 	ldw	r5,16(r4)
   42188:	11400015 	stw	r5,0(r2)
   4218c:	003ff706 	br	4216c <__cxa_end_catch+0x60>
   42190:	21000b04 	addi	r4,r4,44
   42194:	10000015 	stw	zero,0(r2)
   42198:	dfc00017 	ldw	ra,0(sp)
   4219c:	dec00104 	addi	sp,sp,4
   421a0:	00430d81 	jmpi	430d8 <_Unwind_DeleteException>
   421a4:	20c00417 	ldw	r3,16(r4)
   421a8:	21000b04 	addi	r4,r4,44
   421ac:	10c00015 	stw	r3,0(r2)
   421b0:	dfc00017 	ldw	ra,0(sp)
   421b4:	dec00104 	addi	sp,sp,4
   421b8:	00430d81 	jmpi	430d8 <_Unwind_DeleteException>
   421bc:	00419d40 	call	419d4 <_ZSt9terminatev>

000421c0 <_ZSt18uncaught_exceptionv>:
   421c0:	deffff04 	addi	sp,sp,-4
   421c4:	dfc00015 	stw	ra,0(sp)
   421c8:	00422580 	call	42258 <__cxa_get_globals>
   421cc:	10800117 	ldw	r2,4(r2)
   421d0:	1004c03a 	cmpne	r2,r2,zero
   421d4:	dfc00017 	ldw	ra,0(sp)
   421d8:	dec00104 	addi	sp,sp,4
   421dc:	f800283a 	ret

000421e0 <_ZSt19uncaught_exceptionsv>:
   421e0:	deffff04 	addi	sp,sp,-4
   421e4:	dfc00015 	stw	ra,0(sp)
   421e8:	00422580 	call	42258 <__cxa_get_globals>
   421ec:	10800117 	ldw	r2,4(r2)
   421f0:	dfc00017 	ldw	ra,0(sp)
   421f4:	dec00104 	addi	sp,sp,4
   421f8:	f800283a 	ret

000421fc <_ZNSt9exceptionD1Ev>:
   421fc:	f800283a 	ret

00042200 <_ZNSt13bad_exceptionD1Ev>:
   42200:	f800283a 	ret

00042204 <_ZGTtNKSt9exception4whatEv>:
   42204:	00800174 	movhi	r2,5
   42208:	10961204 	addi	r2,r2,22600
   4220c:	f800283a 	ret

00042210 <_ZGTtNKSt13bad_exception4whatEv>:
   42210:	00800174 	movhi	r2,5
   42214:	10961604 	addi	r2,r2,22616
   42218:	f800283a 	ret

0004221c <_ZNSt9exceptionD0Ev>:
   4221c:	01400104 	movi	r5,4
   42220:	0040c301 	jmpi	40c30 <_ZdlPvj>

00042224 <_ZNSt13bad_exceptionD0Ev>:
   42224:	01400104 	movi	r5,4
   42228:	0040c301 	jmpi	40c30 <_ZdlPvj>

0004222c <_ZN10__cxxabiv115__forced_unwindD1Ev>:
   4222c:	f800283a 	ret

00042230 <_ZN10__cxxabiv115__forced_unwindD0Ev>:
   42230:	01400104 	movi	r5,4
   42234:	0040c301 	jmpi	40c30 <_ZdlPvj>

00042238 <_ZN10__cxxabiv119__foreign_exceptionD1Ev>:
   42238:	f800283a 	ret

0004223c <_ZN10__cxxabiv119__foreign_exceptionD0Ev>:
   4223c:	01400104 	movi	r5,4
   42240:	0040c301 	jmpi	40c30 <_ZdlPvj>

00042244 <_ZGTtNKSt9exceptionD1Ev>:
   42244:	f800283a 	ret

00042248 <_ZGTtNKSt13bad_exceptionD1Ev>:
   42248:	f800283a 	ret

0004224c <__cxa_get_globals_fast>:
   4224c:	008001b4 	movhi	r2,6
   42250:	10a62a04 	addi	r2,r2,-26456
   42254:	f800283a 	ret

00042258 <__cxa_get_globals>:
   42258:	008001b4 	movhi	r2,6
   4225c:	10a62a04 	addi	r2,r2,-26456
   42260:	f800283a 	ret

00042264 <_ZSt15set_new_handlerPFvvE>:
   42264:	00c001b4 	movhi	r3,6
   42268:	008001b4 	movhi	r2,6
   4226c:	10a62c17 	ldw	r2,-26448(r2)
   42270:	19262c15 	stw	r4,-26448(r3)
   42274:	f800283a 	ret

00042278 <_ZSt15get_new_handlerv>:
   42278:	008001b4 	movhi	r2,6
   4227c:	10a62c17 	ldw	r2,-26448(r2)
   42280:	f800283a 	ret

00042284 <__cxa_pure_virtual>:
   42284:	deffff04 	addi	sp,sp,-4
   42288:	dfc00015 	stw	ra,0(sp)
   4228c:	00419d40 	call	419d4 <_ZSt9terminatev>

00042290 <__cxa_deleted_virtual>:
   42290:	deffff04 	addi	sp,sp,-4
   42294:	dfc00015 	stw	ra,0(sp)
   42298:	00419d40 	call	419d4 <_ZSt9terminatev>

0004229c <_ZN10__cxxabiv120__si_class_type_infoD1Ev>:
   4229c:	00800174 	movhi	r2,5
   422a0:	10965b04 	addi	r2,r2,22892
   422a4:	20800015 	stw	r2,0(r4)
   422a8:	00426541 	jmpi	42654 <_ZN10__cxxabiv117__class_type_infoD1Ev>

000422ac <_ZN10__cxxabiv120__si_class_type_infoD0Ev>:
   422ac:	defffe04 	addi	sp,sp,-8
   422b0:	00800174 	movhi	r2,5
   422b4:	dc000015 	stw	r16,0(sp)
   422b8:	dfc00115 	stw	ra,4(sp)
   422bc:	10965b04 	addi	r2,r2,22892
   422c0:	20800015 	stw	r2,0(r4)
   422c4:	2021883a 	mov	r16,r4
   422c8:	00426540 	call	42654 <_ZN10__cxxabiv117__class_type_infoD1Ev>
   422cc:	01400304 	movi	r5,12
   422d0:	8009883a 	mov	r4,r16
   422d4:	dfc00117 	ldw	ra,4(sp)
   422d8:	dc000017 	ldw	r16,0(sp)
   422dc:	dec00204 	addi	sp,sp,8
   422e0:	0040c301 	jmpi	40c30 <_ZdlPvj>

000422e4 <_ZNK10__cxxabiv120__si_class_type_info20__do_find_public_srcEiPKvPKNS_17__class_type_infoES2_>:
   422e4:	defffa04 	addi	sp,sp,-24
   422e8:	dc800415 	stw	r18,16(sp)
   422ec:	dc800617 	ldw	r18,24(sp)
   422f0:	dc400315 	stw	r17,12(sp)
   422f4:	dc000215 	stw	r16,8(sp)
   422f8:	dfc00515 	stw	ra,20(sp)
   422fc:	2021883a 	mov	r16,r4
   42300:	2823883a 	mov	r17,r5
   42304:	91800b26 	beq	r18,r6,42334 <_ZNK10__cxxabiv120__si_class_type_info20__do_find_public_srcEiPKvPKNS_17__class_type_infoES2_+0x50>
   42308:	81000217 	ldw	r4,8(r16)
   4230c:	880b883a 	mov	r5,r17
   42310:	20800017 	ldw	r2,0(r4)
   42314:	dc800615 	stw	r18,24(sp)
   42318:	10800817 	ldw	r2,32(r2)
   4231c:	dfc00517 	ldw	ra,20(sp)
   42320:	dc800417 	ldw	r18,16(sp)
   42324:	dc400317 	ldw	r17,12(sp)
   42328:	dc000217 	ldw	r16,8(sp)
   4232c:	dec00604 	addi	sp,sp,24
   42330:	1000683a 	jmp	r2
   42334:	21000117 	ldw	r4,4(r4)
   42338:	39400117 	ldw	r5,4(r7)
   4233c:	21400926 	beq	r4,r5,42364 <_ZNK10__cxxabiv120__si_class_type_info20__do_find_public_srcEiPKvPKNS_17__class_type_infoES2_+0x80>
   42340:	20800007 	ldb	r2,0(r4)
   42344:	10800aa0 	cmpeqi	r2,r2,42
   42348:	103fef1e 	bne	r2,zero,42308 <_ZNK10__cxxabiv120__si_class_type_info20__do_find_public_srcEiPKvPKNS_17__class_type_infoES2_+0x24>
   4234c:	d9c00115 	stw	r7,4(sp)
   42350:	d9800015 	stw	r6,0(sp)
   42354:	00441180 	call	44118 <strcmp>
   42358:	d9800017 	ldw	r6,0(sp)
   4235c:	d9c00117 	ldw	r7,4(sp)
   42360:	103fe91e 	bne	r2,zero,42308 <_ZNK10__cxxabiv120__si_class_type_info20__do_find_public_srcEiPKvPKNS_17__class_type_infoES2_+0x24>
   42364:	00800184 	movi	r2,6
   42368:	dfc00517 	ldw	ra,20(sp)
   4236c:	dc800417 	ldw	r18,16(sp)
   42370:	dc400317 	ldw	r17,12(sp)
   42374:	dc000217 	ldw	r16,8(sp)
   42378:	dec00604 	addi	sp,sp,24
   4237c:	f800283a 	ret

00042380 <_ZNK10__cxxabiv120__si_class_type_info12__do_dyncastEiNS_17__class_type_info10__sub_kindEPKS1_PKvS4_S6_RNS1_16__dyncast_resultE>:
   42380:	defff504 	addi	sp,sp,-44
   42384:	dcc00415 	stw	r19,16(sp)
   42388:	38800117 	ldw	r2,4(r7)
   4238c:	24c00117 	ldw	r19,4(r4)
   42390:	df000915 	stw	fp,36(sp)
   42394:	ddc00815 	stw	r23,32(sp)
   42398:	dd800715 	stw	r22,28(sp)
   4239c:	dd400615 	stw	r21,24(sp)
   423a0:	dc000115 	stw	r16,4(sp)
   423a4:	dfc00a15 	stw	ra,40(sp)
   423a8:	dd000515 	stw	r20,20(sp)
   423ac:	dc800315 	stw	r18,12(sp)
   423b0:	dc400215 	stw	r17,8(sp)
   423b4:	dd800b17 	ldw	r22,44(sp)
   423b8:	df000c17 	ldw	fp,48(sp)
   423bc:	ddc00d17 	ldw	r23,52(sp)
   423c0:	dd400e17 	ldw	r21,56(sp)
   423c4:	2821883a 	mov	r16,r5
   423c8:	98802126 	beq	r19,r2,42450 <_ZNK10__cxxabiv120__si_class_type_info12__do_dyncastEiNS_17__class_type_info10__sub_kindEPKS1_PKvS4_S6_RNS1_16__dyncast_resultE+0xd0>
   423cc:	9d000007 	ldb	r20,0(r19)
   423d0:	2025883a 	mov	r18,r4
   423d4:	3823883a 	mov	r17,r7
   423d8:	a0c00aa0 	cmpeqi	r3,r20,42
   423dc:	1800061e 	bne	r3,zero,423f8 <_ZNK10__cxxabiv120__si_class_type_info12__do_dyncastEiNS_17__class_type_info10__sub_kindEPKS1_PKvS4_S6_RNS1_16__dyncast_resultE+0x78>
   423e0:	100b883a 	mov	r5,r2
   423e4:	9809883a 	mov	r4,r19
   423e8:	d9800015 	stw	r6,0(sp)
   423ec:	00441180 	call	44118 <strcmp>
   423f0:	d9800017 	ldw	r6,0(sp)
   423f4:	10001626 	beq	r2,zero,42450 <_ZNK10__cxxabiv120__si_class_type_info12__do_dyncastEiNS_17__class_type_info10__sub_kindEPKS1_PKvS4_S6_RNS1_16__dyncast_resultE+0xd0>
   423f8:	b5c02c26 	beq	r22,r23,424ac <_ZNK10__cxxabiv120__si_class_type_info12__do_dyncastEiNS_17__class_type_info10__sub_kindEPKS1_PKvS4_S6_RNS1_16__dyncast_resultE+0x12c>
   423fc:	91000217 	ldw	r4,8(r18)
   42400:	880f883a 	mov	r7,r17
   42404:	800b883a 	mov	r5,r16
   42408:	20800017 	ldw	r2,0(r4)
   4240c:	dd400e15 	stw	r21,56(sp)
   42410:	ddc00d15 	stw	r23,52(sp)
   42414:	df000c15 	stw	fp,48(sp)
   42418:	dd800b15 	stw	r22,44(sp)
   4241c:	10800717 	ldw	r2,28(r2)
   42420:	dfc00a17 	ldw	ra,40(sp)
   42424:	df000917 	ldw	fp,36(sp)
   42428:	ddc00817 	ldw	r23,32(sp)
   4242c:	dd800717 	ldw	r22,28(sp)
   42430:	dd400617 	ldw	r21,24(sp)
   42434:	dd000517 	ldw	r20,20(sp)
   42438:	dcc00417 	ldw	r19,16(sp)
   4243c:	dc800317 	ldw	r18,12(sp)
   42440:	dc400217 	ldw	r17,8(sp)
   42444:	dc000117 	ldw	r16,4(sp)
   42448:	dec00b04 	addi	sp,sp,44
   4244c:	1000683a 	jmp	r2
   42450:	ad800015 	stw	r22,0(r21)
   42454:	a9800115 	stw	r6,4(r21)
   42458:	80001116 	blt	r16,zero,424a0 <_ZNK10__cxxabiv120__si_class_type_info12__do_dyncastEiNS_17__class_type_info10__sub_kindEPKS1_PKvS4_S6_RNS1_16__dyncast_resultE+0x120>
   4245c:	b421883a 	add	r16,r22,r16
   42460:	bc001d26 	beq	r23,r16,424d8 <_ZNK10__cxxabiv120__si_class_type_info12__do_dyncastEiNS_17__class_type_info10__sub_kindEPKS1_PKvS4_S6_RNS1_16__dyncast_resultE+0x158>
   42464:	00800044 	movi	r2,1
   42468:	a8800315 	stw	r2,12(r21)
   4246c:	0005883a 	mov	r2,zero
   42470:	dfc00a17 	ldw	ra,40(sp)
   42474:	df000917 	ldw	fp,36(sp)
   42478:	ddc00817 	ldw	r23,32(sp)
   4247c:	dd800717 	ldw	r22,28(sp)
   42480:	dd400617 	ldw	r21,24(sp)
   42484:	dd000517 	ldw	r20,20(sp)
   42488:	dcc00417 	ldw	r19,16(sp)
   4248c:	dc800317 	ldw	r18,12(sp)
   42490:	dc400217 	ldw	r17,8(sp)
   42494:	dc000117 	ldw	r16,4(sp)
   42498:	dec00b04 	addi	sp,sp,44
   4249c:	f800283a 	ret
   424a0:	843fff98 	cmpnei	r16,r16,-2
   424a4:	803ff11e 	bne	r16,zero,4246c <_ZNK10__cxxabiv120__si_class_type_info12__do_dyncastEiNS_17__class_type_info10__sub_kindEPKS1_PKvS4_S6_RNS1_16__dyncast_resultE+0xec>
   424a8:	003fee06 	br	42464 <_ZNK10__cxxabiv120__si_class_type_info12__do_dyncastEiNS_17__class_type_info10__sub_kindEPKS1_PKvS4_S6_RNS1_16__dyncast_resultE+0xe4>
   424ac:	e1400117 	ldw	r5,4(fp)
   424b0:	99400726 	beq	r19,r5,424d0 <_ZNK10__cxxabiv120__si_class_type_info12__do_dyncastEiNS_17__class_type_info10__sub_kindEPKS1_PKvS4_S6_RNS1_16__dyncast_resultE+0x150>
   424b4:	a5000aa0 	cmpeqi	r20,r20,42
   424b8:	a03fd01e 	bne	r20,zero,423fc <_ZNK10__cxxabiv120__si_class_type_info12__do_dyncastEiNS_17__class_type_info10__sub_kindEPKS1_PKvS4_S6_RNS1_16__dyncast_resultE+0x7c>
   424bc:	9809883a 	mov	r4,r19
   424c0:	d9800015 	stw	r6,0(sp)
   424c4:	00441180 	call	44118 <strcmp>
   424c8:	d9800017 	ldw	r6,0(sp)
   424cc:	103fcb1e 	bne	r2,zero,423fc <_ZNK10__cxxabiv120__si_class_type_info12__do_dyncastEiNS_17__class_type_info10__sub_kindEPKS1_PKvS4_S6_RNS1_16__dyncast_resultE+0x7c>
   424d0:	a9800215 	stw	r6,8(r21)
   424d4:	003fe506 	br	4246c <_ZNK10__cxxabiv120__si_class_type_info12__do_dyncastEiNS_17__class_type_info10__sub_kindEPKS1_PKvS4_S6_RNS1_16__dyncast_resultE+0xec>
   424d8:	00800184 	movi	r2,6
   424dc:	003fe206 	br	42468 <_ZNK10__cxxabiv120__si_class_type_info12__do_dyncastEiNS_17__class_type_info10__sub_kindEPKS1_PKvS4_S6_RNS1_16__dyncast_resultE+0xe8>

000424e0 <_ZNK10__cxxabiv120__si_class_type_info11__do_upcastEPKNS_17__class_type_infoEPKvRNS1_15__upcast_resultE>:
   424e0:	defffb04 	addi	sp,sp,-20
   424e4:	dcc00315 	stw	r19,12(sp)
   424e8:	dc800215 	stw	r18,8(sp)
   424ec:	dc400115 	stw	r17,4(sp)
   424f0:	dc000015 	stw	r16,0(sp)
   424f4:	dfc00415 	stw	ra,16(sp)
   424f8:	2025883a 	mov	r18,r4
   424fc:	2827883a 	mov	r19,r5
   42500:	3021883a 	mov	r16,r6
   42504:	3823883a 	mov	r17,r7
   42508:	00427600 	call	42760 <_ZNK10__cxxabiv117__class_type_info11__do_upcastEPKS0_PKvRNS0_15__upcast_resultE>
   4250c:	10c03fcc 	andi	r3,r2,255
   42510:	18000d1e 	bne	r3,zero,42548 <_ZNK10__cxxabiv120__si_class_type_info11__do_upcastEPKNS_17__class_type_infoEPKvRNS1_15__upcast_resultE+0x68>
   42514:	91000217 	ldw	r4,8(r18)
   42518:	880f883a 	mov	r7,r17
   4251c:	800d883a 	mov	r6,r16
   42520:	20800017 	ldw	r2,0(r4)
   42524:	980b883a 	mov	r5,r19
   42528:	10800617 	ldw	r2,24(r2)
   4252c:	dfc00417 	ldw	ra,16(sp)
   42530:	dcc00317 	ldw	r19,12(sp)
   42534:	dc800217 	ldw	r18,8(sp)
   42538:	dc400117 	ldw	r17,4(sp)
   4253c:	dc000017 	ldw	r16,0(sp)
   42540:	dec00504 	addi	sp,sp,20
   42544:	1000683a 	jmp	r2
   42548:	dfc00417 	ldw	ra,16(sp)
   4254c:	dcc00317 	ldw	r19,12(sp)
   42550:	dc800217 	ldw	r18,8(sp)
   42554:	dc400117 	ldw	r17,4(sp)
   42558:	dc000017 	ldw	r16,0(sp)
   4255c:	dec00504 	addi	sp,sp,20
   42560:	f800283a 	ret

00042564 <_ZNSt9type_infoD1Ev>:
   42564:	f800283a 	ret

00042568 <_ZNKSt9type_info14__is_pointer_pEv>:
   42568:	0005883a 	mov	r2,zero
   4256c:	f800283a 	ret

00042570 <_ZNKSt9type_info11__do_upcastEPKN10__cxxabiv117__class_type_infoEPPv>:
   42570:	0005883a 	mov	r2,zero
   42574:	f800283a 	ret

00042578 <_ZNSt9type_infoD0Ev>:
   42578:	01400204 	movi	r5,8
   4257c:	0040c301 	jmpi	40c30 <_ZdlPvj>

00042580 <_ZNKSt9type_info10__do_catchEPKS_PPvj>:
   42580:	21000117 	ldw	r4,4(r4)
   42584:	29400117 	ldw	r5,4(r5)
   42588:	21400c26 	beq	r4,r5,425bc <_ZNKSt9type_info10__do_catchEPKS_PPvj+0x3c>
   4258c:	20800007 	ldb	r2,0(r4)
   42590:	10800aa0 	cmpeqi	r2,r2,42
   42594:	1000071e 	bne	r2,zero,425b4 <_ZNKSt9type_info10__do_catchEPKS_PPvj+0x34>
   42598:	deffff04 	addi	sp,sp,-4
   4259c:	dfc00015 	stw	ra,0(sp)
   425a0:	00441180 	call	44118 <strcmp>
   425a4:	1005003a 	cmpeq	r2,r2,zero
   425a8:	dfc00017 	ldw	ra,0(sp)
   425ac:	dec00104 	addi	sp,sp,4
   425b0:	f800283a 	ret
   425b4:	0005883a 	mov	r2,zero
   425b8:	f800283a 	ret
   425bc:	00800044 	movi	r2,1
   425c0:	f800283a 	ret

000425c4 <_ZNK10__cxxabiv117__class_type_info11__do_upcastEPKS0_PPv>:
   425c4:	20800017 	ldw	r2,0(r4)
   425c8:	defffa04 	addi	sp,sp,-24
   425cc:	dc000415 	stw	r16,16(sp)
   425d0:	10800617 	ldw	r2,24(r2)
   425d4:	3021883a 	mov	r16,r6
   425d8:	31800017 	ldw	r6,0(r6)
   425dc:	00c00404 	movi	r3,16
   425e0:	dfc00515 	stw	ra,20(sp)
   425e4:	d8000015 	stw	zero,0(sp)
   425e8:	d8000115 	stw	zero,4(sp)
   425ec:	d8c00215 	stw	r3,8(sp)
   425f0:	d8000315 	stw	zero,12(sp)
   425f4:	d80f883a 	mov	r7,sp
   425f8:	103ee83a 	callr	r2
   425fc:	d8800117 	ldw	r2,4(sp)
   42600:	1080018c 	andi	r2,r2,6
   42604:	10800198 	cmpnei	r2,r2,6
   42608:	1000071e 	bne	r2,zero,42628 <_ZNK10__cxxabiv117__class_type_info11__do_upcastEPKS0_PPv+0x64>
   4260c:	d8c00017 	ldw	r3,0(sp)
   42610:	00800044 	movi	r2,1
   42614:	80c00015 	stw	r3,0(r16)
   42618:	dfc00517 	ldw	ra,20(sp)
   4261c:	dc000417 	ldw	r16,16(sp)
   42620:	dec00604 	addi	sp,sp,24
   42624:	f800283a 	ret
   42628:	0005883a 	mov	r2,zero
   4262c:	dfc00517 	ldw	ra,20(sp)
   42630:	dc000417 	ldw	r16,16(sp)
   42634:	dec00604 	addi	sp,sp,24
   42638:	f800283a 	ret

0004263c <_ZNK10__cxxabiv117__class_type_info20__do_find_public_srcEiPKvPKS0_S2_>:
   4263c:	d8c00017 	ldw	r3,0(sp)
   42640:	00800044 	movi	r2,1
   42644:	19800126 	beq	r3,r6,4264c <_ZNK10__cxxabiv117__class_type_info20__do_find_public_srcEiPKvPKS0_S2_+0x10>
   42648:	f800283a 	ret
   4264c:	00800184 	movi	r2,6
   42650:	f800283a 	ret

00042654 <_ZN10__cxxabiv117__class_type_infoD1Ev>:
   42654:	00800174 	movhi	r2,5
   42658:	10967e04 	addi	r2,r2,23032
   4265c:	20800015 	stw	r2,0(r4)
   42660:	00425641 	jmpi	42564 <_ZNSt9type_infoD1Ev>

00042664 <_ZN10__cxxabiv117__class_type_infoD0Ev>:
   42664:	defffe04 	addi	sp,sp,-8
   42668:	00800174 	movhi	r2,5
   4266c:	dc000015 	stw	r16,0(sp)
   42670:	dfc00115 	stw	ra,4(sp)
   42674:	10967e04 	addi	r2,r2,23032
   42678:	20800015 	stw	r2,0(r4)
   4267c:	2021883a 	mov	r16,r4
   42680:	00425640 	call	42564 <_ZNSt9type_infoD1Ev>
   42684:	01400204 	movi	r5,8
   42688:	8009883a 	mov	r4,r16
   4268c:	dfc00117 	ldw	ra,4(sp)
   42690:	dc000017 	ldw	r16,0(sp)
   42694:	dec00204 	addi	sp,sp,8
   42698:	0040c301 	jmpi	40c30 <_ZdlPvj>

0004269c <_ZNK10__cxxabiv117__class_type_info12__do_dyncastEiNS0_10__sub_kindEPKS0_PKvS3_S5_RNS0_16__dyncast_resultE>:
   4269c:	defffa04 	addi	sp,sp,-24
   426a0:	dc800415 	stw	r18,16(sp)
   426a4:	d8800817 	ldw	r2,32(sp)
   426a8:	dc800617 	ldw	r18,24(sp)
   426ac:	dc400315 	stw	r17,12(sp)
   426b0:	dc000215 	stw	r16,8(sp)
   426b4:	dfc00515 	stw	ra,20(sp)
   426b8:	dc400917 	ldw	r17,36(sp)
   426bc:	21000117 	ldw	r4,4(r4)
   426c0:	3021883a 	mov	r16,r6
   426c4:	90801226 	beq	r18,r2,42710 <_ZNK10__cxxabiv117__class_type_info12__do_dyncastEiNS0_10__sub_kindEPKS0_PKvS3_S5_RNS0_16__dyncast_resultE+0x74>
   426c8:	39400117 	ldw	r5,4(r7)
   426cc:	29000526 	beq	r5,r4,426e4 <_ZNK10__cxxabiv117__class_type_info12__do_dyncastEiNS0_10__sub_kindEPKS0_PKvS3_S5_RNS0_16__dyncast_resultE+0x48>
   426d0:	20800007 	ldb	r2,0(r4)
   426d4:	10800aa0 	cmpeqi	r2,r2,42
   426d8:	1000061e 	bne	r2,zero,426f4 <_ZNK10__cxxabiv117__class_type_info12__do_dyncastEiNS0_10__sub_kindEPKS0_PKvS3_S5_RNS0_16__dyncast_resultE+0x58>
   426dc:	00441180 	call	44118 <strcmp>
   426e0:	1000041e 	bne	r2,zero,426f4 <_ZNK10__cxxabiv117__class_type_info12__do_dyncastEiNS0_10__sub_kindEPKS0_PKvS3_S5_RNS0_16__dyncast_resultE+0x58>
   426e4:	00800044 	movi	r2,1
   426e8:	8c800015 	stw	r18,0(r17)
   426ec:	8c000115 	stw	r16,4(r17)
   426f0:	88800315 	stw	r2,12(r17)
   426f4:	0005883a 	mov	r2,zero
   426f8:	dfc00517 	ldw	ra,20(sp)
   426fc:	dc800417 	ldw	r18,16(sp)
   42700:	dc400317 	ldw	r17,12(sp)
   42704:	dc000217 	ldw	r16,8(sp)
   42708:	dec00604 	addi	sp,sp,24
   4270c:	f800283a 	ret
   42710:	d8800717 	ldw	r2,28(sp)
   42714:	11400117 	ldw	r5,4(r2)
   42718:	29000f26 	beq	r5,r4,42758 <_ZNK10__cxxabiv117__class_type_info12__do_dyncastEiNS0_10__sub_kindEPKS0_PKvS3_S5_RNS0_16__dyncast_resultE+0xbc>
   4271c:	20800007 	ldb	r2,0(r4)
   42720:	10800aa0 	cmpeqi	r2,r2,42
   42724:	1000091e 	bne	r2,zero,4274c <_ZNK10__cxxabiv117__class_type_info12__do_dyncastEiNS0_10__sub_kindEPKS0_PKvS3_S5_RNS0_16__dyncast_resultE+0xb0>
   42728:	d9c00115 	stw	r7,4(sp)
   4272c:	d9000015 	stw	r4,0(sp)
   42730:	00441180 	call	44118 <strcmp>
   42734:	10000826 	beq	r2,zero,42758 <_ZNK10__cxxabiv117__class_type_info12__do_dyncastEiNS0_10__sub_kindEPKS0_PKvS3_S5_RNS0_16__dyncast_resultE+0xbc>
   42738:	d9c00117 	ldw	r7,4(sp)
   4273c:	d9000017 	ldw	r4,0(sp)
   42740:	39400117 	ldw	r5,4(r7)
   42744:	217fe51e 	bne	r4,r5,426dc <_ZNK10__cxxabiv117__class_type_info12__do_dyncastEiNS0_10__sub_kindEPKS0_PKvS3_S5_RNS0_16__dyncast_resultE+0x40>
   42748:	003fe606 	br	426e4 <_ZNK10__cxxabiv117__class_type_info12__do_dyncastEiNS0_10__sub_kindEPKS0_PKvS3_S5_RNS0_16__dyncast_resultE+0x48>
   4274c:	38800117 	ldw	r2,4(r7)
   42750:	113fe81e 	bne	r2,r4,426f4 <_ZNK10__cxxabiv117__class_type_info12__do_dyncastEiNS0_10__sub_kindEPKS0_PKvS3_S5_RNS0_16__dyncast_resultE+0x58>
   42754:	003fe306 	br	426e4 <_ZNK10__cxxabiv117__class_type_info12__do_dyncastEiNS0_10__sub_kindEPKS0_PKvS3_S5_RNS0_16__dyncast_resultE+0x48>
   42758:	8c000215 	stw	r16,8(r17)
   4275c:	003fe506 	br	426f4 <_ZNK10__cxxabiv117__class_type_info12__do_dyncastEiNS0_10__sub_kindEPKS0_PKvS3_S5_RNS0_16__dyncast_resultE+0x58>

00042760 <_ZNK10__cxxabiv117__class_type_info11__do_upcastEPKS0_PKvRNS0_15__upcast_resultE>:
   42760:	21000117 	ldw	r4,4(r4)
   42764:	29400117 	ldw	r5,4(r5)
   42768:	defffd04 	addi	sp,sp,-12
   4276c:	dc400115 	stw	r17,4(sp)
   42770:	dc000015 	stw	r16,0(sp)
   42774:	dfc00215 	stw	ra,8(sp)
   42778:	3023883a 	mov	r17,r6
   4277c:	3821883a 	mov	r16,r7
   42780:	21400726 	beq	r4,r5,427a0 <_ZNK10__cxxabiv117__class_type_info11__do_upcastEPKS0_PKvRNS0_15__upcast_resultE+0x40>
   42784:	20800007 	ldb	r2,0(r4)
   42788:	10800aa0 	cmpeqi	r2,r2,42
   4278c:	1000021e 	bne	r2,zero,42798 <_ZNK10__cxxabiv117__class_type_info11__do_upcastEPKS0_PKvRNS0_15__upcast_resultE+0x38>
   42790:	00441180 	call	44118 <strcmp>
   42794:	10000226 	beq	r2,zero,427a0 <_ZNK10__cxxabiv117__class_type_info11__do_upcastEPKS0_PKvRNS0_15__upcast_resultE+0x40>
   42798:	0005883a 	mov	r2,zero
   4279c:	00000606 	br	427b8 <_ZNK10__cxxabiv117__class_type_info11__do_upcastEPKS0_PKvRNS0_15__upcast_resultE+0x58>
   427a0:	00800204 	movi	r2,8
   427a4:	80800315 	stw	r2,12(r16)
   427a8:	00800184 	movi	r2,6
   427ac:	80800115 	stw	r2,4(r16)
   427b0:	84400015 	stw	r17,0(r16)
   427b4:	00800044 	movi	r2,1
   427b8:	dfc00217 	ldw	ra,8(sp)
   427bc:	dc400117 	ldw	r17,4(sp)
   427c0:	dc000017 	ldw	r16,0(sp)
   427c4:	dec00304 	addi	sp,sp,12
   427c8:	f800283a 	ret

000427cc <_ZNK10__cxxabiv117__class_type_info10__do_catchEPKSt9type_infoPPvj>:
   427cc:	defffb04 	addi	sp,sp,-20
   427d0:	dc800215 	stw	r18,8(sp)
   427d4:	dc000015 	stw	r16,0(sp)
   427d8:	2025883a 	mov	r18,r4
   427dc:	2821883a 	mov	r16,r5
   427e0:	21000117 	ldw	r4,4(r4)
   427e4:	29400117 	ldw	r5,4(r5)
   427e8:	dfc00415 	stw	ra,16(sp)
   427ec:	dcc00315 	stw	r19,12(sp)
   427f0:	dc400115 	stw	r17,4(sp)
   427f4:	21401526 	beq	r4,r5,4284c <_ZNK10__cxxabiv117__class_type_info10__do_catchEPKSt9type_infoPPvj+0x80>
   427f8:	20800007 	ldb	r2,0(r4)
   427fc:	3027883a 	mov	r19,r6
   42800:	3823883a 	mov	r17,r7
   42804:	10800aa0 	cmpeqi	r2,r2,42
   42808:	1000021e 	bne	r2,zero,42814 <_ZNK10__cxxabiv117__class_type_info10__do_catchEPKSt9type_infoPPvj+0x48>
   4280c:	00441180 	call	44118 <strcmp>
   42810:	10000e26 	beq	r2,zero,4284c <_ZNK10__cxxabiv117__class_type_info10__do_catchEPKSt9type_infoPPvj+0x80>
   42814:	89c00128 	cmpgeui	r7,r17,4
   42818:	3800141e 	bne	r7,zero,4286c <_ZNK10__cxxabiv117__class_type_info10__do_catchEPKSt9type_infoPPvj+0xa0>
   4281c:	80800017 	ldw	r2,0(r16)
   42820:	980d883a 	mov	r6,r19
   42824:	900b883a 	mov	r5,r18
   42828:	10800517 	ldw	r2,20(r2)
   4282c:	8009883a 	mov	r4,r16
   42830:	dfc00417 	ldw	ra,16(sp)
   42834:	dcc00317 	ldw	r19,12(sp)
   42838:	dc800217 	ldw	r18,8(sp)
   4283c:	dc400117 	ldw	r17,4(sp)
   42840:	dc000017 	ldw	r16,0(sp)
   42844:	dec00504 	addi	sp,sp,20
   42848:	1000683a 	jmp	r2
   4284c:	00800044 	movi	r2,1
   42850:	dfc00417 	ldw	ra,16(sp)
   42854:	dcc00317 	ldw	r19,12(sp)
   42858:	dc800217 	ldw	r18,8(sp)
   4285c:	dc400117 	ldw	r17,4(sp)
   42860:	dc000017 	ldw	r16,0(sp)
   42864:	dec00504 	addi	sp,sp,20
   42868:	f800283a 	ret
   4286c:	0005883a 	mov	r2,zero
   42870:	003ff706 	br	42850 <_ZNK10__cxxabiv117__class_type_info10__do_catchEPKSt9type_infoPPvj+0x84>

00042874 <__divsi3>:
   42874:	20001a16 	blt	r4,zero,428e0 <__divsi3+0x6c>
   42878:	000f883a 	mov	r7,zero
   4287c:	2800020e 	bge	r5,zero,42888 <__divsi3+0x14>
   42880:	014bc83a 	sub	r5,zero,r5
   42884:	39c0005c 	xori	r7,r7,1
   42888:	200d883a 	mov	r6,r4
   4288c:	00c00044 	movi	r3,1
   42890:	2900092e 	bgeu	r5,r4,428b8 <__divsi3+0x44>
   42894:	00800804 	movi	r2,32
   42898:	00c00044 	movi	r3,1
   4289c:	00000106 	br	428a4 <__divsi3+0x30>
   428a0:	10001226 	beq	r2,zero,428ec <__divsi3+0x78>
   428a4:	294b883a 	add	r5,r5,r5
   428a8:	10bfffc4 	addi	r2,r2,-1
   428ac:	18c7883a 	add	r3,r3,r3
   428b0:	293ffb36 	bltu	r5,r4,428a0 <__divsi3+0x2c>
   428b4:	18000d26 	beq	r3,zero,428ec <__divsi3+0x78>
   428b8:	0005883a 	mov	r2,zero
   428bc:	31400236 	bltu	r6,r5,428c8 <__divsi3+0x54>
   428c0:	314dc83a 	sub	r6,r6,r5
   428c4:	10c4b03a 	or	r2,r2,r3
   428c8:	1806d07a 	srli	r3,r3,1
   428cc:	280ad07a 	srli	r5,r5,1
   428d0:	183ffa1e 	bne	r3,zero,428bc <__divsi3+0x48>
   428d4:	38000126 	beq	r7,zero,428dc <__divsi3+0x68>
   428d8:	0085c83a 	sub	r2,zero,r2
   428dc:	f800283a 	ret
   428e0:	0109c83a 	sub	r4,zero,r4
   428e4:	01c00044 	movi	r7,1
   428e8:	003fe406 	br	4287c <__divsi3+0x8>
   428ec:	0005883a 	mov	r2,zero
   428f0:	003ff806 	br	428d4 <__divsi3+0x60>

000428f4 <__modsi3>:
   428f4:	20001916 	blt	r4,zero,4295c <__modsi3+0x68>
   428f8:	000f883a 	mov	r7,zero
   428fc:	2005883a 	mov	r2,r4
   42900:	2800010e 	bge	r5,zero,42908 <__modsi3+0x14>
   42904:	014bc83a 	sub	r5,zero,r5
   42908:	00c00044 	movi	r3,1
   4290c:	2900092e 	bgeu	r5,r4,42934 <__modsi3+0x40>
   42910:	01800804 	movi	r6,32
   42914:	00c00044 	movi	r3,1
   42918:	00000106 	br	42920 <__modsi3+0x2c>
   4291c:	30000d26 	beq	r6,zero,42954 <__modsi3+0x60>
   42920:	294b883a 	add	r5,r5,r5
   42924:	31bfffc4 	addi	r6,r6,-1
   42928:	18c7883a 	add	r3,r3,r3
   4292c:	293ffb36 	bltu	r5,r4,4291c <__modsi3+0x28>
   42930:	18000826 	beq	r3,zero,42954 <__modsi3+0x60>
   42934:	1806d07a 	srli	r3,r3,1
   42938:	11400136 	bltu	r2,r5,42940 <__modsi3+0x4c>
   4293c:	1145c83a 	sub	r2,r2,r5
   42940:	280ad07a 	srli	r5,r5,1
   42944:	183ffb1e 	bne	r3,zero,42934 <__modsi3+0x40>
   42948:	38000126 	beq	r7,zero,42950 <__modsi3+0x5c>
   4294c:	0085c83a 	sub	r2,zero,r2
   42950:	f800283a 	ret
   42954:	2005883a 	mov	r2,r4
   42958:	003ffb06 	br	42948 <__modsi3+0x54>
   4295c:	0109c83a 	sub	r4,zero,r4
   42960:	01c00044 	movi	r7,1
   42964:	003fe506 	br	428fc <__modsi3+0x8>

00042968 <__udivsi3>:
   42968:	200d883a 	mov	r6,r4
   4296c:	2900152e 	bgeu	r5,r4,429c4 <__udivsi3+0x5c>
   42970:	28001416 	blt	r5,zero,429c4 <__udivsi3+0x5c>
   42974:	00800804 	movi	r2,32
   42978:	00c00044 	movi	r3,1
   4297c:	00000206 	br	42988 <__udivsi3+0x20>
   42980:	10000e26 	beq	r2,zero,429bc <__udivsi3+0x54>
   42984:	28000516 	blt	r5,zero,4299c <__udivsi3+0x34>
   42988:	294b883a 	add	r5,r5,r5
   4298c:	10bfffc4 	addi	r2,r2,-1
   42990:	18c7883a 	add	r3,r3,r3
   42994:	293ffa36 	bltu	r5,r4,42980 <__udivsi3+0x18>
   42998:	18000826 	beq	r3,zero,429bc <__udivsi3+0x54>
   4299c:	0005883a 	mov	r2,zero
   429a0:	31400236 	bltu	r6,r5,429ac <__udivsi3+0x44>
   429a4:	314dc83a 	sub	r6,r6,r5
   429a8:	10c4b03a 	or	r2,r2,r3
   429ac:	1806d07a 	srli	r3,r3,1
   429b0:	280ad07a 	srli	r5,r5,1
   429b4:	183ffa1e 	bne	r3,zero,429a0 <__udivsi3+0x38>
   429b8:	f800283a 	ret
   429bc:	0005883a 	mov	r2,zero
   429c0:	f800283a 	ret
   429c4:	00c00044 	movi	r3,1
   429c8:	003ff406 	br	4299c <__udivsi3+0x34>

000429cc <__umodsi3>:
   429cc:	2005883a 	mov	r2,r4
   429d0:	2900132e 	bgeu	r5,r4,42a20 <__umodsi3+0x54>
   429d4:	28001216 	blt	r5,zero,42a20 <__umodsi3+0x54>
   429d8:	01800804 	movi	r6,32
   429dc:	00c00044 	movi	r3,1
   429e0:	00000206 	br	429ec <__umodsi3+0x20>
   429e4:	30000c26 	beq	r6,zero,42a18 <__umodsi3+0x4c>
   429e8:	28000516 	blt	r5,zero,42a00 <__umodsi3+0x34>
   429ec:	294b883a 	add	r5,r5,r5
   429f0:	31bfffc4 	addi	r6,r6,-1
   429f4:	18c7883a 	add	r3,r3,r3
   429f8:	293ffa36 	bltu	r5,r4,429e4 <__umodsi3+0x18>
   429fc:	18000626 	beq	r3,zero,42a18 <__umodsi3+0x4c>
   42a00:	1806d07a 	srli	r3,r3,1
   42a04:	11400136 	bltu	r2,r5,42a0c <__umodsi3+0x40>
   42a08:	1145c83a 	sub	r2,r2,r5
   42a0c:	280ad07a 	srli	r5,r5,1
   42a10:	183ffb1e 	bne	r3,zero,42a00 <__umodsi3+0x34>
   42a14:	f800283a 	ret
   42a18:	2005883a 	mov	r2,r4
   42a1c:	f800283a 	ret
   42a20:	00c00044 	movi	r3,1
   42a24:	003ff606 	br	42a00 <__umodsi3+0x34>

00042a28 <__floatsisf>:
   42a28:	defffd04 	addi	sp,sp,-12
   42a2c:	dfc00215 	stw	ra,8(sp)
   42a30:	dc400115 	stw	r17,4(sp)
   42a34:	dc000015 	stw	r16,0(sp)
   42a38:	20001226 	beq	r4,zero,42a84 <__floatsisf+0x5c>
   42a3c:	2022d7fa 	srli	r17,r4,31
   42a40:	2021883a 	mov	r16,r4
   42a44:	20001d16 	blt	r4,zero,42abc <__floatsisf+0x94>
   42a48:	8009883a 	mov	r4,r16
   42a4c:	00431780 	call	43178 <__clzsi2>
   42a50:	100b883a 	mov	r5,r2
   42a54:	00802784 	movi	r2,158
   42a58:	1145c83a 	sub	r2,r2,r5
   42a5c:	10c025c8 	cmpgei	r3,r2,151
   42a60:	1800181e 	bne	r3,zero,42ac4 <__floatsisf+0x9c>
   42a64:	28c00248 	cmpgei	r3,r5,9
   42a68:	18003426 	beq	r3,zero,42b3c <__floatsisf+0x114>
   42a6c:	297ffe04 	addi	r5,r5,-8
   42a70:	8160983a 	sll	r16,r16,r5
   42a74:	00c02034 	movhi	r3,128
   42a78:	18ffffc4 	addi	r3,r3,-1
   42a7c:	80e0703a 	and	r16,r16,r3
   42a80:	00000306 	br	42a90 <__floatsisf+0x68>
   42a84:	0023883a 	mov	r17,zero
   42a88:	0005883a 	mov	r2,zero
   42a8c:	0021883a 	mov	r16,zero
   42a90:	10803fcc 	andi	r2,r2,255
   42a94:	100495fa 	slli	r2,r2,23
   42a98:	8c403fcc 	andi	r17,r17,255
   42a9c:	882297fa 	slli	r17,r17,31
   42aa0:	1404b03a 	or	r2,r2,r16
   42aa4:	1444b03a 	or	r2,r2,r17
   42aa8:	dfc00217 	ldw	ra,8(sp)
   42aac:	dc400117 	ldw	r17,4(sp)
   42ab0:	dc000017 	ldw	r16,0(sp)
   42ab4:	dec00304 	addi	sp,sp,12
   42ab8:	f800283a 	ret
   42abc:	0121c83a 	sub	r16,zero,r4
   42ac0:	003fe106 	br	42a48 <__floatsisf+0x20>
   42ac4:	10c02690 	cmplti	r3,r2,154
   42ac8:	1800071e 	bne	r3,zero,42ae8 <__floatsisf+0xc0>
   42acc:	28c006c4 	addi	r3,r5,27
   42ad0:	01000144 	movi	r4,5
   42ad4:	80c6983a 	sll	r3,r16,r3
   42ad8:	2149c83a 	sub	r4,r4,r5
   42adc:	8120d83a 	srl	r16,r16,r4
   42ae0:	1806c03a 	cmpne	r3,r3,zero
   42ae4:	80e0b03a 	or	r16,r16,r3
   42ae8:	28c00190 	cmplti	r3,r5,6
   42aec:	1800021e 	bne	r3,zero,42af8 <__floatsisf+0xd0>
   42af0:	28fffec4 	addi	r3,r5,-5
   42af4:	80e0983a 	sll	r16,r16,r3
   42af8:	00ff0034 	movhi	r3,64512
   42afc:	18ffffc4 	addi	r3,r3,-1
   42b00:	810001cc 	andi	r4,r16,7
   42b04:	80cc703a 	and	r6,r16,r3
   42b08:	20000926 	beq	r4,zero,42b30 <__floatsisf+0x108>
   42b0c:	810003cc 	andi	r4,r16,15
   42b10:	21000120 	cmpeqi	r4,r4,4
   42b14:	2000061e 	bne	r4,zero,42b30 <__floatsisf+0x108>
   42b18:	31800104 	addi	r6,r6,4
   42b1c:	3101002c 	andhi	r4,r6,1024
   42b20:	20000326 	beq	r4,zero,42b30 <__floatsisf+0x108>
   42b24:	30cc703a 	and	r6,r6,r3
   42b28:	00c027c4 	movi	r3,159
   42b2c:	1945c83a 	sub	r2,r3,r5
   42b30:	302091ba 	slli	r16,r6,6
   42b34:	8020d27a 	srli	r16,r16,9
   42b38:	003fd506 	br	42a90 <__floatsisf+0x68>
   42b3c:	01002034 	movhi	r4,128
   42b40:	213fffc4 	addi	r4,r4,-1
   42b44:	8120703a 	and	r16,r16,r4
   42b48:	003fd106 	br	42a90 <__floatsisf+0x68>

00042b4c <__extendsfdf2>:
   42b4c:	200ad5fa 	srli	r5,r4,23
   42b50:	defffd04 	addi	sp,sp,-12
   42b54:	dc000015 	stw	r16,0(sp)
   42b58:	29403fcc 	andi	r5,r5,255
   42b5c:	04002034 	movhi	r16,128
   42b60:	28800044 	addi	r2,r5,1
   42b64:	dc400115 	stw	r17,4(sp)
   42b68:	843fffc4 	addi	r16,r16,-1
   42b6c:	dfc00215 	stw	ra,8(sp)
   42b70:	10803f8c 	andi	r2,r2,254
   42b74:	2022d7fa 	srli	r17,r4,31
   42b78:	8120703a 	and	r16,r16,r4
   42b7c:	10000d26 	beq	r2,zero,42bb4 <__extendsfdf2+0x68>
   42b80:	8008d0fa 	srli	r4,r16,3
   42b84:	8020977a 	slli	r16,r16,29
   42b88:	28c0e004 	addi	r3,r5,896
   42b8c:	180a953a 	slli	r5,r3,20
   42b90:	880697fa 	slli	r3,r17,31
   42b94:	8005883a 	mov	r2,r16
   42b98:	290ab03a 	or	r5,r5,r4
   42b9c:	28c6b03a 	or	r3,r5,r3
   42ba0:	dfc00217 	ldw	ra,8(sp)
   42ba4:	dc400117 	ldw	r17,4(sp)
   42ba8:	dc000017 	ldw	r16,0(sp)
   42bac:	dec00304 	addi	sp,sp,12
   42bb0:	f800283a 	ret
   42bb4:	2800111e 	bne	r5,zero,42bfc <__extendsfdf2+0xb0>
   42bb8:	80001926 	beq	r16,zero,42c20 <__extendsfdf2+0xd4>
   42bbc:	8009883a 	mov	r4,r16
   42bc0:	00431780 	call	43178 <__clzsi2>
   42bc4:	10c002c8 	cmpgei	r3,r2,11
   42bc8:	18001b1e 	bne	r3,zero,42c38 <__extendsfdf2+0xec>
   42bcc:	010002c4 	movi	r4,11
   42bd0:	2089c83a 	sub	r4,r4,r2
   42bd4:	10c00544 	addi	r3,r2,21
   42bd8:	810ad83a 	srl	r5,r16,r4
   42bdc:	80e0983a 	sll	r16,r16,r3
   42be0:	00c0e244 	movi	r3,905
   42be4:	01000434 	movhi	r4,16
   42be8:	213fffc4 	addi	r4,r4,-1
   42bec:	1885c83a 	sub	r2,r3,r2
   42bf0:	2908703a 	and	r4,r5,r4
   42bf4:	10c1ffcc 	andi	r3,r2,2047
   42bf8:	003fe406 	br	42b8c <__extendsfdf2+0x40>
   42bfc:	80000b26 	beq	r16,zero,42c2c <__extendsfdf2+0xe0>
   42c00:	800ad0fa 	srli	r5,r16,3
   42c04:	00800434 	movhi	r2,16
   42c08:	10bfffc4 	addi	r2,r2,-1
   42c0c:	29000234 	orhi	r4,r5,8
   42c10:	8020977a 	slli	r16,r16,29
   42c14:	2088703a 	and	r4,r4,r2
   42c18:	00c1ffc4 	movi	r3,2047
   42c1c:	003fdb06 	br	42b8c <__extendsfdf2+0x40>
   42c20:	0007883a 	mov	r3,zero
   42c24:	0009883a 	mov	r4,zero
   42c28:	003fd806 	br	42b8c <__extendsfdf2+0x40>
   42c2c:	00c1ffc4 	movi	r3,2047
   42c30:	0009883a 	mov	r4,zero
   42c34:	003fd506 	br	42b8c <__extendsfdf2+0x40>
   42c38:	113ffd44 	addi	r4,r2,-11
   42c3c:	810a983a 	sll	r5,r16,r4
   42c40:	0021883a 	mov	r16,zero
   42c44:	003fe606 	br	42be0 <__extendsfdf2+0x94>

00042c48 <_Unwind_ForcedUnwind_Phase2>:
   42c48:	28800017 	ldw	r2,0(r5)
   42c4c:	defff504 	addi	sp,sp,-44
   42c50:	dd400815 	stw	r21,32(sp)
   42c54:	dd000715 	stw	r20,28(sp)
   42c58:	dcc00615 	stw	r19,24(sp)
   42c5c:	dc800515 	stw	r18,20(sp)
   42c60:	dc400415 	stw	r17,16(sp)
   42c64:	dc000315 	stw	r16,12(sp)
   42c68:	dfc00a15 	stw	ra,40(sp)
   42c6c:	dd800915 	stw	r22,36(sp)
   42c70:	302b883a 	mov	r21,r6
   42c74:	24c00317 	ldw	r19,12(r4)
   42c78:	25000417 	ldw	r20,16(r4)
   42c7c:	21800017 	ldw	r6,0(r4)
   42c80:	21c00117 	ldw	r7,4(r4)
   42c84:	2823883a 	mov	r17,r5
   42c88:	2021883a 	mov	r16,r4
   42c8c:	04800044 	movi	r18,1
   42c90:	10001d26 	beq	r2,zero,42d08 <_Unwind_ForcedUnwind_Phase2+0xc0>
   42c94:	15800617 	ldw	r22,24(r2)
   42c98:	01400284 	movi	r5,10
   42c9c:	01000044 	movi	r4,1
   42ca0:	dd000215 	stw	r20,8(sp)
   42ca4:	dc400115 	stw	r17,4(sp)
   42ca8:	dc000015 	stw	r16,0(sp)
   42cac:	983ee83a 	callr	r19
   42cb0:	01400284 	movi	r5,10
   42cb4:	01000044 	movi	r4,1
   42cb8:	10001a1e 	bne	r2,zero,42d24 <_Unwind_ForcedUnwind_Phase2+0xdc>
   42cbc:	81800017 	ldw	r6,0(r16)
   42cc0:	81c00117 	ldw	r7,4(r16)
   42cc4:	b0000926 	beq	r22,zero,42cec <_Unwind_ForcedUnwind_Phase2+0xa4>
   42cc8:	dc400115 	stw	r17,4(sp)
   42ccc:	dc000015 	stw	r16,0(sp)
   42cd0:	b03ee83a 	callr	r22
   42cd4:	10c001e0 	cmpeqi	r3,r2,7
   42cd8:	11000218 	cmpnei	r4,r2,8
   42cdc:	18001d1e 	bne	r3,zero,42d54 <_Unwind_ForcedUnwind_Phase2+0x10c>
   42ce0:	2000101e 	bne	r4,zero,42d24 <_Unwind_ForcedUnwind_Phase2+0xdc>
   42ce4:	81800017 	ldw	r6,0(r16)
   42ce8:	81c00117 	ldw	r7,4(r16)
   42cec:	88800017 	ldw	r2,0(r17)
   42cf0:	00c001b4 	movhi	r3,6
   42cf4:	94800044 	addi	r18,r18,1
   42cf8:	10800017 	ldw	r2,0(r2)
   42cfc:	18a62d15 	stw	r2,-26444(r3)
   42d00:	88800015 	stw	r2,0(r17)
   42d04:	103fe31e 	bne	r2,zero,42c94 <_Unwind_ForcedUnwind_Phase2+0x4c>
   42d08:	dd000215 	stw	r20,8(sp)
   42d0c:	dc400115 	stw	r17,4(sp)
   42d10:	dc000015 	stw	r16,0(sp)
   42d14:	01400684 	movi	r5,26
   42d18:	01000044 	movi	r4,1
   42d1c:	983ee83a 	callr	r19
   42d20:	10000b26 	beq	r2,zero,42d50 <_Unwind_ForcedUnwind_Phase2+0x108>
   42d24:	00800084 	movi	r2,2
   42d28:	dfc00a17 	ldw	ra,40(sp)
   42d2c:	dd800917 	ldw	r22,36(sp)
   42d30:	dd400817 	ldw	r21,32(sp)
   42d34:	dd000717 	ldw	r20,28(sp)
   42d38:	dcc00617 	ldw	r19,24(sp)
   42d3c:	dc800517 	ldw	r18,20(sp)
   42d40:	dc400417 	ldw	r17,16(sp)
   42d44:	dc000317 	ldw	r16,12(sp)
   42d48:	dec00b04 	addi	sp,sp,44
   42d4c:	f800283a 	ret
   42d50:	00800144 	movi	r2,5
   42d54:	ac800015 	stw	r18,0(r21)
   42d58:	003ff306 	br	42d28 <_Unwind_ForcedUnwind_Phase2+0xe0>

00042d5c <_Unwind_RaiseException_Phase2>:
   42d5c:	28800017 	ldw	r2,0(r5)
   42d60:	10002f26 	beq	r2,zero,42e20 <_Unwind_RaiseException_Phase2+0xc4>
   42d64:	defff804 	addi	sp,sp,-32
   42d68:	dcc00515 	stw	r19,20(sp)
   42d6c:	dc800415 	stw	r18,16(sp)
   42d70:	dc400315 	stw	r17,12(sp)
   42d74:	dc000215 	stw	r16,8(sp)
   42d78:	dfc00715 	stw	ra,28(sp)
   42d7c:	dd000615 	stw	r20,24(sp)
   42d80:	2823883a 	mov	r17,r5
   42d84:	2021883a 	mov	r16,r4
   42d88:	3027883a 	mov	r19,r6
   42d8c:	04800044 	movi	r18,1
   42d90:	00001306 	br	42de0 <_Unwind_RaiseException_Phase2+0x84>
   42d94:	18000e26 	beq	r3,zero,42dd0 <_Unwind_RaiseException_Phase2+0x74>
   42d98:	01400084 	movi	r5,2
   42d9c:	0029883a 	mov	r20,zero
   42da0:	81800017 	ldw	r6,0(r16)
   42da4:	81c00117 	ldw	r7,4(r16)
   42da8:	01000044 	movi	r4,1
   42dac:	dc400115 	stw	r17,4(sp)
   42db0:	dc000015 	stw	r16,0(sp)
   42db4:	183ee83a 	callr	r3
   42db8:	10c001e0 	cmpeqi	r3,r2,7
   42dbc:	18001a1e 	bne	r3,zero,42e28 <_Unwind_RaiseException_Phase2+0xcc>
   42dc0:	10800218 	cmpnei	r2,r2,8
   42dc4:	10000d1e 	bne	r2,zero,42dfc <_Unwind_RaiseException_Phase2+0xa0>
   42dc8:	a000191e 	bne	r20,zero,42e30 <_Unwind_RaiseException_Phase2+0xd4>
   42dcc:	88800017 	ldw	r2,0(r17)
   42dd0:	10800017 	ldw	r2,0(r2)
   42dd4:	94800044 	addi	r18,r18,1
   42dd8:	88800015 	stw	r2,0(r17)
   42ddc:	10000726 	beq	r2,zero,42dfc <_Unwind_RaiseException_Phase2+0xa0>
   42de0:	81000417 	ldw	r4,16(r16)
   42de4:	10c00617 	ldw	r3,24(r2)
   42de8:	113fea1e 	bne	r2,r4,42d94 <_Unwind_RaiseException_Phase2+0x38>
   42dec:	18001026 	beq	r3,zero,42e30 <_Unwind_RaiseException_Phase2+0xd4>
   42df0:	01400184 	movi	r5,6
   42df4:	05000104 	movi	r20,4
   42df8:	003fe906 	br	42da0 <_Unwind_RaiseException_Phase2+0x44>
   42dfc:	00800084 	movi	r2,2
   42e00:	dfc00717 	ldw	ra,28(sp)
   42e04:	dd000617 	ldw	r20,24(sp)
   42e08:	dcc00517 	ldw	r19,20(sp)
   42e0c:	dc800417 	ldw	r18,16(sp)
   42e10:	dc400317 	ldw	r17,12(sp)
   42e14:	dc000217 	ldw	r16,8(sp)
   42e18:	dec00804 	addi	sp,sp,32
   42e1c:	f800283a 	ret
   42e20:	00800084 	movi	r2,2
   42e24:	f800283a 	ret
   42e28:	9c800015 	stw	r18,0(r19)
   42e2c:	003ff406 	br	42e00 <_Unwind_RaiseException_Phase2+0xa4>
   42e30:	00431cc0 	call	431cc <abort>

00042e34 <uw_install_context.isra.0>:
   42e34:	deffff04 	addi	sp,sp,-4
   42e38:	df000015 	stw	fp,0(sp)
   42e3c:	20800804 	addi	r2,r4,32
   42e40:	00c001b4 	movhi	r3,6
   42e44:	19262d15 	stw	r4,-26444(r3)
   42e48:	d839883a 	mov	fp,sp
   42e4c:	20c00917 	ldw	r3,36(r4)
   42e50:	21000817 	ldw	r4,32(r4)
   42e54:	16c00217 	ldw	sp,8(r2)
   42e58:	2039883a 	mov	fp,r4
   42e5c:	1800683a 	jmp	r3

00042e60 <_Unwind_SjLj_Register>:
   42e60:	008001b4 	movhi	r2,6
   42e64:	10a62d17 	ldw	r2,-26444(r2)
   42e68:	20800015 	stw	r2,0(r4)
   42e6c:	008001b4 	movhi	r2,6
   42e70:	11262d15 	stw	r4,-26444(r2)
   42e74:	f800283a 	ret

00042e78 <_Unwind_SjLj_Unregister>:
   42e78:	20c00017 	ldw	r3,0(r4)
   42e7c:	008001b4 	movhi	r2,6
   42e80:	10e62d15 	stw	r3,-26444(r2)
   42e84:	f800283a 	ret

00042e88 <_Unwind_GetGR>:
   42e88:	29400084 	addi	r5,r5,2
   42e8c:	20800017 	ldw	r2,0(r4)
   42e90:	280a90ba 	slli	r5,r5,2
   42e94:	114b883a 	add	r5,r2,r5
   42e98:	28800017 	ldw	r2,0(r5)
   42e9c:	f800283a 	ret

00042ea0 <_Unwind_GetCFA>:
   42ea0:	20800017 	ldw	r2,0(r4)
   42ea4:	10000226 	beq	r2,zero,42eb0 <_Unwind_GetCFA+0x10>
   42ea8:	10800a17 	ldw	r2,40(r2)
   42eac:	f800283a 	ret
   42eb0:	0005883a 	mov	r2,zero
   42eb4:	f800283a 	ret

00042eb8 <_Unwind_SetGR>:
   42eb8:	29400084 	addi	r5,r5,2
   42ebc:	20800017 	ldw	r2,0(r4)
   42ec0:	280a90ba 	slli	r5,r5,2
   42ec4:	114b883a 	add	r5,r2,r5
   42ec8:	29800015 	stw	r6,0(r5)
   42ecc:	f800283a 	ret

00042ed0 <_Unwind_GetIP>:
   42ed0:	20800017 	ldw	r2,0(r4)
   42ed4:	10800117 	ldw	r2,4(r2)
   42ed8:	10800044 	addi	r2,r2,1
   42edc:	f800283a 	ret

00042ee0 <_Unwind_GetIPInfo>:
   42ee0:	20800017 	ldw	r2,0(r4)
   42ee4:	28000015 	stw	zero,0(r5)
   42ee8:	10000326 	beq	r2,zero,42ef8 <_Unwind_GetIPInfo+0x18>
   42eec:	10800117 	ldw	r2,4(r2)
   42ef0:	10800044 	addi	r2,r2,1
   42ef4:	f800283a 	ret
   42ef8:	0005883a 	mov	r2,zero
   42efc:	f800283a 	ret

00042f00 <_Unwind_SetIP>:
   42f00:	20800017 	ldw	r2,0(r4)
   42f04:	297fffc4 	addi	r5,r5,-1
   42f08:	11400115 	stw	r5,4(r2)
   42f0c:	f800283a 	ret

00042f10 <_Unwind_GetLanguageSpecificData>:
   42f10:	20800017 	ldw	r2,0(r4)
   42f14:	10800717 	ldw	r2,28(r2)
   42f18:	f800283a 	ret

00042f1c <_Unwind_GetRegionStart>:
   42f1c:	0005883a 	mov	r2,zero
   42f20:	f800283a 	ret

00042f24 <_Unwind_FindEnclosingFunction>:
   42f24:	0005883a 	mov	r2,zero
   42f28:	f800283a 	ret

00042f2c <_Unwind_GetDataRelBase>:
   42f2c:	0005883a 	mov	r2,zero
   42f30:	f800283a 	ret

00042f34 <_Unwind_GetTextRelBase>:
   42f34:	0005883a 	mov	r2,zero
   42f38:	f800283a 	ret

00042f3c <_Unwind_SjLj_RaiseException>:
   42f3c:	defff804 	addi	sp,sp,-32
   42f40:	008001b4 	movhi	r2,6
   42f44:	dc400515 	stw	r17,20(sp)
   42f48:	14662d17 	ldw	r17,-26444(r2)
   42f4c:	dfc00715 	stw	ra,28(sp)
   42f50:	dc800615 	stw	r18,24(sp)
   42f54:	dc000415 	stw	r16,16(sp)
   42f58:	dc400215 	stw	r17,8(sp)
   42f5c:	88001426 	beq	r17,zero,42fb0 <_Unwind_SjLj_RaiseException+0x74>
   42f60:	2021883a 	mov	r16,r4
   42f64:	8805883a 	mov	r2,r17
   42f68:	dc800204 	addi	r18,sp,8
   42f6c:	10800617 	ldw	r2,24(r2)
   42f70:	10000b26 	beq	r2,zero,42fa0 <_Unwind_SjLj_RaiseException+0x64>
   42f74:	81800017 	ldw	r6,0(r16)
   42f78:	81c00117 	ldw	r7,4(r16)
   42f7c:	01400044 	movi	r5,1
   42f80:	dc800115 	stw	r18,4(sp)
   42f84:	dc000015 	stw	r16,0(sp)
   42f88:	01000044 	movi	r4,1
   42f8c:	103ee83a 	callr	r2
   42f90:	10c001a0 	cmpeqi	r3,r2,6
   42f94:	18000d1e 	bne	r3,zero,42fcc <_Unwind_SjLj_RaiseException+0x90>
   42f98:	10800218 	cmpnei	r2,r2,8
   42f9c:	1000171e 	bne	r2,zero,42ffc <_Unwind_SjLj_RaiseException+0xc0>
   42fa0:	d8800217 	ldw	r2,8(sp)
   42fa4:	10800017 	ldw	r2,0(r2)
   42fa8:	d8800215 	stw	r2,8(sp)
   42fac:	103fef1e 	bne	r2,zero,42f6c <_Unwind_SjLj_RaiseException+0x30>
   42fb0:	00800144 	movi	r2,5
   42fb4:	dfc00717 	ldw	ra,28(sp)
   42fb8:	dc800617 	ldw	r18,24(sp)
   42fbc:	dc400517 	ldw	r17,20(sp)
   42fc0:	dc000417 	ldw	r16,16(sp)
   42fc4:	dec00804 	addi	sp,sp,32
   42fc8:	f800283a 	ret
   42fcc:	d8800217 	ldw	r2,8(sp)
   42fd0:	80000315 	stw	zero,12(r16)
   42fd4:	d9800304 	addi	r6,sp,12
   42fd8:	80800415 	stw	r2,16(r16)
   42fdc:	900b883a 	mov	r5,r18
   42fe0:	8009883a 	mov	r4,r16
   42fe4:	dc400215 	stw	r17,8(sp)
   42fe8:	0042d5c0 	call	42d5c <_Unwind_RaiseException_Phase2>
   42fec:	10c001d8 	cmpnei	r3,r2,7
   42ff0:	183ff01e 	bne	r3,zero,42fb4 <_Unwind_SjLj_RaiseException+0x78>
   42ff4:	d9000217 	ldw	r4,8(sp)
   42ff8:	0042e340 	call	42e34 <uw_install_context.isra.0>
   42ffc:	008000c4 	movi	r2,3
   43000:	003fec06 	br	42fb4 <_Unwind_SjLj_RaiseException+0x78>

00043004 <_Unwind_SjLj_ForcedUnwind>:
   43004:	008001b4 	movhi	r2,6
   43008:	defffd04 	addi	sp,sp,-12
   4300c:	10e62d17 	ldw	r3,-26444(r2)
   43010:	dfc00215 	stw	ra,8(sp)
   43014:	21400315 	stw	r5,12(r4)
   43018:	21800415 	stw	r6,16(r4)
   4301c:	d80b883a 	mov	r5,sp
   43020:	d9800104 	addi	r6,sp,4
   43024:	d8c00015 	stw	r3,0(sp)
   43028:	0042c480 	call	42c48 <_Unwind_ForcedUnwind_Phase2>
   4302c:	10c001e0 	cmpeqi	r3,r2,7
   43030:	1800031e 	bne	r3,zero,43040 <_Unwind_SjLj_ForcedUnwind+0x3c>
   43034:	dfc00217 	ldw	ra,8(sp)
   43038:	dec00304 	addi	sp,sp,12
   4303c:	f800283a 	ret
   43040:	d9000017 	ldw	r4,0(sp)
   43044:	0042e340 	call	42e34 <uw_install_context.isra.0>

00043048 <_Unwind_SjLj_Resume>:
   43048:	008001b4 	movhi	r2,6
   4304c:	10e62d17 	ldw	r3,-26444(r2)
   43050:	20800317 	ldw	r2,12(r4)
   43054:	defffd04 	addi	sp,sp,-12
   43058:	dfc00215 	stw	ra,8(sp)
   4305c:	d8c00015 	stw	r3,0(sp)
   43060:	d9800104 	addi	r6,sp,4
   43064:	d80b883a 	mov	r5,sp
   43068:	1000051e 	bne	r2,zero,43080 <_Unwind_SjLj_Resume+0x38>
   4306c:	0042d5c0 	call	42d5c <_Unwind_RaiseException_Phase2>
   43070:	108001e0 	cmpeqi	r2,r2,7
   43074:	10000426 	beq	r2,zero,43088 <_Unwind_SjLj_Resume+0x40>
   43078:	d9000017 	ldw	r4,0(sp)
   4307c:	0042e340 	call	42e34 <uw_install_context.isra.0>
   43080:	0042c480 	call	42c48 <_Unwind_ForcedUnwind_Phase2>
   43084:	003ffa06 	br	43070 <_Unwind_SjLj_Resume+0x28>
   43088:	00431cc0 	call	431cc <abort>

0004308c <_Unwind_SjLj_Resume_or_Rethrow>:
   4308c:	20800317 	ldw	r2,12(r4)
   43090:	defffd04 	addi	sp,sp,-12
   43094:	dfc00215 	stw	ra,8(sp)
   43098:	1000041e 	bne	r2,zero,430ac <_Unwind_SjLj_Resume_or_Rethrow+0x20>
   4309c:	0042f3c0 	call	42f3c <_Unwind_SjLj_RaiseException>
   430a0:	dfc00217 	ldw	ra,8(sp)
   430a4:	dec00304 	addi	sp,sp,12
   430a8:	f800283a 	ret
   430ac:	008001b4 	movhi	r2,6
   430b0:	10a62d17 	ldw	r2,-26444(r2)
   430b4:	d9800104 	addi	r6,sp,4
   430b8:	d80b883a 	mov	r5,sp
   430bc:	d8800015 	stw	r2,0(sp)
   430c0:	0042c480 	call	42c48 <_Unwind_ForcedUnwind_Phase2>
   430c4:	108001e0 	cmpeqi	r2,r2,7
   430c8:	10000226 	beq	r2,zero,430d4 <_Unwind_SjLj_Resume_or_Rethrow+0x48>
   430cc:	d9000017 	ldw	r4,0(sp)
   430d0:	0042e340 	call	42e34 <uw_install_context.isra.0>
   430d4:	00431cc0 	call	431cc <abort>

000430d8 <_Unwind_DeleteException>:
   430d8:	20800217 	ldw	r2,8(r4)
   430dc:	200b883a 	mov	r5,r4
   430e0:	10000226 	beq	r2,zero,430ec <_Unwind_DeleteException+0x14>
   430e4:	01000044 	movi	r4,1
   430e8:	1000683a 	jmp	r2
   430ec:	f800283a 	ret

000430f0 <_Unwind_Backtrace>:
   430f0:	008001b4 	movhi	r2,6
   430f4:	10a62d17 	ldw	r2,-26444(r2)
   430f8:	defffb04 	addi	sp,sp,-20
   430fc:	dc800315 	stw	r18,12(sp)
   43100:	dc400215 	stw	r17,8(sp)
   43104:	dc000115 	stw	r16,4(sp)
   43108:	dfc00415 	stw	ra,16(sp)
   4310c:	d8800015 	stw	r2,0(sp)
   43110:	2021883a 	mov	r16,r4
   43114:	2823883a 	mov	r17,r5
   43118:	d825883a 	mov	r18,sp
   4311c:	10000826 	beq	r2,zero,43140 <_Unwind_Backtrace+0x50>
   43120:	880b883a 	mov	r5,r17
   43124:	9009883a 	mov	r4,r18
   43128:	803ee83a 	callr	r16
   4312c:	1000101e 	bne	r2,zero,43170 <_Unwind_Backtrace+0x80>
   43130:	d8800017 	ldw	r2,0(sp)
   43134:	10800017 	ldw	r2,0(r2)
   43138:	d8800015 	stw	r2,0(sp)
   4313c:	103ff81e 	bne	r2,zero,43120 <_Unwind_Backtrace+0x30>
   43140:	880b883a 	mov	r5,r17
   43144:	9009883a 	mov	r4,r18
   43148:	803ee83a 	callr	r16
   4314c:	00c00144 	movi	r3,5
   43150:	1000071e 	bne	r2,zero,43170 <_Unwind_Backtrace+0x80>
   43154:	1805883a 	mov	r2,r3
   43158:	dfc00417 	ldw	ra,16(sp)
   4315c:	dc800317 	ldw	r18,12(sp)
   43160:	dc400217 	ldw	r17,8(sp)
   43164:	dc000117 	ldw	r16,4(sp)
   43168:	dec00504 	addi	sp,sp,20
   4316c:	f800283a 	ret
   43170:	00c000c4 	movi	r3,3
   43174:	003ff706 	br	43154 <_Unwind_Backtrace+0x64>

00043178 <__clzsi2>:
   43178:	00bfffd4 	movui	r2,65535
   4317c:	11000436 	bltu	r2,r4,43190 <__clzsi2+0x18>
   43180:	20804030 	cmpltui	r2,r4,256
   43184:	10000e26 	beq	r2,zero,431c0 <__clzsi2+0x48>
   43188:	01400804 	movi	r5,32
   4318c:	00000406 	br	431a0 <__clzsi2+0x28>
   43190:	00804034 	movhi	r2,256
   43194:	20800736 	bltu	r4,r2,431b4 <__clzsi2+0x3c>
   43198:	2008d63a 	srli	r4,r4,24
   4319c:	01400204 	movi	r5,8
   431a0:	00c00174 	movhi	r3,5
   431a4:	20c7883a 	add	r3,r4,r3
   431a8:	18968703 	ldbu	r2,23068(r3)
   431ac:	2885c83a 	sub	r2,r5,r2
   431b0:	f800283a 	ret
   431b4:	2008d43a 	srli	r4,r4,16
   431b8:	01400404 	movi	r5,16
   431bc:	003ff806 	br	431a0 <__clzsi2+0x28>
   431c0:	2008d23a 	srli	r4,r4,8
   431c4:	01400604 	movi	r5,24
   431c8:	003ff506 	br	431a0 <__clzsi2+0x28>

000431cc <abort>:
   431cc:	deffff04 	addi	sp,sp,-4
   431d0:	01000184 	movi	r4,6
   431d4:	dfc00015 	stw	ra,0(sp)
   431d8:	0043ed00 	call	43ed0 <raise>
   431dc:	01000044 	movi	r4,1
   431e0:	0052f700 	call	52f70 <_exit>

000431e4 <malloc>:
   431e4:	00800174 	movhi	r2,5
   431e8:	200b883a 	mov	r5,r4
   431ec:	111f1d17 	ldw	r4,31860(r2)
   431f0:	00432041 	jmpi	43204 <_malloc_r>

000431f4 <free>:
   431f4:	00800174 	movhi	r2,5
   431f8:	200b883a 	mov	r5,r4
   431fc:	111f1d17 	ldw	r4,31860(r2)
   43200:	004a6741 	jmpi	4a674 <_free_r>

00043204 <_malloc_r>:
   43204:	defff604 	addi	sp,sp,-40
   43208:	dc400115 	stw	r17,4(sp)
   4320c:	2c4002c4 	addi	r17,r5,11
   43210:	dc800215 	stw	r18,8(sp)
   43214:	dfc00915 	stw	ra,36(sp)
   43218:	df000815 	stw	fp,32(sp)
   4321c:	ddc00715 	stw	r23,28(sp)
   43220:	dd800615 	stw	r22,24(sp)
   43224:	dd400515 	stw	r21,20(sp)
   43228:	dd000415 	stw	r20,16(sp)
   4322c:	dcc00315 	stw	r19,12(sp)
   43230:	dc000015 	stw	r16,0(sp)
   43234:	888005e8 	cmpgeui	r2,r17,23
   43238:	2025883a 	mov	r18,r4
   4323c:	10001b1e 	bne	r2,zero,432ac <_malloc_r+0xa8>
   43240:	29400468 	cmpgeui	r5,r5,17
   43244:	2800821e 	bne	r5,zero,43450 <_malloc_r+0x24c>
   43248:	00535740 	call	53574 <__malloc_lock>
   4324c:	04400404 	movi	r17,16
   43250:	01c00084 	movi	r7,2
   43254:	00800604 	movi	r2,24
   43258:	04c00174 	movhi	r19,5
   4325c:	9cd82704 	addi	r19,r19,24732
   43260:	9885883a 	add	r2,r19,r2
   43264:	14000117 	ldw	r16,4(r2)
   43268:	10fffe04 	addi	r3,r2,-8
   4326c:	80c08b26 	beq	r16,r3,4349c <_malloc_r+0x298>
   43270:	80800117 	ldw	r2,4(r16)
   43274:	81000317 	ldw	r4,12(r16)
   43278:	00ffff04 	movi	r3,-4
   4327c:	10c4703a 	and	r2,r2,r3
   43280:	81400217 	ldw	r5,8(r16)
   43284:	8085883a 	add	r2,r16,r2
   43288:	10c00117 	ldw	r3,4(r2)
   4328c:	29000315 	stw	r4,12(r5)
   43290:	21400215 	stw	r5,8(r4)
   43294:	18c00054 	ori	r3,r3,1
   43298:	10c00115 	stw	r3,4(r2)
   4329c:	9009883a 	mov	r4,r18
   432a0:	00535980 	call	53598 <__malloc_unlock>
   432a4:	80800204 	addi	r2,r16,8
   432a8:	00006c06 	br	4345c <_malloc_r+0x258>
   432ac:	00bffe04 	movi	r2,-8
   432b0:	88a2703a 	and	r17,r17,r2
   432b4:	88006616 	blt	r17,zero,43450 <_malloc_r+0x24c>
   432b8:	89406536 	bltu	r17,r5,43450 <_malloc_r+0x24c>
   432bc:	00535740 	call	53574 <__malloc_lock>
   432c0:	88807e28 	cmpgeui	r2,r17,504
   432c4:	10012226 	beq	r2,zero,43750 <_malloc_r+0x54c>
   432c8:	8804d27a 	srli	r2,r17,9
   432cc:	10006f26 	beq	r2,zero,4348c <_malloc_r+0x288>
   432d0:	10c00168 	cmpgeui	r3,r2,5
   432d4:	1800fe1e 	bne	r3,zero,436d0 <_malloc_r+0x4cc>
   432d8:	8804d1ba 	srli	r2,r17,6
   432dc:	11c00e44 	addi	r7,r2,57
   432e0:	380890fa 	slli	r4,r7,3
   432e4:	12000e04 	addi	r8,r2,56
   432e8:	04c00174 	movhi	r19,5
   432ec:	9cd82704 	addi	r19,r19,24732
   432f0:	9909883a 	add	r4,r19,r4
   432f4:	24000117 	ldw	r16,4(r4)
   432f8:	213ffe04 	addi	r4,r4,-8
   432fc:	24000b26 	beq	r4,r16,4332c <_malloc_r+0x128>
   43300:	01bfff04 	movi	r6,-4
   43304:	00000306 	br	43314 <_malloc_r+0x110>
   43308:	1800d60e 	bge	r3,zero,43664 <_malloc_r+0x460>
   4330c:	84000317 	ldw	r16,12(r16)
   43310:	24000626 	beq	r4,r16,4332c <_malloc_r+0x128>
   43314:	80800117 	ldw	r2,4(r16)
   43318:	1184703a 	and	r2,r2,r6
   4331c:	1447c83a 	sub	r3,r2,r17
   43320:	19400408 	cmpgei	r5,r3,16
   43324:	283ff826 	beq	r5,zero,43308 <_malloc_r+0x104>
   43328:	400f883a 	mov	r7,r8
   4332c:	9c000417 	ldw	r16,16(r19)
   43330:	02400174 	movhi	r9,5
   43334:	4a582904 	addi	r9,r9,24740
   43338:	82405f26 	beq	r16,r9,434b8 <_malloc_r+0x2b4>
   4333c:	80c00117 	ldw	r3,4(r16)
   43340:	00bfff04 	movi	r2,-4
   43344:	1884703a 	and	r2,r3,r2
   43348:	1447c83a 	sub	r3,r2,r17
   4334c:	19000410 	cmplti	r4,r3,16
   43350:	20010a26 	beq	r4,zero,4377c <_malloc_r+0x578>
   43354:	9a400515 	stw	r9,20(r19)
   43358:	9a400415 	stw	r9,16(r19)
   4335c:	1800ff0e 	bge	r3,zero,4375c <_malloc_r+0x558>
   43360:	10c08028 	cmpgeui	r3,r2,512
   43364:	1800c11e 	bne	r3,zero,4366c <_malloc_r+0x468>
   43368:	1006d0fa 	srli	r3,r2,3
   4336c:	1008d17a 	srli	r4,r2,5
   43370:	00800044 	movi	r2,1
   43374:	18c00044 	addi	r3,r3,1
   43378:	180690fa 	slli	r3,r3,3
   4337c:	99400117 	ldw	r5,4(r19)
   43380:	1104983a 	sll	r2,r2,r4
   43384:	98c7883a 	add	r3,r19,r3
   43388:	19000017 	ldw	r4,0(r3)
   4338c:	1144b03a 	or	r2,r2,r5
   43390:	197ffe04 	addi	r5,r3,-8
   43394:	81400315 	stw	r5,12(r16)
   43398:	81000215 	stw	r4,8(r16)
   4339c:	98800115 	stw	r2,4(r19)
   433a0:	1c000015 	stw	r16,0(r3)
   433a4:	24000315 	stw	r16,12(r4)
   433a8:	3807d0ba 	srai	r3,r7,2
   433ac:	01000044 	movi	r4,1
   433b0:	20c8983a 	sll	r4,r4,r3
   433b4:	11004536 	bltu	r2,r4,434cc <_malloc_r+0x2c8>
   433b8:	2086703a 	and	r3,r4,r2
   433bc:	18000a1e 	bne	r3,zero,433e8 <_malloc_r+0x1e4>
   433c0:	00ffff04 	movi	r3,-4
   433c4:	2109883a 	add	r4,r4,r4
   433c8:	38ce703a 	and	r7,r7,r3
   433cc:	2086703a 	and	r3,r4,r2
   433d0:	39c00104 	addi	r7,r7,4
   433d4:	1800041e 	bne	r3,zero,433e8 <_malloc_r+0x1e4>
   433d8:	2109883a 	add	r4,r4,r4
   433dc:	2086703a 	and	r3,r4,r2
   433e0:	39c00104 	addi	r7,r7,4
   433e4:	183ffc26 	beq	r3,zero,433d8 <_malloc_r+0x1d4>
   433e8:	02bfff04 	movi	r10,-4
   433ec:	381690fa 	slli	r11,r7,3
   433f0:	3819883a 	mov	r12,r7
   433f4:	9ad7883a 	add	r11,r19,r11
   433f8:	5811883a 	mov	r8,r11
   433fc:	40800317 	ldw	r2,12(r8)
   43400:	4080bc26 	beq	r8,r2,436f4 <_malloc_r+0x4f0>
   43404:	10c00117 	ldw	r3,4(r2)
   43408:	1021883a 	mov	r16,r2
   4340c:	10800317 	ldw	r2,12(r2)
   43410:	1a86703a 	and	r3,r3,r10
   43414:	1c4bc83a 	sub	r5,r3,r17
   43418:	29800410 	cmplti	r6,r5,16
   4341c:	3000ba26 	beq	r6,zero,43708 <_malloc_r+0x504>
   43420:	283ff716 	blt	r5,zero,43400 <_malloc_r+0x1fc>
   43424:	80c7883a 	add	r3,r16,r3
   43428:	19400117 	ldw	r5,4(r3)
   4342c:	81800217 	ldw	r6,8(r16)
   43430:	9009883a 	mov	r4,r18
   43434:	29400054 	ori	r5,r5,1
   43438:	19400115 	stw	r5,4(r3)
   4343c:	30800315 	stw	r2,12(r6)
   43440:	11800215 	stw	r6,8(r2)
   43444:	00535980 	call	53598 <__malloc_unlock>
   43448:	80800204 	addi	r2,r16,8
   4344c:	00000306 	br	4345c <_malloc_r+0x258>
   43450:	00800304 	movi	r2,12
   43454:	90800015 	stw	r2,0(r18)
   43458:	0005883a 	mov	r2,zero
   4345c:	dfc00917 	ldw	ra,36(sp)
   43460:	df000817 	ldw	fp,32(sp)
   43464:	ddc00717 	ldw	r23,28(sp)
   43468:	dd800617 	ldw	r22,24(sp)
   4346c:	dd400517 	ldw	r21,20(sp)
   43470:	dd000417 	ldw	r20,16(sp)
   43474:	dcc00317 	ldw	r19,12(sp)
   43478:	dc800217 	ldw	r18,8(sp)
   4347c:	dc400117 	ldw	r17,4(sp)
   43480:	dc000017 	ldw	r16,0(sp)
   43484:	dec00a04 	addi	sp,sp,40
   43488:	f800283a 	ret
   4348c:	01008004 	movi	r4,512
   43490:	01c01004 	movi	r7,64
   43494:	02000fc4 	movi	r8,63
   43498:	003f9306 	br	432e8 <_malloc_r+0xe4>
   4349c:	14000317 	ldw	r16,12(r2)
   434a0:	39c00084 	addi	r7,r7,2
   434a4:	143f721e 	bne	r2,r16,43270 <_malloc_r+0x6c>
   434a8:	9c000417 	ldw	r16,16(r19)
   434ac:	02400174 	movhi	r9,5
   434b0:	4a582904 	addi	r9,r9,24740
   434b4:	827fa11e 	bne	r16,r9,4333c <_malloc_r+0x138>
   434b8:	3807d0ba 	srai	r3,r7,2
   434bc:	01000044 	movi	r4,1
   434c0:	98800117 	ldw	r2,4(r19)
   434c4:	20c8983a 	sll	r4,r4,r3
   434c8:	113fbb2e 	bgeu	r2,r4,433b8 <_malloc_r+0x1b4>
   434cc:	9c000217 	ldw	r16,8(r19)
   434d0:	00bfff04 	movi	r2,-4
   434d4:	85400117 	ldw	r21,4(r16)
   434d8:	a8ac703a 	and	r22,r21,r2
   434dc:	b4400336 	bltu	r22,r17,434ec <_malloc_r+0x2e8>
   434e0:	b445c83a 	sub	r2,r22,r17
   434e4:	10c00408 	cmpgei	r3,r2,16
   434e8:	1800541e 	bne	r3,zero,4363c <_malloc_r+0x438>
   434ec:	00800174 	movhi	r2,5
   434f0:	109f1a17 	ldw	r2,31848(r2)
   434f4:	00c001b4 	movhi	r3,6
   434f8:	1d663017 	ldw	r21,-26432(r3)
   434fc:	10bfffd8 	cmpnei	r2,r2,-1
   43500:	85b9883a 	add	fp,r16,r22
   43504:	8d6b883a 	add	r21,r17,r21
   43508:	1000d626 	beq	r2,zero,43864 <_malloc_r+0x660>
   4350c:	ad4403c4 	addi	r21,r21,4111
   43510:	00bc0004 	movi	r2,-4096
   43514:	a8aa703a 	and	r21,r21,r2
   43518:	a80b883a 	mov	r5,r21
   4351c:	9009883a 	mov	r4,r18
   43520:	0043c180 	call	43c18 <_sbrk_r>
   43524:	102f883a 	mov	r23,r2
   43528:	10bfffd8 	cmpnei	r2,r2,-1
   4352c:	1000a826 	beq	r2,zero,437d0 <_malloc_r+0x5cc>
   43530:	bf00a636 	bltu	r23,fp,437cc <_malloc_r+0x5c8>
   43534:	008001b4 	movhi	r2,6
   43538:	15263e17 	ldw	r20,-26376(r2)
   4353c:	ad29883a 	add	r20,r21,r20
   43540:	15263e15 	stw	r20,-26376(r2)
   43544:	a007883a 	mov	r3,r20
   43548:	e5c0ec26 	beq	fp,r23,438fc <_malloc_r+0x6f8>
   4354c:	00800174 	movhi	r2,5
   43550:	109f1a17 	ldw	r2,31848(r2)
   43554:	10bfffd8 	cmpnei	r2,r2,-1
   43558:	1000ef26 	beq	r2,zero,43918 <_malloc_r+0x714>
   4355c:	bf39c83a 	sub	fp,r23,fp
   43560:	e0c7883a 	add	r3,fp,r3
   43564:	008001b4 	movhi	r2,6
   43568:	10e63e15 	stw	r3,-26376(r2)
   4356c:	bf0001cc 	andi	fp,r23,7
   43570:	e000c526 	beq	fp,zero,43888 <_malloc_r+0x684>
   43574:	bf2fc83a 	sub	r23,r23,fp
   43578:	bdc00204 	addi	r23,r23,8
   4357c:	05040204 	movi	r20,4104
   43580:	a729c83a 	sub	r20,r20,fp
   43584:	bd6b883a 	add	r21,r23,r21
   43588:	a569c83a 	sub	r20,r20,r21
   4358c:	a503ffcc 	andi	r20,r20,4095
   43590:	a00b883a 	mov	r5,r20
   43594:	9009883a 	mov	r4,r18
   43598:	0043c180 	call	43c18 <_sbrk_r>
   4359c:	10ffffe0 	cmpeqi	r3,r2,-1
   435a0:	1800f31e 	bne	r3,zero,43970 <_malloc_r+0x76c>
   435a4:	15c5c83a 	sub	r2,r2,r23
   435a8:	152b883a 	add	r21,r2,r20
   435ac:	008001b4 	movhi	r2,6
   435b0:	11663e17 	ldw	r5,-26376(r2)
   435b4:	9dc00215 	stw	r23,8(r19)
   435b8:	ad400054 	ori	r21,r21,1
   435bc:	a169883a 	add	r20,r20,r5
   435c0:	15263e15 	stw	r20,-26376(r2)
   435c4:	bd400115 	stw	r21,4(r23)
   435c8:	84c0d626 	beq	r16,r19,43924 <_malloc_r+0x720>
   435cc:	b0800428 	cmpgeui	r2,r22,16
   435d0:	1000d626 	beq	r2,zero,4392c <_malloc_r+0x728>
   435d4:	80c00117 	ldw	r3,4(r16)
   435d8:	013ffe04 	movi	r4,-8
   435dc:	b0bffd04 	addi	r2,r22,-12
   435e0:	1104703a 	and	r2,r2,r4
   435e4:	18c0004c 	andi	r3,r3,1
   435e8:	1886b03a 	or	r3,r3,r2
   435ec:	80c00115 	stw	r3,4(r16)
   435f0:	01000144 	movi	r4,5
   435f4:	8087883a 	add	r3,r16,r2
   435f8:	19000115 	stw	r4,4(r3)
   435fc:	19000215 	stw	r4,8(r3)
   43600:	10800428 	cmpgeui	r2,r2,16
   43604:	1000df1e 	bne	r2,zero,43984 <_malloc_r+0x780>
   43608:	bd400117 	ldw	r21,4(r23)
   4360c:	b821883a 	mov	r16,r23
   43610:	008001b4 	movhi	r2,6
   43614:	10a62f17 	ldw	r2,-26436(r2)
   43618:	1500022e 	bgeu	r2,r20,43624 <_malloc_r+0x420>
   4361c:	008001b4 	movhi	r2,6
   43620:	15262f15 	stw	r20,-26436(r2)
   43624:	008001b4 	movhi	r2,6
   43628:	10a62e17 	ldw	r2,-26440(r2)
   4362c:	15006a2e 	bgeu	r2,r20,437d8 <_malloc_r+0x5d4>
   43630:	008001b4 	movhi	r2,6
   43634:	15262e15 	stw	r20,-26440(r2)
   43638:	00006706 	br	437d8 <_malloc_r+0x5d4>
   4363c:	88c00054 	ori	r3,r17,1
   43640:	80c00115 	stw	r3,4(r16)
   43644:	8463883a 	add	r17,r16,r17
   43648:	10800054 	ori	r2,r2,1
   4364c:	9c400215 	stw	r17,8(r19)
   43650:	88800115 	stw	r2,4(r17)
   43654:	9009883a 	mov	r4,r18
   43658:	00535980 	call	53598 <__malloc_unlock>
   4365c:	80800204 	addi	r2,r16,8
   43660:	003f7e06 	br	4345c <_malloc_r+0x258>
   43664:	81000317 	ldw	r4,12(r16)
   43668:	003f0506 	br	43280 <_malloc_r+0x7c>
   4366c:	1006d27a 	srli	r3,r2,9
   43670:	19000168 	cmpgeui	r4,r3,5
   43674:	20005026 	beq	r4,zero,437b8 <_malloc_r+0x5b4>
   43678:	19000568 	cmpgeui	r4,r3,21
   4367c:	20008c1e 	bne	r4,zero,438b0 <_malloc_r+0x6ac>
   43680:	19401704 	addi	r5,r3,92
   43684:	280a90fa 	slli	r5,r5,3
   43688:	190016c4 	addi	r4,r3,91
   4368c:	994b883a 	add	r5,r19,r5
   43690:	28c00017 	ldw	r3,0(r5)
   43694:	297ffe04 	addi	r5,r5,-8
   43698:	28c07426 	beq	r5,r3,4386c <_malloc_r+0x668>
   4369c:	01bfff04 	movi	r6,-4
   436a0:	19000117 	ldw	r4,4(r3)
   436a4:	2188703a 	and	r4,r4,r6
   436a8:	1100022e 	bgeu	r2,r4,436b4 <_malloc_r+0x4b0>
   436ac:	18c00217 	ldw	r3,8(r3)
   436b0:	28fffb1e 	bne	r5,r3,436a0 <_malloc_r+0x49c>
   436b4:	19400317 	ldw	r5,12(r3)
   436b8:	98800117 	ldw	r2,4(r19)
   436bc:	81400315 	stw	r5,12(r16)
   436c0:	80c00215 	stw	r3,8(r16)
   436c4:	2c000215 	stw	r16,8(r5)
   436c8:	1c000315 	stw	r16,12(r3)
   436cc:	003f3606 	br	433a8 <_malloc_r+0x1a4>
   436d0:	10c00568 	cmpgeui	r3,r2,21
   436d4:	18004a26 	beq	r3,zero,43800 <_malloc_r+0x5fc>
   436d8:	10c01568 	cmpgeui	r3,r2,85
   436dc:	18007b1e 	bne	r3,zero,438cc <_malloc_r+0x6c8>
   436e0:	8804d33a 	srli	r2,r17,12
   436e4:	11c01bc4 	addi	r7,r2,111
   436e8:	380890fa 	slli	r4,r7,3
   436ec:	12001b84 	addi	r8,r2,110
   436f0:	003efd06 	br	432e8 <_malloc_r+0xe4>
   436f4:	63000044 	addi	r12,r12,1
   436f8:	608000cc 	andi	r2,r12,3
   436fc:	42000204 	addi	r8,r8,8
   43700:	103f3e1e 	bne	r2,zero,433fc <_malloc_r+0x1f8>
   43704:	00004506 	br	4381c <_malloc_r+0x618>
   43708:	81000217 	ldw	r4,8(r16)
   4370c:	89800054 	ori	r6,r17,1
   43710:	81800115 	stw	r6,4(r16)
   43714:	20800315 	stw	r2,12(r4)
   43718:	11000215 	stw	r4,8(r2)
   4371c:	8463883a 	add	r17,r16,r17
   43720:	9c400515 	stw	r17,20(r19)
   43724:	9c400415 	stw	r17,16(r19)
   43728:	28800054 	ori	r2,r5,1
   4372c:	88800115 	stw	r2,4(r17)
   43730:	8a400315 	stw	r9,12(r17)
   43734:	8a400215 	stw	r9,8(r17)
   43738:	80c7883a 	add	r3,r16,r3
   4373c:	19400015 	stw	r5,0(r3)
   43740:	9009883a 	mov	r4,r18
   43744:	00535980 	call	53598 <__malloc_unlock>
   43748:	80800204 	addi	r2,r16,8
   4374c:	003f4306 	br	4345c <_malloc_r+0x258>
   43750:	880ed0fa 	srli	r7,r17,3
   43754:	88800204 	addi	r2,r17,8
   43758:	003ebf06 	br	43258 <_malloc_r+0x54>
   4375c:	8085883a 	add	r2,r16,r2
   43760:	10c00117 	ldw	r3,4(r2)
   43764:	9009883a 	mov	r4,r18
   43768:	18c00054 	ori	r3,r3,1
   4376c:	10c00115 	stw	r3,4(r2)
   43770:	00535980 	call	53598 <__malloc_unlock>
   43774:	80800204 	addi	r2,r16,8
   43778:	003f3806 	br	4345c <_malloc_r+0x258>
   4377c:	89000054 	ori	r4,r17,1
   43780:	81000115 	stw	r4,4(r16)
   43784:	8463883a 	add	r17,r16,r17
   43788:	9c400515 	stw	r17,20(r19)
   4378c:	9c400415 	stw	r17,16(r19)
   43790:	19000054 	ori	r4,r3,1
   43794:	89000115 	stw	r4,4(r17)
   43798:	8085883a 	add	r2,r16,r2
   4379c:	8a400315 	stw	r9,12(r17)
   437a0:	8a400215 	stw	r9,8(r17)
   437a4:	10c00015 	stw	r3,0(r2)
   437a8:	9009883a 	mov	r4,r18
   437ac:	00535980 	call	53598 <__malloc_unlock>
   437b0:	80800204 	addi	r2,r16,8
   437b4:	003f2906 	br	4345c <_malloc_r+0x258>
   437b8:	1006d1ba 	srli	r3,r2,6
   437bc:	19400e44 	addi	r5,r3,57
   437c0:	280a90fa 	slli	r5,r5,3
   437c4:	19000e04 	addi	r4,r3,56
   437c8:	003fb006 	br	4368c <_malloc_r+0x488>
   437cc:	84c04626 	beq	r16,r19,438e8 <_malloc_r+0x6e4>
   437d0:	9c000217 	ldw	r16,8(r19)
   437d4:	85400117 	ldw	r21,4(r16)
   437d8:	00bfff04 	movi	r2,-4
   437dc:	a8aa703a 	and	r21,r21,r2
   437e0:	ac45c83a 	sub	r2,r21,r17
   437e4:	ac400236 	bltu	r21,r17,437f0 <_malloc_r+0x5ec>
   437e8:	10c00408 	cmpgei	r3,r2,16
   437ec:	183f931e 	bne	r3,zero,4363c <_malloc_r+0x438>
   437f0:	9009883a 	mov	r4,r18
   437f4:	00535980 	call	53598 <__malloc_unlock>
   437f8:	0005883a 	mov	r2,zero
   437fc:	003f1706 	br	4345c <_malloc_r+0x258>
   43800:	11c01704 	addi	r7,r2,92
   43804:	380890fa 	slli	r4,r7,3
   43808:	120016c4 	addi	r8,r2,91
   4380c:	003eb606 	br	432e8 <_malloc_r+0xe4>
   43810:	58800217 	ldw	r2,8(r11)
   43814:	39ffffc4 	addi	r7,r7,-1
   43818:	12c0701e 	bne	r2,r11,439dc <_malloc_r+0x7d8>
   4381c:	388000cc 	andi	r2,r7,3
   43820:	5afffe04 	addi	r11,r11,-8
   43824:	103ffa1e 	bne	r2,zero,43810 <_malloc_r+0x60c>
   43828:	98c00117 	ldw	r3,4(r19)
   4382c:	0104303a 	nor	r2,zero,r4
   43830:	10c4703a 	and	r2,r2,r3
   43834:	98800115 	stw	r2,4(r19)
   43838:	2109883a 	add	r4,r4,r4
   4383c:	113f2336 	bltu	r2,r4,434cc <_malloc_r+0x2c8>
   43840:	203f2226 	beq	r4,zero,434cc <_malloc_r+0x2c8>
   43844:	2086703a 	and	r3,r4,r2
   43848:	1800041e 	bne	r3,zero,4385c <_malloc_r+0x658>
   4384c:	2109883a 	add	r4,r4,r4
   43850:	2086703a 	and	r3,r4,r2
   43854:	63000104 	addi	r12,r12,4
   43858:	183ffc26 	beq	r3,zero,4384c <_malloc_r+0x648>
   4385c:	600f883a 	mov	r7,r12
   43860:	003ee206 	br	433ec <_malloc_r+0x1e8>
   43864:	ad400404 	addi	r21,r21,16
   43868:	003f2b06 	br	43518 <_malloc_r+0x314>
   4386c:	2009d0ba 	srai	r4,r4,2
   43870:	00800044 	movi	r2,1
   43874:	99800117 	ldw	r6,4(r19)
   43878:	1104983a 	sll	r2,r2,r4
   4387c:	1184b03a 	or	r2,r2,r6
   43880:	98800115 	stw	r2,4(r19)
   43884:	003f8d06 	br	436bc <_malloc_r+0x4b8>
   43888:	bd69883a 	add	r20,r23,r21
   4388c:	0529c83a 	sub	r20,zero,r20
   43890:	a503ffcc 	andi	r20,r20,4095
   43894:	a00b883a 	mov	r5,r20
   43898:	9009883a 	mov	r4,r18
   4389c:	0043c180 	call	43c18 <_sbrk_r>
   438a0:	10ffffe0 	cmpeqi	r3,r2,-1
   438a4:	183f3f26 	beq	r3,zero,435a4 <_malloc_r+0x3a0>
   438a8:	0029883a 	mov	r20,zero
   438ac:	003f3f06 	br	435ac <_malloc_r+0x3a8>
   438b0:	19001568 	cmpgeui	r4,r3,85
   438b4:	2000201e 	bne	r4,zero,43938 <_malloc_r+0x734>
   438b8:	1006d33a 	srli	r3,r2,12
   438bc:	19401bc4 	addi	r5,r3,111
   438c0:	280a90fa 	slli	r5,r5,3
   438c4:	19001b84 	addi	r4,r3,110
   438c8:	003f7006 	br	4368c <_malloc_r+0x488>
   438cc:	10c05568 	cmpgeui	r3,r2,341
   438d0:	1800201e 	bne	r3,zero,43954 <_malloc_r+0x750>
   438d4:	8804d3fa 	srli	r2,r17,15
   438d8:	11c01e04 	addi	r7,r2,120
   438dc:	380890fa 	slli	r4,r7,3
   438e0:	12001dc4 	addi	r8,r2,119
   438e4:	003e8006 	br	432e8 <_malloc_r+0xe4>
   438e8:	008001b4 	movhi	r2,6
   438ec:	10e63e17 	ldw	r3,-26376(r2)
   438f0:	a8c7883a 	add	r3,r21,r3
   438f4:	10e63e15 	stw	r3,-26376(r2)
   438f8:	003f1406 	br	4354c <_malloc_r+0x348>
   438fc:	e083ffcc 	andi	r2,fp,4095
   43900:	103f121e 	bne	r2,zero,4354c <_malloc_r+0x348>
   43904:	9c000217 	ldw	r16,8(r19)
   43908:	b56b883a 	add	r21,r22,r21
   4390c:	ad400054 	ori	r21,r21,1
   43910:	85400115 	stw	r21,4(r16)
   43914:	003f3e06 	br	43610 <_malloc_r+0x40c>
   43918:	00800174 	movhi	r2,5
   4391c:	15df1a15 	stw	r23,31848(r2)
   43920:	003f1206 	br	4356c <_malloc_r+0x368>
   43924:	b821883a 	mov	r16,r23
   43928:	003f3906 	br	43610 <_malloc_r+0x40c>
   4392c:	00800044 	movi	r2,1
   43930:	b8800115 	stw	r2,4(r23)
   43934:	003fae06 	br	437f0 <_malloc_r+0x5ec>
   43938:	19005568 	cmpgeui	r4,r3,341
   4393c:	2000191e 	bne	r4,zero,439a4 <_malloc_r+0x7a0>
   43940:	1006d3fa 	srli	r3,r2,15
   43944:	19401e04 	addi	r5,r3,120
   43948:	280a90fa 	slli	r5,r5,3
   4394c:	19001dc4 	addi	r4,r3,119
   43950:	003f4e06 	br	4368c <_malloc_r+0x488>
   43954:	10815568 	cmpgeui	r2,r2,1365
   43958:	1000191e 	bne	r2,zero,439c0 <_malloc_r+0x7bc>
   4395c:	8804d4ba 	srli	r2,r17,18
   43960:	11c01f44 	addi	r7,r2,125
   43964:	380890fa 	slli	r4,r7,3
   43968:	12001f04 	addi	r8,r2,124
   4396c:	003e5e06 	br	432e8 <_malloc_r+0xe4>
   43970:	e73ffe04 	addi	fp,fp,-8
   43974:	af2b883a 	add	r21,r21,fp
   43978:	adebc83a 	sub	r21,r21,r23
   4397c:	0029883a 	mov	r20,zero
   43980:	003f0a06 	br	435ac <_malloc_r+0x3a8>
   43984:	81400204 	addi	r5,r16,8
   43988:	9009883a 	mov	r4,r18
   4398c:	004a6740 	call	4a674 <_free_r>
   43990:	9c000217 	ldw	r16,8(r19)
   43994:	008001b4 	movhi	r2,6
   43998:	15263e17 	ldw	r20,-26376(r2)
   4399c:	85400117 	ldw	r21,4(r16)
   439a0:	003f1b06 	br	43610 <_malloc_r+0x40c>
   439a4:	18c15568 	cmpgeui	r3,r3,1365
   439a8:	1800091e 	bne	r3,zero,439d0 <_malloc_r+0x7cc>
   439ac:	1006d4ba 	srli	r3,r2,18
   439b0:	19401f44 	addi	r5,r3,125
   439b4:	280a90fa 	slli	r5,r5,3
   439b8:	19001f04 	addi	r4,r3,124
   439bc:	003f3306 	br	4368c <_malloc_r+0x488>
   439c0:	0100fe04 	movi	r4,1016
   439c4:	01c01fc4 	movi	r7,127
   439c8:	02001f84 	movi	r8,126
   439cc:	003e4606 	br	432e8 <_malloc_r+0xe4>
   439d0:	0140fe04 	movi	r5,1016
   439d4:	01001f84 	movi	r4,126
   439d8:	003f2c06 	br	4368c <_malloc_r+0x488>
   439dc:	98800117 	ldw	r2,4(r19)
   439e0:	003f9506 	br	43838 <_malloc_r+0x634>

000439e4 <memset>:
   439e4:	20c000cc 	andi	r3,r4,3
   439e8:	2005883a 	mov	r2,r4
   439ec:	18003626 	beq	r3,zero,43ac8 <memset+0xe4>
   439f0:	31ffffc4 	addi	r7,r6,-1
   439f4:	30003326 	beq	r6,zero,43ac4 <memset+0xe0>
   439f8:	2811883a 	mov	r8,r5
   439fc:	2007883a 	mov	r3,r4
   43a00:	00000306 	br	43a10 <memset+0x2c>
   43a04:	39ffffc4 	addi	r7,r7,-1
   43a08:	39bfffe0 	cmpeqi	r6,r7,-1
   43a0c:	30002d1e 	bne	r6,zero,43ac4 <memset+0xe0>
   43a10:	18c00044 	addi	r3,r3,1
   43a14:	198000cc 	andi	r6,r3,3
   43a18:	1a3fffc5 	stb	r8,-1(r3)
   43a1c:	303ff91e 	bne	r6,zero,43a04 <memset+0x20>
   43a20:	39000130 	cmpltui	r4,r7,4
   43a24:	2000221e 	bne	r4,zero,43ab0 <memset+0xcc>
   43a28:	29003fcc 	andi	r4,r5,255
   43a2c:	200c923a 	slli	r6,r4,8
   43a30:	3a000430 	cmpltui	r8,r7,16
   43a34:	3108b03a 	or	r4,r6,r4
   43a38:	200c943a 	slli	r6,r4,16
   43a3c:	310cb03a 	or	r6,r6,r4
   43a40:	40000e1e 	bne	r8,zero,43a7c <memset+0x98>
   43a44:	393ffc04 	addi	r4,r7,-16
   43a48:	2008d13a 	srli	r4,r4,4
   43a4c:	21000044 	addi	r4,r4,1
   43a50:	2008913a 	slli	r4,r4,4
   43a54:	1909883a 	add	r4,r3,r4
   43a58:	19800015 	stw	r6,0(r3)
   43a5c:	19800115 	stw	r6,4(r3)
   43a60:	19800215 	stw	r6,8(r3)
   43a64:	19800315 	stw	r6,12(r3)
   43a68:	18c00404 	addi	r3,r3,16
   43a6c:	20fffa1e 	bne	r4,r3,43a58 <memset+0x74>
   43a70:	3900030c 	andi	r4,r7,12
   43a74:	39c003cc 	andi	r7,r7,15
   43a78:	20000d26 	beq	r4,zero,43ab0 <memset+0xcc>
   43a7c:	1811883a 	mov	r8,r3
   43a80:	42000104 	addi	r8,r8,4
   43a84:	3a09c83a 	sub	r4,r7,r8
   43a88:	1909883a 	add	r4,r3,r4
   43a8c:	21000128 	cmpgeui	r4,r4,4
   43a90:	41bfff15 	stw	r6,-4(r8)
   43a94:	203ffa1e 	bne	r4,zero,43a80 <memset+0x9c>
   43a98:	393fff04 	addi	r4,r7,-4
   43a9c:	2008d0ba 	srli	r4,r4,2
   43aa0:	39c000cc 	andi	r7,r7,3
   43aa4:	21000044 	addi	r4,r4,1
   43aa8:	200890ba 	slli	r4,r4,2
   43aac:	1907883a 	add	r3,r3,r4
   43ab0:	38000426 	beq	r7,zero,43ac4 <memset+0xe0>
   43ab4:	19cf883a 	add	r7,r3,r7
   43ab8:	18c00044 	addi	r3,r3,1
   43abc:	197fffc5 	stb	r5,-1(r3)
   43ac0:	38fffd1e 	bne	r7,r3,43ab8 <memset+0xd4>
   43ac4:	f800283a 	ret
   43ac8:	2007883a 	mov	r3,r4
   43acc:	300f883a 	mov	r7,r6
   43ad0:	003fd306 	br	43a20 <memset+0x3c>

00043ad4 <_printf_r>:
   43ad4:	defffd04 	addi	sp,sp,-12
   43ad8:	2805883a 	mov	r2,r5
   43adc:	dfc00015 	stw	ra,0(sp)
   43ae0:	d9800115 	stw	r6,4(sp)
   43ae4:	d9c00215 	stw	r7,8(sp)
   43ae8:	21400217 	ldw	r5,8(r4)
   43aec:	d9c00104 	addi	r7,sp,4
   43af0:	100d883a 	mov	r6,r2
   43af4:	00463040 	call	46304 <___vfprintf_internal_r>
   43af8:	dfc00017 	ldw	ra,0(sp)
   43afc:	dec00304 	addi	sp,sp,12
   43b00:	f800283a 	ret

00043b04 <printf>:
   43b04:	defffc04 	addi	sp,sp,-16
   43b08:	dfc00015 	stw	ra,0(sp)
   43b0c:	d9400115 	stw	r5,4(sp)
   43b10:	d9800215 	stw	r6,8(sp)
   43b14:	d9c00315 	stw	r7,12(sp)
   43b18:	00800174 	movhi	r2,5
   43b1c:	109f1d17 	ldw	r2,31860(r2)
   43b20:	200b883a 	mov	r5,r4
   43b24:	d9800104 	addi	r6,sp,4
   43b28:	11000217 	ldw	r4,8(r2)
   43b2c:	00483e00 	call	483e0 <__vfprintf_internal>
   43b30:	dfc00017 	ldw	ra,0(sp)
   43b34:	dec00404 	addi	sp,sp,16
   43b38:	f800283a 	ret

00043b3c <_puts_r>:
   43b3c:	defff504 	addi	sp,sp,-44
   43b40:	dc000815 	stw	r16,32(sp)
   43b44:	2021883a 	mov	r16,r4
   43b48:	2809883a 	mov	r4,r5
   43b4c:	dc400915 	stw	r17,36(sp)
   43b50:	dfc00a15 	stw	ra,40(sp)
   43b54:	2823883a 	mov	r17,r5
   43b58:	00441d00 	call	441d0 <strlen>
   43b5c:	11000044 	addi	r4,r2,1
   43b60:	d8800515 	stw	r2,20(sp)
   43b64:	00800044 	movi	r2,1
   43b68:	00c00174 	movhi	r3,5
   43b6c:	d8800715 	stw	r2,28(sp)
   43b70:	d8800404 	addi	r2,sp,16
   43b74:	18d6c704 	addi	r3,r3,23324
   43b78:	d8800115 	stw	r2,4(sp)
   43b7c:	00800084 	movi	r2,2
   43b80:	dc400415 	stw	r17,16(sp)
   43b84:	d8c00615 	stw	r3,24(sp)
   43b88:	d9000315 	stw	r4,12(sp)
   43b8c:	d8800215 	stw	r2,8(sp)
   43b90:	81400217 	ldw	r5,8(r16)
   43b94:	80000226 	beq	r16,zero,43ba0 <_puts_r+0x64>
   43b98:	80800e17 	ldw	r2,56(r16)
   43b9c:	10001326 	beq	r2,zero,43bec <_puts_r+0xb0>
   43ba0:	2880030b 	ldhu	r2,12(r5)
   43ba4:	10c8000c 	andi	r3,r2,8192
   43ba8:	1800061e 	bne	r3,zero,43bc4 <_puts_r+0x88>
   43bac:	28c01917 	ldw	r3,100(r5)
   43bb0:	0137ffc4 	movi	r4,-8193
   43bb4:	10880014 	ori	r2,r2,8192
   43bb8:	1906703a 	and	r3,r3,r4
   43bbc:	2880030d 	sth	r2,12(r5)
   43bc0:	28c01915 	stw	r3,100(r5)
   43bc4:	d9800104 	addi	r6,sp,4
   43bc8:	8009883a 	mov	r4,r16
   43bcc:	004a9700 	call	4a970 <__sfvwrite_r>
   43bd0:	10000b1e 	bne	r2,zero,43c00 <_puts_r+0xc4>
   43bd4:	00800284 	movi	r2,10
   43bd8:	dfc00a17 	ldw	ra,40(sp)
   43bdc:	dc400917 	ldw	r17,36(sp)
   43be0:	dc000817 	ldw	r16,32(sp)
   43be4:	dec00b04 	addi	sp,sp,44
   43be8:	f800283a 	ret
   43bec:	8009883a 	mov	r4,r16
   43bf0:	d9400015 	stw	r5,0(sp)
   43bf4:	004a5100 	call	4a510 <__sinit>
   43bf8:	d9400017 	ldw	r5,0(sp)
   43bfc:	003fe806 	br	43ba0 <_puts_r+0x64>
   43c00:	00bfffc4 	movi	r2,-1
   43c04:	003ff406 	br	43bd8 <_puts_r+0x9c>

00043c08 <puts>:
   43c08:	00800174 	movhi	r2,5
   43c0c:	200b883a 	mov	r5,r4
   43c10:	111f1d17 	ldw	r4,31860(r2)
   43c14:	0043b3c1 	jmpi	43b3c <_puts_r>

00043c18 <_sbrk_r>:
   43c18:	defffe04 	addi	sp,sp,-8
   43c1c:	dc000015 	stw	r16,0(sp)
   43c20:	008001b4 	movhi	r2,6
   43c24:	2021883a 	mov	r16,r4
   43c28:	2809883a 	mov	r4,r5
   43c2c:	dfc00115 	stw	ra,4(sp)
   43c30:	10263115 	stw	zero,-26428(r2)
   43c34:	005374c0 	call	5374c <sbrk>
   43c38:	10ffffd8 	cmpnei	r3,r2,-1
   43c3c:	18000426 	beq	r3,zero,43c50 <_sbrk_r+0x38>
   43c40:	dfc00117 	ldw	ra,4(sp)
   43c44:	dc000017 	ldw	r16,0(sp)
   43c48:	dec00204 	addi	sp,sp,8
   43c4c:	f800283a 	ret
   43c50:	00c001b4 	movhi	r3,6
   43c54:	18e63117 	ldw	r3,-26428(r3)
   43c58:	183ff926 	beq	r3,zero,43c40 <_sbrk_r+0x28>
   43c5c:	80c00015 	stw	r3,0(r16)
   43c60:	dfc00117 	ldw	ra,4(sp)
   43c64:	dc000017 	ldw	r16,0(sp)
   43c68:	dec00204 	addi	sp,sp,8
   43c6c:	f800283a 	ret

00043c70 <_init_signal_r.part.0>:
   43c70:	defffe04 	addi	sp,sp,-8
   43c74:	01402004 	movi	r5,128
   43c78:	dc000015 	stw	r16,0(sp)
   43c7c:	dfc00115 	stw	ra,4(sp)
   43c80:	2021883a 	mov	r16,r4
   43c84:	00432040 	call	43204 <_malloc_r>
   43c88:	8080b715 	stw	r2,732(r16)
   43c8c:	10000926 	beq	r2,zero,43cb4 <_init_signal_r.part.0+0x44>
   43c90:	10c02004 	addi	r3,r2,128
   43c94:	10000015 	stw	zero,0(r2)
   43c98:	10800104 	addi	r2,r2,4
   43c9c:	10fffd1e 	bne	r2,r3,43c94 <_init_signal_r.part.0+0x24>
   43ca0:	0005883a 	mov	r2,zero
   43ca4:	dfc00117 	ldw	ra,4(sp)
   43ca8:	dc000017 	ldw	r16,0(sp)
   43cac:	dec00204 	addi	sp,sp,8
   43cb0:	f800283a 	ret
   43cb4:	00bfffc4 	movi	r2,-1
   43cb8:	003ffa06 	br	43ca4 <_init_signal_r.part.0+0x34>

00043cbc <_init_signal_r>:
   43cbc:	2080b717 	ldw	r2,732(r4)
   43cc0:	10000226 	beq	r2,zero,43ccc <_init_signal_r+0x10>
   43cc4:	0005883a 	mov	r2,zero
   43cc8:	f800283a 	ret
   43ccc:	0043c701 	jmpi	43c70 <_init_signal_r.part.0>

00043cd0 <_signal_r>:
   43cd0:	defffc04 	addi	sp,sp,-16
   43cd4:	dc000215 	stw	r16,8(sp)
   43cd8:	dfc00315 	stw	ra,12(sp)
   43cdc:	28800830 	cmpltui	r2,r5,32
   43ce0:	2021883a 	mov	r16,r4
   43ce4:	10000a26 	beq	r2,zero,43d10 <_signal_r+0x40>
   43ce8:	2080b717 	ldw	r2,732(r4)
   43cec:	10000f26 	beq	r2,zero,43d2c <_signal_r+0x5c>
   43cf0:	280a90ba 	slli	r5,r5,2
   43cf4:	114b883a 	add	r5,r2,r5
   43cf8:	28800017 	ldw	r2,0(r5)
   43cfc:	29800015 	stw	r6,0(r5)
   43d00:	dfc00317 	ldw	ra,12(sp)
   43d04:	dc000217 	ldw	r16,8(sp)
   43d08:	dec00404 	addi	sp,sp,16
   43d0c:	f800283a 	ret
   43d10:	00800584 	movi	r2,22
   43d14:	20800015 	stw	r2,0(r4)
   43d18:	00bfffc4 	movi	r2,-1
   43d1c:	dfc00317 	ldw	ra,12(sp)
   43d20:	dc000217 	ldw	r16,8(sp)
   43d24:	dec00404 	addi	sp,sp,16
   43d28:	f800283a 	ret
   43d2c:	d9800115 	stw	r6,4(sp)
   43d30:	d9400015 	stw	r5,0(sp)
   43d34:	0043c700 	call	43c70 <_init_signal_r.part.0>
   43d38:	1000041e 	bne	r2,zero,43d4c <_signal_r+0x7c>
   43d3c:	8080b717 	ldw	r2,732(r16)
   43d40:	d9800117 	ldw	r6,4(sp)
   43d44:	d9400017 	ldw	r5,0(sp)
   43d48:	003fe906 	br	43cf0 <_signal_r+0x20>
   43d4c:	00bfffc4 	movi	r2,-1
   43d50:	003feb06 	br	43d00 <_signal_r+0x30>

00043d54 <_raise_r>:
   43d54:	28800830 	cmpltui	r2,r5,32
   43d58:	10002b26 	beq	r2,zero,43e08 <_raise_r+0xb4>
   43d5c:	2080b717 	ldw	r2,732(r4)
   43d60:	defffd04 	addi	sp,sp,-12
   43d64:	dc000115 	stw	r16,4(sp)
   43d68:	dfc00215 	stw	ra,8(sp)
   43d6c:	2821883a 	mov	r16,r5
   43d70:	10001026 	beq	r2,zero,43db4 <_raise_r+0x60>
   43d74:	280690ba 	slli	r3,r5,2
   43d78:	10c5883a 	add	r2,r2,r3
   43d7c:	10c00017 	ldw	r3,0(r2)
   43d80:	18000c26 	beq	r3,zero,43db4 <_raise_r+0x60>
   43d84:	19400060 	cmpeqi	r5,r3,1
   43d88:	28001a1e 	bne	r5,zero,43df4 <_raise_r+0xa0>
   43d8c:	197fffd8 	cmpnei	r5,r3,-1
   43d90:	28001126 	beq	r5,zero,43dd8 <_raise_r+0x84>
   43d94:	10000015 	stw	zero,0(r2)
   43d98:	8009883a 	mov	r4,r16
   43d9c:	183ee83a 	callr	r3
   43da0:	0005883a 	mov	r2,zero
   43da4:	dfc00217 	ldw	ra,8(sp)
   43da8:	dc000117 	ldw	r16,4(sp)
   43dac:	dec00304 	addi	sp,sp,12
   43db0:	f800283a 	ret
   43db4:	d9000015 	stw	r4,0(sp)
   43db8:	0043f840 	call	43f84 <_getpid_r>
   43dbc:	d9000017 	ldw	r4,0(sp)
   43dc0:	800d883a 	mov	r6,r16
   43dc4:	100b883a 	mov	r5,r2
   43dc8:	dfc00217 	ldw	ra,8(sp)
   43dcc:	dc000117 	ldw	r16,4(sp)
   43dd0:	dec00304 	addi	sp,sp,12
   43dd4:	0043f241 	jmpi	43f24 <_kill_r>
   43dd8:	00800584 	movi	r2,22
   43ddc:	20800015 	stw	r2,0(r4)
   43de0:	00800044 	movi	r2,1
   43de4:	dfc00217 	ldw	ra,8(sp)
   43de8:	dc000117 	ldw	r16,4(sp)
   43dec:	dec00304 	addi	sp,sp,12
   43df0:	f800283a 	ret
   43df4:	0005883a 	mov	r2,zero
   43df8:	dfc00217 	ldw	ra,8(sp)
   43dfc:	dc000117 	ldw	r16,4(sp)
   43e00:	dec00304 	addi	sp,sp,12
   43e04:	f800283a 	ret
   43e08:	00800584 	movi	r2,22
   43e0c:	20800015 	stw	r2,0(r4)
   43e10:	00bfffc4 	movi	r2,-1
   43e14:	f800283a 	ret

00043e18 <__sigtramp_r>:
   43e18:	28800830 	cmpltui	r2,r5,32
   43e1c:	10002a26 	beq	r2,zero,43ec8 <__sigtramp_r+0xb0>
   43e20:	2080b717 	ldw	r2,732(r4)
   43e24:	defffd04 	addi	sp,sp,-12
   43e28:	dc400115 	stw	r17,4(sp)
   43e2c:	dfc00215 	stw	ra,8(sp)
   43e30:	2023883a 	mov	r17,r4
   43e34:	10001526 	beq	r2,zero,43e8c <__sigtramp_r+0x74>
   43e38:	280690ba 	slli	r3,r5,2
   43e3c:	10c5883a 	add	r2,r2,r3
   43e40:	10c00017 	ldw	r3,0(r2)
   43e44:	18000c26 	beq	r3,zero,43e78 <__sigtramp_r+0x60>
   43e48:	193fffe0 	cmpeqi	r4,r3,-1
   43e4c:	20001a1e 	bne	r4,zero,43eb8 <__sigtramp_r+0xa0>
   43e50:	19000060 	cmpeqi	r4,r3,1
   43e54:	2000131e 	bne	r4,zero,43ea4 <__sigtramp_r+0x8c>
   43e58:	10000015 	stw	zero,0(r2)
   43e5c:	2809883a 	mov	r4,r5
   43e60:	183ee83a 	callr	r3
   43e64:	0005883a 	mov	r2,zero
   43e68:	dfc00217 	ldw	ra,8(sp)
   43e6c:	dc400117 	ldw	r17,4(sp)
   43e70:	dec00304 	addi	sp,sp,12
   43e74:	f800283a 	ret
   43e78:	00800044 	movi	r2,1
   43e7c:	dfc00217 	ldw	ra,8(sp)
   43e80:	dc400117 	ldw	r17,4(sp)
   43e84:	dec00304 	addi	sp,sp,12
   43e88:	f800283a 	ret
   43e8c:	d9400015 	stw	r5,0(sp)
   43e90:	0043c700 	call	43c70 <_init_signal_r.part.0>
   43e94:	10000a1e 	bne	r2,zero,43ec0 <__sigtramp_r+0xa8>
   43e98:	8880b717 	ldw	r2,732(r17)
   43e9c:	d9400017 	ldw	r5,0(sp)
   43ea0:	003fe506 	br	43e38 <__sigtramp_r+0x20>
   43ea4:	008000c4 	movi	r2,3
   43ea8:	dfc00217 	ldw	ra,8(sp)
   43eac:	dc400117 	ldw	r17,4(sp)
   43eb0:	dec00304 	addi	sp,sp,12
   43eb4:	f800283a 	ret
   43eb8:	00800084 	movi	r2,2
   43ebc:	003fea06 	br	43e68 <__sigtramp_r+0x50>
   43ec0:	00bfffc4 	movi	r2,-1
   43ec4:	003fe806 	br	43e68 <__sigtramp_r+0x50>
   43ec8:	00bfffc4 	movi	r2,-1
   43ecc:	f800283a 	ret

00043ed0 <raise>:
   43ed0:	00800174 	movhi	r2,5
   43ed4:	200b883a 	mov	r5,r4
   43ed8:	111f1d17 	ldw	r4,31860(r2)
   43edc:	0043d541 	jmpi	43d54 <_raise_r>

00043ee0 <signal>:
   43ee0:	00c00174 	movhi	r3,5
   43ee4:	2005883a 	mov	r2,r4
   43ee8:	191f1d17 	ldw	r4,31860(r3)
   43eec:	280d883a 	mov	r6,r5
   43ef0:	100b883a 	mov	r5,r2
   43ef4:	0043cd01 	jmpi	43cd0 <_signal_r>

00043ef8 <_init_signal>:
   43ef8:	00800174 	movhi	r2,5
   43efc:	111f1d17 	ldw	r4,31860(r2)
   43f00:	2080b717 	ldw	r2,732(r4)
   43f04:	10000226 	beq	r2,zero,43f10 <_init_signal+0x18>
   43f08:	0005883a 	mov	r2,zero
   43f0c:	f800283a 	ret
   43f10:	0043c701 	jmpi	43c70 <_init_signal_r.part.0>

00043f14 <__sigtramp>:
   43f14:	00800174 	movhi	r2,5
   43f18:	200b883a 	mov	r5,r4
   43f1c:	111f1d17 	ldw	r4,31860(r2)
   43f20:	0043e181 	jmpi	43e18 <__sigtramp_r>

00043f24 <_kill_r>:
   43f24:	2807883a 	mov	r3,r5
   43f28:	defffe04 	addi	sp,sp,-8
   43f2c:	dc000015 	stw	r16,0(sp)
   43f30:	008001b4 	movhi	r2,6
   43f34:	300b883a 	mov	r5,r6
   43f38:	2021883a 	mov	r16,r4
   43f3c:	1809883a 	mov	r4,r3
   43f40:	dfc00115 	stw	ra,4(sp)
   43f44:	10263115 	stw	zero,-26428(r2)
   43f48:	00531d00 	call	531d0 <kill>
   43f4c:	10ffffd8 	cmpnei	r3,r2,-1
   43f50:	18000426 	beq	r3,zero,43f64 <_kill_r+0x40>
   43f54:	dfc00117 	ldw	ra,4(sp)
   43f58:	dc000017 	ldw	r16,0(sp)
   43f5c:	dec00204 	addi	sp,sp,8
   43f60:	f800283a 	ret
   43f64:	00c001b4 	movhi	r3,6
   43f68:	18e63117 	ldw	r3,-26428(r3)
   43f6c:	183ff926 	beq	r3,zero,43f54 <_kill_r+0x30>
   43f70:	80c00015 	stw	r3,0(r16)
   43f74:	dfc00117 	ldw	ra,4(sp)
   43f78:	dc000017 	ldw	r16,0(sp)
   43f7c:	dec00204 	addi	sp,sp,8
   43f80:	f800283a 	ret

00043f84 <_getpid_r>:
   43f84:	00530941 	jmpi	53094 <getpid>

00043f88 <_snprintf_r>:
   43f88:	deffe404 	addi	sp,sp,-112
   43f8c:	dc001a15 	stw	r16,104(sp)
   43f90:	dfc01b15 	stw	ra,108(sp)
   43f94:	3005883a 	mov	r2,r6
   43f98:	2021883a 	mov	r16,r4
   43f9c:	30002716 	blt	r6,zero,4403c <_snprintf_r+0xb4>
   43fa0:	00c08204 	movi	r3,520
   43fa4:	d8c0030d 	sth	r3,12(sp)
   43fa8:	d9400015 	stw	r5,0(sp)
   43fac:	d9400415 	stw	r5,16(sp)
   43fb0:	380d883a 	mov	r6,r7
   43fb4:	10001226 	beq	r2,zero,44000 <_snprintf_r+0x78>
   43fb8:	10bfffc4 	addi	r2,r2,-1
   43fbc:	d8800215 	stw	r2,8(sp)
   43fc0:	d8800515 	stw	r2,20(sp)
   43fc4:	d9c01c04 	addi	r7,sp,112
   43fc8:	00bfffc4 	movi	r2,-1
   43fcc:	d80b883a 	mov	r5,sp
   43fd0:	d880038d 	sth	r2,14(sp)
   43fd4:	00442680 	call	44268 <___svfprintf_internal_r>
   43fd8:	10ffffd0 	cmplti	r3,r2,-1
   43fdc:	18000226 	beq	r3,zero,43fe8 <_snprintf_r+0x60>
   43fe0:	00c022c4 	movi	r3,139
   43fe4:	80c00015 	stw	r3,0(r16)
   43fe8:	d8c00017 	ldw	r3,0(sp)
   43fec:	18000005 	stb	zero,0(r3)
   43ff0:	dfc01b17 	ldw	ra,108(sp)
   43ff4:	dc001a17 	ldw	r16,104(sp)
   43ff8:	dec01c04 	addi	sp,sp,112
   43ffc:	f800283a 	ret
   44000:	00bfffc4 	movi	r2,-1
   44004:	d9c01c04 	addi	r7,sp,112
   44008:	d80b883a 	mov	r5,sp
   4400c:	d8000215 	stw	zero,8(sp)
   44010:	d8000515 	stw	zero,20(sp)
   44014:	d880038d 	sth	r2,14(sp)
   44018:	00442680 	call	44268 <___svfprintf_internal_r>
   4401c:	10ffffd0 	cmplti	r3,r2,-1
   44020:	18000226 	beq	r3,zero,4402c <_snprintf_r+0xa4>
   44024:	00c022c4 	movi	r3,139
   44028:	80c00015 	stw	r3,0(r16)
   4402c:	dfc01b17 	ldw	ra,108(sp)
   44030:	dc001a17 	ldw	r16,104(sp)
   44034:	dec01c04 	addi	sp,sp,112
   44038:	f800283a 	ret
   4403c:	008022c4 	movi	r2,139
   44040:	20800015 	stw	r2,0(r4)
   44044:	00bfffc4 	movi	r2,-1
   44048:	003ff806 	br	4402c <_snprintf_r+0xa4>

0004404c <snprintf>:
   4404c:	deffe304 	addi	sp,sp,-116
   44050:	dfc01b15 	stw	ra,108(sp)
   44054:	dc001a15 	stw	r16,104(sp)
   44058:	d9c01c15 	stw	r7,112(sp)
   4405c:	00c00174 	movhi	r3,5
   44060:	1c1f1d17 	ldw	r16,31860(r3)
   44064:	28002816 	blt	r5,zero,44108 <snprintf+0xbc>
   44068:	00c08204 	movi	r3,520
   4406c:	d8c0030d 	sth	r3,12(sp)
   44070:	d9000015 	stw	r4,0(sp)
   44074:	d9000415 	stw	r4,16(sp)
   44078:	28001326 	beq	r5,zero,440c8 <snprintf+0x7c>
   4407c:	28bfffc4 	addi	r2,r5,-1
   44080:	d8800215 	stw	r2,8(sp)
   44084:	d8800515 	stw	r2,20(sp)
   44088:	d9c01c04 	addi	r7,sp,112
   4408c:	00bfffc4 	movi	r2,-1
   44090:	d80b883a 	mov	r5,sp
   44094:	8009883a 	mov	r4,r16
   44098:	d880038d 	sth	r2,14(sp)
   4409c:	00442680 	call	44268 <___svfprintf_internal_r>
   440a0:	10ffffd0 	cmplti	r3,r2,-1
   440a4:	18000226 	beq	r3,zero,440b0 <snprintf+0x64>
   440a8:	00c022c4 	movi	r3,139
   440ac:	80c00015 	stw	r3,0(r16)
   440b0:	d8c00017 	ldw	r3,0(sp)
   440b4:	18000005 	stb	zero,0(r3)
   440b8:	dfc01b17 	ldw	ra,108(sp)
   440bc:	dc001a17 	ldw	r16,104(sp)
   440c0:	dec01d04 	addi	sp,sp,116
   440c4:	f800283a 	ret
   440c8:	00bfffc4 	movi	r2,-1
   440cc:	d9c01c04 	addi	r7,sp,112
   440d0:	d80b883a 	mov	r5,sp
   440d4:	8009883a 	mov	r4,r16
   440d8:	d8000215 	stw	zero,8(sp)
   440dc:	d8000515 	stw	zero,20(sp)
   440e0:	d880038d 	sth	r2,14(sp)
   440e4:	00442680 	call	44268 <___svfprintf_internal_r>
   440e8:	10ffffd0 	cmplti	r3,r2,-1
   440ec:	18000226 	beq	r3,zero,440f8 <snprintf+0xac>
   440f0:	00c022c4 	movi	r3,139
   440f4:	80c00015 	stw	r3,0(r16)
   440f8:	dfc01b17 	ldw	ra,108(sp)
   440fc:	dc001a17 	ldw	r16,104(sp)
   44100:	dec01d04 	addi	sp,sp,116
   44104:	f800283a 	ret
   44108:	008022c4 	movi	r2,139
   4410c:	80800015 	stw	r2,0(r16)
   44110:	00bfffc4 	movi	r2,-1
   44114:	003ff806 	br	440f8 <snprintf+0xac>

00044118 <strcmp>:
   44118:	2144b03a 	or	r2,r4,r5
   4411c:	108000cc 	andi	r2,r2,3
   44120:	1000141e 	bne	r2,zero,44174 <strcmp+0x5c>
   44124:	20800017 	ldw	r2,0(r4)
   44128:	28c00017 	ldw	r3,0(r5)
   4412c:	10c0111e 	bne	r2,r3,44174 <strcmp+0x5c>
   44130:	01ffbff4 	movhi	r7,65279
   44134:	01a02074 	movhi	r6,32897
   44138:	39ffbfc4 	addi	r7,r7,-257
   4413c:	31a02004 	addi	r6,r6,-32640
   44140:	00000306 	br	44150 <strcmp+0x38>
   44144:	20800017 	ldw	r2,0(r4)
   44148:	28c00017 	ldw	r3,0(r5)
   4414c:	10c0091e 	bne	r2,r3,44174 <strcmp+0x5c>
   44150:	11c7883a 	add	r3,r2,r7
   44154:	0084303a 	nor	r2,zero,r2
   44158:	1884703a 	and	r2,r3,r2
   4415c:	1184703a 	and	r2,r2,r6
   44160:	21000104 	addi	r4,r4,4
   44164:	29400104 	addi	r5,r5,4
   44168:	103ff626 	beq	r2,zero,44144 <strcmp+0x2c>
   4416c:	0005883a 	mov	r2,zero
   44170:	f800283a 	ret
   44174:	20c00003 	ldbu	r3,0(r4)
   44178:	18803fcc 	andi	r2,r3,255
   4417c:	1080201c 	xori	r2,r2,128
   44180:	10bfe004 	addi	r2,r2,-128
   44184:	1000071e 	bne	r2,zero,441a4 <strcmp+0x8c>
   44188:	00000a06 	br	441b4 <strcmp+0x9c>
   4418c:	20c00003 	ldbu	r3,0(r4)
   44190:	29400044 	addi	r5,r5,1
   44194:	18803fcc 	andi	r2,r3,255
   44198:	1080201c 	xori	r2,r2,128
   4419c:	10bfe004 	addi	r2,r2,-128
   441a0:	10000726 	beq	r2,zero,441c0 <strcmp+0xa8>
   441a4:	29800007 	ldb	r6,0(r5)
   441a8:	21000044 	addi	r4,r4,1
   441ac:	30bff726 	beq	r6,r2,4418c <strcmp+0x74>
   441b0:	18803fcc 	andi	r2,r3,255
   441b4:	28c00003 	ldbu	r3,0(r5)
   441b8:	10c5c83a 	sub	r2,r2,r3
   441bc:	f800283a 	ret
   441c0:	28c00003 	ldbu	r3,0(r5)
   441c4:	0005883a 	mov	r2,zero
   441c8:	10c5c83a 	sub	r2,r2,r3
   441cc:	f800283a 	ret

000441d0 <strlen>:
   441d0:	208000cc 	andi	r2,r4,3
   441d4:	10000926 	beq	r2,zero,441fc <strlen+0x2c>
   441d8:	2005883a 	mov	r2,r4
   441dc:	00000306 	br	441ec <strlen+0x1c>
   441e0:	10800044 	addi	r2,r2,1
   441e4:	10c000cc 	andi	r3,r2,3
   441e8:	18000526 	beq	r3,zero,44200 <strlen+0x30>
   441ec:	10c00007 	ldb	r3,0(r2)
   441f0:	183ffb1e 	bne	r3,zero,441e0 <strlen+0x10>
   441f4:	1105c83a 	sub	r2,r2,r4
   441f8:	f800283a 	ret
   441fc:	2005883a 	mov	r2,r4
   44200:	11400017 	ldw	r5,0(r2)
   44204:	01ffbff4 	movhi	r7,65279
   44208:	39ffbfc4 	addi	r7,r7,-257
   4420c:	29c7883a 	add	r3,r5,r7
   44210:	01a02074 	movhi	r6,32897
   44214:	014a303a 	nor	r5,zero,r5
   44218:	1946703a 	and	r3,r3,r5
   4421c:	31a02004 	addi	r6,r6,-32640
   44220:	1986703a 	and	r3,r3,r6
   44224:	1800071e 	bne	r3,zero,44244 <strlen+0x74>
   44228:	11400117 	ldw	r5,4(r2)
   4422c:	10800104 	addi	r2,r2,4
   44230:	29c7883a 	add	r3,r5,r7
   44234:	014a303a 	nor	r5,zero,r5
   44238:	1946703a 	and	r3,r3,r5
   4423c:	1986703a 	and	r3,r3,r6
   44240:	183ff926 	beq	r3,zero,44228 <strlen+0x58>
   44244:	10c00007 	ldb	r3,0(r2)
   44248:	183fea26 	beq	r3,zero,441f4 <strlen+0x24>
   4424c:	10c00047 	ldb	r3,1(r2)
   44250:	10800044 	addi	r2,r2,1
   44254:	183fe726 	beq	r3,zero,441f4 <strlen+0x24>
   44258:	10c00047 	ldb	r3,1(r2)
   4425c:	10800044 	addi	r2,r2,1
   44260:	183ffa1e 	bne	r3,zero,4424c <strlen+0x7c>
   44264:	003fe306 	br	441f4 <strlen+0x24>

00044268 <___svfprintf_internal_r>:
   44268:	deffbf04 	addi	sp,sp,-260
   4426c:	dfc04015 	stw	ra,256(sp)
   44270:	dd803d15 	stw	r22,244(sp)
   44274:	dcc03a15 	stw	r19,232(sp)
   44278:	dc803915 	stw	r18,228(sp)
   4427c:	2027883a 	mov	r19,r4
   44280:	2825883a 	mov	r18,r5
   44284:	302d883a 	mov	r22,r6
   44288:	d9c00615 	stw	r7,24(sp)
   4428c:	df003f15 	stw	fp,252(sp)
   44290:	ddc03e15 	stw	r23,248(sp)
   44294:	dd403c15 	stw	r21,240(sp)
   44298:	dd003b15 	stw	r20,236(sp)
   4429c:	dc403815 	stw	r17,224(sp)
   442a0:	dc003715 	stw	r16,220(sp)
   442a4:	004af740 	call	4af74 <_localeconv_r>
   442a8:	10800017 	ldw	r2,0(r2)
   442ac:	1009883a 	mov	r4,r2
   442b0:	d8800d15 	stw	r2,52(sp)
   442b4:	00441d00 	call	441d0 <strlen>
   442b8:	90c0030b 	ldhu	r3,12(r18)
   442bc:	d8800c15 	stw	r2,48(sp)
   442c0:	18c0200c 	andi	r3,r3,128
   442c4:	18000226 	beq	r3,zero,442d0 <___svfprintf_internal_r+0x68>
   442c8:	90800417 	ldw	r2,16(r18)
   442cc:	10055c26 	beq	r2,zero,45840 <___svfprintf_internal_r+0x15d8>
   442d0:	d8802704 	addi	r2,sp,156
   442d4:	b02f883a 	mov	r23,r22
   442d8:	d8801a15 	stw	r2,104(sp)
   442dc:	d8001c15 	stw	zero,112(sp)
   442e0:	d8001b15 	stw	zero,108(sp)
   442e4:	d8000815 	stw	zero,32(sp)
   442e8:	d8000915 	stw	zero,36(sp)
   442ec:	d8000a15 	stw	zero,40(sp)
   442f0:	d8000b15 	stw	zero,44(sp)
   442f4:	d8001015 	stw	zero,64(sp)
   442f8:	d8000515 	stw	zero,20(sp)
   442fc:	102d883a 	mov	r22,r2
   44300:	b8800007 	ldb	r2,0(r23)
   44304:	1000d526 	beq	r2,zero,4465c <___svfprintf_internal_r+0x3f4>
   44308:	b821883a 	mov	r16,r23
   4430c:	00000306 	br	4431c <___svfprintf_internal_r+0xb4>
   44310:	80800047 	ldb	r2,1(r16)
   44314:	84000044 	addi	r16,r16,1
   44318:	10010626 	beq	r2,zero,44734 <___svfprintf_internal_r+0x4cc>
   4431c:	10800958 	cmpnei	r2,r2,37
   44320:	103ffb1e 	bne	r2,zero,44310 <___svfprintf_internal_r+0xa8>
   44324:	85e3c83a 	sub	r17,r16,r23
   44328:	85c1041e 	bne	r16,r23,4473c <___svfprintf_internal_r+0x4d4>
   4432c:	80800003 	ldbu	r2,0(r16)
   44330:	10803fcc 	andi	r2,r2,255
   44334:	1080201c 	xori	r2,r2,128
   44338:	10bfe004 	addi	r2,r2,-128
   4433c:	1000c726 	beq	r2,zero,4465c <___svfprintf_internal_r+0x3f4>
   44340:	82c00047 	ldb	r11,1(r16)
   44344:	85c00044 	addi	r23,r16,1
   44348:	d8001345 	stb	zero,77(sp)
   4434c:	0009883a 	mov	r4,zero
   44350:	000b883a 	mov	r5,zero
   44354:	023fffc4 	movi	r8,-1
   44358:	0021883a 	mov	r16,zero
   4435c:	0019883a 	mov	r12,zero
   44360:	bdc00044 	addi	r23,r23,1
   44364:	5839883a 	mov	fp,r11
   44368:	e0bff804 	addi	r2,fp,-32
   4436c:	10c01668 	cmpgeui	r3,r2,89
   44370:	18006a1e 	bne	r3,zero,4451c <___svfprintf_internal_r+0x2b4>
   44374:	100490ba 	slli	r2,r2,2
   44378:	00c00134 	movhi	r3,4
   4437c:	10c7883a 	add	r3,r2,r3
   44380:	1890e217 	ldw	r2,17288(r3)
   44384:	1000683a 	jmp	r2
   44388:	00044c68 	cmpgeui	zero,zero,4401
   4438c:	0004451c 	xori	zero,zero,4372
   44390:	0004451c 	xori	zero,zero,4372
   44394:	00044c5c 	xori	zero,zero,4401
   44398:	0004451c 	xori	zero,zero,4372
   4439c:	0004451c 	xori	zero,zero,4372
   443a0:	0004451c 	xori	zero,zero,4372
   443a4:	0004451c 	xori	zero,zero,4372
   443a8:	0004451c 	xori	zero,zero,4372
   443ac:	0004451c 	xori	zero,zero,4372
   443b0:	00044c34 	movhi	zero,4400
   443b4:	00044c24 	muli	zero,zero,4400
   443b8:	0004451c 	xori	zero,zero,4372
   443bc:	00044c0c 	andi	zero,zero,4400
   443c0:	00044bc8 	cmpgei	zero,zero,4399
   443c4:	0004451c 	xori	zero,zero,4372
   443c8:	00044bbc 	xorhi	zero,zero,4398
   443cc:	000444ec 	andhi	zero,zero,4371
   443d0:	000444ec 	andhi	zero,zero,4371
   443d4:	000444ec 	andhi	zero,zero,4371
   443d8:	000444ec 	andhi	zero,zero,4371
   443dc:	000444ec 	andhi	zero,zero,4371
   443e0:	000444ec 	andhi	zero,zero,4371
   443e4:	000444ec 	andhi	zero,zero,4371
   443e8:	000444ec 	andhi	zero,zero,4371
   443ec:	000444ec 	andhi	zero,zero,4371
   443f0:	0004451c 	xori	zero,zero,4372
   443f4:	0004451c 	xori	zero,zero,4372
   443f8:	0004451c 	xori	zero,zero,4372
   443fc:	0004451c 	xori	zero,zero,4372
   44400:	0004451c 	xori	zero,zero,4372
   44404:	0004451c 	xori	zero,zero,4372
   44408:	0004451c 	xori	zero,zero,4372
   4440c:	0004451c 	xori	zero,zero,4372
   44410:	0004451c 	xori	zero,zero,4372
   44414:	0004451c 	xori	zero,zero,4372
   44418:	00044ab0 	cmpltui	zero,zero,4394
   4441c:	00044798 	cmpnei	zero,zero,4382
   44420:	0004451c 	xori	zero,zero,4372
   44424:	00044798 	cmpnei	zero,zero,4382
   44428:	0004451c 	xori	zero,zero,4372
   4442c:	0004451c 	xori	zero,zero,4372
   44430:	0004451c 	xori	zero,zero,4372
   44434:	0004451c 	xori	zero,zero,4372
   44438:	00044aa4 	muli	zero,zero,4394
   4443c:	0004451c 	xori	zero,zero,4372
   44440:	0004451c 	xori	zero,zero,4372
   44444:	000446cc 	andi	zero,zero,4379
   44448:	0004451c 	xori	zero,zero,4372
   4444c:	0004451c 	xori	zero,zero,4372
   44450:	0004451c 	xori	zero,zero,4372
   44454:	0004451c 	xori	zero,zero,4372
   44458:	0004451c 	xori	zero,zero,4372
   4445c:	000446a4 	muli	zero,zero,4378
   44460:	0004451c 	xori	zero,zero,4372
   44464:	0004451c 	xori	zero,zero,4372
   44468:	00044d5c 	xori	zero,zero,4405
   4446c:	0004451c 	xori	zero,zero,4372
   44470:	0004451c 	xori	zero,zero,4372
   44474:	0004451c 	xori	zero,zero,4372
   44478:	0004451c 	xori	zero,zero,4372
   4447c:	0004451c 	xori	zero,zero,4372
   44480:	0004451c 	xori	zero,zero,4372
   44484:	0004451c 	xori	zero,zero,4372
   44488:	0004451c 	xori	zero,zero,4372
   4448c:	0004451c 	xori	zero,zero,4372
   44490:	0004451c 	xori	zero,zero,4372
   44494:	00044d34 	movhi	zero,4404
   44498:	0004499c 	xori	zero,zero,4390
   4449c:	00044798 	cmpnei	zero,zero,4382
   444a0:	00044798 	cmpnei	zero,zero,4382
   444a4:	00044798 	cmpnei	zero,zero,4382
   444a8:	000449fc 	xorhi	zero,zero,4391
   444ac:	0004499c 	xori	zero,zero,4390
   444b0:	0004451c 	xori	zero,zero,4372
   444b4:	0004451c 	xori	zero,zero,4372
   444b8:	00044a90 	cmplti	zero,zero,4394
   444bc:	0004451c 	xori	zero,zero,4372
   444c0:	00044a54 	movui	zero,4393
   444c4:	000446d0 	cmplti	zero,zero,4379
   444c8:	00044a14 	movui	zero,4392
   444cc:	00044a08 	cmpgei	zero,zero,4392
   444d0:	0004451c 	xori	zero,zero,4372
   444d4:	00044cdc 	xori	zero,zero,4403
   444d8:	0004451c 	xori	zero,zero,4372
   444dc:	000446a8 	cmpgeui	zero,zero,4378
   444e0:	0004451c 	xori	zero,zero,4372
   444e4:	0004451c 	xori	zero,zero,4372
   444e8:	00044c94 	movui	zero,4402
   444ec:	0021883a 	mov	r16,zero
   444f0:	e0bff404 	addi	r2,fp,-48
   444f4:	bf000007 	ldb	fp,0(r23)
   444f8:	840002a4 	muli	r16,r16,10
   444fc:	bdc00044 	addi	r23,r23,1
   44500:	1421883a 	add	r16,r2,r16
   44504:	e0bff404 	addi	r2,fp,-48
   44508:	10c002b0 	cmpltui	r3,r2,10
   4450c:	183ff91e 	bne	r3,zero,444f4 <___svfprintf_internal_r+0x28c>
   44510:	e0bff804 	addi	r2,fp,-32
   44514:	10c01668 	cmpgeui	r3,r2,89
   44518:	183f9626 	beq	r3,zero,44374 <___svfprintf_internal_r+0x10c>
   4451c:	21003fcc 	andi	r4,r4,255
   44520:	2006981e 	bne	r4,zero,45f84 <___svfprintf_internal_r+0x1d1c>
   44524:	e0004d26 	beq	fp,zero,4465c <___svfprintf_internal_r+0x3f4>
   44528:	df001d05 	stb	fp,116(sp)
   4452c:	d8001345 	stb	zero,77(sp)
   44530:	05000044 	movi	r20,1
   44534:	05400044 	movi	r21,1
   44538:	dc401d04 	addi	r17,sp,116
   4453c:	db000415 	stw	r12,16(sp)
   44540:	0011883a 	mov	r8,zero
   44544:	d8000715 	stw	zero,28(sp)
   44548:	d8800417 	ldw	r2,16(sp)
   4454c:	1380008c 	andi	r14,r2,2
   44550:	70000126 	beq	r14,zero,44558 <___svfprintf_internal_r+0x2f0>
   44554:	a5000084 	addi	r20,r20,2
   44558:	d8800417 	ldw	r2,16(sp)
   4455c:	d8c01c17 	ldw	r3,112(sp)
   44560:	1340210c 	andi	r13,r2,132
   44564:	6800021e 	bne	r13,zero,44570 <___svfprintf_internal_r+0x308>
   44568:	850fc83a 	sub	r7,r16,r20
   4456c:	01c32d16 	blt	zero,r7,45224 <___svfprintf_internal_r+0xfbc>
   44570:	d8801347 	ldb	r2,77(sp)
   44574:	10000c26 	beq	r2,zero,445a8 <___svfprintf_internal_r+0x340>
   44578:	d8801b17 	ldw	r2,108(sp)
   4457c:	d9001344 	addi	r4,sp,77
   44580:	18c00044 	addi	r3,r3,1
   44584:	10800044 	addi	r2,r2,1
   44588:	b1000015 	stw	r4,0(r22)
   4458c:	01000044 	movi	r4,1
   44590:	d8801b15 	stw	r2,108(sp)
   44594:	b1000115 	stw	r4,4(r22)
   44598:	d8c01c15 	stw	r3,112(sp)
   4459c:	10800208 	cmpgei	r2,r2,8
   445a0:	1003611e 	bne	r2,zero,45328 <___svfprintf_internal_r+0x10c0>
   445a4:	b5800204 	addi	r22,r22,8
   445a8:	70000c26 	beq	r14,zero,445dc <___svfprintf_internal_r+0x374>
   445ac:	d8801b17 	ldw	r2,108(sp)
   445b0:	d9001384 	addi	r4,sp,78
   445b4:	18c00084 	addi	r3,r3,2
   445b8:	10800044 	addi	r2,r2,1
   445bc:	b1000015 	stw	r4,0(r22)
   445c0:	01000084 	movi	r4,2
   445c4:	d8801b15 	stw	r2,108(sp)
   445c8:	b1000115 	stw	r4,4(r22)
   445cc:	d8c01c15 	stw	r3,112(sp)
   445d0:	10800208 	cmpgei	r2,r2,8
   445d4:	1003621e 	bne	r2,zero,45360 <___svfprintf_internal_r+0x10f8>
   445d8:	b5800204 	addi	r22,r22,8
   445dc:	6b402018 	cmpnei	r13,r13,128
   445e0:	68023926 	beq	r13,zero,44ec8 <___svfprintf_internal_r+0xc60>
   445e4:	4551c83a 	sub	r8,r8,r21
   445e8:	02027116 	blt	zero,r8,44fb0 <___svfprintf_internal_r+0xd48>
   445ec:	d8800417 	ldw	r2,16(sp)
   445f0:	1080400c 	andi	r2,r2,256
   445f4:	1001eb1e 	bne	r2,zero,44da4 <___svfprintf_internal_r+0xb3c>
   445f8:	d8801b17 	ldw	r2,108(sp)
   445fc:	1d47883a 	add	r3,r3,r21
   44600:	b4400015 	stw	r17,0(r22)
   44604:	10800044 	addi	r2,r2,1
   44608:	b5400115 	stw	r21,4(r22)
   4460c:	d8801b15 	stw	r2,108(sp)
   44610:	d8c01c15 	stw	r3,112(sp)
   44614:	10800208 	cmpgei	r2,r2,8
   44618:	1002ee1e 	bne	r2,zero,451d4 <___svfprintf_internal_r+0xf6c>
   4461c:	b5800204 	addi	r22,r22,8
   44620:	d8800417 	ldw	r2,16(sp)
   44624:	1440010c 	andi	r17,r2,4
   44628:	88000226 	beq	r17,zero,44634 <___svfprintf_internal_r+0x3cc>
   4462c:	8523c83a 	sub	r17,r16,r20
   44630:	0440ab16 	blt	zero,r17,448e0 <___svfprintf_internal_r+0x678>
   44634:	8500010e 	bge	r16,r20,4463c <___svfprintf_internal_r+0x3d4>
   44638:	a021883a 	mov	r16,r20
   4463c:	d8800517 	ldw	r2,20(sp)
   44640:	1405883a 	add	r2,r2,r16
   44644:	d8800515 	stw	r2,20(sp)
   44648:	1802a01e 	bne	r3,zero,450cc <___svfprintf_internal_r+0xe64>
   4464c:	b8800007 	ldb	r2,0(r23)
   44650:	d8001b15 	stw	zero,108(sp)
   44654:	dd802704 	addi	r22,sp,156
   44658:	103f2b1e 	bne	r2,zero,44308 <___svfprintf_internal_r+0xa0>
   4465c:	d8801c17 	ldw	r2,112(sp)
   44660:	10064a1e 	bne	r2,zero,45f8c <___svfprintf_internal_r+0x1d24>
   44664:	9080030b 	ldhu	r2,12(r18)
   44668:	1080100c 	andi	r2,r2,64
   4466c:	1006eb1e 	bne	r2,zero,4621c <___svfprintf_internal_r+0x1fb4>
   44670:	d8800517 	ldw	r2,20(sp)
   44674:	dfc04017 	ldw	ra,256(sp)
   44678:	df003f17 	ldw	fp,252(sp)
   4467c:	ddc03e17 	ldw	r23,248(sp)
   44680:	dd803d17 	ldw	r22,244(sp)
   44684:	dd403c17 	ldw	r21,240(sp)
   44688:	dd003b17 	ldw	r20,236(sp)
   4468c:	dcc03a17 	ldw	r19,232(sp)
   44690:	dc803917 	ldw	r18,228(sp)
   44694:	dc403817 	ldw	r17,224(sp)
   44698:	dc003717 	ldw	r16,220(sp)
   4469c:	dec04104 	addi	sp,sp,260
   446a0:	f800283a 	ret
   446a4:	63000414 	ori	r12,r12,16
   446a8:	6080080c 	andi	r2,r12,32
   446ac:	10008026 	beq	r2,zero,448b0 <___svfprintf_internal_r+0x648>
   446b0:	d8c00617 	ldw	r3,24(sp)
   446b4:	00800044 	movi	r2,1
   446b8:	1d000017 	ldw	r20,0(r3)
   446bc:	1d400117 	ldw	r21,4(r3)
   446c0:	18c00204 	addi	r3,r3,8
   446c4:	d8c00615 	stw	r3,24(sp)
   446c8:	00000906 	br	446f0 <___svfprintf_internal_r+0x488>
   446cc:	63000414 	ori	r12,r12,16
   446d0:	6080080c 	andi	r2,r12,32
   446d4:	10006a26 	beq	r2,zero,44880 <___svfprintf_internal_r+0x618>
   446d8:	d8c00617 	ldw	r3,24(sp)
   446dc:	0005883a 	mov	r2,zero
   446e0:	1d000017 	ldw	r20,0(r3)
   446e4:	1d400117 	ldw	r21,4(r3)
   446e8:	18c00204 	addi	r3,r3,8
   446ec:	d8c00615 	stw	r3,24(sp)
   446f0:	d8001345 	stb	zero,77(sp)
   446f4:	40ffffe0 	cmpeqi	r3,r8,-1
   446f8:	001b883a 	mov	r13,zero
   446fc:	1801071e 	bne	r3,zero,44b1c <___svfprintf_internal_r+0x8b4>
   44700:	047fdfc4 	movi	r17,-129
   44704:	6448703a 	and	r4,r12,r17
   44708:	a546b03a 	or	r3,r20,r21
   4470c:	d9000415 	stw	r4,16(sp)
   44710:	1802b81e 	bne	r3,zero,451f4 <___svfprintf_internal_r+0xf8c>
   44714:	4002571e 	bne	r8,zero,45074 <___svfprintf_internal_r+0xe0c>
   44718:	1000b41e 	bne	r2,zero,449ec <___svfprintf_internal_r+0x784>
   4471c:	6540004c 	andi	r21,r12,1
   44720:	a803bb26 	beq	r21,zero,45610 <___svfprintf_internal_r+0x13a8>
   44724:	00800c04 	movi	r2,48
   44728:	d88026c5 	stb	r2,155(sp)
   4472c:	dc4026c4 	addi	r17,sp,155
   44730:	00011806 	br	44b94 <___svfprintf_internal_r+0x92c>
   44734:	85e3c83a 	sub	r17,r16,r23
   44738:	85ffc826 	beq	r16,r23,4465c <___svfprintf_internal_r+0x3f4>
   4473c:	d8c01c17 	ldw	r3,112(sp)
   44740:	d8801b17 	ldw	r2,108(sp)
   44744:	b5c00015 	stw	r23,0(r22)
   44748:	1c47883a 	add	r3,r3,r17
   4474c:	10800044 	addi	r2,r2,1
   44750:	d8801b15 	stw	r2,108(sp)
   44754:	b4400115 	stw	r17,4(r22)
   44758:	d8c01c15 	stw	r3,112(sp)
   4475c:	10800208 	cmpgei	r2,r2,8
   44760:	1000061e 	bne	r2,zero,4477c <___svfprintf_internal_r+0x514>
   44764:	b5800204 	addi	r22,r22,8
   44768:	d8c00517 	ldw	r3,20(sp)
   4476c:	80800003 	ldbu	r2,0(r16)
   44770:	1c47883a 	add	r3,r3,r17
   44774:	d8c00515 	stw	r3,20(sp)
   44778:	003eed06 	br	44330 <___svfprintf_internal_r+0xc8>
   4477c:	d9801a04 	addi	r6,sp,104
   44780:	900b883a 	mov	r5,r18
   44784:	9809883a 	mov	r4,r19
   44788:	004cba40 	call	4cba4 <__ssprint_r>
   4478c:	103fb51e 	bne	r2,zero,44664 <___svfprintf_internal_r+0x3fc>
   44790:	dd802704 	addi	r22,sp,156
   44794:	003ff406 	br	44768 <___svfprintf_internal_r+0x500>
   44798:	21003fcc 	andi	r4,r4,255
   4479c:	2006611e 	bne	r4,zero,46124 <___svfprintf_internal_r+0x1ebc>
   447a0:	d8c00617 	ldw	r3,24(sp)
   447a4:	6080020c 	andi	r2,r12,8
   447a8:	19000204 	addi	r4,r3,8
   447ac:	d9000e15 	stw	r4,56(sp)
   447b0:	1003a326 	beq	r2,zero,45640 <___svfprintf_internal_r+0x13d8>
   447b4:	18800017 	ldw	r2,0(r3)
   447b8:	d8800915 	stw	r2,36(sp)
   447bc:	18800117 	ldw	r2,4(r3)
   447c0:	d8800a15 	stw	r2,40(sp)
   447c4:	dd400a17 	ldw	r21,40(sp)
   447c8:	dd000917 	ldw	r20,36(sp)
   447cc:	00a00034 	movhi	r2,32768
   447d0:	10bfffc4 	addi	r2,r2,-1
   447d4:	a8a2703a 	and	r17,r21,r2
   447d8:	01dffc34 	movhi	r7,32752
   447dc:	01bfffc4 	movi	r6,-1
   447e0:	39ffffc4 	addi	r7,r7,-1
   447e4:	a009883a 	mov	r4,r20
   447e8:	880b883a 	mov	r5,r17
   447ec:	da000615 	stw	r8,24(sp)
   447f0:	db000415 	stw	r12,16(sp)
   447f4:	0052c180 	call	52c18 <__unorddf2>
   447f8:	db000417 	ldw	r12,16(sp)
   447fc:	da000617 	ldw	r8,24(sp)
   44800:	10045f1e 	bne	r2,zero,45980 <___svfprintf_internal_r+0x1718>
   44804:	01dffc34 	movhi	r7,32752
   44808:	01bfffc4 	movi	r6,-1
   4480c:	39ffffc4 	addi	r7,r7,-1
   44810:	a009883a 	mov	r4,r20
   44814:	880b883a 	mov	r5,r17
   44818:	0051b840 	call	51b84 <__ledf2>
   4481c:	db000417 	ldw	r12,16(sp)
   44820:	da000617 	ldw	r8,24(sp)
   44824:	0084560e 	bge	zero,r2,45980 <___svfprintf_internal_r+0x1718>
   44828:	000d883a 	mov	r6,zero
   4482c:	000f883a 	mov	r7,zero
   44830:	a009883a 	mov	r4,r20
   44834:	a80b883a 	mov	r5,r21
   44838:	0051b840 	call	51b84 <__ledf2>
   4483c:	db000417 	ldw	r12,16(sp)
   44840:	1005b216 	blt	r2,zero,45f0c <___svfprintf_internal_r+0x1ca4>
   44844:	db401343 	ldbu	r13,77(sp)
   44848:	e0801210 	cmplti	r2,fp,72
   4484c:	10055d1e 	bne	r2,zero,45dc4 <___svfprintf_internal_r+0x1b5c>
   44850:	04400174 	movhi	r17,5
   44854:	8c56c904 	addi	r17,r17,23332
   44858:	00bfdfc4 	movi	r2,-129
   4485c:	6084703a 	and	r2,r12,r2
   44860:	d8800415 	stw	r2,16(sp)
   44864:	d8800e17 	ldw	r2,56(sp)
   44868:	050000c4 	movi	r20,3
   4486c:	054000c4 	movi	r21,3
   44870:	d8800615 	stw	r2,24(sp)
   44874:	0011883a 	mov	r8,zero
   44878:	d8000715 	stw	zero,28(sp)
   4487c:	0000c906 	br	44ba4 <___svfprintf_internal_r+0x93c>
   44880:	d9000617 	ldw	r4,24(sp)
   44884:	6080040c 	andi	r2,r12,16
   44888:	20c00104 	addi	r3,r4,4
   4488c:	1003671e 	bne	r2,zero,4562c <___svfprintf_internal_r+0x13c4>
   44890:	6080100c 	andi	r2,r12,64
   44894:	10054526 	beq	r2,zero,45dac <___svfprintf_internal_r+0x1b44>
   44898:	d8800617 	ldw	r2,24(sp)
   4489c:	002b883a 	mov	r21,zero
   448a0:	d8c00615 	stw	r3,24(sp)
   448a4:	1500000b 	ldhu	r20,0(r2)
   448a8:	0005883a 	mov	r2,zero
   448ac:	003f9006 	br	446f0 <___svfprintf_internal_r+0x488>
   448b0:	d9000617 	ldw	r4,24(sp)
   448b4:	6080040c 	andi	r2,r12,16
   448b8:	20c00104 	addi	r3,r4,4
   448bc:	1003561e 	bne	r2,zero,45618 <___svfprintf_internal_r+0x13b0>
   448c0:	6080100c 	andi	r2,r12,64
   448c4:	1004f326 	beq	r2,zero,45c94 <___svfprintf_internal_r+0x1a2c>
   448c8:	d8800617 	ldw	r2,24(sp)
   448cc:	002b883a 	mov	r21,zero
   448d0:	d8c00615 	stw	r3,24(sp)
   448d4:	1500000b 	ldhu	r20,0(r2)
   448d8:	00800044 	movi	r2,1
   448dc:	003f8406 	br	446f0 <___svfprintf_internal_r+0x488>
   448e0:	03000174 	movhi	r12,5
   448e4:	89000450 	cmplti	r4,r17,17
   448e8:	d8801b17 	ldw	r2,108(sp)
   448ec:	6316dd04 	addi	r12,r12,23412
   448f0:	20001b1e 	bne	r4,zero,44960 <___svfprintf_internal_r+0x6f8>
   448f4:	05400404 	movi	r21,16
   448f8:	6039883a 	mov	fp,r12
   448fc:	00000406 	br	44910 <___svfprintf_internal_r+0x6a8>
   44900:	8c7ffc04 	addi	r17,r17,-16
   44904:	89000448 	cmpgei	r4,r17,17
   44908:	b5800204 	addi	r22,r22,8
   4490c:	20001326 	beq	r4,zero,4495c <___svfprintf_internal_r+0x6f4>
   44910:	10800044 	addi	r2,r2,1
   44914:	18c00404 	addi	r3,r3,16
   44918:	b7000015 	stw	fp,0(r22)
   4491c:	b5400115 	stw	r21,4(r22)
   44920:	d8c01c15 	stw	r3,112(sp)
   44924:	d8801b15 	stw	r2,108(sp)
   44928:	11000208 	cmpgei	r4,r2,8
   4492c:	203ff426 	beq	r4,zero,44900 <___svfprintf_internal_r+0x698>
   44930:	d9801a04 	addi	r6,sp,104
   44934:	900b883a 	mov	r5,r18
   44938:	9809883a 	mov	r4,r19
   4493c:	004cba40 	call	4cba4 <__ssprint_r>
   44940:	103f481e 	bne	r2,zero,44664 <___svfprintf_internal_r+0x3fc>
   44944:	8c7ffc04 	addi	r17,r17,-16
   44948:	89000448 	cmpgei	r4,r17,17
   4494c:	d8c01c17 	ldw	r3,112(sp)
   44950:	d8801b17 	ldw	r2,108(sp)
   44954:	dd802704 	addi	r22,sp,156
   44958:	203fed1e 	bne	r4,zero,44910 <___svfprintf_internal_r+0x6a8>
   4495c:	e019883a 	mov	r12,fp
   44960:	10800044 	addi	r2,r2,1
   44964:	1c47883a 	add	r3,r3,r17
   44968:	d8801b15 	stw	r2,108(sp)
   4496c:	b3000015 	stw	r12,0(r22)
   44970:	b4400115 	stw	r17,4(r22)
   44974:	d8c01c15 	stw	r3,112(sp)
   44978:	10800210 	cmplti	r2,r2,8
   4497c:	103f2d1e 	bne	r2,zero,44634 <___svfprintf_internal_r+0x3cc>
   44980:	d9801a04 	addi	r6,sp,104
   44984:	900b883a 	mov	r5,r18
   44988:	9809883a 	mov	r4,r19
   4498c:	004cba40 	call	4cba4 <__ssprint_r>
   44990:	103f341e 	bne	r2,zero,44664 <___svfprintf_internal_r+0x3fc>
   44994:	d8c01c17 	ldw	r3,112(sp)
   44998:	003f2606 	br	44634 <___svfprintf_internal_r+0x3cc>
   4499c:	21003fcc 	andi	r4,r4,255
   449a0:	2005ea1e 	bne	r4,zero,4614c <___svfprintf_internal_r+0x1ee4>
   449a4:	6080080c 	andi	r2,r12,32
   449a8:	10004626 	beq	r2,zero,44ac4 <___svfprintf_internal_r+0x85c>
   449ac:	d8c00617 	ldw	r3,24(sp)
   449b0:	18800117 	ldw	r2,4(r3)
   449b4:	1d000017 	ldw	r20,0(r3)
   449b8:	18c00204 	addi	r3,r3,8
   449bc:	d8c00615 	stw	r3,24(sp)
   449c0:	102b883a 	mov	r21,r2
   449c4:	10004b16 	blt	r2,zero,44af4 <___svfprintf_internal_r+0x88c>
   449c8:	40bfffd8 	cmpnei	r2,r8,-1
   449cc:	10043f26 	beq	r2,zero,45acc <___svfprintf_internal_r+0x1864>
   449d0:	047fdfc4 	movi	r17,-129
   449d4:	6446703a 	and	r3,r12,r17
   449d8:	a544b03a 	or	r2,r20,r21
   449dc:	d8c00415 	stw	r3,16(sp)
   449e0:	db401343 	ldbu	r13,77(sp)
   449e4:	1003411e 	bne	r2,zero,456ec <___svfprintf_internal_r+0x1484>
   449e8:	4005801e 	bne	r8,zero,45fec <___svfprintf_internal_r+0x1d84>
   449ec:	0011883a 	mov	r8,zero
   449f0:	002b883a 	mov	r21,zero
   449f4:	dc402704 	addi	r17,sp,156
   449f8:	00006606 	br	44b94 <___svfprintf_internal_r+0x92c>
   449fc:	bac00007 	ldb	r11,0(r23)
   44a00:	63001014 	ori	r12,r12,64
   44a04:	003e5606 	br	44360 <___svfprintf_internal_r+0xf8>
   44a08:	bac00007 	ldb	r11,0(r23)
   44a0c:	63000814 	ori	r12,r12,32
   44a10:	003e5306 	br	44360 <___svfprintf_internal_r+0xf8>
   44a14:	d8c00617 	ldw	r3,24(sp)
   44a18:	00800c04 	movi	r2,48
   44a1c:	d8801385 	stb	r2,78(sp)
   44a20:	00801e04 	movi	r2,120
   44a24:	01000174 	movhi	r4,5
   44a28:	d88013c5 	stb	r2,79(sp)
   44a2c:	18800104 	addi	r2,r3,4
   44a30:	d8800615 	stw	r2,24(sp)
   44a34:	2096d104 	addi	r2,r4,23364
   44a38:	d8800b15 	stw	r2,44(sp)
   44a3c:	1d000017 	ldw	r20,0(r3)
   44a40:	002b883a 	mov	r21,zero
   44a44:	63000094 	ori	r12,r12,2
   44a48:	00800084 	movi	r2,2
   44a4c:	07001e04 	movi	fp,120
   44a50:	003f2706 	br	446f0 <___svfprintf_internal_r+0x488>
   44a54:	21003fcc 	andi	r4,r4,255
   44a58:	2005b41e 	bne	r4,zero,4612c <___svfprintf_internal_r+0x1ec4>
   44a5c:	d9000617 	ldw	r4,24(sp)
   44a60:	6080080c 	andi	r2,r12,32
   44a64:	20c00017 	ldw	r3,0(r4)
   44a68:	21000104 	addi	r4,r4,4
   44a6c:	d9000615 	stw	r4,24(sp)
   44a70:	1002f91e 	bne	r2,zero,45658 <___svfprintf_internal_r+0x13f0>
   44a74:	6080040c 	andi	r2,r12,16
   44a78:	10037a1e 	bne	r2,zero,45864 <___svfprintf_internal_r+0x15fc>
   44a7c:	6300100c 	andi	r12,r12,64
   44a80:	60037826 	beq	r12,zero,45864 <___svfprintf_internal_r+0x15fc>
   44a84:	d8800517 	ldw	r2,20(sp)
   44a88:	1880000d 	sth	r2,0(r3)
   44a8c:	003e1c06 	br	44300 <___svfprintf_internal_r+0x98>
   44a90:	bac00007 	ldb	r11,0(r23)
   44a94:	58801b18 	cmpnei	r2,r11,108
   44a98:	10042d26 	beq	r2,zero,45b50 <___svfprintf_internal_r+0x18e8>
   44a9c:	63000414 	ori	r12,r12,16
   44aa0:	003e2f06 	br	44360 <___svfprintf_internal_r+0xf8>
   44aa4:	bac00007 	ldb	r11,0(r23)
   44aa8:	63000214 	ori	r12,r12,8
   44aac:	003e2c06 	br	44360 <___svfprintf_internal_r+0xf8>
   44ab0:	21003fcc 	andi	r4,r4,255
   44ab4:	2005a31e 	bne	r4,zero,46144 <___svfprintf_internal_r+0x1edc>
   44ab8:	63000414 	ori	r12,r12,16
   44abc:	6080080c 	andi	r2,r12,32
   44ac0:	103fba1e 	bne	r2,zero,449ac <___svfprintf_internal_r+0x744>
   44ac4:	d9000617 	ldw	r4,24(sp)
   44ac8:	6080040c 	andi	r2,r12,16
   44acc:	20c00104 	addi	r3,r4,4
   44ad0:	1002f01e 	bne	r2,zero,45694 <___svfprintf_internal_r+0x142c>
   44ad4:	6080100c 	andi	r2,r12,64
   44ad8:	10046826 	beq	r2,zero,45c7c <___svfprintf_internal_r+0x1a14>
   44adc:	d8800617 	ldw	r2,24(sp)
   44ae0:	d8c00615 	stw	r3,24(sp)
   44ae4:	1500000f 	ldh	r20,0(r2)
   44ae8:	a02bd7fa 	srai	r21,r20,31
   44aec:	a805883a 	mov	r2,r21
   44af0:	103fb50e 	bge	r2,zero,449c8 <___svfprintf_internal_r+0x760>
   44af4:	a004c03a 	cmpne	r2,r20,zero
   44af8:	056bc83a 	sub	r21,zero,r21
   44afc:	a8abc83a 	sub	r21,r21,r2
   44b00:	00800b44 	movi	r2,45
   44b04:	d8801345 	stb	r2,77(sp)
   44b08:	40ffffe0 	cmpeqi	r3,r8,-1
   44b0c:	0529c83a 	sub	r20,zero,r20
   44b10:	03400b44 	movi	r13,45
   44b14:	00800044 	movi	r2,1
   44b18:	183ef926 	beq	r3,zero,44700 <___svfprintf_internal_r+0x498>
   44b1c:	10c00060 	cmpeqi	r3,r2,1
   44b20:	1801b71e 	bne	r3,zero,45200 <___svfprintf_internal_r+0xf98>
   44b24:	108000a0 	cmpeqi	r2,r2,2
   44b28:	1001571e 	bne	r2,zero,45088 <___svfprintf_internal_r+0xe20>
   44b2c:	dc402704 	addi	r17,sp,156
   44b30:	a004d0fa 	srli	r2,r20,3
   44b34:	a806977a 	slli	r3,r21,29
   44b38:	a82ad0fa 	srli	r21,r21,3
   44b3c:	a50001cc 	andi	r20,r20,7
   44b40:	a1000c04 	addi	r4,r20,48
   44b44:	18a8b03a 	or	r20,r3,r2
   44b48:	893fffc5 	stb	r4,-1(r17)
   44b4c:	a544b03a 	or	r2,r20,r21
   44b50:	880b883a 	mov	r5,r17
   44b54:	8c7fffc4 	addi	r17,r17,-1
   44b58:	103ff51e 	bne	r2,zero,44b30 <___svfprintf_internal_r+0x8c8>
   44b5c:	6080004c 	andi	r2,r12,1
   44b60:	10015626 	beq	r2,zero,450bc <___svfprintf_internal_r+0xe54>
   44b64:	21003fcc 	andi	r4,r4,255
   44b68:	2100201c 	xori	r4,r4,128
   44b6c:	213fe004 	addi	r4,r4,-128
   44b70:	20800c18 	cmpnei	r2,r4,48
   44b74:	10015126 	beq	r2,zero,450bc <___svfprintf_internal_r+0xe54>
   44b78:	00800c04 	movi	r2,48
   44b7c:	297fff84 	addi	r5,r5,-2
   44b80:	88bfffc5 	stb	r2,-1(r17)
   44b84:	d8802704 	addi	r2,sp,156
   44b88:	116bc83a 	sub	r21,r2,r5
   44b8c:	db000415 	stw	r12,16(sp)
   44b90:	2823883a 	mov	r17,r5
   44b94:	4029883a 	mov	r20,r8
   44b98:	4540010e 	bge	r8,r21,44ba0 <___svfprintf_internal_r+0x938>
   44b9c:	a829883a 	mov	r20,r21
   44ba0:	d8000715 	stw	zero,28(sp)
   44ba4:	6b403fcc 	andi	r13,r13,255
   44ba8:	6b40201c 	xori	r13,r13,128
   44bac:	6b7fe004 	addi	r13,r13,-128
   44bb0:	683e6526 	beq	r13,zero,44548 <___svfprintf_internal_r+0x2e0>
   44bb4:	a5000044 	addi	r20,r20,1
   44bb8:	003e6306 	br	44548 <___svfprintf_internal_r+0x2e0>
   44bbc:	bac00007 	ldb	r11,0(r23)
   44bc0:	63002014 	ori	r12,r12,128
   44bc4:	003de606 	br	44360 <___svfprintf_internal_r+0xf8>
   44bc8:	bf000007 	ldb	fp,0(r23)
   44bcc:	b8c00044 	addi	r3,r23,1
   44bd0:	e0800aa0 	cmpeqi	r2,fp,42
   44bd4:	1005b71e 	bne	r2,zero,462b4 <___svfprintf_internal_r+0x204c>
   44bd8:	e0bff404 	addi	r2,fp,-48
   44bdc:	118002b0 	cmpltui	r6,r2,10
   44be0:	182f883a 	mov	r23,r3
   44be4:	0011883a 	mov	r8,zero
   44be8:	303ddf26 	beq	r6,zero,44368 <___svfprintf_internal_r+0x100>
   44bec:	bf000007 	ldb	fp,0(r23)
   44bf0:	420002a4 	muli	r8,r8,10
   44bf4:	bdc00044 	addi	r23,r23,1
   44bf8:	4091883a 	add	r8,r8,r2
   44bfc:	e0bff404 	addi	r2,fp,-48
   44c00:	10c002b0 	cmpltui	r3,r2,10
   44c04:	183ff91e 	bne	r3,zero,44bec <___svfprintf_internal_r+0x984>
   44c08:	003dd706 	br	44368 <___svfprintf_internal_r+0x100>
   44c0c:	bf000003 	ldbu	fp,0(r23)
   44c10:	e2c03fcc 	andi	r11,fp,255
   44c14:	5ac0201c 	xori	r11,r11,128
   44c18:	63000114 	ori	r12,r12,4
   44c1c:	5affe004 	addi	r11,r11,-128
   44c20:	003dcf06 	br	44360 <___svfprintf_internal_r+0xf8>
   44c24:	bac00007 	ldb	r11,0(r23)
   44c28:	01000044 	movi	r4,1
   44c2c:	01400ac4 	movi	r5,43
   44c30:	003dcb06 	br	44360 <___svfprintf_internal_r+0xf8>
   44c34:	d8800617 	ldw	r2,24(sp)
   44c38:	bf000003 	ldbu	fp,0(r23)
   44c3c:	14000017 	ldw	r16,0(r2)
   44c40:	10800104 	addi	r2,r2,4
   44c44:	80029816 	blt	r16,zero,456a8 <___svfprintf_internal_r+0x1440>
   44c48:	d8800615 	stw	r2,24(sp)
   44c4c:	e2c03fcc 	andi	r11,fp,255
   44c50:	5ac0201c 	xori	r11,r11,128
   44c54:	5affe004 	addi	r11,r11,-128
   44c58:	003dc106 	br	44360 <___svfprintf_internal_r+0xf8>
   44c5c:	bac00007 	ldb	r11,0(r23)
   44c60:	63000054 	ori	r12,r12,1
   44c64:	003dbe06 	br	44360 <___svfprintf_internal_r+0xf8>
   44c68:	28803fcc 	andi	r2,r5,255
   44c6c:	1080201c 	xori	r2,r2,128
   44c70:	10bfe004 	addi	r2,r2,-128
   44c74:	bf000003 	ldbu	fp,0(r23)
   44c78:	103ff41e 	bne	r2,zero,44c4c <___svfprintf_internal_r+0x9e4>
   44c7c:	e2c03fcc 	andi	r11,fp,255
   44c80:	5ac0201c 	xori	r11,r11,128
   44c84:	01000044 	movi	r4,1
   44c88:	01400804 	movi	r5,32
   44c8c:	5affe004 	addi	r11,r11,-128
   44c90:	003db306 	br	44360 <___svfprintf_internal_r+0xf8>
   44c94:	21003fcc 	andi	r4,r4,255
   44c98:	2005281e 	bne	r4,zero,4613c <___svfprintf_internal_r+0x1ed4>
   44c9c:	00800174 	movhi	r2,5
   44ca0:	1096d104 	addi	r2,r2,23364
   44ca4:	d8800b15 	stw	r2,44(sp)
   44ca8:	6080080c 	andi	r2,r12,32
   44cac:	10003226 	beq	r2,zero,44d78 <___svfprintf_internal_r+0xb10>
   44cb0:	d8800617 	ldw	r2,24(sp)
   44cb4:	15000017 	ldw	r20,0(r2)
   44cb8:	15400117 	ldw	r21,4(r2)
   44cbc:	10800204 	addi	r2,r2,8
   44cc0:	d8800615 	stw	r2,24(sp)
   44cc4:	6080004c 	andi	r2,r12,1
   44cc8:	10000226 	beq	r2,zero,44cd4 <___svfprintf_internal_r+0xa6c>
   44ccc:	a544b03a 	or	r2,r20,r21
   44cd0:	1002661e 	bne	r2,zero,4566c <___svfprintf_internal_r+0x1404>
   44cd4:	00800084 	movi	r2,2
   44cd8:	003e8506 	br	446f0 <___svfprintf_internal_r+0x488>
   44cdc:	d8800617 	ldw	r2,24(sp)
   44ce0:	d8001345 	stb	zero,77(sp)
   44ce4:	14400017 	ldw	r17,0(r2)
   44ce8:	10c00104 	addi	r3,r2,4
   44cec:	88039f26 	beq	r17,zero,45b6c <___svfprintf_internal_r+0x1904>
   44cf0:	40bfffe0 	cmpeqi	r2,r8,-1
   44cf4:	1002ac1e 	bne	r2,zero,457a8 <___svfprintf_internal_r+0x1540>
   44cf8:	400d883a 	mov	r6,r8
   44cfc:	000b883a 	mov	r5,zero
   44d00:	8809883a 	mov	r4,r17
   44d04:	d8c00715 	stw	r3,28(sp)
   44d08:	db000615 	stw	r12,24(sp)
   44d0c:	da000415 	stw	r8,16(sp)
   44d10:	004b1640 	call	4b164 <memchr>
   44d14:	da000417 	ldw	r8,16(sp)
   44d18:	db000617 	ldw	r12,24(sp)
   44d1c:	d8c00717 	ldw	r3,28(sp)
   44d20:	1004f026 	beq	r2,zero,460e4 <___svfprintf_internal_r+0x1e7c>
   44d24:	146bc83a 	sub	r21,r2,r17
   44d28:	a829883a 	mov	r20,r21
   44d2c:	d8c00615 	stw	r3,24(sp)
   44d30:	003e0206 	br	4453c <___svfprintf_internal_r+0x2d4>
   44d34:	d8c00617 	ldw	r3,24(sp)
   44d38:	d8001345 	stb	zero,77(sp)
   44d3c:	05000044 	movi	r20,1
   44d40:	18800017 	ldw	r2,0(r3)
   44d44:	18c00104 	addi	r3,r3,4
   44d48:	d8c00615 	stw	r3,24(sp)
   44d4c:	d8801d05 	stb	r2,116(sp)
   44d50:	05400044 	movi	r21,1
   44d54:	dc401d04 	addi	r17,sp,116
   44d58:	003df806 	br	4453c <___svfprintf_internal_r+0x2d4>
   44d5c:	21003fcc 	andi	r4,r4,255
   44d60:	2004f41e 	bne	r4,zero,46134 <___svfprintf_internal_r+0x1ecc>
   44d64:	00800174 	movhi	r2,5
   44d68:	1096cc04 	addi	r2,r2,23344
   44d6c:	d8800b15 	stw	r2,44(sp)
   44d70:	6080080c 	andi	r2,r12,32
   44d74:	103fce1e 	bne	r2,zero,44cb0 <___svfprintf_internal_r+0xa48>
   44d78:	d9000617 	ldw	r4,24(sp)
   44d7c:	6080040c 	andi	r2,r12,16
   44d80:	20c00104 	addi	r3,r4,4
   44d84:	10023f1e 	bne	r2,zero,45684 <___svfprintf_internal_r+0x141c>
   44d88:	6080100c 	andi	r2,r12,64
   44d8c:	10040226 	beq	r2,zero,45d98 <___svfprintf_internal_r+0x1b30>
   44d90:	d8800617 	ldw	r2,24(sp)
   44d94:	002b883a 	mov	r21,zero
   44d98:	d8c00615 	stw	r3,24(sp)
   44d9c:	1500000b 	ldhu	r20,0(r2)
   44da0:	003fc806 	br	44cc4 <___svfprintf_internal_r+0xa5c>
   44da4:	e2c01990 	cmplti	r11,fp,102
   44da8:	5800ce1e 	bne	r11,zero,450e4 <___svfprintf_internal_r+0xe7c>
   44dac:	d9000917 	ldw	r4,36(sp)
   44db0:	d9400a17 	ldw	r5,40(sp)
   44db4:	000d883a 	mov	r6,zero
   44db8:	000f883a 	mov	r7,zero
   44dbc:	d8c00e15 	stw	r3,56(sp)
   44dc0:	0051a140 	call	51a14 <__eqdf2>
   44dc4:	d8c00e17 	ldw	r3,56(sp)
   44dc8:	1001711e 	bne	r2,zero,45390 <___svfprintf_internal_r+0x1128>
   44dcc:	d8801b17 	ldw	r2,108(sp)
   44dd0:	01000174 	movhi	r4,5
   44dd4:	2116d804 	addi	r4,r4,23392
   44dd8:	10800044 	addi	r2,r2,1
   44ddc:	18c00044 	addi	r3,r3,1
   44de0:	b1000015 	stw	r4,0(r22)
   44de4:	01000044 	movi	r4,1
   44de8:	d8801b15 	stw	r2,108(sp)
   44dec:	b1000115 	stw	r4,4(r22)
   44df0:	d8c01c15 	stw	r3,112(sp)
   44df4:	10800208 	cmpgei	r2,r2,8
   44df8:	10033b1e 	bne	r2,zero,45ae8 <___svfprintf_internal_r+0x1880>
   44dfc:	b5800204 	addi	r22,r22,8
   44e00:	d8801417 	ldw	r2,80(sp)
   44e04:	d9000817 	ldw	r4,32(sp)
   44e08:	11000316 	blt	r2,r4,44e18 <___svfprintf_internal_r+0xbb0>
   44e0c:	d8800417 	ldw	r2,16(sp)
   44e10:	1080004c 	andi	r2,r2,1
   44e14:	103e0226 	beq	r2,zero,44620 <___svfprintf_internal_r+0x3b8>
   44e18:	d8800d17 	ldw	r2,52(sp)
   44e1c:	d9000c17 	ldw	r4,48(sp)
   44e20:	b0800015 	stw	r2,0(r22)
   44e24:	d8801b17 	ldw	r2,108(sp)
   44e28:	1907883a 	add	r3,r3,r4
   44e2c:	b1000115 	stw	r4,4(r22)
   44e30:	10800044 	addi	r2,r2,1
   44e34:	d8801b15 	stw	r2,108(sp)
   44e38:	d8c01c15 	stw	r3,112(sp)
   44e3c:	10800208 	cmpgei	r2,r2,8
   44e40:	10033b1e 	bne	r2,zero,45b30 <___svfprintf_internal_r+0x18c8>
   44e44:	b5800204 	addi	r22,r22,8
   44e48:	d8800817 	ldw	r2,32(sp)
   44e4c:	157fffc4 	addi	r21,r2,-1
   44e50:	057df30e 	bge	zero,r21,44620 <___svfprintf_internal_r+0x3b8>
   44e54:	01c00174 	movhi	r7,5
   44e58:	a9000450 	cmplti	r4,r21,17
   44e5c:	d8801b17 	ldw	r2,108(sp)
   44e60:	39d6d904 	addi	r7,r7,23396
   44e64:	20031c1e 	bne	r4,zero,45ad8 <___svfprintf_internal_r+0x1870>
   44e68:	07000404 	movi	fp,16
   44e6c:	3823883a 	mov	r17,r7
   44e70:	00000406 	br	44e84 <___svfprintf_internal_r+0xc1c>
   44e74:	b5800204 	addi	r22,r22,8
   44e78:	ad7ffc04 	addi	r21,r21,-16
   44e7c:	a9000448 	cmpgei	r4,r21,17
   44e80:	20031426 	beq	r4,zero,45ad4 <___svfprintf_internal_r+0x186c>
   44e84:	10800044 	addi	r2,r2,1
   44e88:	18c00404 	addi	r3,r3,16
   44e8c:	b4400015 	stw	r17,0(r22)
   44e90:	b7000115 	stw	fp,4(r22)
   44e94:	d8c01c15 	stw	r3,112(sp)
   44e98:	d8801b15 	stw	r2,108(sp)
   44e9c:	11000208 	cmpgei	r4,r2,8
   44ea0:	203ff426 	beq	r4,zero,44e74 <___svfprintf_internal_r+0xc0c>
   44ea4:	d9801a04 	addi	r6,sp,104
   44ea8:	900b883a 	mov	r5,r18
   44eac:	9809883a 	mov	r4,r19
   44eb0:	004cba40 	call	4cba4 <__ssprint_r>
   44eb4:	103deb1e 	bne	r2,zero,44664 <___svfprintf_internal_r+0x3fc>
   44eb8:	d8c01c17 	ldw	r3,112(sp)
   44ebc:	d8801b17 	ldw	r2,108(sp)
   44ec0:	dd802704 	addi	r22,sp,156
   44ec4:	003fec06 	br	44e78 <___svfprintf_internal_r+0xc10>
   44ec8:	8519c83a 	sub	r12,r16,r20
   44ecc:	033dc50e 	bge	zero,r12,445e4 <___svfprintf_internal_r+0x37c>
   44ed0:	01c00174 	movhi	r7,5
   44ed4:	61000450 	cmplti	r4,r12,17
   44ed8:	d8801b17 	ldw	r2,108(sp)
   44edc:	39d6d904 	addi	r7,r7,23396
   44ee0:	2000281e 	bne	r4,zero,44f84 <___svfprintf_internal_r+0xd1c>
   44ee4:	dc400e15 	stw	r17,56(sp)
   44ee8:	dc000f15 	stw	r16,60(sp)
   44eec:	b009883a 	mov	r4,r22
   44ef0:	03400404 	movi	r13,16
   44ef4:	a02d883a 	mov	r22,r20
   44ef8:	6021883a 	mov	r16,r12
   44efc:	4029883a 	mov	r20,r8
   44f00:	3823883a 	mov	r17,r7
   44f04:	00000406 	br	44f18 <___svfprintf_internal_r+0xcb0>
   44f08:	843ffc04 	addi	r16,r16,-16
   44f0c:	81400448 	cmpgei	r5,r16,17
   44f10:	21000204 	addi	r4,r4,8
   44f14:	28001426 	beq	r5,zero,44f68 <___svfprintf_internal_r+0xd00>
   44f18:	10800044 	addi	r2,r2,1
   44f1c:	18c00404 	addi	r3,r3,16
   44f20:	24400015 	stw	r17,0(r4)
   44f24:	23400115 	stw	r13,4(r4)
   44f28:	d8c01c15 	stw	r3,112(sp)
   44f2c:	d8801b15 	stw	r2,108(sp)
   44f30:	11400208 	cmpgei	r5,r2,8
   44f34:	283ff426 	beq	r5,zero,44f08 <___svfprintf_internal_r+0xca0>
   44f38:	d9801a04 	addi	r6,sp,104
   44f3c:	900b883a 	mov	r5,r18
   44f40:	9809883a 	mov	r4,r19
   44f44:	004cba40 	call	4cba4 <__ssprint_r>
   44f48:	103dc61e 	bne	r2,zero,44664 <___svfprintf_internal_r+0x3fc>
   44f4c:	843ffc04 	addi	r16,r16,-16
   44f50:	81400448 	cmpgei	r5,r16,17
   44f54:	d8c01c17 	ldw	r3,112(sp)
   44f58:	d8801b17 	ldw	r2,108(sp)
   44f5c:	d9002704 	addi	r4,sp,156
   44f60:	03400404 	movi	r13,16
   44f64:	283fec1e 	bne	r5,zero,44f18 <___svfprintf_internal_r+0xcb0>
   44f68:	8019883a 	mov	r12,r16
   44f6c:	880f883a 	mov	r7,r17
   44f70:	dc000f17 	ldw	r16,60(sp)
   44f74:	dc400e17 	ldw	r17,56(sp)
   44f78:	a011883a 	mov	r8,r20
   44f7c:	b029883a 	mov	r20,r22
   44f80:	202d883a 	mov	r22,r4
   44f84:	10800044 	addi	r2,r2,1
   44f88:	1b07883a 	add	r3,r3,r12
   44f8c:	d8801b15 	stw	r2,108(sp)
   44f90:	b1c00015 	stw	r7,0(r22)
   44f94:	b3000115 	stw	r12,4(r22)
   44f98:	d8c01c15 	stw	r3,112(sp)
   44f9c:	10800208 	cmpgei	r2,r2,8
   44fa0:	1002d91e 	bne	r2,zero,45b08 <___svfprintf_internal_r+0x18a0>
   44fa4:	4551c83a 	sub	r8,r8,r21
   44fa8:	b5800204 	addi	r22,r22,8
   44fac:	023d8f0e 	bge	zero,r8,445ec <___svfprintf_internal_r+0x384>
   44fb0:	01c00174 	movhi	r7,5
   44fb4:	41000450 	cmplti	r4,r8,17
   44fb8:	d8801b17 	ldw	r2,108(sp)
   44fbc:	39d6d904 	addi	r7,r7,23396
   44fc0:	2000221e 	bne	r4,zero,4504c <___svfprintf_internal_r+0xde4>
   44fc4:	dc400e15 	stw	r17,56(sp)
   44fc8:	dc000f15 	stw	r16,60(sp)
   44fcc:	03000404 	movi	r12,16
   44fd0:	4021883a 	mov	r16,r8
   44fd4:	3823883a 	mov	r17,r7
   44fd8:	00000406 	br	44fec <___svfprintf_internal_r+0xd84>
   44fdc:	843ffc04 	addi	r16,r16,-16
   44fe0:	81000448 	cmpgei	r4,r16,17
   44fe4:	b5800204 	addi	r22,r22,8
   44fe8:	20001426 	beq	r4,zero,4503c <___svfprintf_internal_r+0xdd4>
   44fec:	10800044 	addi	r2,r2,1
   44ff0:	18c00404 	addi	r3,r3,16
   44ff4:	b4400015 	stw	r17,0(r22)
   44ff8:	b3000115 	stw	r12,4(r22)
   44ffc:	d8c01c15 	stw	r3,112(sp)
   45000:	d8801b15 	stw	r2,108(sp)
   45004:	11000208 	cmpgei	r4,r2,8
   45008:	203ff426 	beq	r4,zero,44fdc <___svfprintf_internal_r+0xd74>
   4500c:	d9801a04 	addi	r6,sp,104
   45010:	900b883a 	mov	r5,r18
   45014:	9809883a 	mov	r4,r19
   45018:	004cba40 	call	4cba4 <__ssprint_r>
   4501c:	103d911e 	bne	r2,zero,44664 <___svfprintf_internal_r+0x3fc>
   45020:	843ffc04 	addi	r16,r16,-16
   45024:	81000448 	cmpgei	r4,r16,17
   45028:	d8c01c17 	ldw	r3,112(sp)
   4502c:	d8801b17 	ldw	r2,108(sp)
   45030:	dd802704 	addi	r22,sp,156
   45034:	03000404 	movi	r12,16
   45038:	203fec1e 	bne	r4,zero,44fec <___svfprintf_internal_r+0xd84>
   4503c:	8011883a 	mov	r8,r16
   45040:	880f883a 	mov	r7,r17
   45044:	dc000f17 	ldw	r16,60(sp)
   45048:	dc400e17 	ldw	r17,56(sp)
   4504c:	10800044 	addi	r2,r2,1
   45050:	1a07883a 	add	r3,r3,r8
   45054:	d8801b15 	stw	r2,108(sp)
   45058:	b1c00015 	stw	r7,0(r22)
   4505c:	b2000115 	stw	r8,4(r22)
   45060:	d8c01c15 	stw	r3,112(sp)
   45064:	10800208 	cmpgei	r2,r2,8
   45068:	10014f1e 	bne	r2,zero,455a8 <___svfprintf_internal_r+0x1340>
   4506c:	b5800204 	addi	r22,r22,8
   45070:	003d5e06 	br	445ec <___svfprintf_internal_r+0x384>
   45074:	10c00060 	cmpeqi	r3,r2,1
   45078:	1803dc1e 	bne	r3,zero,45fec <___svfprintf_internal_r+0x1d84>
   4507c:	108000a0 	cmpeqi	r2,r2,2
   45080:	db000417 	ldw	r12,16(sp)
   45084:	103ea926 	beq	r2,zero,44b2c <___svfprintf_internal_r+0x8c4>
   45088:	d9000b17 	ldw	r4,44(sp)
   4508c:	dc402704 	addi	r17,sp,156
   45090:	a08003cc 	andi	r2,r20,15
   45094:	a806973a 	slli	r3,r21,28
   45098:	a028d13a 	srli	r20,r20,4
   4509c:	2085883a 	add	r2,r4,r2
   450a0:	10800003 	ldbu	r2,0(r2)
   450a4:	a82ad13a 	srli	r21,r21,4
   450a8:	1d28b03a 	or	r20,r3,r20
   450ac:	88bfffc5 	stb	r2,-1(r17)
   450b0:	a544b03a 	or	r2,r20,r21
   450b4:	8c7fffc4 	addi	r17,r17,-1
   450b8:	103ff51e 	bne	r2,zero,45090 <___svfprintf_internal_r+0xe28>
   450bc:	d8802704 	addi	r2,sp,156
   450c0:	146bc83a 	sub	r21,r2,r17
   450c4:	db000415 	stw	r12,16(sp)
   450c8:	003eb206 	br	44b94 <___svfprintf_internal_r+0x92c>
   450cc:	d9801a04 	addi	r6,sp,104
   450d0:	900b883a 	mov	r5,r18
   450d4:	9809883a 	mov	r4,r19
   450d8:	004cba40 	call	4cba4 <__ssprint_r>
   450dc:	103d5b26 	beq	r2,zero,4464c <___svfprintf_internal_r+0x3e4>
   450e0:	003d6006 	br	44664 <___svfprintf_internal_r+0x3fc>
   450e4:	d8800817 	ldw	r2,32(sp)
   450e8:	da001b17 	ldw	r8,108(sp)
   450ec:	18c00044 	addi	r3,r3,1
   450f0:	10800088 	cmpgei	r2,r2,2
   450f4:	45400044 	addi	r21,r8,1
   450f8:	b7000204 	addi	fp,r22,8
   450fc:	1000fd26 	beq	r2,zero,454f4 <___svfprintf_internal_r+0x128c>
   45100:	00800044 	movi	r2,1
   45104:	b0800115 	stw	r2,4(r22)
   45108:	b4400015 	stw	r17,0(r22)
   4510c:	d8c01c15 	stw	r3,112(sp)
   45110:	dd401b15 	stw	r21,108(sp)
   45114:	a8800210 	cmplti	r2,r21,8
   45118:	10012b26 	beq	r2,zero,455c8 <___svfprintf_internal_r+0x1360>
   4511c:	d8800c17 	ldw	r2,48(sp)
   45120:	d9000d17 	ldw	r4,52(sp)
   45124:	ad400044 	addi	r21,r21,1
   45128:	1887883a 	add	r3,r3,r2
   4512c:	e0800115 	stw	r2,4(fp)
   45130:	e1000015 	stw	r4,0(fp)
   45134:	d8c01c15 	stw	r3,112(sp)
   45138:	dd401b15 	stw	r21,108(sp)
   4513c:	a8800208 	cmpgei	r2,r21,8
   45140:	10012a1e 	bne	r2,zero,455ec <___svfprintf_internal_r+0x1384>
   45144:	e7000204 	addi	fp,fp,8
   45148:	d9000917 	ldw	r4,36(sp)
   4514c:	d9400a17 	ldw	r5,40(sp)
   45150:	aa000044 	addi	r8,r21,1
   45154:	000d883a 	mov	r6,zero
   45158:	000f883a 	mov	r7,zero
   4515c:	d8c00e15 	stw	r3,56(sp)
   45160:	da000715 	stw	r8,28(sp)
   45164:	0051a140 	call	51a14 <__eqdf2>
   45168:	d8c00817 	ldw	r3,32(sp)
   4516c:	da000717 	ldw	r8,28(sp)
   45170:	e5800204 	addi	r22,fp,8
   45174:	1affffc4 	addi	r11,r3,-1
   45178:	d8c00e17 	ldw	r3,56(sp)
   4517c:	1000ea26 	beq	r2,zero,45528 <___svfprintf_internal_r+0x12c0>
   45180:	8a400044 	addi	r9,r17,1
   45184:	1ac7883a 	add	r3,r3,r11
   45188:	da001b15 	stw	r8,108(sp)
   4518c:	e2400015 	stw	r9,0(fp)
   45190:	e2c00115 	stw	r11,4(fp)
   45194:	d8c01c15 	stw	r3,112(sp)
   45198:	42000208 	cmpgei	r8,r8,8
   4519c:	4001b41e 	bne	r8,zero,45870 <___svfprintf_internal_r+0x1608>
   451a0:	e0800404 	addi	r2,fp,16
   451a4:	aa000084 	addi	r8,r21,2
   451a8:	b039883a 	mov	fp,r22
   451ac:	102d883a 	mov	r22,r2
   451b0:	d9001017 	ldw	r4,64(sp)
   451b4:	d8801644 	addi	r2,sp,89
   451b8:	da001b15 	stw	r8,108(sp)
   451bc:	20c7883a 	add	r3,r4,r3
   451c0:	e0800015 	stw	r2,0(fp)
   451c4:	e1000115 	stw	r4,4(fp)
   451c8:	d8c01c15 	stw	r3,112(sp)
   451cc:	42000210 	cmplti	r8,r8,8
   451d0:	403d131e 	bne	r8,zero,44620 <___svfprintf_internal_r+0x3b8>
   451d4:	d9801a04 	addi	r6,sp,104
   451d8:	900b883a 	mov	r5,r18
   451dc:	9809883a 	mov	r4,r19
   451e0:	004cba40 	call	4cba4 <__ssprint_r>
   451e4:	103d1f1e 	bne	r2,zero,44664 <___svfprintf_internal_r+0x3fc>
   451e8:	d8c01c17 	ldw	r3,112(sp)
   451ec:	dd802704 	addi	r22,sp,156
   451f0:	003d0b06 	br	44620 <___svfprintf_internal_r+0x3b8>
   451f4:	10c00060 	cmpeqi	r3,r2,1
   451f8:	db000417 	ldw	r12,16(sp)
   451fc:	183e4926 	beq	r3,zero,44b24 <___svfprintf_internal_r+0x8bc>
   45200:	a8013c1e 	bne	r21,zero,456f4 <___svfprintf_internal_r+0x148c>
   45204:	a08002a8 	cmpgeui	r2,r20,10
   45208:	10013a1e 	bne	r2,zero,456f4 <___svfprintf_internal_r+0x148c>
   4520c:	a5000c04 	addi	r20,r20,48
   45210:	dd0026c5 	stb	r20,155(sp)
   45214:	db000415 	stw	r12,16(sp)
   45218:	05400044 	movi	r21,1
   4521c:	dc4026c4 	addi	r17,sp,155
   45220:	003e5c06 	br	44b94 <___svfprintf_internal_r+0x92c>
   45224:	03000174 	movhi	r12,5
   45228:	39000450 	cmplti	r4,r7,17
   4522c:	d8801b17 	ldw	r2,108(sp)
   45230:	6316dd04 	addi	r12,r12,23412
   45234:	2000321e 	bne	r4,zero,45300 <___svfprintf_internal_r+0x1098>
   45238:	dc401115 	stw	r17,68(sp)
   4523c:	b009883a 	mov	r4,r22
   45240:	9023883a 	mov	r17,r18
   45244:	a82d883a 	mov	r22,r21
   45248:	ddc01215 	stw	r23,72(sp)
   4524c:	03c00404 	movi	r15,16
   45250:	a02f883a 	mov	r23,r20
   45254:	db800e15 	stw	r14,56(sp)
   45258:	8029883a 	mov	r20,r16
   4525c:	db400f15 	stw	r13,60(sp)
   45260:	402b883a 	mov	r21,r8
   45264:	3821883a 	mov	r16,r7
   45268:	6025883a 	mov	r18,r12
   4526c:	00000406 	br	45280 <___svfprintf_internal_r+0x1018>
   45270:	843ffc04 	addi	r16,r16,-16
   45274:	81800448 	cmpgei	r6,r16,17
   45278:	21000204 	addi	r4,r4,8
   4527c:	30001426 	beq	r6,zero,452d0 <___svfprintf_internal_r+0x1068>
   45280:	10800044 	addi	r2,r2,1
   45284:	18c00404 	addi	r3,r3,16
   45288:	24800015 	stw	r18,0(r4)
   4528c:	23c00115 	stw	r15,4(r4)
   45290:	d8c01c15 	stw	r3,112(sp)
   45294:	d8801b15 	stw	r2,108(sp)
   45298:	11800208 	cmpgei	r6,r2,8
   4529c:	303ff426 	beq	r6,zero,45270 <___svfprintf_internal_r+0x1008>
   452a0:	d9801a04 	addi	r6,sp,104
   452a4:	880b883a 	mov	r5,r17
   452a8:	9809883a 	mov	r4,r19
   452ac:	004cba40 	call	4cba4 <__ssprint_r>
   452b0:	1001b11e 	bne	r2,zero,45978 <___svfprintf_internal_r+0x1710>
   452b4:	843ffc04 	addi	r16,r16,-16
   452b8:	81800448 	cmpgei	r6,r16,17
   452bc:	d8c01c17 	ldw	r3,112(sp)
   452c0:	d8801b17 	ldw	r2,108(sp)
   452c4:	d9002704 	addi	r4,sp,156
   452c8:	03c00404 	movi	r15,16
   452cc:	303fec1e 	bne	r6,zero,45280 <___svfprintf_internal_r+0x1018>
   452d0:	800f883a 	mov	r7,r16
   452d4:	9019883a 	mov	r12,r18
   452d8:	a021883a 	mov	r16,r20
   452dc:	8825883a 	mov	r18,r17
   452e0:	b829883a 	mov	r20,r23
   452e4:	db800e17 	ldw	r14,56(sp)
   452e8:	db400f17 	ldw	r13,60(sp)
   452ec:	ddc01217 	ldw	r23,72(sp)
   452f0:	dc401117 	ldw	r17,68(sp)
   452f4:	a811883a 	mov	r8,r21
   452f8:	b02b883a 	mov	r21,r22
   452fc:	202d883a 	mov	r22,r4
   45300:	10800044 	addi	r2,r2,1
   45304:	19c7883a 	add	r3,r3,r7
   45308:	d8801b15 	stw	r2,108(sp)
   4530c:	b3000015 	stw	r12,0(r22)
   45310:	b1c00115 	stw	r7,4(r22)
   45314:	d8c01c15 	stw	r3,112(sp)
   45318:	10800208 	cmpgei	r2,r2,8
   4531c:	10015f1e 	bne	r2,zero,4589c <___svfprintf_internal_r+0x1634>
   45320:	b5800204 	addi	r22,r22,8
   45324:	003c9206 	br	44570 <___svfprintf_internal_r+0x308>
   45328:	d9801a04 	addi	r6,sp,104
   4532c:	900b883a 	mov	r5,r18
   45330:	9809883a 	mov	r4,r19
   45334:	da001115 	stw	r8,68(sp)
   45338:	db400f15 	stw	r13,60(sp)
   4533c:	db800e15 	stw	r14,56(sp)
   45340:	004cba40 	call	4cba4 <__ssprint_r>
