
drive_logic.elf:     file format elf32-littlenios2
drive_logic.elf
architecture: nios2:r1, flags 0x00000112:
EXEC_P, HAS_SYMS, D_PAGED
start address 0x00040238

Program Header:
    LOAD off    0x00001000 vaddr 0x00040000 paddr 0x00040000 align 2**12
         filesz 0x00000020 memsz 0x00000020 flags r-x
    LOAD off    0x00001020 vaddr 0x00040020 paddr 0x00040020 align 2**12
         filesz 0x00013a14 memsz 0x00013a14 flags r-x
    LOAD off    0x00014a34 vaddr 0x00053a34 paddr 0x00055638 align 2**12
         filesz 0x00001c04 memsz 0x00001c04 flags rw-
    LOAD off    0x0001723c vaddr 0x0005723c paddr 0x0005723c align 2**12
         filesz 0x00000000 memsz 0x0000017c flags rw-

Sections:
Idx Name          Size      VMA       LMA       File off  Algn
  0 .entry        00000020  00040000  00040000  00001000  2**5
                  CONTENTS, ALLOC, LOAD, READONLY, CODE
  1 .exceptions   00000218  00040020  00040020  00001020  2**2
                  CONTENTS, ALLOC, LOAD, READONLY, CODE
  2 .text         00012f70  00040238  00040238  00001238  2**2
                  CONTENTS, ALLOC, LOAD, READONLY, CODE
  3 .rodata       0000088c  000531a8  000531a8  000141a8  2**2
                  CONTENTS, ALLOC, LOAD, READONLY, DATA
  4 .rwdata       00001c04  00053a34  00055638  00014a34  2**2
                  CONTENTS, ALLOC, LOAD, DATA, SMALL_DATA
  5 .bss          0000017c  0005723c  0005723c  0001723c  2**2
                  ALLOC, SMALL_DATA
  6 .Memory       00000000  000573b8  000573b8  00016638  2**0
                  CONTENTS
  7 .comment      0000002c  00000000  00000000  00016638  2**0
                  CONTENTS, READONLY
  8 .debug_aranges 00001500  00000000  00000000  00016668  2**3
                  CONTENTS, READONLY, DEBUGGING
  9 .debug_info   000627dc  00000000  00000000  00017b68  2**0
                  CONTENTS, READONLY, DEBUGGING
 10 .debug_abbrev 000160e3  00000000  00000000  0007a344  2**0
                  CONTENTS, READONLY, DEBUGGING
 11 .debug_line   00021aa2  00000000  00000000  00090427  2**0
                  CONTENTS, READONLY, DEBUGGING
 12 .debug_frame  00003108  00000000  00000000  000b1ecc  2**2
                  CONTENTS, READONLY, DEBUGGING
 13 .debug_str    00007e37  00000000  00000000  000b4fd4  2**0
                  CONTENTS, READONLY, DEBUGGING
 14 .debug_loc    00023caa  00000000  00000000  000bce0b  2**0
                  CONTENTS, READONLY, DEBUGGING
 15 .debug_alt_sim_info 00000030  00000000  00000000  000e0ab8  2**2
                  CONTENTS, READONLY, DEBUGGING
 16 .debug_ranges 00002ab8  00000000  00000000  000e0ae8  2**3
                  CONTENTS, READONLY, DEBUGGING
 17 .thread_model 00000003  00000000  00000000  000e884a  2**0
                  CONTENTS, READONLY
 18 .cpu          00000003  00000000  00000000  000e884d  2**0
                  CONTENTS, READONLY
 19 .qsys         00000001  00000000  00000000  000e8850  2**0
                  CONTENTS, READONLY
 20 .simulation_enabled 00000001  00000000  00000000  000e8851  2**0
                  CONTENTS, READONLY
 21 .stderr_dev   00000004  00000000  00000000  000e8852  2**0
                  CONTENTS, READONLY
 22 .stdin_dev    00000004  00000000  00000000  000e8856  2**0
                  CONTENTS, READONLY
 23 .stdout_dev   00000004  00000000  00000000  000e885a  2**0
                  CONTENTS, READONLY
 24 .sopc_system_name 0000000b  00000000  00000000  000e885e  2**0
                  CONTENTS, READONLY
SYMBOL TABLE:
00040000 l    d  .entry	00000000 .entry
00040020 l    d  .exceptions	00000000 .exceptions
00040238 l    d  .text	00000000 .text
000531a8 l    d  .rodata	00000000 .rodata
00053a34 l    d  .rwdata	00000000 .rwdata
0005723c l    d  .bss	00000000 .bss
000573b8 l    d  .Memory	00000000 .Memory
00000000 l    d  .comment	00000000 .comment
00000000 l    d  .debug_aranges	00000000 .debug_aranges
00000000 l    d  .debug_info	00000000 .debug_info
00000000 l    d  .debug_abbrev	00000000 .debug_abbrev
00000000 l    d  .debug_line	00000000 .debug_line
00000000 l    d  .debug_frame	00000000 .debug_frame
00000000 l    d  .debug_str	00000000 .debug_str
00000000 l    d  .debug_loc	00000000 .debug_loc
00000000 l    d  .debug_alt_sim_info	00000000 .debug_alt_sim_info
00000000 l    d  .debug_ranges	00000000 .debug_ranges
00000000 l    df *ABS*	00000000 C:/Users/joshn/iCloudDrive/Desktop/Uni/MTRX3700/Major-Project/mtrx3700-major-project/VerilogCam_project/software/drive_logic_bsp/obj/HAL/src/crt0.o
00040280 l       .text	00000000 alt_after_alt_main
00000000 l    df *ABS*	00000000 alt_irq_handler.c
00000000 l    df *ABS*	00000000 alt_instruction_exception_entry.c
00000000 l    df *ABS*	00000000 command_translator.cpp
0005723c l     O .bss	00000004 _ZZN10CCommander13sendNextAsciiEvE13current_index
00000000 l    df *ABS*	00000000 drive_logic_booyah.cpp
00000000 l    df *ABS*	00000000 main.cpp
00000000 l    df *ABS*	00000000 del_ops.cc
00000000 l    df *ABS*	00000000 eh_personality.cc
00040b20 l     F .text	00000090 _ZL16get_adjusted_ptrPKSt9type_infoS1_PPv
00040bb0 l     F .text	000001e8 _ZL28read_encoded_value_with_basehjPKhPj
00040d98 l     F .text	00000094 _ZL15get_ttype_entryP16lsda_header_infom
00040e2c l     F .text	000000a0 _ZL20check_exception_specP16lsda_header_infoPKSt9type_infoPvl
00040ecc l     F .text	00000070 _ZL21base_of_encoded_valuehP15_Unwind_Context
00040f3c l     F .text	0000012c _ZL17parse_lsda_headerP15_Unwind_ContextPKhP16lsda_header_info
00000000 l    df *ABS*	00000000 eh_terminate.cc
00000000 l    df *ABS*	00000000 eh_throw.cc
00041958 l     F .text	00000068 _ZL23__gxx_exception_cleanup19_Unwind_Reason_CodeP17_Unwind_Exception
00000000 l    df *ABS*	00000000 eh_unex_handler.cc
00000000 l    df *ABS*	00000000 new_op.cc
00000000 l    df *ABS*	00000000 bad_alloc.cc
00000000 l    df *ABS*	00000000 del_op.cc
00000000 l    df *ABS*	00000000 eh_alloc.cc
00041c04 l     F .text	000000cc _ZN12_GLOBAL__N_14pool4freeEPv.constprop.0
00057280 l     O .bss	00000010 _ZN12_GLOBAL__N_114emergency_poolE
00041cd0 l     F .text	0000008c _ZN12_GLOBAL__N_14pool8allocateEj.constprop.0
00041e7c l     F .text	00000064 _GLOBAL__sub_I__ZN9__gnu_cxx9__freeresEv
00000000 l    df *ABS*	00000000 eh_call.cc
00000000 l    df *ABS*	00000000 eh_catch.cc
00000000 l    df *ABS*	00000000 eh_exception.cc
00000000 l    df *ABS*	00000000 eh_globals.cc
00057240 l     O .bss	00000008 _ZL10eh_globals
00000000 l    df *ABS*	00000000 eh_term_handler.cc
00000000 l    df *ABS*	00000000 new_handler.cc
00057248 l     O .bss	00000004 _ZN12_GLOBAL__N_113__new_handlerE
00000000 l    df *ABS*	00000000 pure.cc
00000000 l    df *ABS*	00000000 si_class_type_info.cc
00000000 l    df *ABS*	00000000 tinfo.cc
00000000 l    df *ABS*	00000000 class_type_info.cc
00000000 l    df *ABS*	00000000 lib2-divmod.c
00000000 l    df *ABS*	00000000 floatsisf.c
00000000 l    df *ABS*	00000000 extendsfdf2.c
00000000 l    df *ABS*	00000000 unwind-sjlj.c
00042b34 l     F .text	00000114 _Unwind_ForcedUnwind_Phase2
0005724c l     O .bss	00000004 fc_static
00042c48 l     F .text	000000d8 _Unwind_RaiseException_Phase2
00042d20 l     F .text	0000002c uw_install_context.isra.0
00000000 l    df *ABS*	00000000 libgcc2.c
00000000 l    df *ABS*	00000000 libgcc2.c
00000000 l    df *ABS*	00000000 abort.c
00000000 l    df *ABS*	00000000 malloc.c
00000000 l    df *ABS*	00000000 mallocr.c
00000000 l    df *ABS*	00000000 memset.c
00000000 l    df *ABS*	00000000 sbrkr.c
00000000 l    df *ABS*	00000000 signal.c
00043a18 l     F .text	0000004c _init_signal_r.part.0
00000000 l    df *ABS*	00000000 signalr.c
00000000 l    df *ABS*	00000000 snprintf.c
00000000 l    df *ABS*	00000000 strcmp.c
00000000 l    df *ABS*	00000000 strlen.c
00000000 l    df *ABS*	00000000 vfprintf.c
0005352c l     O .rodata	00000010 blanks.5157
0005351c l     O .rodata	00000010 zeroes.5158
00000000 l    df *ABS*	00000000 dtoa.c
000460ac l     F .text	000001fc quorem
00000000 l    df *ABS*	00000000 mallocr.c
00000000 l    df *ABS*	00000000 impure.c
00053e3c l     O .rwdata	00000424 impure_data
00000000 l    df *ABS*	00000000 int_errno.c
00000000 l    df *ABS*	00000000 localeconv.c
00000000 l    df *ABS*	00000000 memchr.c
00000000 l    df *ABS*	00000000 memcpy.c
00000000 l    df *ABS*	00000000 mprec.c
000535d8 l     O .rodata	0000000c p05.3991
00000000 l    df *ABS*	00000000 vfprintf.c
0005370c l     O .rodata	00000010 blanks.5137
000536fc l     O .rodata	00000010 zeroes.5138
00000000 l    df *ABS*	00000000 assert.c
00000000 l    df *ABS*	00000000 mallocr.c
00000000 l    df *ABS*	00000000 fiprintf.c
00000000 l    df *ABS*	00000000 locale.c
00000000 l    df *ABS*	00000000 mbtowc_r.c
00000000 l    df *ABS*	00000000 memmove.c
00000000 l    df *ABS*	00000000 mallocr.c
00000000 l    df *ABS*	00000000 vfiprintfr_1.c
00000000 l    df *ABS*	00000000 wctomb_r.c
00000000 l    df *ABS*	00000000 ctype_.c
00000000 l    df *ABS*	00000000 vfprintf.c
0004ac80 l     F .text	000000f4 __sprint_r.part.0
0004c0ac l     F .text	000000c0 __sbprintf
00053a00 l     O .rodata	00000010 blanks.5153
000539f0 l     O .rodata	00000010 zeroes.5154
00000000 l    df *ABS*	00000000 wsetup.c
00000000 l    df *ABS*	00000000 fflush.c
00000000 l    df *ABS*	00000000 findfp.c
0004c578 l     F .text	00000008 __fp_lock
0004c58c l     F .text	00000168 __sinit.part.0
0004c6f4 l     F .text	00000008 __fp_unlock
00000000 l    df *ABS*	00000000 fputwc.c
00000000 l    df *ABS*	00000000 fvwrite.c
00000000 l    df *ABS*	00000000 fwalk.c
00000000 l    df *ABS*	00000000 makebuf.c
00000000 l    df *ABS*	00000000 stdio.c
00000000 l    df *ABS*	00000000 wbuf.c
00000000 l    df *ABS*	00000000 wcrtomb.c
00000000 l    df *ABS*	00000000 writer.c
00000000 l    df *ABS*	00000000 closer.c
00000000 l    df *ABS*	00000000 fclose.c
00000000 l    df *ABS*	00000000 fstatr.c
00000000 l    df *ABS*	00000000 isattyr.c
00000000 l    df *ABS*	00000000 lseekr.c
00000000 l    df *ABS*	00000000 readr.c
00000000 l    df *ABS*	00000000 libgcc2.c
00000000 l    df *ABS*	00000000 libgcc2.c
00000000 l    df *ABS*	00000000 adddf3.c
00000000 l    df *ABS*	00000000 divdf3.c
00000000 l    df *ABS*	00000000 eqdf2.c
00000000 l    df *ABS*	00000000 gedf2.c
00000000 l    df *ABS*	00000000 ledf2.c
00000000 l    df *ABS*	00000000 muldf3.c
00000000 l    df *ABS*	00000000 subdf3.c
00000000 l    df *ABS*	00000000 unorddf2.c
00000000 l    df *ABS*	00000000 fixdfsi.c
00000000 l    df *ABS*	00000000 floatsidf.c
00000000 l    df *ABS*	00000000 floatunsidf.c
00000000 l    df *ABS*	00000000 alt_close.c
00050a28 l     F .text	0000003c alt_get_errno
00000000 l    df *ABS*	00000000 alt_dev.c
00050b34 l     F .text	0000002c alt_dev_null_write
00000000 l    df *ABS*	00000000 alt_errno.c
00000000 l    df *ABS*	00000000 alt_exit.c
00000000 l    df *ABS*	00000000 alt_fstat.c
00050b98 l     F .text	0000003c alt_get_errno
00000000 l    df *ABS*	00000000 alt_getpid.c
00000000 l    df *ABS*	00000000 alt_isatty.c
00050ca4 l     F .text	0000003c alt_get_errno
00000000 l    df *ABS*	00000000 alt_kill.c
00050d84 l     F .text	0000003c alt_get_errno
00000000 l    df *ABS*	00000000 alt_load.c
00050eec l     F .text	00000068 alt_load_section
00000000 l    df *ABS*	00000000 alt_lseek.c
00050fd8 l     F .text	0000003c alt_get_errno
00000000 l    df *ABS*	00000000 alt_main.c
00000000 l    df *ABS*	00000000 alt_malloc_lock.c
00000000 l    df *ABS*	00000000 alt_read.c
000511ac l     F .text	0000003c alt_get_errno
00000000 l    df *ABS*	00000000 alt_release_fd.c
00000000 l    df *ABS*	00000000 alt_sbrk.c
00055628 l     O .rwdata	00000004 heap_end
00000000 l    df *ABS*	00000000 alt_write.c
000513f4 l     F .text	0000003c alt_get_errno
00000000 l    df *ABS*	00000000 alt_sys_init.c
00051528 l     F .text	00000034 alt_dev_reg
00054574 l     O .rwdata	00001060 jtag
00000000 l    df *ABS*	00000000 altera_avalon_jtag_uart_fd.c
00000000 l    df *ABS*	00000000 altera_avalon_jtag_uart_init.c
00051804 l     F .text	0000020c altera_avalon_jtag_uart_irq
00051a10 l     F .text	000000a0 altera_avalon_jtag_uart_timeout
00000000 l    df *ABS*	00000000 altera_avalon_jtag_uart_ioctl.c
00000000 l    df *ABS*	00000000 altera_avalon_jtag_uart_read.c
00000000 l    df *ABS*	00000000 altera_avalon_jtag_uart_write.c
00000000 l    df *ABS*	00000000 alt_alarm_start.c
00000000 l    df *ABS*	00000000 alt_dcache_flush_all.c
00000000 l    df *ABS*	00000000 alt_dev_llist_insert.c
000521d4 l     F .text	0000003c alt_get_errno
00000000 l    df *ABS*	00000000 alt_do_ctors.c
00000000 l    df *ABS*	00000000 alt_do_dtors.c
00000000 l    df *ABS*	00000000 alt_icache_flush_all.c
00000000 l    df *ABS*	00000000 alt_iic.c
00000000 l    df *ABS*	00000000 alt_iic_isr_register.c
00000000 l    df *ABS*	00000000 alt_io_redirect.c
0005264c l     F .text	000000b0 alt_open_fd
00000000 l    df *ABS*	00000000 alt_irq_vars.c
00000000 l    df *ABS*	00000000 alt_open.c
00052778 l     F .text	0000003c alt_get_errno
000527b4 l     F .text	000000b8 alt_file_locked
00000000 l    df *ABS*	00000000 alt_tick.c
00000000 l    df *ABS*	00000000 altera_nios2_gen2_irq.c
00000000 l    df *ABS*	00000000 alt_find_dev.c
00000000 l    df *ABS*	00000000 alt_find_file.c
00000000 l    df *ABS*	00000000 alt_get_fd.c
00000000 l    df *ABS*	00000000 alt_icache_flush.c
00000000 l    df *ABS*	00000000 atexit.c
00000000 l    df *ABS*	00000000 exit.c
00000000 l    df *ABS*	00000000 memcmp.c
00000000 l    df *ABS*	00000000 __atexit.c
00000000 l    df *ABS*	00000000 __call_atexit.c
0005727c g     O .bss	00000004 alt_instruction_exception_handler
00041de4 g     F .text	00000028 __cxa_free_exception
00042454 g     F .text	00000008 _ZNKSt9type_info15__is_function_pEv
00048f64 g     F .text	00000070 _mprec_log10
000418e4 g     F .text	00000014 _ZSt10unexpectedv
00049040 g     F .text	00000060 __any_on
0004d848 g     F .text	00000058 _isatty_r
000535e4 g     O .rodata	00000028 __mprec_tinytens
000510e8 g     F .text	0000007c alt_main
000572b8 g     O .bss	00000100 alt_irq
00042118 g     F .text	00000004 _ZN10__cxxabiv115__forced_unwindD1Ev
0004d8a0 g     F .text	00000064 _lseek_r
00042dcc g     F .text	00000020 .hidden _Unwind_GetIPInfo
00055638 g       *ABS*	00000000 __flash_rwdata_start
0004f604 g     F .text	00000080 .hidden __eqdf2
00041ab8 g     F .text	00000084 __cxa_rethrow
00042d64 g     F .text	00000010 .hidden _Unwind_SjLj_Unregister
00041928 g     F .text	00000024 _ZSt14set_unexpectedPFvvE
000405e8 g     F .text	00000044 _ZN14CDriveComputerD2Ev
00042dbc g     F .text	00000010 .hidden _Unwind_GetIP
000573b8 g       *ABS*	00000000 __alt_heap_start
00043ccc g     F .text	00000060 _kill_r
00041bb8 g     F .text	00000010 _ZNSt9bad_allocD2Ev
0004d530 g     F .text	0000006c _wcrtomb_r
00043a78 g     F .text	00000084 _signal_r
0004d36c g     F .text	0000005c __sseek
0004c874 g     F .text	00000010 __sinit
0004d3d0 g     F .text	00000148 __swbuf_r
00041e50 g     F .text	0000002c __cxa_free_dependent_exception
00042188 g     F .text	00000010 _ZN10__cxxabiv120__si_class_type_infoD2Ev
0004a4c8 g     F .text	00000074 _setlocale_r
000532ec  w    O .rodata	00000025 _ZTSN10__cxxabiv120__si_class_type_infoE
0004c6fc g     F .text	00000068 __sfmoreglue
00051188 g     F .text	00000024 __malloc_unlock
00040478 g     F .text	00000170 _ZN14CDriveComputerC2Ev
00042118 g     F .text	00000004 _ZN10__cxxabiv115__forced_unwindD2Ev
000420ac g     F .text	00000020 _ZSt18uncaught_exceptionv
0004217c g     F .text	0000000c __cxa_deleted_virtual
0004a5b0 g     F .text	0000012c memmove
000420e8 g     F .text	00000004 _ZNSt9exceptionD2Ev
0004c860 g     F .text	00000014 _cleanup
00043df4 g     F .text	000000cc snprintf
00048004 g     F .text	000000a4 _Balloc
0004f684 g     F .text	000000f0 .hidden __gtdf2
000532b0  w    O .rodata	00000014 _ZTVSt13bad_exception
00052b6c g     F .text	00000024 altera_nios2_gen2_irq_init
0004097c g     F .text	00000030 _Z9write_pioi
00040000 g     F .entry	0000001c __reset
00047e10 g     F .text	00000008 __localeconv_l
00042e08 g     F .text	00000008 .hidden _Unwind_GetRegionStart
00040020 g       *ABS*	00000000 __flash_exceptions_start
0004d7e8 g     F .text	00000060 _fstat_r
0005725c g     O .bss	00000004 errno
0004d2e4 g     F .text	00000008 __seofread
00049260 g     F .text	000010e4 ___svfiprintf_internal_r
00042fdc g     F .text	00000088 .hidden _Unwind_Backtrace
00057268 g     O .bss	00000004 alt_argv
0005d5d4 g       *ABS*	00000000 _gp
00050c84 g     F .text	00000020 getpid
00041674 g     F .text	00000180 __cxa_call_unexpected
00041f38 g     F .text	00000008 __cxa_get_exception_ptr
000543f4 g     O .rwdata	00000180 alt_fd_list
00042ef0 g     F .text	00000044 .hidden _Unwind_SjLj_ForcedUnwind
00042d8c g     F .text	00000018 .hidden _Unwind_GetCFA
000418f8 g     F .text	00000024 _ZSt13set_terminatePFvvE
00052b90 g     F .text	00000090 alt_find_dev
00047f04 g     F .text	00000100 memcpy
00041e0c g     F .text	00000044 __cxa_allocate_dependent_exception
0004c580 g     F .text	0000000c _cleanup_r
00042528 g     F .text	00000018 _ZNK10__cxxabiv117__class_type_info20__do_find_public_srcEiPKvPKS0_S2_
000508dc g     F .text	000000bc .hidden __floatsidf
000526fc g     F .text	0000007c alt_io_redirect
0004f774 g     F .text	000000f0 .hidden __ltdf2
000531a8 g       *ABS*	00000000 __DTOR_END__
00042540 g     F .text	00000010 _ZN10__cxxabiv117__class_type_infoD1Ev
00052e58 g     F .text	00000098 alt_exception_cause_generated_bad_addr
00048ebc g     F .text	000000a8 __ratio
0004c090 g     F .text	0000001c __vfiprintf_internal
00051c0c g     F .text	00000220 altera_avalon_jtag_uart_read
000430d0 g     F .text	00000010 malloc
00042854 g     F .text	00000064 .hidden __udivsi3
00050ce0 g     F .text	000000a4 isatty
00043afc g     F .text	000000c4 _raise_r
00040674 g     F .text	00000048 _ZN14CDriveComputer19DecrementFollowDistEv
0004a344 g     F .text	00000064 __assert_func
00053634 g     O .rodata	000000c8 __mprec_tens
00052dc8 g     F .text	00000090 alt_icache_flush
00057258 g     O .bss	00000004 __malloc_top_pad
00043d2c g     F .text	00000004 _getpid_r
00047e18 g     F .text	0000000c _localeconv_r
000420cc g     F .text	0000001c _ZSt19uncaught_exceptionsv
00041d5c g     F .text	00000030 _ZN9__gnu_cxx9__freeresEv
0004cabc g     F .text	000004bc __sfvwrite_r
00048450 g     F .text	00000054 __i2b
000426b8 g     F .text	000000a8 _ZNK10__cxxabiv117__class_type_info10__do_catchEPKSt9type_infoPPvj
00043bc0 g     F .text	000000b8 __sigtramp_r
000439c0 g     F .text	00000058 _sbrk_r
000420f0 g     F .text	0000000c _ZGTtNKSt9exception4whatEv
0005335c  w    O .rodata	00000020 _ZTVSt9type_info
0004d904 g     F .text	00000064 _read_r
000420f0 g     F .text	0000000c _ZNKSt9exception4whatEv
00055620 g     O .rwdata	00000004 alt_max_fd
0004d6e0 g     F .text	000000f8 _fclose_r
000531e4  w    O .rodata	0000000c _ZTISt9bad_alloc
0004c550 g     F .text	00000028 fflush
00057254 g     O .bss	00000004 __malloc_max_sbrked_mem
00042a38 g     F .text	000000fc .hidden __extendsfdf2
0004e42c g     F .text	00000978 .hidden __adddf3
00053320  w    O .rodata	0000002c _ZTVN10__cxxabiv120__si_class_type_infoE
00048c54 g     F .text	00000104 __b2d
0004def8 g     F .text	00000534 .hidden __umoddi3
00051014 g     F .text	000000d4 lseek
0004264c g     F .text	0000006c _ZNK10__cxxabiv117__class_type_info11__do_upcastEPKS0_PKvRNS0_15__upcast_resultE
00041c00 g     F .text	00000004 _ZdlPv
00040284 g     F .text	00000044 _ZN10CCommanderC2Ev
00055608 g     O .rwdata	00000004 _global_impure_ptr
0004a6dc g     F .text	00000564 _realloc_r
000573b8 g       *ABS*	00000000 __bss_end
00042164 g     F .text	0000000c _ZSt15get_new_handlerv
00052564 g     F .text	000000e8 alt_iic_isr_register
00052a64 g     F .text	00000108 alt_tick
00042d4c g     F .text	00000018 .hidden _Unwind_SjLj_Register
0004d968 g     F .text	00000590 .hidden __udivdi3
0004ca20 g     F .text	00000024 _fputwc_r
0005360c g     O .rodata	00000028 __mprec_bigtens
00048204 g     F .text	00000138 __s2b
000430b8 g     F .text	00000018 abort
00050998 g     F .text	00000090 .hidden __floatunsidf
00048974 g     F .text	00000058 __mcmp
00041ff8 g     F .text	000000b4 __cxa_end_catch
0004c894 g     F .text	00000014 __fp_lock_all
00052518 g     F .text	0000004c alt_ic_irq_enabled
000420ec g     F .text	00000004 _ZNSt13bad_exceptionD2Ev
000529c0 g     F .text	000000a4 alt_alarm_stop
00057270 g     O .bss	00000004 alt_irq_active
000418c0 g     F .text	00000014 _ZSt9terminatev
00040284 g     F .text	00000044 _ZN10CCommanderC1Ev
000400fc g     F .exceptions	000000c8 alt_irq_handler
000543cc g     O .rwdata	00000028 alt_dev_null
00042124 g     F .text	00000004 _ZN10__cxxabiv119__foreign_exceptionD2Ev
0005337c  w    O .rodata	00000022 _ZTSN10__cxxabiv117__class_type_infoE
00052188 g     F .text	0000004c alt_dcache_flush_all
0004833c g     F .text	00000064 __hi0bits
000555d8  w    O .rwdata	00000008 _ZTISt9exception
0005085c g     F .text	00000080 .hidden __fixdfsi
00055638 g       *ABS*	00000000 __ram_rwdata_end
00042450 g     F .text	00000004 _ZNSt9type_infoD1Ev
00055618 g     O .rwdata	00000008 alt_dev_list
00042124 g     F .text	00000004 _ZN10__cxxabiv119__foreign_exceptionD1Ev
00051430 g     F .text	000000f8 write
00042464 g     F .text	00000008 _ZNSt9type_infoD0Ev
00053a34 g       *ABS*	00000000 __ram_rodata_end
00040b1c g     F .text	00000004 _ZdlPvj
00050bd4 g     F .text	000000b0 fstat
00050dc0 g     F .text	0000012c kill
0004f774 g     F .text	000000f0 .hidden __ledf2
000486d4 g     F .text	00000118 __pow5mult
0004ad8c g     F .text	00001304 ___vfiprintf_internal_r
000428b8 g     F .text	0000005c .hidden __umodsi3
0004245c g     F .text	00000008 _ZNKSt9type_info11__do_upcastEPKN10__cxxabiv117__class_type_infoEPPv
000419c0 g     F .text	00000064 __cxa_init_primary_exception
0004191c g     F .text	0000000c _ZSt13get_terminatev
000573b8 g       *ABS*	00000000 end
00042fc4 g     F .text	00000018 .hidden _Unwind_DeleteException
00051744 g     F .text	000000c0 altera_avalon_jtag_uart_init
000401c4 g     F .exceptions	00000074 alt_instruction_exception_entry
00042588 g     F .text	000000c4 _ZNK10__cxxabiv117__class_type_info12__do_dyncastEiNS0_10__sub_kindEPKS0_PKvS3_S5_RNS0_16__dyncast_resultE
000531a1 g       *ABS*	00000000 __CTOR_LIST__
00072000 g       *ABS*	00000000 __alt_stack_pointer
00043064 g     F .text	00000054 .hidden __clzsi2
00043d30 g     F .text	000000c4 _snprintf_r
000424b0 g     F .text	00000078 _ZNK10__cxxabiv117__class_type_info11__do_upcastEPKS0_PPv
00051e2c g     F .text	00000228 altera_avalon_jtag_uart_write
0004c884 g     F .text	00000004 __sfp_lock_acquire
00053238  w    O .rodata	00000012 _ZTSSt13bad_exception
00047e30 g     F .text	000000d4 memchr
00047b14 g     F .text	000002fc _free_r
00053870 g     O .rodata	00000180 _ctype_b
0004a53c g     F .text	0000000c __locale_mb_cur_max
00053040 g     F .text	00000120 __call_exitprocs
00055600 g     O .rwdata	00000004 __malloc_sbrk_base
00040238 g     F .text	0000004c _start
00057274 g     O .bss	00000004 _alt_tick_rate
0005334c  w    O .rodata	0000000d _ZTSSt9type_info
00041bac g     F .text	0000000c _ZNKSt9bad_alloc4whatEv
00042170 g     F .text	0000000c __cxa_pure_virtual
000487ec g     F .text	00000188 __lshift
000531f0  w    O .rodata	00000014 _ZTVSt9bad_alloc
00057278 g     O .bss	00000004 _alt_nticks
00043c88 g     F .text	00000018 signal
000511e8 g     F .text	000000fc read
00051598 g     F .text	00000048 alt_sys_init
00042914 g     F .text	00000124 .hidden __floatsisf
000490a0 g     F .text	000001c0 __ssprint_r
00052fb0 g     F .text	00000090 __register_exitproc
000531d4  w    O .rodata	0000000d _ZTSSt9bad_alloc
000420fc g     F .text	0000000c _ZGTtNKSt13bad_exception4whatEv
0004226c g     F .text	00000160 _ZNK10__cxxabiv120__si_class_type_info12__do_dyncastEiNS_17__class_type_info10__sub_kindEPKS1_PKvS4_S6_RNS1_16__dyncast_resultE
000484a4 g     F .text	00000230 __multiply
00051ab0 g     F .text	00000068 altera_avalon_jtag_uart_close
00053a34 g       *ABS*	00000000 __ram_rwdata_start
00042e28 g     F .text	000000c8 .hidden _Unwind_SjLj_RaiseException
000531a8 g       *ABS*	00000000 __ram_rodata_start
00057290 g     O .bss	00000028 __malloc_current_mallinfo
00042f34 g     F .text	00000044 .hidden _Unwind_SjLj_Resume
00048d58 g     F .text	00000164 __d2b
000532d8  w    O .rodata	00000014 _ZTVN10__cxxabiv119__foreign_exceptionE
00042450 g     F .text	00000004 _ZNSt9type_infoD2Ev
00042128 g     F .text	00000008 _ZN10__cxxabiv119__foreign_exceptionD0Ev
000423cc g     F .text	00000084 _ZNK10__cxxabiv120__si_class_type_info11__do_upcastEPKNS_17__class_type_infoEPKvRNS1_15__upcast_resultE
000515e0 g     F .text	00000060 altera_avalon_jtag_uart_read_fd
00052d28 g     F .text	000000a0 alt_get_fd
000555e8  w    O .rwdata	00000008 _ZTIN10__cxxabiv119__foreign_exceptionE
0004d688 g     F .text	00000058 _close_r
000402c8 g     F .text	0000007c _ZN10CCommander11SendCommandEff
00052f38 g     F .text	00000078 memcmp
000516a0 g     F .text	00000050 altera_avalon_jtag_uart_close_fd
000573b8 g       *ABS*	00000000 __alt_stack_base
000516f0 g     F .text	00000054 altera_avalon_jtag_uart_ioctl_fd
00041bc8 g     F .text	00000038 _ZNSt9bad_allocD0Ev
00042188 g     F .text	00000010 _ZN10__cxxabiv120__si_class_type_infoD1Ev
0004c16c g     F .text	0000015c __swsetup_r
00042f78 g     F .text	0000004c .hidden _Unwind_SjLj_Resume_or_Rethrow
0004eda4 g     F .text	00000860 .hidden __divdf3
0004c764 g     F .text	000000fc __sfp
00048fd4 g     F .text	0000006c __copybits
00042454 g     F .text	00000008 _ZNKSt9type_info14__is_pointer_pEv
00053a34 g     O .rwdata	00000408 __malloc_av_
0004c890 g     F .text	00000004 __sinit_lock_release
0004062c g     F .text	00000048 _ZN14CDriveComputer19IncrementFollowDistEv
0004f864 g     F .text	00000670 .hidden __muldf3
0004d290 g     F .text	00000054 __sread
0005329c  w    O .rodata	00000014 _ZTVSt9exception
0004211c g     F .text	00000008 _ZN10__cxxabiv115__forced_unwindD0Ev
00052c20 g     F .text	00000108 alt_find_file
00052210 g     F .text	000000a8 alt_dev_llist_insert
00051164 g     F .text	00000024 __malloc_lock
0005133c g     F .text	000000b8 sbrk
00044010 g     F .text	0000209c ___svfprintf_internal_r
000533ac  w    O .rodata	0000002c _ZTVN10__cxxabiv117__class_type_infoE
00041a24 g     F .text	00000094 __cxa_throw
0004c4f0 g     F .text	00000060 _fflush_r
00042dec g     F .text	00000010 .hidden _Unwind_SetIP
0004a3bc g     F .text	000000b4 _calloc_r
0005723c g       *ABS*	00000000 __bss_start
000438d0 g     F .text	000000f0 memset
000409ac g     F .text	00000170 main
0005726c g     O .bss	00000004 alt_envp
00057250 g     O .bss	00000004 __malloc_max_total_mem
00051640 g     F .text	00000060 altera_avalon_jtag_uart_write_fd
0004d518 g     F .text	00000018 __swbuf
00042130 g     F .text	00000004 _ZGTtNKSt9exceptionD1Ev
00040000 g       *ABS*	00000000 __alt_mem_Memory
00042138 g     F .text	0000000c __cxa_get_globals_fast
0004d3c8 g     F .text	00000008 __sclose
00072000 g       *ABS*	00000000 __alt_heap_limit
0004d7d8 g     F .text	00000010 fclose
000462a8 g     F .text	00001750 _dtoa_r
000430f0 g     F .text	000007e0 _malloc_r
0004ac50 g     F .text	00000030 __ascii_wctomb
000420fc g     F .text	0000000c _ZNKSt13bad_exception4whatEv
00055624 g     O .rwdata	00000004 alt_errno
0004a470 g     F .text	00000020 _fiprintf_r
00043ca0 g     F .text	0000001c _init_signal
000533a0  w    O .rodata	0000000c _ZTIN10__cxxabiv117__class_type_infoE
0004cf78 g     F .text	00000098 _fwalk
00040344 g     F .text	000000d4 _ZN10CCommander18prepareJsonCommandEv
00040958 g     F .text	00000024 _Z8read_piov
0004a560 g     F .text	0000000c _mbtowc_r
000420ec g     F .text	00000004 _ZNSt13bad_exceptionD1Ev
00042760 g     F .text	00000080 .hidden __divsi3
000479f8 g     F .text	0000011c _malloc_trim_r
000531a8 g       *ABS*	00000000 __CTOR_END__
00040418 g     F .text	00000060 _ZN10CCommander13sendNextAsciiEv
00043ec0 g     F .text	000000b8 strcmp
000531a8 g       *ABS*	00000000 __flash_rodata_start
000532c4  w    O .rodata	00000014 _ZTVN10__cxxabiv115__forced_unwindE
000531a8 g       *ABS*	00000000 __DTOR_LIST__
0004f604 g     F .text	00000080 .hidden __nedf2
0005155c g     F .text	0000003c alt_irq_init
000512e4 g     F .text	00000058 alt_release_fd
00042198 g     F .text	00000038 _ZN10__cxxabiv120__si_class_type_infoD0Ev
000533d8 g     O .rodata	00000100 .hidden __clz_tab
00057260 g     O .bss	00000004 _PathLocale
00052ef0 g     F .text	00000014 atexit
0004d624 g     F .text	00000064 _write_r
0004a548 g     F .text	00000018 setlocale
00042e20 g     F .text	00000008 .hidden _Unwind_GetTextRelBase
00041ee0 g     F .text	00000058 __cxa_call_terminate
0004078c g     F .text	00000090 _ZN14CDriveComputer13UpdateSensorsEbbiiiii
0005560c g     O .rwdata	00000004 _impure_ptr
000555e0  w    O .rwdata	00000008 _ZTIN10__cxxabiv115__forced_unwindE
00057264 g     O .bss	00000004 alt_argc
0004c2c8 g     F .text	00000228 __sflush_r
0005231c g     F .text	00000064 _do_dtors
0004194c g     F .text	0000000c _ZSt14get_unexpectedv
00040020 g       .exceptions	00000000 alt_irq_entry
0004a56c g     F .text	00000044 __ascii_mbtowc
00048bf8 g     F .text	0000005c __ulp
00042e10 g     F .text	00000008 .hidden _Unwind_FindEnclosingFunction
0004c8a8 g     F .text	00000014 __fp_unlock_all
00055610 g     O .rwdata	00000008 alt_fs_list
00053278  w    O .rodata	00000024 _ZTSN10__cxxabiv119__foreign_exceptionE
00042dfc g     F .text	0000000c .hidden _Unwind_GetLanguageSpecificData
00041f40 g     F .text	000000b8 __cxa_begin_catch
00042540 g     F .text	00000010 _ZN10__cxxabiv117__class_type_infoD2Ev
000418d4 g     F .text	00000010 _ZN10__cxxabiv112__unexpectedEPFvvE
00040020 g       *ABS*	00000000 __ram_exceptions_start
00047e24 g     F .text	0000000c localeconv
0004d0b8 g     F .text	00000098 __swhatbuf_r
00042110 g     F .text	00000008 _ZNSt13bad_exceptionD0Ev
000555f0 g     O .rwdata	00000004 _ZN10__cxxabiv119__terminate_handlerE
000523b4 g     F .text	00000050 alt_ic_isr_register
00041d8c g     F .text	00000058 __cxa_allocate_exception
00053314  w    O .rodata	0000000c _ZTIN10__cxxabiv120__si_class_type_infoE
00042150 g     F .text	00000014 _ZSt15set_new_handlerPFvvE
00055638 g       *ABS*	00000000 _edata
000573b8 g       *ABS*	00000000 _end
000555f4 g     O .rwdata	00000001 _ZSt7nothrow
00041068 g     F .text	0000060c __gxx_personality_sj0
0004c8bc g     F .text	00000164 __fputwc
00040238 g       *ABS*	00000000 __ram_exceptions_end
00051b18 g     F .text	000000f4 altera_avalon_jtag_uart_ioctl
000420e8 g     F .text	00000004 _ZNSt9exceptionD1Ev
0005248c g     F .text	0000008c alt_ic_irq_disable
0004d2ec g     F .text	00000080 __swrite
00041b3c g     F .text	00000070 _Znwj
00055604 g     O .rwdata	00000004 __malloc_trim_threshold
00052f04 g     F .text	00000034 exit
0004a490 g     F .text	00000038 fiprintf
00042da4 g     F .text	00000018 .hidden _Unwind_SetGR
0004ac40 g     F .text	00000004 _vfiprintf_r
0004d010 g     F .text	000000a8 _fwalk_reent
000421d0 g     F .text	0000009c _ZNK10__cxxabiv120__si_class_type_info20__do_find_public_srcEiPKvPKNS_17__class_type_infoES2_
000489cc g     F .text	0000022c __mdiff
000417f4 g     F .text	000000cc _ZN10__cxxabiv111__terminateEPFvvE
000427e0 g     F .text	00000074 .hidden __modsi3
00041bb8 g     F .text	00000010 _ZNSt9bad_allocD1Ev
00072000 g       *ABS*	00000000 __alt_data_end
00040020 g     F .exceptions	00000000 alt_exception
0004c888 g     F .text	00000004 __sfp_lock_release
0005324c  w    O .rodata	0000000c _ZTISt13bad_exception
0005376c g     O .rodata	00000101 _ctype_
00050808 g     F .text	00000054 .hidden __unorddf2
00050b60 g     F .text	00000038 _exit
00052054 g     F .text	00000134 alt_alarm_start
00042d74 g     F .text	00000018 .hidden _Unwind_GetGR
00042144 g     F .text	0000000c __cxa_get_globals
0004d150 g     F .text	00000140 __smakebuf_r
000555d4 g     O .rwdata	00000004 _ZN10__cxxabiv120__unexpected_handlerE
00043f78 g     F .text	00000098 strlen
00043a64 g     F .text	00000014 _init_signal_r
000555f8  w    O .rwdata	00000008 _ZTISt9type_info
0005286c g     F .text	00000154 open
00042134 g     F .text	00000004 _ZGTtNKSt13bad_exceptionD1Ev
0004f684 g     F .text	000000f0 .hidden __gedf2
00053228  w    O .rodata	0000000d _ZTSSt9exception
0004a3a8 g     F .text	00000014 __assert
00042108 g     F .text	00000008 _ZNSt9exceptionD0Ev
0004ad74 g     F .text	00000018 __sprint_r
00052380 g     F .text	00000034 alt_icache_flush_all
00042e18 g     F .text	00000008 .hidden _Unwind_GetDataRelBase
0005562c g     O .rwdata	00000004 alt_priority_mask
00052404 g     F .text	00000088 alt_ic_irq_enable
0004ac44 g     F .text	0000000c _wctomb_r
000405e8 g     F .text	00000044 _ZN14CDriveComputerD1Ev
0004081c g     F .text	0000013c _ZN14CDriveComputer17UpdateWheelSpeedsEv
0004fed4 g     F .text	00000934 .hidden __subdf3
00040478 g     F .text	00000170 _ZN14CDriveComputerC1Ev
000483a0 g     F .text	000000b0 __lo0bits
00055630 g     O .rwdata	00000008 alt_alarm_list
00040720 g     F .text	0000006c _ZN14CDriveComputer19CalculateRightSpeedEv
000522b8 g     F .text	00000064 _do_ctors
00043cbc g     F .text	00000010 __sigtramp
0004d59c g     F .text	00000088 wcrtomb
000406bc g     F .text	00000064 _ZN14CDriveComputer18CalculateLeftSpeedEv
00050a64 g     F .text	000000d0 close
00054260 g     O .rwdata	0000016c __global_locale
00053258  w    O .rodata	00000020 _ZTSN10__cxxabiv115__forced_unwindE
00050f54 g     F .text	00000084 alt_load
0004246c g     F .text	00000044 _ZNKSt9type_info10__do_catchEPKS_PPvj
0004ca44 g     F .text	00000078 fputwc
00043c78 g     F .text	00000010 raise
000430e0 g     F .text	00000010 free
0004c88c g     F .text	00000004 __sinit_lock_acquire
000480cc g     F .text	00000138 __multadd
00042550 g     F .text	00000038 _ZN10__cxxabiv117__class_type_infoD0Ev
000480a8 g     F .text	00000024 _Bfree



Disassembly of section .entry:

00040000 <__reset>:
   40000:	00840014 	movui	r2,4096
   40004:	1001483a 	initi	r2
   40008:	10bff804 	addi	r2,r2,-32
   4000c:	00bffd16 	blt	zero,r2,40004 <__reset+0x4>
   40010:	00400134 	movhi	at,4
   40014:	08408e14 	ori	at,at,568
   40018:	0800683a 	jmp	at
   4001c:	00000000 	call	0 <__alt_mem_Memory-0x40000>

Disassembly of section .exceptions:

00040020 <alt_exception>:
   40020:	deffed04 	addi	sp,sp,-76
   40024:	dfc00015 	stw	ra,0(sp)
   40028:	d8400215 	stw	at,8(sp)
   4002c:	d8800315 	stw	r2,12(sp)
   40030:	d8c00415 	stw	r3,16(sp)
   40034:	d9000515 	stw	r4,20(sp)
   40038:	d9400615 	stw	r5,24(sp)
   4003c:	d9800715 	stw	r6,28(sp)
   40040:	d9c00815 	stw	r7,32(sp)
   40044:	000b307a 	rdctl	r5,estatus
   40048:	da000915 	stw	r8,36(sp)
   4004c:	da400a15 	stw	r9,40(sp)
   40050:	da800b15 	stw	r10,44(sp)
   40054:	dac00c15 	stw	r11,48(sp)
   40058:	db000d15 	stw	r12,52(sp)
   4005c:	db400e15 	stw	r13,56(sp)
   40060:	db800f15 	stw	r14,60(sp)
   40064:	dbc01015 	stw	r15,64(sp)
   40068:	d9401115 	stw	r5,68(sp)
   4006c:	ebffff04 	addi	r15,ea,-4
   40070:	dbc01215 	stw	r15,72(sp)
   40074:	0009313a 	rdctl	r4,ipending
   40078:	2880004c 	andi	r2,r5,1
   4007c:	10000326 	beq	r2,zero,4008c <alt_exception+0x6c>
   40080:	20000226 	beq	r4,zero,4008c <alt_exception+0x6c>
   40084:	00400fc0 	call	400fc <alt_irq_handler>
   40088:	00000706 	br	400a8 <alt_exception+0x88>
   4008c:	df401215 	stw	ea,72(sp)
   40090:	e8bfff17 	ldw	r2,-4(ea)
   40094:	e93fff04 	addi	r4,ea,-4
   40098:	00401c40 	call	401c4 <alt_instruction_exception_entry>
   4009c:	1000021e 	bne	r2,zero,400a8 <alt_exception+0x88>
   400a0:	ebffff04 	addi	r15,ea,-4
   400a4:	dbc01215 	stw	r15,72(sp)
   400a8:	d9401117 	ldw	r5,68(sp)
   400ac:	df401217 	ldw	ea,72(sp)
   400b0:	dfc00017 	ldw	ra,0(sp)
   400b4:	2801707a 	wrctl	estatus,r5
   400b8:	d8400217 	ldw	at,8(sp)
   400bc:	d8800317 	ldw	r2,12(sp)
   400c0:	d8c00417 	ldw	r3,16(sp)
   400c4:	d9000517 	ldw	r4,20(sp)
   400c8:	d9400617 	ldw	r5,24(sp)
   400cc:	d9800717 	ldw	r6,28(sp)
   400d0:	d9c00817 	ldw	r7,32(sp)
   400d4:	da000917 	ldw	r8,36(sp)
   400d8:	da400a17 	ldw	r9,40(sp)
   400dc:	da800b17 	ldw	r10,44(sp)
   400e0:	dac00c17 	ldw	r11,48(sp)
   400e4:	db000d17 	ldw	r12,52(sp)
   400e8:	db400e17 	ldw	r13,56(sp)
   400ec:	db800f17 	ldw	r14,60(sp)
   400f0:	dbc01017 	ldw	r15,64(sp)
   400f4:	dec01304 	addi	sp,sp,76
   400f8:	ef80083a 	eret

000400fc <alt_irq_handler>:
   400fc:	defff904 	addi	sp,sp,-28
   40100:	dfc00615 	stw	ra,24(sp)
   40104:	df000515 	stw	fp,20(sp)
   40108:	df000504 	addi	fp,sp,20
   4010c:	0001883a 	nop
   40110:	0005313a 	rdctl	r2,ipending
   40114:	e0bffc15 	stw	r2,-16(fp)
   40118:	e0bffc17 	ldw	r2,-16(fp)
   4011c:	e0bfff15 	stw	r2,-4(fp)
   40120:	e03ffd15 	stw	zero,-12(fp)
   40124:	00800044 	movi	r2,1
   40128:	e0bffe15 	stw	r2,-8(fp)
   4012c:	e0ffff17 	ldw	r3,-4(fp)
   40130:	e0bffe17 	ldw	r2,-8(fp)
   40134:	1884703a 	and	r2,r3,r2
   40138:	10001126 	beq	r2,zero,40180 <alt_irq_handler+0x84>
   4013c:	e0bffd17 	ldw	r2,-12(fp)
   40140:	100690fa 	slli	r3,r2,3
   40144:	00800174 	movhi	r2,5
   40148:	1885883a 	add	r2,r3,r2
   4014c:	10dcae17 	ldw	r3,29368(r2)
   40150:	e0bffd17 	ldw	r2,-12(fp)
   40154:	100890fa 	slli	r4,r2,3
   40158:	00800174 	movhi	r2,5
   4015c:	2085883a 	add	r2,r4,r2
   40160:	109caf17 	ldw	r2,29372(r2)
   40164:	1009883a 	mov	r4,r2
   40168:	183ee83a 	callr	r3
   4016c:	0001883a 	nop
   40170:	0005313a 	rdctl	r2,ipending
   40174:	e0bffb15 	stw	r2,-20(fp)
   40178:	e0bffb17 	ldw	r2,-20(fp)
   4017c:	00000706 	br	4019c <alt_irq_handler+0xa0>
   40180:	e0bffe17 	ldw	r2,-8(fp)
   40184:	1085883a 	add	r2,r2,r2
   40188:	e0bffe15 	stw	r2,-8(fp)
   4018c:	e0bffd17 	ldw	r2,-12(fp)
   40190:	10800044 	addi	r2,r2,1
   40194:	e0bffd15 	stw	r2,-12(fp)
   40198:	003fe406 	br	4012c <alt_irq_handler+0x30>
   4019c:	e0bfff15 	stw	r2,-4(fp)
   401a0:	e0bfff17 	ldw	r2,-4(fp)
   401a4:	103fde1e 	bne	r2,zero,40120 <alt_irq_handler+0x24>
   401a8:	0001883a 	nop
   401ac:	0001883a 	nop
   401b0:	e037883a 	mov	sp,fp
   401b4:	dfc00117 	ldw	ra,4(sp)
   401b8:	df000017 	ldw	fp,0(sp)
   401bc:	dec00204 	addi	sp,sp,8
   401c0:	f800283a 	ret

000401c4 <alt_instruction_exception_entry>:
   401c4:	defffb04 	addi	sp,sp,-20
   401c8:	dfc00415 	stw	ra,16(sp)
   401cc:	df000315 	stw	fp,12(sp)
   401d0:	df000304 	addi	fp,sp,12
   401d4:	e13ffd15 	stw	r4,-12(fp)
   401d8:	000531fa 	rdctl	r2,exception
   401dc:	e0bfff15 	stw	r2,-4(fp)
   401e0:	e0bfff17 	ldw	r2,-4(fp)
   401e4:	1004d0ba 	srli	r2,r2,2
   401e8:	108007cc 	andi	r2,r2,31
   401ec:	e0bfff15 	stw	r2,-4(fp)
   401f0:	0005333a 	rdctl	r2,badaddr
   401f4:	e0bffe15 	stw	r2,-8(fp)
   401f8:	d0a72a17 	ldw	r2,-25432(gp)
   401fc:	10000726 	beq	r2,zero,4021c <alt_instruction_exception_entry+0x58>
   40200:	d0a72a17 	ldw	r2,-25432(gp)
   40204:	e0ffff17 	ldw	r3,-4(fp)
   40208:	e1bffe17 	ldw	r6,-8(fp)
   4020c:	e17ffd17 	ldw	r5,-12(fp)
   40210:	1809883a 	mov	r4,r3
   40214:	103ee83a 	callr	r2
   40218:	00000206 	br	40224 <alt_instruction_exception_entry+0x60>
   4021c:	003da03a 	break	0
   40220:	0005883a 	mov	r2,zero
   40224:	e037883a 	mov	sp,fp
   40228:	dfc00117 	ldw	ra,4(sp)
   4022c:	df000017 	ldw	fp,0(sp)
   40230:	dec00204 	addi	sp,sp,8
   40234:	f800283a 	ret

Disassembly of section .text:

00040238 <_start>:
   40238:	00820014 	movui	r2,2048
   4023c:	10000033 	initd	0(r2)
   40240:	10bff804 	addi	r2,r2,-32
   40244:	00bffd16 	blt	zero,r2,4023c <_start+0x4>
   40248:	06c001f4 	movhi	sp,7
   4024c:	dec80014 	ori	sp,sp,8192
   40250:	06800174 	movhi	gp,5
   40254:	d6b57514 	ori	gp,gp,54740
   40258:	00800174 	movhi	r2,5
   4025c:	109c8f14 	ori	r2,r2,29244
   40260:	00c00174 	movhi	r3,5
   40264:	18dcee14 	ori	r3,r3,29624
   40268:	10c00326 	beq	r2,r3,40278 <_start+0x40>
   4026c:	10000015 	stw	zero,0(r2)
   40270:	10800104 	addi	r2,r2,4
   40274:	10fffd36 	bltu	r2,r3,4026c <_start+0x34>
   40278:	0050f540 	call	50f54 <alt_load>
   4027c:	00510e80 	call	510e8 <alt_main>

00040280 <alt_after_alt_main>:
   40280:	003fff06 	br	40280 <alt_after_alt_main>

00040284 <_ZN10CCommanderC1Ev>:
   40284:	defffd04 	addi	sp,sp,-12
   40288:	dfc00215 	stw	ra,8(sp)
   4028c:	df000115 	stw	fp,4(sp)
   40290:	df000104 	addi	fp,sp,4
   40294:	e13fff15 	stw	r4,-4(fp)
   40298:	e0bfff17 	ldw	r2,-4(fp)
   4029c:	10800204 	addi	r2,r2,8
   402a0:	01800c84 	movi	r6,50
   402a4:	000b883a 	mov	r5,zero
   402a8:	1009883a 	mov	r4,r2
   402ac:	00438d00 	call	438d0 <memset>
   402b0:	0001883a 	nop
   402b4:	e037883a 	mov	sp,fp
   402b8:	dfc00117 	ldw	ra,4(sp)
   402bc:	df000017 	ldw	fp,0(sp)
   402c0:	dec00204 	addi	sp,sp,8
   402c4:	f800283a 	ret

000402c8 <_ZN10CCommander11SendCommandEff>:
   402c8:	defffb04 	addi	sp,sp,-20
   402cc:	dfc00415 	stw	ra,16(sp)
   402d0:	df000315 	stw	fp,12(sp)
   402d4:	df000304 	addi	fp,sp,12
   402d8:	e13fff15 	stw	r4,-4(fp)
   402dc:	e17ffe15 	stw	r5,-8(fp)
   402e0:	e1bffd15 	stw	r6,-12(fp)
   402e4:	e0bfff17 	ldw	r2,-4(fp)
   402e8:	e0fffe17 	ldw	r3,-8(fp)
   402ec:	10c00015 	stw	r3,0(r2)
   402f0:	e0bfff17 	ldw	r2,-4(fp)
   402f4:	e0fffd17 	ldw	r3,-12(fp)
   402f8:	10c00115 	stw	r3,4(r2)
   402fc:	e13fff17 	ldw	r4,-4(fp)
   40300:	00403440 	call	40344 <_ZN10CCommander18prepareJsonCommandEv>
   40304:	e0bfff17 	ldw	r2,-4(fp)
   40308:	00c00044 	movi	r3,1
   4030c:	10c01005 	stb	r3,64(r2)
   40310:	e0bfff17 	ldw	r2,-4(fp)
   40314:	10801003 	ldbu	r2,64(r2)
   40318:	10803fcc 	andi	r2,r2,255
   4031c:	10000326 	beq	r2,zero,4032c <_ZN10CCommander11SendCommandEff+0x64>
   40320:	e13fff17 	ldw	r4,-4(fp)
   40324:	00404180 	call	40418 <_ZN10CCommander13sendNextAsciiEv>
   40328:	003ff906 	br	40310 <_ZN10CCommander11SendCommandEff+0x48>
   4032c:	0001883a 	nop
   40330:	e037883a 	mov	sp,fp
   40334:	dfc00117 	ldw	ra,4(sp)
   40338:	df000017 	ldw	fp,0(sp)
   4033c:	dec00204 	addi	sp,sp,8
   40340:	f800283a 	ret

00040344 <_ZN10CCommander18prepareJsonCommandEv>:
   40344:	defff704 	addi	sp,sp,-36
   40348:	dfc00815 	stw	ra,32(sp)
   4034c:	df000715 	stw	fp,28(sp)
   40350:	dc800615 	stw	r18,24(sp)
   40354:	dc400515 	stw	r17,20(sp)
   40358:	dc000415 	stw	r16,16(sp)
   4035c:	df000704 	addi	fp,sp,28
   40360:	e13ffc15 	stw	r4,-16(fp)
   40364:	e0bffc17 	ldw	r2,-16(fp)
   40368:	10800204 	addi	r2,r2,8
   4036c:	01800c84 	movi	r6,50
   40370:	000b883a 	mov	r5,zero
   40374:	1009883a 	mov	r4,r2
   40378:	00438d00 	call	438d0 <memset>
   4037c:	e0bffc17 	ldw	r2,-16(fp)
   40380:	14800204 	addi	r18,r2,8
   40384:	e0bffc17 	ldw	r2,-16(fp)
   40388:	10c00017 	ldw	r3,0(r2)
   4038c:	1809883a 	mov	r4,r3
   40390:	0042a380 	call	42a38 <__extendsfdf2>
   40394:	1021883a 	mov	r16,r2
   40398:	1823883a 	mov	r17,r3
   4039c:	e0bffc17 	ldw	r2,-16(fp)
   403a0:	10c00117 	ldw	r3,4(r2)
   403a4:	1809883a 	mov	r4,r3
   403a8:	0042a380 	call	42a38 <__extendsfdf2>
   403ac:	1009883a 	mov	r4,r2
   403b0:	180b883a 	mov	r5,r3
   403b4:	d9000115 	stw	r4,4(sp)
   403b8:	d9400215 	stw	r5,8(sp)
   403bc:	dc400015 	stw	r17,0(sp)
   403c0:	800f883a 	mov	r7,r16
   403c4:	01800174 	movhi	r6,5
   403c8:	318c6a04 	addi	r6,r6,12712
   403cc:	01400c84 	movi	r5,50
   403d0:	9009883a 	mov	r4,r18
   403d4:	0043df40 	call	43df4 <snprintf>
   403d8:	e0bffc17 	ldw	r2,-16(fp)
   403dc:	10800204 	addi	r2,r2,8
   403e0:	1009883a 	mov	r4,r2
   403e4:	0043f780 	call	43f78 <strlen>
   403e8:	1007883a 	mov	r3,r2
   403ec:	e0bffc17 	ldw	r2,-16(fp)
   403f0:	10c00f15 	stw	r3,60(r2)
   403f4:	0001883a 	nop
   403f8:	e6fffd04 	addi	sp,fp,-12
   403fc:	dfc00417 	ldw	ra,16(sp)
   40400:	df000317 	ldw	fp,12(sp)
   40404:	dc800217 	ldw	r18,8(sp)
   40408:	dc400117 	ldw	r17,4(sp)
   4040c:	dc000017 	ldw	r16,0(sp)
   40410:	dec00504 	addi	sp,sp,20
   40414:	f800283a 	ret

00040418 <_ZN10CCommander13sendNextAsciiEv>:
   40418:	defffd04 	addi	sp,sp,-12
   4041c:	df000215 	stw	fp,8(sp)
   40420:	df000204 	addi	fp,sp,8
   40424:	e13ffe15 	stw	r4,-8(fp)
   40428:	e0bffe17 	ldw	r2,-8(fp)
   4042c:	10800f17 	ldw	r2,60(r2)
   40430:	d0e71a17 	ldw	r3,-25496(gp)
   40434:	1880080e 	bge	r3,r2,40458 <_ZN10CCommander13sendNextAsciiEv+0x40>
   40438:	d0a71a17 	ldw	r2,-25496(gp)
   4043c:	10c00044 	addi	r3,r2,1
   40440:	d0e71a15 	stw	r3,-25496(gp)
   40444:	e0fffe17 	ldw	r3,-8(fp)
   40448:	1885883a 	add	r2,r3,r2
   4044c:	10800203 	ldbu	r2,8(r2)
   40450:	e0bfffc5 	stb	r2,-1(fp)
   40454:	00000306 	br	40464 <_ZN10CCommander13sendNextAsciiEv+0x4c>
   40458:	e0bffe17 	ldw	r2,-8(fp)
   4045c:	10001005 	stb	zero,64(r2)
   40460:	d0271a15 	stw	zero,-25496(gp)
   40464:	0001883a 	nop
   40468:	e037883a 	mov	sp,fp
   4046c:	df000017 	ldw	fp,0(sp)
   40470:	dec00104 	addi	sp,sp,4
   40474:	f800283a 	ret

00040478 <_ZN14CDriveComputerC1Ev>:
   40478:	deffe604 	addi	sp,sp,-104
   4047c:	dfc01915 	stw	ra,100(sp)
   40480:	df001815 	stw	fp,96(sp)
   40484:	ddc01715 	stw	r23,92(sp)
   40488:	dd801615 	stw	r22,88(sp)
   4048c:	dd401515 	stw	r21,84(sp)
   40490:	dd001415 	stw	r20,80(sp)
   40494:	dcc01315 	stw	r19,76(sp)
   40498:	dc801215 	stw	r18,72(sp)
   4049c:	dc401115 	stw	r17,68(sp)
   404a0:	dc001015 	stw	r16,64(sp)
   404a4:	df001804 	addi	fp,sp,96
   404a8:	e13ff715 	stw	r4,-36(fp)
   404ac:	00800134 	movhi	r2,4
   404b0:	10841a04 	addi	r2,r2,4200
   404b4:	e0bff015 	stw	r2,-64(fp)
   404b8:	00800174 	movhi	r2,5
   404bc:	108c5804 	addi	r2,r2,12640
   404c0:	e0bff115 	stw	r2,-60(fp)
   404c4:	e0bff204 	addi	r2,fp,-56
   404c8:	e0fff804 	addi	r3,fp,-32
   404cc:	10c00015 	stw	r3,0(r2)
   404d0:	00c00134 	movhi	r3,4
   404d4:	18c15f04 	addi	r3,r3,1404
   404d8:	10c00115 	stw	r3,4(r2)
   404dc:	16c00215 	stw	sp,8(r2)
   404e0:	e0bfea04 	addi	r2,fp,-88
   404e4:	1009883a 	mov	r4,r2
   404e8:	0042d4c0 	call	42d4c <_Unwind_SjLj_Register>
   404ec:	e0bff717 	ldw	r2,-36(fp)
   404f0:	00c00044 	movi	r3,1
   404f4:	10c00005 	stb	r3,0(r2)
   404f8:	e0bff717 	ldw	r2,-36(fp)
   404fc:	10000045 	stb	zero,1(r2)
   40500:	e0bff717 	ldw	r2,-36(fp)
   40504:	10000115 	stw	zero,4(r2)
   40508:	e0bff717 	ldw	r2,-36(fp)
   4050c:	10000215 	stw	zero,8(r2)
   40510:	e0bff717 	ldw	r2,-36(fp)
   40514:	10000315 	stw	zero,12(r2)
   40518:	e0bff717 	ldw	r2,-36(fp)
   4051c:	10000415 	stw	zero,16(r2)
   40520:	e0bff717 	ldw	r2,-36(fp)
   40524:	10000515 	stw	zero,20(r2)
   40528:	e0bff717 	ldw	r2,-36(fp)
   4052c:	00c00504 	movi	r3,20
   40530:	10c00615 	stw	r3,24(r2)
   40534:	e0bff717 	ldw	r2,-36(fp)
   40538:	10000715 	stw	zero,28(r2)
   4053c:	e0bff717 	ldw	r2,-36(fp)
   40540:	10000815 	stw	zero,32(r2)
   40544:	00bfffc4 	movi	r2,-1
   40548:	e0bfeb15 	stw	r2,-84(fp)
   4054c:	01000044 	movi	r4,1
   40550:	0041b3c0 	call	41b3c <_Znwj>
   40554:	1007883a 	mov	r3,r2
   40558:	00800044 	movi	r2,1
   4055c:	e0bfeb15 	stw	r2,-84(fp)
   40560:	e0ffe915 	stw	r3,-92(fp)
   40564:	1809883a 	mov	r4,r3
   40568:	00402840 	call	40284 <_ZN10CCommanderC1Ev>
   4056c:	e0bff717 	ldw	r2,-36(fp)
   40570:	e0ffe917 	ldw	r3,-92(fp)
   40574:	10c00915 	stw	r3,36(r2)
   40578:	00000b06 	br	405a8 <_ZN14CDriveComputerC1Ev+0x130>
   4057c:	e7000804 	addi	fp,fp,32
   40580:	e0bfec17 	ldw	r2,-80(fp)
   40584:	e0bfe815 	stw	r2,-96(fp)
   40588:	01400044 	movi	r5,1
   4058c:	e13fe917 	ldw	r4,-92(fp)
   40590:	0040b1c0 	call	40b1c <_ZdlPvj>
   40594:	e0ffe817 	ldw	r3,-96(fp)
   40598:	00bfffc4 	movi	r2,-1
   4059c:	e0bfeb15 	stw	r2,-84(fp)
   405a0:	1809883a 	mov	r4,r3
   405a4:	0042f340 	call	42f34 <_Unwind_SjLj_Resume>
   405a8:	e0bfea04 	addi	r2,fp,-88
   405ac:	1009883a 	mov	r4,r2
   405b0:	0042d640 	call	42d64 <_Unwind_SjLj_Unregister>
   405b4:	e6fff804 	addi	sp,fp,-32
   405b8:	dfc00917 	ldw	ra,36(sp)
   405bc:	df000817 	ldw	fp,32(sp)
   405c0:	ddc00717 	ldw	r23,28(sp)
   405c4:	dd800617 	ldw	r22,24(sp)
   405c8:	dd400517 	ldw	r21,20(sp)
   405cc:	dd000417 	ldw	r20,16(sp)
   405d0:	dcc00317 	ldw	r19,12(sp)
   405d4:	dc800217 	ldw	r18,8(sp)
   405d8:	dc400117 	ldw	r17,4(sp)
   405dc:	dc000017 	ldw	r16,0(sp)
   405e0:	dec00a04 	addi	sp,sp,40
   405e4:	f800283a 	ret

000405e8 <_ZN14CDriveComputerD1Ev>:
   405e8:	defffd04 	addi	sp,sp,-12
   405ec:	dfc00215 	stw	ra,8(sp)
   405f0:	df000115 	stw	fp,4(sp)
   405f4:	df000104 	addi	fp,sp,4
   405f8:	e13fff15 	stw	r4,-4(fp)
   405fc:	e0bfff17 	ldw	r2,-4(fp)
   40600:	10800917 	ldw	r2,36(r2)
   40604:	10000326 	beq	r2,zero,40614 <_ZN14CDriveComputerD1Ev+0x2c>
   40608:	01400044 	movi	r5,1
   4060c:	1009883a 	mov	r4,r2
   40610:	0040b1c0 	call	40b1c <_ZdlPvj>
   40614:	0001883a 	nop
   40618:	e037883a 	mov	sp,fp
   4061c:	dfc00117 	ldw	ra,4(sp)
   40620:	df000017 	ldw	fp,0(sp)
   40624:	dec00204 	addi	sp,sp,8
   40628:	f800283a 	ret

0004062c <_ZN14CDriveComputer19IncrementFollowDistEv>:
   4062c:	defffe04 	addi	sp,sp,-8
   40630:	df000115 	stw	fp,4(sp)
   40634:	df000104 	addi	fp,sp,4
   40638:	e13fff15 	stw	r4,-4(fp)
   4063c:	e0bfff17 	ldw	r2,-4(fp)
   40640:	10800617 	ldw	r2,24(r2)
   40644:	10801908 	cmpgei	r2,r2,100
   40648:	1000051e 	bne	r2,zero,40660 <_ZN14CDriveComputer19IncrementFollowDistEv+0x34>
   4064c:	e0bfff17 	ldw	r2,-4(fp)
   40650:	10800617 	ldw	r2,24(r2)
   40654:	10c00284 	addi	r3,r2,10
   40658:	e0bfff17 	ldw	r2,-4(fp)
   4065c:	10c00615 	stw	r3,24(r2)
   40660:	0001883a 	nop
   40664:	e037883a 	mov	sp,fp
   40668:	df000017 	ldw	fp,0(sp)
   4066c:	dec00104 	addi	sp,sp,4
   40670:	f800283a 	ret

00040674 <_ZN14CDriveComputer19DecrementFollowDistEv>:
   40674:	defffe04 	addi	sp,sp,-8
   40678:	df000115 	stw	fp,4(sp)
   4067c:	df000104 	addi	fp,sp,4
   40680:	e13fff15 	stw	r4,-4(fp)
   40684:	e0bfff17 	ldw	r2,-4(fp)
   40688:	10800617 	ldw	r2,24(r2)
   4068c:	10800550 	cmplti	r2,r2,21
   40690:	1000051e 	bne	r2,zero,406a8 <_ZN14CDriveComputer19DecrementFollowDistEv+0x34>
   40694:	e0bfff17 	ldw	r2,-4(fp)
   40698:	10800617 	ldw	r2,24(r2)
   4069c:	10fffd84 	addi	r3,r2,-10
   406a0:	e0bfff17 	ldw	r2,-4(fp)
   406a4:	10c00615 	stw	r3,24(r2)
   406a8:	0001883a 	nop
   406ac:	e037883a 	mov	sp,fp
   406b0:	df000017 	ldw	fp,0(sp)
   406b4:	dec00104 	addi	sp,sp,4
   406b8:	f800283a 	ret

000406bc <_ZN14CDriveComputer18CalculateLeftSpeedEv>:
   406bc:	defffd04 	addi	sp,sp,-12
   406c0:	dfc00215 	stw	ra,8(sp)
   406c4:	df000115 	stw	fp,4(sp)
   406c8:	df000104 	addi	fp,sp,4
   406cc:	e13fff15 	stw	r4,-4(fp)
   406d0:	e0bfff17 	ldw	r2,-4(fp)
   406d4:	10800003 	ldbu	r2,0(r2)
   406d8:	10803fcc 	andi	r2,r2,255
   406dc:	10000226 	beq	r2,zero,406e8 <_ZN14CDriveComputer18CalculateLeftSpeedEv+0x2c>
   406e0:	0007883a 	mov	r3,zero
   406e4:	00000806 	br	40708 <_ZN14CDriveComputer18CalculateLeftSpeedEv+0x4c>
   406e8:	e0bfff17 	ldw	r2,-4(fp)
   406ec:	10800117 	ldw	r2,4(r2)
   406f0:	01400644 	movi	r5,25
   406f4:	1009883a 	mov	r4,r2
   406f8:	00427600 	call	42760 <__divsi3>
   406fc:	1009883a 	mov	r4,r2
   40700:	00429140 	call	42914 <__floatsisf>
   40704:	1007883a 	mov	r3,r2
   40708:	1805883a 	mov	r2,r3
   4070c:	e037883a 	mov	sp,fp
   40710:	dfc00117 	ldw	ra,4(sp)
   40714:	df000017 	ldw	fp,0(sp)
   40718:	dec00204 	addi	sp,sp,8
   4071c:	f800283a 	ret

00040720 <_ZN14CDriveComputer19CalculateRightSpeedEv>:
   40720:	defffd04 	addi	sp,sp,-12
   40724:	dfc00215 	stw	ra,8(sp)
   40728:	df000115 	stw	fp,4(sp)
   4072c:	df000104 	addi	fp,sp,4
   40730:	e13fff15 	stw	r4,-4(fp)
   40734:	e0bfff17 	ldw	r2,-4(fp)
   40738:	10800003 	ldbu	r2,0(r2)
   4073c:	10803fcc 	andi	r2,r2,255
   40740:	10000226 	beq	r2,zero,4074c <_ZN14CDriveComputer19CalculateRightSpeedEv+0x2c>
   40744:	0007883a 	mov	r3,zero
   40748:	00000a06 	br	40774 <_ZN14CDriveComputer19CalculateRightSpeedEv+0x54>
   4074c:	e0bfff17 	ldw	r2,-4(fp)
   40750:	10800117 	ldw	r2,4(r2)
   40754:	00c00644 	movi	r3,25
   40758:	1885c83a 	sub	r2,r3,r2
   4075c:	01400644 	movi	r5,25
   40760:	1009883a 	mov	r4,r2
   40764:	00427600 	call	42760 <__divsi3>
   40768:	1009883a 	mov	r4,r2
   4076c:	00429140 	call	42914 <__floatsisf>
   40770:	1007883a 	mov	r3,r2
   40774:	1805883a 	mov	r2,r3
   40778:	e037883a 	mov	sp,fp
   4077c:	dfc00117 	ldw	ra,4(sp)
   40780:	df000017 	ldw	fp,0(sp)
   40784:	dec00204 	addi	sp,sp,8
   40788:	f800283a 	ret

0004078c <_ZN14CDriveComputer13UpdateSensorsEbbiiiii>:
   4078c:	defffb04 	addi	sp,sp,-20
   40790:	df000415 	stw	fp,16(sp)
   40794:	df000404 	addi	fp,sp,16
   40798:	e13fff15 	stw	r4,-4(fp)
   4079c:	2805883a 	mov	r2,r5
   407a0:	3007883a 	mov	r3,r6
   407a4:	e1fffc15 	stw	r7,-16(fp)
   407a8:	e0bffe05 	stb	r2,-8(fp)
   407ac:	1805883a 	mov	r2,r3
   407b0:	e0bffd05 	stb	r2,-12(fp)
   407b4:	e0bfff17 	ldw	r2,-4(fp)
   407b8:	e0fffe03 	ldbu	r3,-8(fp)
   407bc:	10c00005 	stb	r3,0(r2)
   407c0:	e0bfff17 	ldw	r2,-4(fp)
   407c4:	e0fffd03 	ldbu	r3,-12(fp)
   407c8:	10c00045 	stb	r3,1(r2)
   407cc:	e0bfff17 	ldw	r2,-4(fp)
   407d0:	e0fffc17 	ldw	r3,-16(fp)
   407d4:	10c00115 	stw	r3,4(r2)
   407d8:	e0bfff17 	ldw	r2,-4(fp)
   407dc:	e0c00117 	ldw	r3,4(fp)
   407e0:	10c00215 	stw	r3,8(r2)
   407e4:	e0bfff17 	ldw	r2,-4(fp)
   407e8:	e0c00217 	ldw	r3,8(fp)
   407ec:	10c00315 	stw	r3,12(r2)
   407f0:	e0bfff17 	ldw	r2,-4(fp)
   407f4:	e0c00317 	ldw	r3,12(fp)
   407f8:	10c00415 	stw	r3,16(r2)
   407fc:	e0bfff17 	ldw	r2,-4(fp)
   40800:	e0c00417 	ldw	r3,16(fp)
   40804:	10c00515 	stw	r3,20(r2)
   40808:	0001883a 	nop
   4080c:	e037883a 	mov	sp,fp
   40810:	df000017 	ldw	fp,0(sp)
   40814:	dec00104 	addi	sp,sp,4
   40818:	f800283a 	ret

0004081c <_ZN14CDriveComputer17UpdateWheelSpeedsEv>:
   4081c:	defffb04 	addi	sp,sp,-20
   40820:	dfc00415 	stw	ra,16(sp)
   40824:	df000315 	stw	fp,12(sp)
   40828:	df000304 	addi	fp,sp,12
   4082c:	e13ffd15 	stw	r4,-12(fp)
   40830:	e0bffd17 	ldw	r2,-12(fp)
   40834:	10c00217 	ldw	r3,8(r2)
   40838:	e0bffd17 	ldw	r2,-12(fp)
   4083c:	10800617 	ldw	r2,24(r2)
   40840:	1884803a 	cmplt	r2,r3,r2
   40844:	10803fcc 	andi	r2,r2,255
   40848:	e0bffe15 	stw	r2,-8(fp)
   4084c:	e0bffd17 	ldw	r2,-12(fp)
   40850:	10800043 	ldbu	r2,1(r2)
   40854:	10803fcc 	andi	r2,r2,255
   40858:	10001a26 	beq	r2,zero,408c4 <_ZN14CDriveComputer17UpdateWheelSpeedsEv+0xa8>
   4085c:	e0bffd17 	ldw	r2,-12(fp)
   40860:	10800517 	ldw	r2,20(r2)
   40864:	10c003a0 	cmpeqi	r3,r2,14
   40868:	1800131e 	bne	r3,zero,408b8 <_ZN14CDriveComputer17UpdateWheelSpeedsEv+0x9c>
   4086c:	10c003c8 	cmpgei	r3,r2,15
   40870:	1800141e 	bne	r3,zero,408c4 <_ZN14CDriveComputer17UpdateWheelSpeedsEv+0xa8>
   40874:	10c002a0 	cmpeqi	r3,r2,10
   40878:	18000c1e 	bne	r3,zero,408ac <_ZN14CDriveComputer17UpdateWheelSpeedsEv+0x90>
   4087c:	10c002c8 	cmpgei	r3,r2,11
   40880:	1800101e 	bne	r3,zero,408c4 <_ZN14CDriveComputer17UpdateWheelSpeedsEv+0xa8>
   40884:	10c000a0 	cmpeqi	r3,r2,2
   40888:	1800031e 	bne	r3,zero,40898 <_ZN14CDriveComputer17UpdateWheelSpeedsEv+0x7c>
   4088c:	108001a0 	cmpeqi	r2,r2,6
   40890:	1000041e 	bne	r2,zero,408a4 <_ZN14CDriveComputer17UpdateWheelSpeedsEv+0x88>
   40894:	00000b06 	br	408c4 <_ZN14CDriveComputer17UpdateWheelSpeedsEv+0xa8>
   40898:	00800044 	movi	r2,1
   4089c:	e0bfffc5 	stb	r2,-1(fp)
   408a0:	00000806 	br	408c4 <_ZN14CDriveComputer17UpdateWheelSpeedsEv+0xa8>
   408a4:	e03fffc5 	stb	zero,-1(fp)
   408a8:	00000606 	br	408c4 <_ZN14CDriveComputer17UpdateWheelSpeedsEv+0xa8>
   408ac:	e13ffd17 	ldw	r4,-12(fp)
   408b0:	004062c0 	call	4062c <_ZN14CDriveComputer19IncrementFollowDistEv>
   408b4:	00000306 	br	408c4 <_ZN14CDriveComputer17UpdateWheelSpeedsEv+0xa8>
   408b8:	e13ffd17 	ldw	r4,-12(fp)
   408bc:	00406740 	call	40674 <_ZN14CDriveComputer19DecrementFollowDistEv>
   408c0:	0001883a 	nop
   408c4:	e0bffd17 	ldw	r2,-12(fp)
   408c8:	10800003 	ldbu	r2,0(r2)
   408cc:	1080005c 	xori	r2,r2,1
   408d0:	10803fcc 	andi	r2,r2,255
   408d4:	10001a26 	beq	r2,zero,40940 <_ZN14CDriveComputer17UpdateWheelSpeedsEv+0x124>
   408d8:	e0bffe17 	ldw	r2,-8(fp)
   408dc:	1000181e 	bne	r2,zero,40940 <_ZN14CDriveComputer17UpdateWheelSpeedsEv+0x124>
   408e0:	e0bfffc3 	ldbu	r2,-1(fp)
   408e4:	1080005c 	xori	r2,r2,1
   408e8:	10803fcc 	andi	r2,r2,255
   408ec:	10001426 	beq	r2,zero,40940 <_ZN14CDriveComputer17UpdateWheelSpeedsEv+0x124>
   408f0:	e13ffd17 	ldw	r4,-12(fp)
   408f4:	00406bc0 	call	406bc <_ZN14CDriveComputer18CalculateLeftSpeedEv>
   408f8:	1007883a 	mov	r3,r2
   408fc:	e0bffd17 	ldw	r2,-12(fp)
   40900:	10c00715 	stw	r3,28(r2)
   40904:	e13ffd17 	ldw	r4,-12(fp)
   40908:	00407200 	call	40720 <_ZN14CDriveComputer19CalculateRightSpeedEv>
   4090c:	1007883a 	mov	r3,r2
   40910:	e0bffd17 	ldw	r2,-12(fp)
   40914:	10c00815 	stw	r3,32(r2)
   40918:	e0bffd17 	ldw	r2,-12(fp)
   4091c:	10c00917 	ldw	r3,36(r2)
   40920:	e0bffd17 	ldw	r2,-12(fp)
   40924:	11000717 	ldw	r4,28(r2)
   40928:	e0bffd17 	ldw	r2,-12(fp)
   4092c:	11400817 	ldw	r5,32(r2)
   40930:	280d883a 	mov	r6,r5
   40934:	200b883a 	mov	r5,r4
   40938:	1809883a 	mov	r4,r3
   4093c:	00402c80 	call	402c8 <_ZN10CCommander11SendCommandEff>
   40940:	0001883a 	nop
   40944:	e037883a 	mov	sp,fp
   40948:	dfc00117 	ldw	ra,4(sp)
   4094c:	df000017 	ldw	fp,0(sp)
   40950:	dec00204 	addi	sp,sp,8
   40954:	f800283a 	ret

00040958 <_Z8read_piov>:
   40958:	deffff04 	addi	sp,sp,-4
   4095c:	df000015 	stw	fp,0(sp)
   40960:	d839883a 	mov	fp,sp
   40964:	00800234 	movhi	r2,8
   40968:	10840037 	ldwio	r2,4096(r2)
   4096c:	e037883a 	mov	sp,fp
   40970:	df000017 	ldw	fp,0(sp)
   40974:	dec00104 	addi	sp,sp,4
   40978:	f800283a 	ret

0004097c <_Z9write_pioi>:
   4097c:	defffe04 	addi	sp,sp,-8
   40980:	df000115 	stw	fp,4(sp)
   40984:	df000104 	addi	fp,sp,4
   40988:	e13fff15 	stw	r4,-4(fp)
   4098c:	e0ffff17 	ldw	r3,-4(fp)
   40990:	00800234 	movhi	r2,8
   40994:	10c40035 	stwio	r3,4096(r2)
   40998:	0001883a 	nop
   4099c:	e037883a 	mov	sp,fp
   409a0:	df000017 	ldw	fp,0(sp)
   409a4:	dec00104 	addi	sp,sp,4
   409a8:	f800283a 	ret

000409ac <main>:
   409ac:	deffd304 	addi	sp,sp,-180
   409b0:	dfc02c15 	stw	ra,176(sp)
   409b4:	df002b15 	stw	fp,172(sp)
   409b8:	ddc02a15 	stw	r23,168(sp)
   409bc:	dd802915 	stw	r22,164(sp)
   409c0:	dd402815 	stw	r21,160(sp)
   409c4:	dd002715 	stw	r20,156(sp)
   409c8:	dcc02615 	stw	r19,152(sp)
   409cc:	dc802515 	stw	r18,148(sp)
   409d0:	dc402415 	stw	r17,144(sp)
   409d4:	dc002315 	stw	r16,140(sp)
   409d8:	df002b04 	addi	fp,sp,172
   409dc:	00800134 	movhi	r2,4
   409e0:	10841a04 	addi	r2,r2,4200
   409e4:	e0bfe015 	stw	r2,-128(fp)
   409e8:	00800174 	movhi	r2,5
   409ec:	108c5984 	addi	r2,r2,12646
   409f0:	e0bfe115 	stw	r2,-124(fp)
   409f4:	e0bfe204 	addi	r2,fp,-120
   409f8:	e0fff804 	addi	r3,fp,-32
   409fc:	10c00015 	stw	r3,0(r2)
   40a00:	00c00134 	movhi	r3,4
   40a04:	18c2bc04 	addi	r3,r3,2800
   40a08:	10c00115 	stw	r3,4(r2)
   40a0c:	16c00215 	stw	sp,8(r2)
   40a10:	e0bfda04 	addi	r2,fp,-152
   40a14:	1009883a 	mov	r4,r2
   40a18:	0042d4c0 	call	42d4c <_Unwind_SjLj_Register>
   40a1c:	e0ffe704 	addi	r3,fp,-100
   40a20:	00bfffc4 	movi	r2,-1
   40a24:	e0bfdb15 	stw	r2,-148(fp)
   40a28:	1809883a 	mov	r4,r3
   40a2c:	00404780 	call	40478 <_ZN14CDriveComputerC1Ev>
   40a30:	00409580 	call	40958 <_Z8read_piov>
   40a34:	e0bff715 	stw	r2,-36(fp)
   40a38:	e0bff717 	ldw	r2,-36(fp)
   40a3c:	1090000c 	andi	r2,r2,16384
   40a40:	1004c03a 	cmpne	r2,r2,zero
   40a44:	e0bff6c5 	stb	r2,-37(fp)
   40a48:	e0bff717 	ldw	r2,-36(fp)
   40a4c:	1088000c 	andi	r2,r2,8192
   40a50:	1004c03a 	cmpne	r2,r2,zero
   40a54:	e0bff685 	stb	r2,-38(fp)
   40a58:	e0bff717 	ldw	r2,-36(fp)
   40a5c:	1005d13a 	srai	r2,r2,4
   40a60:	108003cc 	andi	r2,r2,15
   40a64:	e0bff515 	stw	r2,-44(fp)
   40a68:	e0bff717 	ldw	r2,-36(fp)
   40a6c:	1005d4fa 	srai	r2,r2,19
   40a70:	10801fcc 	andi	r2,r2,127
   40a74:	e0bff415 	stw	r2,-48(fp)
   40a78:	e0bff717 	ldw	r2,-36(fp)
   40a7c:	1005d3fa 	srai	r2,r2,15
   40a80:	108003cc 	andi	r2,r2,15
   40a84:	e0bff315 	stw	r2,-52(fp)
   40a88:	e0bff717 	ldw	r2,-36(fp)
   40a8c:	108003cc 	andi	r2,r2,15
   40a90:	e0bff215 	stw	r2,-56(fp)
   40a94:	e0bff717 	ldw	r2,-36(fp)
   40a98:	1005d27a 	srai	r2,r2,9
   40a9c:	108003cc 	andi	r2,r2,15
   40aa0:	e0bff115 	stw	r2,-60(fp)
   40aa4:	e13ff6c3 	ldbu	r4,-37(fp)
   40aa8:	e17ff683 	ldbu	r5,-38(fp)
   40aac:	e0ffe704 	addi	r3,fp,-100
   40ab0:	e0bff117 	ldw	r2,-60(fp)
   40ab4:	d8800315 	stw	r2,12(sp)
   40ab8:	e0bff217 	ldw	r2,-56(fp)
   40abc:	d8800215 	stw	r2,8(sp)
   40ac0:	e0bff317 	ldw	r2,-52(fp)
   40ac4:	d8800115 	stw	r2,4(sp)
   40ac8:	e0bff417 	ldw	r2,-48(fp)
   40acc:	d8800015 	stw	r2,0(sp)
   40ad0:	00800044 	movi	r2,1
   40ad4:	e0bfdb15 	stw	r2,-148(fp)
   40ad8:	e1fff517 	ldw	r7,-44(fp)
   40adc:	280d883a 	mov	r6,r5
   40ae0:	200b883a 	mov	r5,r4
   40ae4:	1809883a 	mov	r4,r3
   40ae8:	004078c0 	call	4078c <_ZN14CDriveComputer13UpdateSensorsEbbiiiii>
   40aec:	003fd006 	br	40a30 <main+0x84>
   40af0:	e7000804 	addi	fp,fp,32
   40af4:	e0bfdc17 	ldw	r2,-144(fp)
   40af8:	e0bfd915 	stw	r2,-156(fp)
   40afc:	e0bfe704 	addi	r2,fp,-100
   40b00:	1009883a 	mov	r4,r2
   40b04:	00405e80 	call	405e8 <_ZN14CDriveComputerD1Ev>
   40b08:	e0ffd917 	ldw	r3,-156(fp)
   40b0c:	00bfffc4 	movi	r2,-1
   40b10:	e0bfdb15 	stw	r2,-148(fp)
   40b14:	1809883a 	mov	r4,r3
   40b18:	0042f340 	call	42f34 <_Unwind_SjLj_Resume>

00040b1c <_ZdlPvj>:
   40b1c:	0041c001 	jmpi	41c00 <_ZdlPv>

00040b20 <_ZL16get_adjusted_ptrPKSt9type_infoS1_PPv>:
   40b20:	28800017 	ldw	r2,0(r5)
   40b24:	30c00017 	ldw	r3,0(r6)
   40b28:	defffb04 	addi	sp,sp,-20
   40b2c:	10800217 	ldw	r2,8(r2)
   40b30:	dc800315 	stw	r18,12(sp)
   40b34:	dc400215 	stw	r17,8(sp)
   40b38:	dc000115 	stw	r16,4(sp)
   40b3c:	dfc00415 	stw	ra,16(sp)
   40b40:	2023883a 	mov	r17,r4
   40b44:	d8c00015 	stw	r3,0(sp)
   40b48:	2809883a 	mov	r4,r5
   40b4c:	2821883a 	mov	r16,r5
   40b50:	3025883a 	mov	r18,r6
   40b54:	103ee83a 	callr	r2
   40b58:	10803fcc 	andi	r2,r2,255
   40b5c:	10000326 	beq	r2,zero,40b6c <_ZL16get_adjusted_ptrPKSt9type_infoS1_PPv+0x4c>
   40b60:	d8800017 	ldw	r2,0(sp)
   40b64:	10800017 	ldw	r2,0(r2)
   40b68:	d8800015 	stw	r2,0(sp)
   40b6c:	88800017 	ldw	r2,0(r17)
   40b70:	01c00044 	movi	r7,1
   40b74:	d80d883a 	mov	r6,sp
   40b78:	10800417 	ldw	r2,16(r2)
   40b7c:	800b883a 	mov	r5,r16
   40b80:	8809883a 	mov	r4,r17
   40b84:	103ee83a 	callr	r2
   40b88:	10c03fcc 	andi	r3,r2,255
   40b8c:	18000226 	beq	r3,zero,40b98 <_ZL16get_adjusted_ptrPKSt9type_infoS1_PPv+0x78>
   40b90:	d8c00017 	ldw	r3,0(sp)
   40b94:	90c00015 	stw	r3,0(r18)
   40b98:	dfc00417 	ldw	ra,16(sp)
   40b9c:	dc800317 	ldw	r18,12(sp)
   40ba0:	dc400217 	ldw	r17,8(sp)
   40ba4:	dc000117 	ldw	r16,4(sp)
   40ba8:	dec00504 	addi	sp,sp,20
   40bac:	f800283a 	ret

00040bb0 <_ZL28read_encoded_value_with_basehjPKhPj>:
   40bb0:	20c03fcc 	andi	r3,r4,255
   40bb4:	18c01418 	cmpnei	r3,r3,80
   40bb8:	18002c26 	beq	r3,zero,40c6c <_ZL28read_encoded_value_with_basehjPKhPj+0xbc>
   40bbc:	208003cc 	andi	r2,r4,15
   40bc0:	10c00368 	cmpgeui	r3,r2,13
   40bc4:	1800711e 	bne	r3,zero,40d8c <_ZL28read_encoded_value_with_basehjPKhPj+0x1dc>
   40bc8:	100490ba 	slli	r2,r2,2
   40bcc:	00c00134 	movhi	r3,4
   40bd0:	10c7883a 	add	r3,r2,r3
   40bd4:	1882f717 	ldw	r2,3036(r3)
   40bd8:	1000683a 	jmp	r2
   40bdc:	00040c10 	cmplti	zero,zero,4144
   40be0:	00040d00 	call	40d0 <__alt_mem_Memory-0x3bf30>
   40be4:	00040cc4 	movi	zero,4147
   40be8:	00040c10 	cmplti	zero,zero,4144
   40bec:	00040c94 	movui	zero,4146
   40bf0:	00040d8c 	andi	zero,zero,4150
   40bf4:	00040d8c 	andi	zero,zero,4150
   40bf8:	00040d8c 	andi	zero,zero,4150
   40bfc:	00040d8c 	andi	zero,zero,4150
   40c00:	00040d38 	rdprs	zero,zero,4148
   40c04:	00040cdc 	xori	zero,zero,4147
   40c08:	00040c10 	cmplti	zero,zero,4144
   40c0c:	00040c94 	movui	zero,4146
   40c10:	32000043 	ldbu	r8,1(r6)
   40c14:	30800083 	ldbu	r2,2(r6)
   40c18:	30c000c3 	ldbu	r3,3(r6)
   40c1c:	32400003 	ldbu	r9,0(r6)
   40c20:	4010923a 	slli	r8,r8,8
   40c24:	1004943a 	slli	r2,r2,16
   40c28:	1806963a 	slli	r3,r3,24
   40c2c:	4250b03a 	or	r8,r8,r9
   40c30:	1204b03a 	or	r2,r2,r8
   40c34:	1886b03a 	or	r3,r3,r2
   40c38:	30800104 	addi	r2,r6,4
   40c3c:	18000926 	beq	r3,zero,40c64 <_ZL28read_encoded_value_with_basehjPKhPj+0xb4>
   40c40:	22001c0c 	andi	r8,r4,112
   40c44:	42000418 	cmpnei	r8,r8,16
   40c48:	4000011e 	bne	r8,zero,40c50 <_ZL28read_encoded_value_with_basehjPKhPj+0xa0>
   40c4c:	300b883a 	mov	r5,r6
   40c50:	21003fcc 	andi	r4,r4,255
   40c54:	2100201c 	xori	r4,r4,128
   40c58:	213fe004 	addi	r4,r4,-128
   40c5c:	1947883a 	add	r3,r3,r5
   40c60:	20000916 	blt	r4,zero,40c88 <_ZL28read_encoded_value_with_basehjPKhPj+0xd8>
   40c64:	38c00015 	stw	r3,0(r7)
   40c68:	f800283a 	ret
   40c6c:	308000c4 	addi	r2,r6,3
   40c70:	01bfff04 	movi	r6,-4
   40c74:	1184703a 	and	r2,r2,r6
   40c78:	10c00017 	ldw	r3,0(r2)
   40c7c:	10800104 	addi	r2,r2,4
   40c80:	38c00015 	stw	r3,0(r7)
   40c84:	f800283a 	ret
   40c88:	18c00017 	ldw	r3,0(r3)
   40c8c:	38c00015 	stw	r3,0(r7)
   40c90:	f800283a 	ret
   40c94:	32000043 	ldbu	r8,1(r6)
   40c98:	30800083 	ldbu	r2,2(r6)
   40c9c:	30c000c3 	ldbu	r3,3(r6)
   40ca0:	32400003 	ldbu	r9,0(r6)
   40ca4:	4010923a 	slli	r8,r8,8
   40ca8:	1004943a 	slli	r2,r2,16
   40cac:	1806963a 	slli	r3,r3,24
   40cb0:	4250b03a 	or	r8,r8,r9
   40cb4:	1204b03a 	or	r2,r2,r8
   40cb8:	1886b03a 	or	r3,r3,r2
   40cbc:	30800204 	addi	r2,r6,8
   40cc0:	003fde06 	br	40c3c <_ZL28read_encoded_value_with_basehjPKhPj+0x8c>
   40cc4:	30c00043 	ldbu	r3,1(r6)
   40cc8:	32000003 	ldbu	r8,0(r6)
   40ccc:	30800084 	addi	r2,r6,2
   40cd0:	1806923a 	slli	r3,r3,8
   40cd4:	1a06b03a 	or	r3,r3,r8
   40cd8:	003fd806 	br	40c3c <_ZL28read_encoded_value_with_basehjPKhPj+0x8c>
   40cdc:	30c00043 	ldbu	r3,1(r6)
   40ce0:	32000003 	ldbu	r8,0(r6)
   40ce4:	30800084 	addi	r2,r6,2
   40ce8:	1806923a 	slli	r3,r3,8
   40cec:	1a06b03a 	or	r3,r3,r8
   40cf0:	18ffffcc 	andi	r3,r3,65535
   40cf4:	18e0001c 	xori	r3,r3,32768
   40cf8:	18e00004 	addi	r3,r3,-32768
   40cfc:	003fcf06 	br	40c3c <_ZL28read_encoded_value_with_basehjPKhPj+0x8c>
   40d00:	3005883a 	mov	r2,r6
   40d04:	0007883a 	mov	r3,zero
   40d08:	0015883a 	mov	r10,zero
   40d0c:	12000003 	ldbu	r8,0(r2)
   40d10:	10800044 	addi	r2,r2,1
   40d14:	42401fcc 	andi	r9,r8,127
   40d18:	4a92983a 	sll	r9,r9,r10
   40d1c:	42003fcc 	andi	r8,r8,255
   40d20:	4200201c 	xori	r8,r8,128
   40d24:	423fe004 	addi	r8,r8,-128
   40d28:	1a46b03a 	or	r3,r3,r9
   40d2c:	528001c4 	addi	r10,r10,7
   40d30:	403ff616 	blt	r8,zero,40d0c <_ZL28read_encoded_value_with_basehjPKhPj+0x15c>
   40d34:	003fc106 	br	40c3c <_ZL28read_encoded_value_with_basehjPKhPj+0x8c>
   40d38:	3005883a 	mov	r2,r6
   40d3c:	0007883a 	mov	r3,zero
   40d40:	0013883a 	mov	r9,zero
   40d44:	12800003 	ldbu	r10,0(r2)
   40d48:	10800044 	addi	r2,r2,1
   40d4c:	52001fcc 	andi	r8,r10,127
   40d50:	4250983a 	sll	r8,r8,r9
   40d54:	52c03fcc 	andi	r11,r10,255
   40d58:	5ac0201c 	xori	r11,r11,128
   40d5c:	5affe004 	addi	r11,r11,-128
   40d60:	1a06b03a 	or	r3,r3,r8
   40d64:	4a4001c4 	addi	r9,r9,7
   40d68:	583ff616 	blt	r11,zero,40d44 <_ZL28read_encoded_value_with_basehjPKhPj+0x194>
   40d6c:	4a000828 	cmpgeui	r8,r9,32
   40d70:	403fb21e 	bne	r8,zero,40c3c <_ZL28read_encoded_value_with_basehjPKhPj+0x8c>
   40d74:	5280100c 	andi	r10,r10,64
   40d78:	503fb026 	beq	r10,zero,40c3c <_ZL28read_encoded_value_with_basehjPKhPj+0x8c>
   40d7c:	023fffc4 	movi	r8,-1
   40d80:	4252983a 	sll	r9,r8,r9
   40d84:	1a46b03a 	or	r3,r3,r9
   40d88:	003fad06 	br	40c40 <_ZL28read_encoded_value_with_basehjPKhPj+0x90>
   40d8c:	deffff04 	addi	sp,sp,-4
   40d90:	dfc00015 	stw	ra,0(sp)
   40d94:	00430b80 	call	430b8 <abort>

00040d98 <_ZL15get_ttype_entryP16lsda_header_infom>:
   40d98:	defffe04 	addi	sp,sp,-8
   40d9c:	dfc00115 	stw	ra,4(sp)
   40da0:	20800503 	ldbu	r2,20(r4)
   40da4:	2007883a 	mov	r3,r4
   40da8:	11003fcc 	andi	r4,r2,255
   40dac:	21803fe0 	cmpeqi	r6,r4,255
   40db0:	30001b1e 	bne	r6,zero,40e20 <_ZL15get_ttype_entryP16lsda_header_infom+0x88>
   40db4:	108001cc 	andi	r2,r2,7
   40db8:	118000a0 	cmpeqi	r6,r2,2
   40dbc:	3000151e 	bne	r6,zero,40e14 <_ZL15get_ttype_entryP16lsda_header_infom+0x7c>
   40dc0:	118000e8 	cmpgeui	r6,r2,3
   40dc4:	30000f26 	beq	r6,zero,40e04 <_ZL15get_ttype_entryP16lsda_header_infom+0x6c>
   40dc8:	118000e0 	cmpeqi	r6,r2,3
   40dcc:	30000e1e 	bne	r6,zero,40e08 <_ZL15get_ttype_entryP16lsda_header_infom+0x70>
   40dd0:	10800120 	cmpeqi	r2,r2,4
   40dd4:	10001426 	beq	r2,zero,40e28 <_ZL15get_ttype_entryP16lsda_header_infom+0x90>
   40dd8:	280a90fa 	slli	r5,r5,3
   40ddc:	0145c83a 	sub	r2,zero,r5
   40de0:	19800317 	ldw	r6,12(r3)
   40de4:	19400217 	ldw	r5,8(r3)
   40de8:	d80f883a 	mov	r7,sp
   40dec:	308d883a 	add	r6,r6,r2
   40df0:	0040bb00 	call	40bb0 <_ZL28read_encoded_value_with_basehjPKhPj>
   40df4:	d8800017 	ldw	r2,0(sp)
   40df8:	dfc00117 	ldw	ra,4(sp)
   40dfc:	dec00204 	addi	sp,sp,8
   40e00:	f800283a 	ret
   40e04:	1000081e 	bne	r2,zero,40e28 <_ZL15get_ttype_entryP16lsda_header_infom+0x90>
   40e08:	280a90ba 	slli	r5,r5,2
   40e0c:	0145c83a 	sub	r2,zero,r5
   40e10:	003ff306 	br	40de0 <_ZL15get_ttype_entryP16lsda_header_infom+0x48>
   40e14:	294b883a 	add	r5,r5,r5
   40e18:	0145c83a 	sub	r2,zero,r5
   40e1c:	003ff006 	br	40de0 <_ZL15get_ttype_entryP16lsda_header_infom+0x48>
   40e20:	0005883a 	mov	r2,zero
   40e24:	003fee06 	br	40de0 <_ZL15get_ttype_entryP16lsda_header_infom+0x48>
   40e28:	00430b80 	call	430b8 <abort>

00040e2c <_ZL20check_exception_specP16lsda_header_infoPKSt9type_infoPvl>:
   40e2c:	defffb04 	addi	sp,sp,-20
   40e30:	dc000115 	stw	r16,4(sp)
   40e34:	24000317 	ldw	r16,12(r4)
   40e38:	01ce303a 	nor	r7,zero,r7
   40e3c:	dc800315 	stw	r18,12(sp)
   40e40:	dc400215 	stw	r17,8(sp)
   40e44:	dfc00415 	stw	ra,16(sp)
   40e48:	2023883a 	mov	r17,r4
   40e4c:	2825883a 	mov	r18,r5
   40e50:	d9800015 	stw	r6,0(sp)
   40e54:	81e1883a 	add	r16,r16,r7
   40e58:	000b883a 	mov	r5,zero
   40e5c:	000d883a 	mov	r6,zero
   40e60:	80800003 	ldbu	r2,0(r16)
   40e64:	84000044 	addi	r16,r16,1
   40e68:	10c01fcc 	andi	r3,r2,127
   40e6c:	1986983a 	sll	r3,r3,r6
   40e70:	10803fcc 	andi	r2,r2,255
   40e74:	1080201c 	xori	r2,r2,128
   40e78:	10bfe004 	addi	r2,r2,-128
   40e7c:	28cab03a 	or	r5,r5,r3
   40e80:	318001c4 	addi	r6,r6,7
   40e84:	103ff616 	blt	r2,zero,40e60 <_ZL20check_exception_specP16lsda_header_infoPKSt9type_infoPvl+0x34>
   40e88:	28000e26 	beq	r5,zero,40ec4 <_ZL20check_exception_specP16lsda_header_infoPKSt9type_infoPvl+0x98>
   40e8c:	8809883a 	mov	r4,r17
   40e90:	0040d980 	call	40d98 <_ZL15get_ttype_entryP16lsda_header_infom>
   40e94:	d80d883a 	mov	r6,sp
   40e98:	900b883a 	mov	r5,r18
   40e9c:	1009883a 	mov	r4,r2
   40ea0:	0040b200 	call	40b20 <_ZL16get_adjusted_ptrPKSt9type_infoS1_PPv>
   40ea4:	10c03fcc 	andi	r3,r2,255
   40ea8:	183feb26 	beq	r3,zero,40e58 <_ZL20check_exception_specP16lsda_header_infoPKSt9type_infoPvl+0x2c>
   40eac:	dfc00417 	ldw	ra,16(sp)
   40eb0:	dc800317 	ldw	r18,12(sp)
   40eb4:	dc400217 	ldw	r17,8(sp)
   40eb8:	dc000117 	ldw	r16,4(sp)
   40ebc:	dec00504 	addi	sp,sp,20
   40ec0:	f800283a 	ret
   40ec4:	0005883a 	mov	r2,zero
   40ec8:	003ff806 	br	40eac <_ZL20check_exception_specP16lsda_header_infoPKSt9type_infoPvl+0x80>

00040ecc <_ZL21base_of_encoded_valuehP15_Unwind_Context>:
   40ecc:	20803fcc 	andi	r2,r4,255
   40ed0:	10803fe0 	cmpeqi	r2,r2,255
   40ed4:	1000161e 	bne	r2,zero,40f30 <_ZL21base_of_encoded_valuehP15_Unwind_Context+0x64>
   40ed8:	2007883a 	mov	r3,r4
   40edc:	18801c0c 	andi	r2,r3,112
   40ee0:	2809883a 	mov	r4,r5
   40ee4:	11400c20 	cmpeqi	r5,r2,48
   40ee8:	2800131e 	bne	r5,zero,40f38 <_ZL21base_of_encoded_valuehP15_Unwind_Context+0x6c>
   40eec:	11400c68 	cmpgeui	r5,r2,49
   40ef0:	2800031e 	bne	r5,zero,40f00 <_ZL21base_of_encoded_valuehP15_Unwind_Context+0x34>
   40ef4:	11400820 	cmpeqi	r5,r2,32
   40ef8:	28000426 	beq	r5,zero,40f0c <_ZL21base_of_encoded_valuehP15_Unwind_Context+0x40>
   40efc:	0042e201 	jmpi	42e20 <_Unwind_GetTextRelBase>
   40f00:	10c01020 	cmpeqi	r3,r2,64
   40f04:	18000826 	beq	r3,zero,40f28 <_ZL21base_of_encoded_valuehP15_Unwind_Context+0x5c>
   40f08:	0042e081 	jmpi	42e08 <_Unwind_GetRegionStart>
   40f0c:	10800868 	cmpgeui	r2,r2,33
   40f10:	1000021e 	bne	r2,zero,40f1c <_ZL21base_of_encoded_valuehP15_Unwind_Context+0x50>
   40f14:	18c0180c 	andi	r3,r3,96
   40f18:	18000526 	beq	r3,zero,40f30 <_ZL21base_of_encoded_valuehP15_Unwind_Context+0x64>
   40f1c:	deffff04 	addi	sp,sp,-4
   40f20:	dfc00015 	stw	ra,0(sp)
   40f24:	00430b80 	call	430b8 <abort>
   40f28:	10801420 	cmpeqi	r2,r2,80
   40f2c:	103ffb26 	beq	r2,zero,40f1c <_ZL21base_of_encoded_valuehP15_Unwind_Context+0x50>
   40f30:	0005883a 	mov	r2,zero
   40f34:	f800283a 	ret
   40f38:	0042e181 	jmpi	42e18 <_Unwind_GetDataRelBase>

00040f3c <_ZL17parse_lsda_headerP15_Unwind_ContextPKhP16lsda_header_info>:
   40f3c:	defffb04 	addi	sp,sp,-20
   40f40:	dc800215 	stw	r18,8(sp)
   40f44:	dc400115 	stw	r17,4(sp)
   40f48:	dc000015 	stw	r16,0(sp)
   40f4c:	dfc00415 	stw	ra,16(sp)
   40f50:	dcc00315 	stw	r19,12(sp)
   40f54:	2025883a 	mov	r18,r4
   40f58:	2821883a 	mov	r16,r5
   40f5c:	3023883a 	mov	r17,r6
   40f60:	20003d26 	beq	r4,zero,41058 <_ZL17parse_lsda_headerP15_Unwind_ContextPKhP16lsda_header_info+0x11c>
   40f64:	0042e080 	call	42e08 <_Unwind_GetRegionStart>
   40f68:	88800015 	stw	r2,0(r17)
   40f6c:	84c00003 	ldbu	r19,0(r16)
   40f70:	84000044 	addi	r16,r16,1
   40f74:	98c03fe0 	cmpeqi	r3,r19,255
   40f78:	18002d26 	beq	r3,zero,41030 <_ZL17parse_lsda_headerP15_Unwind_ContextPKhP16lsda_header_info+0xf4>
   40f7c:	88800115 	stw	r2,4(r17)
   40f80:	81000003 	ldbu	r4,0(r16)
   40f84:	80800044 	addi	r2,r16,1
   40f88:	20c03fcc 	andi	r3,r4,255
   40f8c:	89000505 	stb	r4,20(r17)
   40f90:	18c03fe0 	cmpeqi	r3,r3,255
   40f94:	1800321e 	bne	r3,zero,41060 <_ZL17parse_lsda_headerP15_Unwind_ContextPKhP16lsda_header_info+0x124>
   40f98:	000d883a 	mov	r6,zero
   40f9c:	000b883a 	mov	r5,zero
   40fa0:	10c00003 	ldbu	r3,0(r2)
   40fa4:	10800044 	addi	r2,r2,1
   40fa8:	19001fcc 	andi	r4,r3,127
   40fac:	2148983a 	sll	r4,r4,r5
   40fb0:	18c03fcc 	andi	r3,r3,255
   40fb4:	18c0201c 	xori	r3,r3,128
   40fb8:	18ffe004 	addi	r3,r3,-128
   40fbc:	310cb03a 	or	r6,r6,r4
   40fc0:	294001c4 	addi	r5,r5,7
   40fc4:	183ff616 	blt	r3,zero,40fa0 <_ZL17parse_lsda_headerP15_Unwind_ContextPKhP16lsda_header_info+0x64>
   40fc8:	118d883a 	add	r6,r2,r6
   40fcc:	89800315 	stw	r6,12(r17)
   40fd0:	10c00003 	ldbu	r3,0(r2)
   40fd4:	000f883a 	mov	r7,zero
   40fd8:	10800044 	addi	r2,r2,1
   40fdc:	88c00545 	stb	r3,21(r17)
   40fe0:	000b883a 	mov	r5,zero
   40fe4:	10c00003 	ldbu	r3,0(r2)
   40fe8:	10800044 	addi	r2,r2,1
   40fec:	19001fcc 	andi	r4,r3,127
   40ff0:	2148983a 	sll	r4,r4,r5
   40ff4:	18c03fcc 	andi	r3,r3,255
   40ff8:	18c0201c 	xori	r3,r3,128
   40ffc:	18ffe004 	addi	r3,r3,-128
   41000:	390eb03a 	or	r7,r7,r4
   41004:	294001c4 	addi	r5,r5,7
   41008:	183ff616 	blt	r3,zero,40fe4 <_ZL17parse_lsda_headerP15_Unwind_ContextPKhP16lsda_header_info+0xa8>
   4100c:	11cf883a 	add	r7,r2,r7
   41010:	89c00415 	stw	r7,16(r17)
   41014:	dfc00417 	ldw	ra,16(sp)
   41018:	dcc00317 	ldw	r19,12(sp)
   4101c:	dc800217 	ldw	r18,8(sp)
   41020:	dc400117 	ldw	r17,4(sp)
   41024:	dc000017 	ldw	r16,0(sp)
   41028:	dec00504 	addi	sp,sp,20
   4102c:	f800283a 	ret
   41030:	900b883a 	mov	r5,r18
   41034:	9809883a 	mov	r4,r19
   41038:	0040ecc0 	call	40ecc <_ZL21base_of_encoded_valuehP15_Unwind_Context>
   4103c:	800d883a 	mov	r6,r16
   41040:	89c00104 	addi	r7,r17,4
   41044:	100b883a 	mov	r5,r2
   41048:	9809883a 	mov	r4,r19
   4104c:	0040bb00 	call	40bb0 <_ZL28read_encoded_value_with_basehjPKhPj>
   41050:	1021883a 	mov	r16,r2
   41054:	003fca06 	br	40f80 <_ZL17parse_lsda_headerP15_Unwind_ContextPKhP16lsda_header_info+0x44>
   41058:	0005883a 	mov	r2,zero
   4105c:	003fc206 	br	40f68 <_ZL17parse_lsda_headerP15_Unwind_ContextPKhP16lsda_header_info+0x2c>
   41060:	88000315 	stw	zero,12(r17)
   41064:	003fda06 	br	40fd0 <_ZL17parse_lsda_headerP15_Unwind_ContextPKhP16lsda_header_info+0x94>

00041068 <__gxx_personality_sj0>:
   41068:	00c00174 	movhi	r3,5
   4106c:	deffdc04 	addi	sp,sp,-144
   41070:	18cc5b04 	addi	r3,r3,12652
   41074:	02000134 	movhi	r8,4
   41078:	00800134 	movhi	r2,4
   4107c:	10859704 	addi	r2,r2,5724
   41080:	42041a04 	addi	r8,r8,4200
   41084:	d9000015 	stw	r4,0(sp)
   41088:	d8c01415 	stw	r3,80(sp)
   4108c:	d9000d04 	addi	r4,sp,52
   41090:	d8c02204 	addi	r3,sp,136
   41094:	d8801615 	stw	r2,88(sp)
   41098:	dfc02315 	stw	ra,140(sp)
   4109c:	df002215 	stw	fp,136(sp)
   410a0:	da001315 	stw	r8,76(sp)
   410a4:	d8c01515 	stw	r3,84(sp)
   410a8:	dec01715 	stw	sp,92(sp)
   410ac:	d9400315 	stw	r5,12(sp)
   410b0:	d9800115 	stw	r6,4(sp)
   410b4:	d9c00215 	stw	r7,8(sp)
   410b8:	0042d4c0 	call	42d4c <_Unwind_SjLj_Register>
   410bc:	d8800017 	ldw	r2,0(sp)
   410c0:	d8001a15 	stw	zero,104(sp)
   410c4:	d8001b15 	stw	zero,108(sp)
   410c8:	10800058 	cmpnei	r2,r2,1
   410cc:	1000471e 	bne	r2,zero,411ec <__gxx_personality_sj0+0x184>
   410d0:	d9800117 	ldw	r6,4(sp)
   410d4:	00af3574 	movhi	r2,48341
   410d8:	10b54004 	addi	r2,r2,-11008
   410dc:	3085883a 	add	r2,r6,r2
   410e0:	d8800715 	stw	r2,28(sp)
   410e4:	1185803a 	cmpltu	r2,r2,r6
   410e8:	d9800217 	ldw	r6,8(sp)
   410ec:	00ee2cb4 	movhi	r3,47282
   410f0:	d9000317 	ldw	r4,12(sp)
   410f4:	18eaaf04 	addi	r3,r3,-21828
   410f8:	30c7883a 	add	r3,r6,r3
   410fc:	10c7883a 	add	r3,r2,r3
   41100:	21000198 	cmpnei	r4,r4,6
   41104:	d8c00615 	stw	r3,24(sp)
   41108:	2000011e 	bne	r4,zero,41110 <__gxx_personality_sj0+0xa8>
   4110c:	1800cf26 	beq	r3,zero,4144c <__gxx_personality_sj0+0x3e4>
   41110:	d9002517 	ldw	r4,148(sp)
   41114:	00bfffc4 	movi	r2,-1
   41118:	d8800e15 	stw	r2,56(sp)
   4111c:	0042dfc0 	call	42dfc <_Unwind_GetLanguageSpecificData>
   41120:	d8800515 	stw	r2,20(sp)
   41124:	10006026 	beq	r2,zero,412a8 <__gxx_personality_sj0+0x240>
   41128:	d9400517 	ldw	r5,20(sp)
   4112c:	d9002517 	ldw	r4,148(sp)
   41130:	d9801c04 	addi	r6,sp,112
   41134:	00bfffc4 	movi	r2,-1
   41138:	d8800e15 	stw	r2,56(sp)
   4113c:	0040f3c0 	call	40f3c <_ZL17parse_lsda_headerP15_Unwind_ContextPKhP16lsda_header_info>
   41140:	d9002103 	ldbu	r4,132(sp)
   41144:	d9402517 	ldw	r5,148(sp)
   41148:	d8800015 	stw	r2,0(sp)
   4114c:	0040ecc0 	call	40ecc <_ZL21base_of_encoded_valuehP15_Unwind_Context>
   41150:	d9002517 	ldw	r4,148(sp)
   41154:	d9401b04 	addi	r5,sp,108
   41158:	d8801e15 	stw	r2,120(sp)
   4115c:	0042dcc0 	call	42dcc <_Unwind_GetIPInfo>
   41160:	d8c01b17 	ldw	r3,108(sp)
   41164:	d8800115 	stw	r2,4(sp)
   41168:	18005226 	beq	r3,zero,412b4 <__gxx_personality_sj0+0x24c>
   4116c:	d8800117 	ldw	r2,4(sp)
   41170:	10004d16 	blt	r2,zero,412a8 <__gxx_personality_sj0+0x240>
   41174:	1000381e 	bne	r2,zero,41258 <__gxx_personality_sj0+0x1f0>
   41178:	d8000415 	stw	zero,16(sp)
   4117c:	d8000215 	stw	zero,8(sp)
   41180:	00800044 	movi	r2,1
   41184:	d8c00317 	ldw	r3,12(sp)
   41188:	18c0004c 	andi	r3,r3,1
   4118c:	1800f51e 	bne	r3,zero,41564 <__gxx_personality_sj0+0x4fc>
   41190:	d8c00317 	ldw	r3,12(sp)
   41194:	18c0020c 	andi	r3,r3,8
   41198:	1800b526 	beq	r3,zero,41470 <__gxx_personality_sj0+0x408>
   4119c:	10800058 	cmpnei	r2,r2,1
   411a0:	10013026 	beq	r2,zero,41664 <__gxx_personality_sj0+0x5fc>
   411a4:	d8800417 	ldw	r2,16(sp)
   411a8:	10012916 	blt	r2,zero,41650 <__gxx_personality_sj0+0x5e8>
   411ac:	d9002517 	ldw	r4,148(sp)
   411b0:	d9802417 	ldw	r6,144(sp)
   411b4:	00bfffc4 	movi	r2,-1
   411b8:	000b883a 	mov	r5,zero
   411bc:	d8800e15 	stw	r2,56(sp)
   411c0:	0042da40 	call	42da4 <_Unwind_SetGR>
   411c4:	d9800417 	ldw	r6,16(sp)
   411c8:	d9002517 	ldw	r4,148(sp)
   411cc:	01400044 	movi	r5,1
   411d0:	0042da40 	call	42da4 <_Unwind_SetGR>
   411d4:	d9400117 	ldw	r5,4(sp)
   411d8:	d9002517 	ldw	r4,148(sp)
   411dc:	0042dec0 	call	42dec <_Unwind_SetIP>
   411e0:	008001c4 	movi	r2,7
   411e4:	d8800015 	stw	r2,0(sp)
   411e8:	00000206 	br	411f4 <__gxx_personality_sj0+0x18c>
   411ec:	008000c4 	movi	r2,3
   411f0:	d8800015 	stw	r2,0(sp)
   411f4:	d9000d04 	addi	r4,sp,52
   411f8:	0042d640 	call	42d64 <_Unwind_SjLj_Unregister>
   411fc:	d8800017 	ldw	r2,0(sp)
   41200:	dfc02317 	ldw	ra,140(sp)
   41204:	df002217 	ldw	fp,136(sp)
   41208:	dec02404 	addi	sp,sp,144
   4120c:	f800283a 	ret
   41210:	000b883a 	mov	r5,zero
   41214:	0009883a 	mov	r4,zero
   41218:	d8c00017 	ldw	r3,0(sp)
   4121c:	18800003 	ldbu	r2,0(r3)
   41220:	18c00044 	addi	r3,r3,1
   41224:	d8c00015 	stw	r3,0(sp)
   41228:	10c01fcc 	andi	r3,r2,127
   4122c:	1906983a 	sll	r3,r3,r4
   41230:	10803fcc 	andi	r2,r2,255
   41234:	1080201c 	xori	r2,r2,128
   41238:	10bfe004 	addi	r2,r2,-128
   4123c:	28cab03a 	or	r5,r5,r3
   41240:	210001c4 	addi	r4,r4,7
   41244:	103ff416 	blt	r2,zero,41218 <__gxx_personality_sj0+0x1b0>
   41248:	d8800117 	ldw	r2,4(sp)
   4124c:	10bfffc4 	addi	r2,r2,-1
   41250:	d8800115 	stw	r2,4(sp)
   41254:	10001a26 	beq	r2,zero,412c0 <__gxx_personality_sj0+0x258>
   41258:	000d883a 	mov	r6,zero
   4125c:	0009883a 	mov	r4,zero
   41260:	d8c00017 	ldw	r3,0(sp)
   41264:	18800003 	ldbu	r2,0(r3)
   41268:	18c00044 	addi	r3,r3,1
   4126c:	d8c00015 	stw	r3,0(sp)
   41270:	10c01fcc 	andi	r3,r2,127
   41274:	1906983a 	sll	r3,r3,r4
   41278:	10803fcc 	andi	r2,r2,255
   4127c:	1080201c 	xori	r2,r2,128
   41280:	10bfe004 	addi	r2,r2,-128
   41284:	30ccb03a 	or	r6,r6,r3
   41288:	210001c4 	addi	r4,r4,7
   4128c:	103ff416 	blt	r2,zero,41260 <__gxx_personality_sj0+0x1f8>
   41290:	003fdf06 	br	41210 <__gxx_personality_sj0+0x1a8>
   41294:	d88008c3 	ldbu	r2,35(sp)
   41298:	10000326 	beq	r2,zero,412a8 <__gxx_personality_sj0+0x240>
   4129c:	d8800317 	ldw	r2,12(sp)
   412a0:	1080004c 	andi	r2,r2,1
   412a4:	1000e226 	beq	r2,zero,41630 <__gxx_personality_sj0+0x5c8>
   412a8:	00800204 	movi	r2,8
   412ac:	d8800015 	stw	r2,0(sp)
   412b0:	003fd006 	br	411f4 <__gxx_personality_sj0+0x18c>
   412b4:	10bfffc4 	addi	r2,r2,-1
   412b8:	d8800115 	stw	r2,4(sp)
   412bc:	003fab06 	br	4116c <__gxx_personality_sj0+0x104>
   412c0:	30800044 	addi	r2,r6,1
   412c4:	d8800b15 	stw	r2,44(sp)
   412c8:	283ff326 	beq	r5,zero,41298 <__gxx_personality_sj0+0x230>
   412cc:	d8800b17 	ldw	r2,44(sp)
   412d0:	103ff526 	beq	r2,zero,412a8 <__gxx_personality_sj0+0x240>
   412d4:	d8802017 	ldw	r2,128(sp)
   412d8:	297fffc4 	addi	r5,r5,-1
   412dc:	1145883a 	add	r2,r2,r5
   412e0:	d8800215 	stw	r2,8(sp)
   412e4:	103fed26 	beq	r2,zero,4129c <__gxx_personality_sj0+0x234>
   412e8:	d8800317 	ldw	r2,12(sp)
   412ec:	1080020c 	andi	r2,r2,8
   412f0:	d8800a15 	stw	r2,40(sp)
   412f4:	1000a71e 	bne	r2,zero,41594 <__gxx_personality_sj0+0x52c>
   412f8:	d8800617 	ldw	r2,24(sp)
   412fc:	1000bc26 	beq	r2,zero,415f0 <__gxx_personality_sj0+0x588>
   41300:	00800174 	movhi	r2,5
   41304:	10957a04 	addi	r2,r2,21992
   41308:	d8800915 	stw	r2,36(sp)
   4130c:	d8800717 	ldw	r2,28(sp)
   41310:	d80008c5 	stb	zero,35(sp)
   41314:	108000a8 	cmpgeui	r2,r2,2
   41318:	d8800c15 	stw	r2,48(sp)
   4131c:	d8800217 	ldw	r2,8(sp)
   41320:	000b883a 	mov	r5,zero
   41324:	0007883a 	mov	r3,zero
   41328:	d8800015 	stw	r2,0(sp)
   4132c:	d8800017 	ldw	r2,0(sp)
   41330:	11000003 	ldbu	r4,0(r2)
   41334:	10800044 	addi	r2,r2,1
   41338:	d8800015 	stw	r2,0(sp)
   4133c:	20801fcc 	andi	r2,r4,127
   41340:	10c4983a 	sll	r2,r2,r3
   41344:	21803fcc 	andi	r6,r4,255
   41348:	3180201c 	xori	r6,r6,128
   4134c:	31bfe004 	addi	r6,r6,-128
   41350:	288ab03a 	or	r5,r5,r2
   41354:	18c001c4 	addi	r3,r3,7
   41358:	303ff416 	blt	r6,zero,4132c <__gxx_personality_sj0+0x2c4>
   4135c:	18800828 	cmpgeui	r2,r3,32
   41360:	1000061e 	bne	r2,zero,4137c <__gxx_personality_sj0+0x314>
   41364:	2100100c 	andi	r4,r4,64
   41368:	20000426 	beq	r4,zero,4137c <__gxx_personality_sj0+0x314>
   4136c:	00800044 	movi	r2,1
   41370:	10c6983a 	sll	r3,r2,r3
   41374:	00c7c83a 	sub	r3,zero,r3
   41378:	28cab03a 	or	r5,r5,r3
   4137c:	d9800017 	ldw	r6,0(sp)
   41380:	d9400415 	stw	r5,16(sp)
   41384:	d8000115 	stw	zero,4(sp)
   41388:	0007883a 	mov	r3,zero
   4138c:	31000003 	ldbu	r4,0(r6)
   41390:	da000117 	ldw	r8,4(sp)
   41394:	31800044 	addi	r6,r6,1
   41398:	20801fcc 	andi	r2,r4,127
   4139c:	10c4983a 	sll	r2,r2,r3
   413a0:	21c03fcc 	andi	r7,r4,255
   413a4:	39c0201c 	xori	r7,r7,128
   413a8:	4084b03a 	or	r2,r8,r2
   413ac:	39ffe004 	addi	r7,r7,-128
   413b0:	d8800115 	stw	r2,4(sp)
   413b4:	18c001c4 	addi	r3,r3,7
   413b8:	383ff416 	blt	r7,zero,4138c <__gxx_personality_sj0+0x324>
   413bc:	18800828 	cmpgeui	r2,r3,32
   413c0:	1000081e 	bne	r2,zero,413e4 <__gxx_personality_sj0+0x37c>
   413c4:	2100100c 	andi	r4,r4,64
   413c8:	20000626 	beq	r4,zero,413e4 <__gxx_personality_sj0+0x37c>
   413cc:	00800044 	movi	r2,1
   413d0:	10c6983a 	sll	r3,r2,r3
   413d4:	d8800117 	ldw	r2,4(sp)
   413d8:	00c7c83a 	sub	r3,zero,r3
   413dc:	10c4b03a 	or	r2,r2,r3
   413e0:	d8800115 	stw	r2,4(sp)
   413e4:	28003b26 	beq	r5,zero,414d4 <__gxx_personality_sj0+0x46c>
   413e8:	01403d16 	blt	zero,r5,414e0 <__gxx_personality_sj0+0x478>
   413ec:	d8c00917 	ldw	r3,36(sp)
   413f0:	18004b26 	beq	r3,zero,41520 <__gxx_personality_sj0+0x4b8>
   413f4:	d8800a17 	ldw	r2,40(sp)
   413f8:	1000491e 	bne	r2,zero,41520 <__gxx_personality_sj0+0x4b8>
   413fc:	d8800617 	ldw	r2,24(sp)
   41400:	1000471e 	bne	r2,zero,41520 <__gxx_personality_sj0+0x4b8>
   41404:	d8800c17 	ldw	r2,48(sp)
   41408:	1000451e 	bne	r2,zero,41520 <__gxx_personality_sj0+0x4b8>
   4140c:	d9801a17 	ldw	r6,104(sp)
   41410:	00bfffc4 	movi	r2,-1
   41414:	280f883a 	mov	r7,r5
   41418:	d9001c04 	addi	r4,sp,112
   4141c:	180b883a 	mov	r5,r3
   41420:	d8800e15 	stw	r2,56(sp)
   41424:	0040e2c0 	call	40e2c <_ZL20check_exception_specP16lsda_header_infoPKSt9type_infoPvl>
   41428:	1100005c 	xori	r4,r2,1
   4142c:	20803fcc 	andi	r2,r4,255
   41430:	1000371e 	bne	r2,zero,41510 <__gxx_personality_sj0+0x4a8>
   41434:	d8800117 	ldw	r2,4(sp)
   41438:	103f9626 	beq	r2,zero,41294 <__gxx_personality_sj0+0x22c>
   4143c:	d8c00017 	ldw	r3,0(sp)
   41440:	1885883a 	add	r2,r3,r2
   41444:	d8800215 	stw	r2,8(sp)
   41448:	003fb406 	br	4131c <__gxx_personality_sj0+0x2b4>
   4144c:	d8800717 	ldw	r2,28(sp)
   41450:	108000a8 	cmpgeui	r2,r2,2
   41454:	103f2e1e 	bne	r2,zero,41110 <__gxx_personality_sj0+0xa8>
   41458:	d8802417 	ldw	r2,144(sp)
   4145c:	10bffe17 	ldw	r2,-8(r2)
   41460:	d8800115 	stw	r2,4(sp)
   41464:	1000441e 	bne	r2,zero,41578 <__gxx_personality_sj0+0x510>
   41468:	d9002417 	ldw	r4,144(sp)
   4146c:	0041ee00 	call	41ee0 <__cxa_call_terminate>
   41470:	d8c00617 	ldw	r3,24(sp)
   41474:	183f491e 	bne	r3,zero,4119c <__gxx_personality_sj0+0x134>
   41478:	d8c00717 	ldw	r3,28(sp)
   4147c:	18c000a8 	cmpgeui	r3,r3,2
   41480:	183f461e 	bne	r3,zero,4119c <__gxx_personality_sj0+0x134>
   41484:	10800060 	cmpeqi	r2,r2,1
   41488:	103ff71e 	bne	r2,zero,41468 <__gxx_personality_sj0+0x400>
   4148c:	d8800417 	ldw	r2,16(sp)
   41490:	103f460e 	bge	r2,zero,411ac <__gxx_personality_sj0+0x144>
   41494:	d9002517 	ldw	r4,148(sp)
   41498:	d9400517 	ldw	r5,20(sp)
   4149c:	d9801c04 	addi	r6,sp,112
   414a0:	00bfffc4 	movi	r2,-1
   414a4:	d8800e15 	stw	r2,56(sp)
   414a8:	0040f3c0 	call	40f3c <_ZL17parse_lsda_headerP15_Unwind_ContextPKhP16lsda_header_info>
   414ac:	d9402517 	ldw	r5,148(sp)
   414b0:	d9002103 	ldbu	r4,132(sp)
   414b4:	0040ecc0 	call	40ecc <_ZL21base_of_encoded_valuehP15_Unwind_Context>
   414b8:	d9002103 	ldbu	r4,132(sp)
   414bc:	d9402517 	ldw	r5,148(sp)
   414c0:	d8801e15 	stw	r2,120(sp)
   414c4:	0040ecc0 	call	40ecc <_ZL21base_of_encoded_valuehP15_Unwind_Context>
   414c8:	d8c02417 	ldw	r3,144(sp)
   414cc:	18bffe15 	stw	r2,-8(r3)
   414d0:	003f3606 	br	411ac <__gxx_personality_sj0+0x144>
   414d4:	00800044 	movi	r2,1
   414d8:	d88008c5 	stb	r2,35(sp)
   414dc:	003fd506 	br	41434 <__gxx_personality_sj0+0x3cc>
   414e0:	00bfffc4 	movi	r2,-1
   414e4:	d9001c04 	addi	r4,sp,112
   414e8:	d8800e15 	stw	r2,56(sp)
   414ec:	0040d980 	call	40d98 <_ZL15get_ttype_entryP16lsda_header_infom>
   414f0:	1009883a 	mov	r4,r2
   414f4:	10000626 	beq	r2,zero,41510 <__gxx_personality_sj0+0x4a8>
   414f8:	d9400917 	ldw	r5,36(sp)
   414fc:	283fcd26 	beq	r5,zero,41434 <__gxx_personality_sj0+0x3cc>
   41500:	d9801a04 	addi	r6,sp,104
   41504:	0040b200 	call	40b20 <_ZL16get_adjusted_ptrPKSt9type_infoS1_PPv>
   41508:	10803fcc 	andi	r2,r2,255
   4150c:	103fc926 	beq	r2,zero,41434 <__gxx_personality_sj0+0x3cc>
   41510:	d8800b17 	ldw	r2,44(sp)
   41514:	d8800115 	stw	r2,4(sp)
   41518:	008000c4 	movi	r2,3
   4151c:	003f1906 	br	41184 <__gxx_personality_sj0+0x11c>
   41520:	d8801f17 	ldw	r2,124(sp)
   41524:	014a303a 	nor	r5,zero,r5
   41528:	0009883a 	mov	r4,zero
   4152c:	114b883a 	add	r5,r2,r5
   41530:	000d883a 	mov	r6,zero
   41534:	28800003 	ldbu	r2,0(r5)
   41538:	29400044 	addi	r5,r5,1
   4153c:	10c01fcc 	andi	r3,r2,127
   41540:	1986983a 	sll	r3,r3,r6
   41544:	10803fcc 	andi	r2,r2,255
   41548:	1080201c 	xori	r2,r2,128
   4154c:	10bfe004 	addi	r2,r2,-128
   41550:	20c8b03a 	or	r4,r4,r3
   41554:	318001c4 	addi	r6,r6,7
   41558:	103ff616 	blt	r2,zero,41534 <__gxx_personality_sj0+0x4cc>
   4155c:	2009003a 	cmpeq	r4,r4,zero
   41560:	003fb206 	br	4142c <__gxx_personality_sj0+0x3c4>
   41564:	d8800617 	ldw	r2,24(sp)
   41568:	10000e26 	beq	r2,zero,415a4 <__gxx_personality_sj0+0x53c>
   4156c:	00800184 	movi	r2,6
   41570:	d8800015 	stw	r2,0(sp)
   41574:	003f1f06 	br	411f4 <__gxx_personality_sj0+0x18c>
   41578:	d8802417 	ldw	r2,144(sp)
   4157c:	10bffb17 	ldw	r2,-20(r2)
   41580:	d8800415 	stw	r2,16(sp)
   41584:	d8802417 	ldw	r2,144(sp)
   41588:	10bffd17 	ldw	r2,-12(r2)
   4158c:	d8800515 	stw	r2,20(sp)
   41590:	003fbe06 	br	4148c <__gxx_personality_sj0+0x424>
   41594:	00800174 	movhi	r2,5
   41598:	10957804 	addi	r2,r2,21984
   4159c:	d8800915 	stw	r2,36(sp)
   415a0:	003f5a06 	br	4130c <__gxx_personality_sj0+0x2a4>
   415a4:	d8800717 	ldw	r2,28(sp)
   415a8:	108000a8 	cmpgeui	r2,r2,2
   415ac:	103fef1e 	bne	r2,zero,4156c <__gxx_personality_sj0+0x504>
   415b0:	d8802417 	ldw	r2,144(sp)
   415b4:	d8c00417 	ldw	r3,16(sp)
   415b8:	10fffb15 	stw	r3,-20(r2)
   415bc:	d8c00217 	ldw	r3,8(sp)
   415c0:	10fffc15 	stw	r3,-16(r2)
   415c4:	d8c00517 	ldw	r3,20(sp)
   415c8:	10fffd15 	stw	r3,-12(r2)
   415cc:	d8c02417 	ldw	r3,144(sp)
   415d0:	d8801a17 	ldw	r2,104(sp)
   415d4:	18bfff15 	stw	r2,-4(r3)
   415d8:	1805883a 	mov	r2,r3
   415dc:	d8c00117 	ldw	r3,4(sp)
   415e0:	10fffe15 	stw	r3,-8(r2)
   415e4:	00800184 	movi	r2,6
   415e8:	d8800015 	stw	r2,0(sp)
   415ec:	003f0106 	br	411f4 <__gxx_personality_sj0+0x18c>
   415f0:	d8800717 	ldw	r2,28(sp)
   415f4:	108000a8 	cmpgeui	r2,r2,2
   415f8:	103f411e 	bne	r2,zero,41300 <__gxx_personality_sj0+0x298>
   415fc:	d8802417 	ldw	r2,144(sp)
   41600:	10800003 	ldbu	r2,0(r2)
   41604:	1080004c 	andi	r2,r2,1
   41608:	10000626 	beq	r2,zero,41624 <__gxx_personality_sj0+0x5bc>
   4160c:	d8802417 	ldw	r2,144(sp)
   41610:	10bff517 	ldw	r2,-44(r2)
   41614:	10fff017 	ldw	r3,-64(r2)
   41618:	d8801a15 	stw	r2,104(sp)
   4161c:	d8c00915 	stw	r3,36(sp)
   41620:	003f3a06 	br	4130c <__gxx_personality_sj0+0x2a4>
   41624:	d8802417 	ldw	r2,144(sp)
   41628:	10800504 	addi	r2,r2,20
   4162c:	003ff906 	br	41614 <__gxx_personality_sj0+0x5ac>
   41630:	d8800317 	ldw	r2,12(sp)
   41634:	1080020c 	andi	r2,r2,8
   41638:	d8800415 	stw	r2,16(sp)
   4163c:	10000a26 	beq	r2,zero,41668 <__gxx_personality_sj0+0x600>
   41640:	d8800b17 	ldw	r2,44(sp)
   41644:	d8000415 	stw	zero,16(sp)
   41648:	d8800115 	stw	r2,4(sp)
   4164c:	003ed706 	br	411ac <__gxx_personality_sj0+0x144>
   41650:	00800044 	movi	r2,1
   41654:	d8800e15 	stw	r2,56(sp)
   41658:	00418e40 	call	418e4 <_ZSt10unexpectedv>
   4165c:	d9000f17 	ldw	r4,60(sp)
   41660:	0041f400 	call	41f40 <__cxa_begin_catch>
   41664:	00418c00 	call	418c0 <_ZSt9terminatev>
   41668:	d8800b17 	ldw	r2,44(sp)
   4166c:	d8800115 	stw	r2,4(sp)
   41670:	003ece06 	br	411ac <__gxx_personality_sj0+0x144>

00041674 <__cxa_call_unexpected>:
   41674:	00c00174 	movhi	r3,5
   41678:	deffe704 	addi	sp,sp,-100
   4167c:	18cc5f04 	addi	r3,r3,12668
   41680:	01400134 	movhi	r5,4
   41684:	00800134 	movhi	r2,4
   41688:	29441a04 	addi	r5,r5,4200
   4168c:	1085be04 	addi	r2,r2,5880
   41690:	d9000015 	stw	r4,0(sp)
   41694:	d8c00b15 	stw	r3,44(sp)
   41698:	d9000404 	addi	r4,sp,16
   4169c:	d8c01704 	addi	r3,sp,92
   416a0:	d8c00c15 	stw	r3,48(sp)
   416a4:	dfc01815 	stw	ra,96(sp)
   416a8:	d9400a15 	stw	r5,40(sp)
   416ac:	d8800d15 	stw	r2,52(sp)
   416b0:	df001715 	stw	fp,92(sp)
   416b4:	dec00e15 	stw	sp,56(sp)
   416b8:	0042d4c0 	call	42d4c <_Unwind_SjLj_Register>
   416bc:	d9000017 	ldw	r4,0(sp)
   416c0:	0041f400 	call	41f40 <__cxa_begin_catch>
   416c4:	d9000017 	ldw	r4,0(sp)
   416c8:	20fffd17 	ldw	r3,-12(r4)
   416cc:	20bffe17 	ldw	r2,-8(r4)
   416d0:	d8c00115 	stw	r3,4(sp)
   416d4:	20fffb17 	ldw	r3,-20(r4)
   416d8:	d8801315 	stw	r2,76(sp)
   416dc:	d8c00015 	stw	r3,0(sp)
   416e0:	20fff817 	ldw	r3,-32(r4)
   416e4:	d8c00215 	stw	r3,8(sp)
   416e8:	00c00044 	movi	r3,1
   416ec:	d8c00515 	stw	r3,20(sp)
   416f0:	213ff717 	ldw	r4,-36(r4)
   416f4:	00418d40 	call	418d4 <_ZN10__cxxabiv112__unexpectedEPFvvE>
   416f8:	d8c00617 	ldw	r3,24(sp)
   416fc:	d8800517 	ldw	r2,20(sp)
   41700:	d8c00315 	stw	r3,12(sp)
   41704:	10002b1e 	bne	r2,zero,417b4 <__cxa_call_unexpected+0x140>
   41708:	d9000617 	ldw	r4,24(sp)
   4170c:	0041f400 	call	41f40 <__cxa_begin_catch>
   41710:	00421380 	call	42138 <__cxa_get_globals_fast>
   41714:	10800017 	ldw	r2,0(r2)
   41718:	10c00b03 	ldbu	r3,44(r2)
   4171c:	18c0004c 	andi	r3,r3,1
   41720:	18002e26 	beq	r3,zero,417dc <__cxa_call_unexpected+0x168>
   41724:	10800017 	ldw	r2,0(r2)
   41728:	d8800315 	stw	r2,12(sp)
   4172c:	d9400117 	ldw	r5,4(sp)
   41730:	00800084 	movi	r2,2
   41734:	d9801104 	addi	r6,sp,68
   41738:	0009883a 	mov	r4,zero
   4173c:	d8800515 	stw	r2,20(sp)
   41740:	0040f3c0 	call	40f3c <_ZL17parse_lsda_headerP15_Unwind_ContextPKhP16lsda_header_info>
   41744:	d9800317 	ldw	r6,12(sp)
   41748:	d9c00017 	ldw	r7,0(sp)
   4174c:	d9001104 	addi	r4,sp,68
   41750:	317ff017 	ldw	r5,-64(r6)
   41754:	0040e2c0 	call	40e2c <_ZL20check_exception_specP16lsda_header_infoPKSt9type_infoPvl>
   41758:	10803fcc 	andi	r2,r2,255
   4175c:	1000221e 	bne	r2,zero,417e8 <__cxa_call_unexpected+0x174>
   41760:	d9c00017 	ldw	r7,0(sp)
   41764:	01400174 	movhi	r5,5
   41768:	00800084 	movi	r2,2
   4176c:	000d883a 	mov	r6,zero
   41770:	294c9304 	addi	r5,r5,12876
   41774:	d9001104 	addi	r4,sp,68
   41778:	d8800515 	stw	r2,20(sp)
   4177c:	0040e2c0 	call	40e2c <_ZL20check_exception_specP16lsda_header_infoPKSt9type_infoPvl>
   41780:	10803fcc 	andi	r2,r2,255
   41784:	10001926 	beq	r2,zero,417ec <__cxa_call_unexpected+0x178>
   41788:	01000104 	movi	r4,4
   4178c:	0041d8c0 	call	41d8c <__cxa_allocate_exception>
   41790:	1009883a 	mov	r4,r2
   41794:	00800174 	movhi	r2,5
   41798:	01800134 	movhi	r6,4
   4179c:	01400174 	movhi	r5,5
   417a0:	108cae04 	addi	r2,r2,12984
   417a4:	31883b04 	addi	r6,r6,8428
   417a8:	294c9304 	addi	r5,r5,12876
   417ac:	20800015 	stw	r2,0(r4)
   417b0:	0041a240 	call	41a24 <__cxa_throw>
   417b4:	10bfffc4 	addi	r2,r2,-1
   417b8:	10000126 	beq	r2,zero,417c0 <__cxa_call_unexpected+0x14c>
   417bc:	003b68fa 	trap	3
   417c0:	d8000515 	stw	zero,20(sp)
   417c4:	0041ff80 	call	41ff8 <__cxa_end_catch>
   417c8:	0041ff80 	call	41ff8 <__cxa_end_catch>
   417cc:	d9000317 	ldw	r4,12(sp)
   417d0:	00bfffc4 	movi	r2,-1
   417d4:	d8800515 	stw	r2,20(sp)
   417d8:	0042f340 	call	42f34 <_Unwind_SjLj_Resume>
   417dc:	10801004 	addi	r2,r2,64
   417e0:	d8800315 	stw	r2,12(sp)
   417e4:	003fd106 	br	4172c <__cxa_call_unexpected+0xb8>
   417e8:	0041ab80 	call	41ab8 <__cxa_rethrow>
   417ec:	d9000217 	ldw	r4,8(sp)
   417f0:	00417f40 	call	417f4 <_ZN10__cxxabiv111__terminateEPFvvE>

000417f4 <_ZN10__cxxabiv111__terminateEPFvvE>:
   417f4:	00c00174 	movhi	r3,5
   417f8:	deffef04 	addi	sp,sp,-68
   417fc:	18cc6304 	addi	r3,r3,12684
   41800:	01400134 	movhi	r5,4
   41804:	00800134 	movhi	r2,4
   41808:	10861504 	addi	r2,r2,6228
   4180c:	200d883a 	mov	r6,r4
   41810:	29441a04 	addi	r5,r5,4200
   41814:	d8c00915 	stw	r3,36(sp)
   41818:	d9000204 	addi	r4,sp,8
   4181c:	d8c00f04 	addi	r3,sp,60
   41820:	d8800b15 	stw	r2,44(sp)
   41824:	dfc01015 	stw	ra,64(sp)
   41828:	df000f15 	stw	fp,60(sp)
   4182c:	d9400815 	stw	r5,32(sp)
   41830:	d8c00a15 	stw	r3,40(sp)
   41834:	dec00c15 	stw	sp,48(sp)
   41838:	d9800015 	stw	r6,0(sp)
   4183c:	0042d4c0 	call	42d4c <_Unwind_SjLj_Register>
   41840:	00800044 	movi	r2,1
   41844:	d8800315 	stw	r2,12(sp)
   41848:	d8800017 	ldw	r2,0(sp)
   4184c:	103ee83a 	callr	r2
   41850:	00430b80 	call	430b8 <abort>
   41854:	d8c00417 	ldw	r3,16(sp)
   41858:	d8800317 	ldw	r2,12(sp)
   4185c:	d8c00015 	stw	r3,0(sp)
   41860:	d8c00517 	ldw	r3,20(sp)
   41864:	d8c00115 	stw	r3,4(sp)
   41868:	1000051e 	bne	r2,zero,41880 <_ZN10__cxxabiv111__terminateEPFvvE+0x8c>
   4186c:	d9000417 	ldw	r4,16(sp)
   41870:	0041f400 	call	41f40 <__cxa_begin_catch>
   41874:	00800084 	movi	r2,2
   41878:	d8800315 	stw	r2,12(sp)
   4187c:	00430b80 	call	430b8 <abort>
   41880:	10bfffc4 	addi	r2,r2,-1
   41884:	10000126 	beq	r2,zero,4188c <_ZN10__cxxabiv111__terminateEPFvvE+0x98>
   41888:	003b68fa 	trap	3
   4188c:	d8000315 	stw	zero,12(sp)
   41890:	0041ff80 	call	41ff8 <__cxa_end_catch>
   41894:	d8c00117 	ldw	r3,4(sp)
   41898:	18bfffe0 	cmpeqi	r2,r3,-1
   4189c:	10000426 	beq	r2,zero,418b0 <_ZN10__cxxabiv111__terminateEPFvvE+0xbc>
   418a0:	d8800117 	ldw	r2,4(sp)
   418a4:	d9000017 	ldw	r4,0(sp)
   418a8:	d8800315 	stw	r2,12(sp)
   418ac:	00416740 	call	41674 <__cxa_call_unexpected>
   418b0:	d9000017 	ldw	r4,0(sp)
   418b4:	00bfffc4 	movi	r2,-1
   418b8:	d8800315 	stw	r2,12(sp)
   418bc:	0042f340 	call	42f34 <_Unwind_SjLj_Resume>

000418c0 <_ZSt9terminatev>:
   418c0:	00800174 	movhi	r2,5
   418c4:	11157c17 	ldw	r4,22000(r2)
   418c8:	deffff04 	addi	sp,sp,-4
   418cc:	dfc00015 	stw	ra,0(sp)
   418d0:	00417f40 	call	417f4 <_ZN10__cxxabiv111__terminateEPFvvE>

000418d4 <_ZN10__cxxabiv112__unexpectedEPFvvE>:
   418d4:	deffff04 	addi	sp,sp,-4
   418d8:	dfc00015 	stw	ra,0(sp)
   418dc:	203ee83a 	callr	r4
   418e0:	00418c00 	call	418c0 <_ZSt9terminatev>

000418e4 <_ZSt10unexpectedv>:
   418e4:	00800174 	movhi	r2,5
   418e8:	11157517 	ldw	r4,21972(r2)
   418ec:	deffff04 	addi	sp,sp,-4
   418f0:	dfc00015 	stw	ra,0(sp)
   418f4:	00418d40 	call	418d4 <_ZN10__cxxabiv112__unexpectedEPFvvE>

000418f8 <_ZSt13set_terminatePFvvE>:
   418f8:	20000526 	beq	r4,zero,41910 <_ZSt13set_terminatePFvvE+0x18>
   418fc:	00c00174 	movhi	r3,5
   41900:	00800174 	movhi	r2,5
   41904:	10957c17 	ldw	r2,22000(r2)
   41908:	19157c15 	stw	r4,22000(r3)
   4190c:	f800283a 	ret
   41910:	01000134 	movhi	r4,4
   41914:	210c2e04 	addi	r4,r4,12472
   41918:	003ff806 	br	418fc <_ZSt13set_terminatePFvvE+0x4>

0004191c <_ZSt13get_terminatev>:
   4191c:	00800174 	movhi	r2,5
   41920:	10957c17 	ldw	r2,22000(r2)
   41924:	f800283a 	ret

00041928 <_ZSt14set_unexpectedPFvvE>:
   41928:	20000526 	beq	r4,zero,41940 <_ZSt14set_unexpectedPFvvE+0x18>
   4192c:	00c00174 	movhi	r3,5
   41930:	00800174 	movhi	r2,5
   41934:	10957517 	ldw	r2,21972(r2)
   41938:	19157515 	stw	r4,21972(r3)
   4193c:	f800283a 	ret
   41940:	01000134 	movhi	r4,4
   41944:	21063004 	addi	r4,r4,6336
   41948:	003ff806 	br	4192c <_ZSt14set_unexpectedPFvvE+0x4>

0004194c <_ZSt14get_unexpectedv>:
   4194c:	00800174 	movhi	r2,5
   41950:	10957517 	ldw	r2,21972(r2)
   41954:	f800283a 	ret

00041958 <_ZL23__gxx_exception_cleanup19_Unwind_Reason_CodeP17_Unwind_Exception>:
   41958:	defffe04 	addi	sp,sp,-8
   4195c:	dfc00115 	stw	ra,4(sp)
   41960:	dc000015 	stw	r16,0(sp)
   41964:	210000b0 	cmpltui	r4,r4,2
   41968:	20001326 	beq	r4,zero,419b8 <_ZL23__gxx_exception_cleanup19_Unwind_Reason_CodeP17_Unwind_Exception+0x60>
   4196c:	28bff417 	ldw	r2,-48(r5)
   41970:	10ffffc4 	addi	r3,r2,-1
   41974:	28fff415 	stw	r3,-48(r5)
   41978:	10800058 	cmpnei	r2,r2,1
   4197c:	10000426 	beq	r2,zero,41990 <_ZL23__gxx_exception_cleanup19_Unwind_Reason_CodeP17_Unwind_Exception+0x38>
   41980:	dfc00117 	ldw	ra,4(sp)
   41984:	dc000017 	ldw	r16,0(sp)
   41988:	dec00204 	addi	sp,sp,8
   4198c:	f800283a 	ret
   41990:	28bff617 	ldw	r2,-40(r5)
   41994:	2c000504 	addi	r16,r5,20
   41998:	10000226 	beq	r2,zero,419a4 <_ZL23__gxx_exception_cleanup19_Unwind_Reason_CodeP17_Unwind_Exception+0x4c>
   4199c:	8009883a 	mov	r4,r16
   419a0:	103ee83a 	callr	r2
   419a4:	8009883a 	mov	r4,r16
   419a8:	dfc00117 	ldw	ra,4(sp)
   419ac:	dc000017 	ldw	r16,0(sp)
   419b0:	dec00204 	addi	sp,sp,8
   419b4:	0041de41 	jmpi	41de4 <__cxa_free_exception>
   419b8:	293ff817 	ldw	r4,-32(r5)
   419bc:	00417f40 	call	417f4 <_ZN10__cxxabiv111__terminateEPFvvE>

000419c0 <__cxa_init_primary_exception>:
   419c0:	defffe04 	addi	sp,sp,-8
   419c4:	dfc00115 	stw	ra,4(sp)
   419c8:	dc000015 	stw	r16,0(sp)
   419cc:	217ff015 	stw	r5,-64(r4)
   419d0:	21bff115 	stw	r6,-60(r4)
   419d4:	203fef15 	stw	zero,-68(r4)
   419d8:	2021883a 	mov	r16,r4
   419dc:	004194c0 	call	4194c <_ZSt14get_unexpectedv>
   419e0:	80bff215 	stw	r2,-56(r16)
   419e4:	004191c0 	call	4191c <_ZSt13get_terminatev>
   419e8:	0150caf4 	movhi	r5,17195
   419ec:	0111d3b4 	movhi	r4,18254
   419f0:	00c00134 	movhi	r3,4
   419f4:	294ac004 	addi	r5,r5,11008
   419f8:	211550c4 	addi	r4,r4,21827
   419fc:	18c65604 	addi	r3,r3,6488
   41a00:	80bff315 	stw	r2,-52(r16)
   41a04:	80bfef04 	addi	r2,r16,-68
   41a08:	817ffb15 	stw	r5,-20(r16)
   41a0c:	813ffc15 	stw	r4,-16(r16)
   41a10:	80fffd15 	stw	r3,-12(r16)
   41a14:	dfc00117 	ldw	ra,4(sp)
   41a18:	dc000017 	ldw	r16,0(sp)
   41a1c:	dec00204 	addi	sp,sp,8
   41a20:	f800283a 	ret

00041a24 <__cxa_throw>:
   41a24:	defffb04 	addi	sp,sp,-20
   41a28:	dfc00415 	stw	ra,16(sp)
   41a2c:	dcc00315 	stw	r19,12(sp)
   41a30:	dc800215 	stw	r18,8(sp)
   41a34:	dc400115 	stw	r17,4(sp)
   41a38:	2825883a 	mov	r18,r5
   41a3c:	3023883a 	mov	r17,r6
   41a40:	dc000015 	stw	r16,0(sp)
   41a44:	2021883a 	mov	r16,r4
   41a48:	00421440 	call	42144 <__cxa_get_globals>
   41a4c:	10c00117 	ldw	r3,4(r2)
   41a50:	84fffb04 	addi	r19,r16,-20
   41a54:	18c00044 	addi	r3,r3,1
   41a58:	10c00115 	stw	r3,4(r2)
   41a5c:	803fef15 	stw	zero,-68(r16)
   41a60:	84bff015 	stw	r18,-64(r16)
   41a64:	847ff115 	stw	r17,-60(r16)
   41a68:	004194c0 	call	4194c <_ZSt14get_unexpectedv>
   41a6c:	80bff215 	stw	r2,-56(r16)
   41a70:	004191c0 	call	4191c <_ZSt13get_terminatev>
   41a74:	0190caf4 	movhi	r6,17195
   41a78:	0151d3b4 	movhi	r5,18254
   41a7c:	00c00134 	movhi	r3,4
   41a80:	318ac004 	addi	r6,r6,11008
   41a84:	295550c4 	addi	r5,r5,21827
   41a88:	18c65604 	addi	r3,r3,6488
   41a8c:	80bff315 	stw	r2,-52(r16)
   41a90:	00800044 	movi	r2,1
   41a94:	81bffb15 	stw	r6,-20(r16)
   41a98:	817ffc15 	stw	r5,-16(r16)
   41a9c:	80fffd15 	stw	r3,-12(r16)
   41aa0:	9809883a 	mov	r4,r19
   41aa4:	80bfef15 	stw	r2,-68(r16)
   41aa8:	0042e280 	call	42e28 <_Unwind_SjLj_RaiseException>
   41aac:	9809883a 	mov	r4,r19
   41ab0:	0041f400 	call	41f40 <__cxa_begin_catch>
   41ab4:	00418c00 	call	418c0 <_ZSt9terminatev>

00041ab8 <__cxa_rethrow>:
   41ab8:	defffe04 	addi	sp,sp,-8
   41abc:	dfc00115 	stw	ra,4(sp)
   41ac0:	dc000015 	stw	r16,0(sp)
   41ac4:	00421440 	call	42144 <__cxa_get_globals>
   41ac8:	10c00117 	ldw	r3,4(r2)
   41acc:	11000017 	ldw	r4,0(r2)
   41ad0:	18c00044 	addi	r3,r3,1
   41ad4:	10c00115 	stw	r3,4(r2)
   41ad8:	20001126 	beq	r4,zero,41b20 <__cxa_rethrow+0x68>
   41adc:	20c00b17 	ldw	r3,44(r4)
   41ae0:	21800c17 	ldw	r6,48(r4)
   41ae4:	016f3574 	movhi	r5,48341
   41ae8:	29754004 	addi	r5,r5,-11008
   41aec:	01ee2cb4 	movhi	r7,47282
   41af0:	39eaaf04 	addi	r7,r7,-21828
   41af4:	194b883a 	add	r5,r3,r5
   41af8:	28c7803a 	cmpltu	r3,r5,r3
   41afc:	31cd883a 	add	r6,r6,r7
   41b00:	1987883a 	add	r3,r3,r6
   41b04:	18000726 	beq	r3,zero,41b24 <__cxa_rethrow+0x6c>
   41b08:	10000015 	stw	zero,0(r2)
   41b0c:	24000b04 	addi	r16,r4,44
   41b10:	8009883a 	mov	r4,r16
   41b14:	0042f780 	call	42f78 <_Unwind_SjLj_Resume_or_Rethrow>
   41b18:	8009883a 	mov	r4,r16
   41b1c:	0041f400 	call	41f40 <__cxa_begin_catch>
   41b20:	00418c00 	call	418c0 <_ZSt9terminatev>
   41b24:	294000a8 	cmpgeui	r5,r5,2
   41b28:	283ff71e 	bne	r5,zero,41b08 <__cxa_rethrow+0x50>
   41b2c:	20800517 	ldw	r2,20(r4)
   41b30:	0085c83a 	sub	r2,zero,r2
   41b34:	20800515 	stw	r2,20(r4)
   41b38:	003ff406 	br	41b0c <__cxa_rethrow+0x54>

00041b3c <_Znwj>:
   41b3c:	defffe04 	addi	sp,sp,-8
   41b40:	dc000015 	stw	r16,0(sp)
   41b44:	dfc00115 	stw	ra,4(sp)
   41b48:	2021883a 	mov	r16,r4
   41b4c:	2000011e 	bne	r4,zero,41b54 <_Znwj+0x18>
   41b50:	04000044 	movi	r16,1
   41b54:	8009883a 	mov	r4,r16
   41b58:	00430d00 	call	430d0 <malloc>
   41b5c:	10000426 	beq	r2,zero,41b70 <_Znwj+0x34>
   41b60:	dfc00117 	ldw	ra,4(sp)
   41b64:	dc000017 	ldw	r16,0(sp)
   41b68:	dec00204 	addi	sp,sp,8
   41b6c:	f800283a 	ret
   41b70:	00421640 	call	42164 <_ZSt15get_new_handlerv>
   41b74:	10000226 	beq	r2,zero,41b80 <_Znwj+0x44>
   41b78:	103ee83a 	callr	r2
   41b7c:	003ff506 	br	41b54 <_Znwj+0x18>
   41b80:	01000104 	movi	r4,4
   41b84:	0041d8c0 	call	41d8c <__cxa_allocate_exception>
   41b88:	1009883a 	mov	r4,r2
   41b8c:	00800174 	movhi	r2,5
   41b90:	01800134 	movhi	r6,4
   41b94:	01400174 	movhi	r5,5
   41b98:	108c7e04 	addi	r2,r2,12792
   41b9c:	3186ee04 	addi	r6,r6,7096
   41ba0:	294c7904 	addi	r5,r5,12772
   41ba4:	20800015 	stw	r2,0(r4)
   41ba8:	0041a240 	call	41a24 <__cxa_throw>

00041bac <_ZNKSt9bad_alloc4whatEv>:
   41bac:	00800174 	movhi	r2,5
   41bb0:	108c7104 	addi	r2,r2,12740
   41bb4:	f800283a 	ret

00041bb8 <_ZNSt9bad_allocD1Ev>:
   41bb8:	00800174 	movhi	r2,5
   41bbc:	108c7e04 	addi	r2,r2,12792
   41bc0:	20800015 	stw	r2,0(r4)
   41bc4:	00420e81 	jmpi	420e8 <_ZNSt9exceptionD1Ev>

00041bc8 <_ZNSt9bad_allocD0Ev>:
   41bc8:	defffe04 	addi	sp,sp,-8
   41bcc:	00800174 	movhi	r2,5
   41bd0:	dc000015 	stw	r16,0(sp)
   41bd4:	dfc00115 	stw	ra,4(sp)
   41bd8:	108c7e04 	addi	r2,r2,12792
   41bdc:	20800015 	stw	r2,0(r4)
   41be0:	2021883a 	mov	r16,r4
   41be4:	00420e80 	call	420e8 <_ZNSt9exceptionD1Ev>
   41be8:	01400104 	movi	r5,4
   41bec:	8009883a 	mov	r4,r16
   41bf0:	dfc00117 	ldw	ra,4(sp)
   41bf4:	dc000017 	ldw	r16,0(sp)
   41bf8:	dec00204 	addi	sp,sp,8
   41bfc:	0040b1c1 	jmpi	40b1c <_ZdlPvj>

00041c00 <_ZdlPv>:
   41c00:	00430e01 	jmpi	430e0 <free>

00041c04 <_ZN12_GLOBAL__N_14pool4freeEPv.constprop.0>:
   41c04:	01400174 	movhi	r5,5
   41c08:	295ca004 	addi	r5,r5,29312
   41c0c:	28c00117 	ldw	r3,4(r5)
   41c10:	223fff04 	addi	r8,r4,-4
   41c14:	18001a26 	beq	r3,zero,41c80 <_ZN12_GLOBAL__N_14pool4freeEPv.constprop.0+0x7c>
   41c18:	227fff17 	ldw	r9,-4(r4)
   41c1c:	424d883a 	add	r6,r8,r9
   41c20:	30c01736 	bltu	r6,r3,41c80 <_ZN12_GLOBAL__N_14pool4freeEPv.constprop.0+0x7c>
   41c24:	18800117 	ldw	r2,4(r3)
   41c28:	19802326 	beq	r3,r6,41cb8 <_ZN12_GLOBAL__N_14pool4freeEPv.constprop.0+0xb4>
   41c2c:	01c00174 	movhi	r7,5
   41c30:	39dca104 	addi	r7,r7,29316
   41c34:	10000726 	beq	r2,zero,41c54 <_ZN12_GLOBAL__N_14pool4freeEPv.constprop.0+0x50>
   41c38:	3080062e 	bgeu	r6,r2,41c54 <_ZN12_GLOBAL__N_14pool4freeEPv.constprop.0+0x50>
   41c3c:	11400117 	ldw	r5,4(r2)
   41c40:	19c00104 	addi	r7,r3,4
   41c44:	1007883a 	mov	r3,r2
   41c48:	28001826 	beq	r5,zero,41cac <_ZN12_GLOBAL__N_14pool4freeEPv.constprop.0+0xa8>
   41c4c:	2805883a 	mov	r2,r5
   41c50:	30bffa36 	bltu	r6,r2,41c3c <_ZN12_GLOBAL__N_14pool4freeEPv.constprop.0+0x38>
   41c54:	30801026 	beq	r6,r2,41c98 <_ZN12_GLOBAL__N_14pool4freeEPv.constprop.0+0x94>
   41c58:	38800017 	ldw	r2,0(r7)
   41c5c:	10c00017 	ldw	r3,0(r2)
   41c60:	10cb883a 	add	r5,r2,r3
   41c64:	41400926 	beq	r8,r5,41c8c <_ZN12_GLOBAL__N_14pool4freeEPv.constprop.0+0x88>
   41c68:	10800117 	ldw	r2,4(r2)
   41c6c:	227fff15 	stw	r9,-4(r4)
   41c70:	20800015 	stw	r2,0(r4)
   41c74:	38800017 	ldw	r2,0(r7)
   41c78:	12000115 	stw	r8,4(r2)
   41c7c:	f800283a 	ret
   41c80:	20c00015 	stw	r3,0(r4)
   41c84:	2a000115 	stw	r8,4(r5)
   41c88:	f800283a 	ret
   41c8c:	1a53883a 	add	r9,r3,r9
   41c90:	12400015 	stw	r9,0(r2)
   41c94:	f800283a 	ret
   41c98:	31400017 	ldw	r5,0(r6)
   41c9c:	30800117 	ldw	r2,4(r6)
   41ca0:	4953883a 	add	r9,r9,r5
   41ca4:	18800115 	stw	r2,4(r3)
   41ca8:	003feb06 	br	41c58 <_ZN12_GLOBAL__N_14pool4freeEPv.constprop.0+0x54>
   41cac:	0005883a 	mov	r2,zero
   41cb0:	30bfe91e 	bne	r6,r2,41c58 <_ZN12_GLOBAL__N_14pool4freeEPv.constprop.0+0x54>
   41cb4:	003ff806 	br	41c98 <_ZN12_GLOBAL__N_14pool4freeEPv.constprop.0+0x94>
   41cb8:	18c00017 	ldw	r3,0(r3)
   41cbc:	20800015 	stw	r2,0(r4)
   41cc0:	1a53883a 	add	r9,r3,r9
   41cc4:	227fff15 	stw	r9,-4(r4)
   41cc8:	2a000115 	stw	r8,4(r5)
   41ccc:	f800283a 	ret

00041cd0 <_ZN12_GLOBAL__N_14pool8allocateEj.constprop.0>:
   41cd0:	21000104 	addi	r4,r4,4
   41cd4:	20800228 	cmpgeui	r2,r4,8
   41cd8:	1000011e 	bne	r2,zero,41ce0 <_ZN12_GLOBAL__N_14pool8allocateEj.constprop.0+0x10>
   41cdc:	01000204 	movi	r4,8
   41ce0:	00800174 	movhi	r2,5
   41ce4:	109ca117 	ldw	r2,29316(r2)
   41ce8:	210000c4 	addi	r4,r4,3
   41cec:	017fff04 	movi	r5,-4
   41cf0:	214a703a 	and	r5,r4,r5
   41cf4:	10000f26 	beq	r2,zero,41d34 <_ZN12_GLOBAL__N_14pool8allocateEj.constprop.0+0x64>
   41cf8:	01800174 	movhi	r6,5
   41cfc:	319ca104 	addi	r6,r6,29316
   41d00:	00000206 	br	41d0c <_ZN12_GLOBAL__N_14pool8allocateEj.constprop.0+0x3c>
   41d04:	21800104 	addi	r6,r4,4
   41d08:	10001326 	beq	r2,zero,41d58 <_ZN12_GLOBAL__N_14pool8allocateEj.constprop.0+0x88>
   41d0c:	10c00017 	ldw	r3,0(r2)
   41d10:	1009883a 	mov	r4,r2
   41d14:	10800117 	ldw	r2,4(r2)
   41d18:	197ffa36 	bltu	r3,r5,41d04 <_ZN12_GLOBAL__N_14pool8allocateEj.constprop.0+0x34>
   41d1c:	1947c83a 	sub	r3,r3,r5
   41d20:	19c00228 	cmpgeui	r7,r3,8
   41d24:	3800041e 	bne	r7,zero,41d38 <_ZN12_GLOBAL__N_14pool8allocateEj.constprop.0+0x68>
   41d28:	30800015 	stw	r2,0(r6)
   41d2c:	20800104 	addi	r2,r4,4
   41d30:	f800283a 	ret
   41d34:	f800283a 	ret
   41d38:	214f883a 	add	r7,r4,r5
   41d3c:	38800115 	stw	r2,4(r7)
   41d40:	31000017 	ldw	r4,0(r6)
   41d44:	38c00015 	stw	r3,0(r7)
   41d48:	21400015 	stw	r5,0(r4)
   41d4c:	31c00015 	stw	r7,0(r6)
   41d50:	20800104 	addi	r2,r4,4
   41d54:	f800283a 	ret
   41d58:	f800283a 	ret

00041d5c <_ZN9__gnu_cxx9__freeresEv>:
   41d5c:	00800174 	movhi	r2,5
   41d60:	111ca217 	ldw	r4,29320(r2)
   41d64:	20000826 	beq	r4,zero,41d88 <_ZN9__gnu_cxx9__freeresEv+0x2c>
   41d68:	deffff04 	addi	sp,sp,-4
   41d6c:	dfc00015 	stw	ra,0(sp)
   41d70:	00430e00 	call	430e0 <free>
   41d74:	00800174 	movhi	r2,5
   41d78:	101ca215 	stw	zero,29320(r2)
   41d7c:	dfc00017 	ldw	ra,0(sp)
   41d80:	dec00104 	addi	sp,sp,4
   41d84:	f800283a 	ret
   41d88:	f800283a 	ret

00041d8c <__cxa_allocate_exception>:
   41d8c:	defffe04 	addi	sp,sp,-8
   41d90:	dc000015 	stw	r16,0(sp)
   41d94:	24001104 	addi	r16,r4,68
   41d98:	8009883a 	mov	r4,r16
   41d9c:	dfc00115 	stw	ra,4(sp)
   41da0:	00430d00 	call	430d0 <malloc>
   41da4:	1007883a 	mov	r3,r2
   41da8:	10000926 	beq	r2,zero,41dd0 <__cxa_allocate_exception+0x44>
   41dac:	01801104 	movi	r6,68
   41db0:	000b883a 	mov	r5,zero
   41db4:	1809883a 	mov	r4,r3
   41db8:	00438d00 	call	438d0 <memset>
   41dbc:	10801104 	addi	r2,r2,68
   41dc0:	dfc00117 	ldw	ra,4(sp)
   41dc4:	dc000017 	ldw	r16,0(sp)
   41dc8:	dec00204 	addi	sp,sp,8
   41dcc:	f800283a 	ret
   41dd0:	8009883a 	mov	r4,r16
   41dd4:	0041cd00 	call	41cd0 <_ZN12_GLOBAL__N_14pool8allocateEj.constprop.0>
   41dd8:	1007883a 	mov	r3,r2
   41ddc:	103ff31e 	bne	r2,zero,41dac <__cxa_allocate_exception+0x20>
   41de0:	00418c00 	call	418c0 <_ZSt9terminatev>

00041de4 <__cxa_free_exception>:
   41de4:	00800174 	movhi	r2,5
   41de8:	109ca004 	addi	r2,r2,29312
   41dec:	10c00217 	ldw	r3,8(r2)
   41df0:	213fef04 	addi	r4,r4,-68
   41df4:	1900042e 	bgeu	r3,r4,41e08 <__cxa_free_exception+0x24>
   41df8:	10800317 	ldw	r2,12(r2)
   41dfc:	1887883a 	add	r3,r3,r2
   41e00:	20c0012e 	bgeu	r4,r3,41e08 <__cxa_free_exception+0x24>
   41e04:	0041c041 	jmpi	41c04 <_ZN12_GLOBAL__N_14pool4freeEPv.constprop.0>
   41e08:	00430e01 	jmpi	430e0 <free>

00041e0c <__cxa_allocate_dependent_exception>:
   41e0c:	deffff04 	addi	sp,sp,-4
   41e10:	01001004 	movi	r4,64
   41e14:	dfc00015 	stw	ra,0(sp)
   41e18:	00430d00 	call	430d0 <malloc>
   41e1c:	1009883a 	mov	r4,r2
   41e20:	10000626 	beq	r2,zero,41e3c <__cxa_allocate_dependent_exception+0x30>
   41e24:	01801004 	movi	r6,64
   41e28:	000b883a 	mov	r5,zero
   41e2c:	00438d00 	call	438d0 <memset>
   41e30:	dfc00017 	ldw	ra,0(sp)
   41e34:	dec00104 	addi	sp,sp,4
   41e38:	f800283a 	ret
   41e3c:	01001004 	movi	r4,64
   41e40:	0041cd00 	call	41cd0 <_ZN12_GLOBAL__N_14pool8allocateEj.constprop.0>
   41e44:	1009883a 	mov	r4,r2
   41e48:	103ff61e 	bne	r2,zero,41e24 <__cxa_allocate_dependent_exception+0x18>
   41e4c:	00418c00 	call	418c0 <_ZSt9terminatev>

00041e50 <__cxa_free_dependent_exception>:
   41e50:	00c00174 	movhi	r3,5
   41e54:	18dca004 	addi	r3,r3,29312
   41e58:	19400217 	ldw	r5,8(r3)
   41e5c:	2005883a 	mov	r2,r4
   41e60:	2900042e 	bgeu	r5,r4,41e74 <__cxa_free_dependent_exception+0x24>
   41e64:	18c00317 	ldw	r3,12(r3)
   41e68:	28cb883a 	add	r5,r5,r3
   41e6c:	2140012e 	bgeu	r4,r5,41e74 <__cxa_free_dependent_exception+0x24>
   41e70:	0041c041 	jmpi	41c04 <_ZN12_GLOBAL__N_14pool4freeEPv.constprop.0>
   41e74:	1009883a 	mov	r4,r2
   41e78:	00430e01 	jmpi	430e0 <free>

00041e7c <_GLOBAL__sub_I__ZN9__gnu_cxx9__freeresEv>:
   41e7c:	defffd04 	addi	sp,sp,-12
   41e80:	dc000015 	stw	r16,0(sp)
   41e84:	04000174 	movhi	r16,5
   41e88:	dc400115 	stw	r17,4(sp)
   41e8c:	841ca004 	addi	r16,r16,29312
   41e90:	04424004 	movi	r17,2304
   41e94:	01024004 	movi	r4,2304
   41e98:	dfc00215 	stw	ra,8(sp)
   41e9c:	84400315 	stw	r17,12(r16)
   41ea0:	00430d00 	call	430d0 <malloc>
   41ea4:	80800215 	stw	r2,8(r16)
   41ea8:	10000826 	beq	r2,zero,41ecc <_GLOBAL__sub_I__ZN9__gnu_cxx9__freeresEv+0x50>
   41eac:	80800115 	stw	r2,4(r16)
   41eb0:	14400015 	stw	r17,0(r2)
   41eb4:	10000115 	stw	zero,4(r2)
   41eb8:	dfc00217 	ldw	ra,8(sp)
   41ebc:	dc400117 	ldw	r17,4(sp)
   41ec0:	dc000017 	ldw	r16,0(sp)
   41ec4:	dec00304 	addi	sp,sp,12
   41ec8:	f800283a 	ret
   41ecc:	00800174 	movhi	r2,5
   41ed0:	101ca315 	stw	zero,29324(r2)
   41ed4:	00800174 	movhi	r2,5
   41ed8:	101ca115 	stw	zero,29316(r2)
   41edc:	003ff606 	br	41eb8 <_GLOBAL__sub_I__ZN9__gnu_cxx9__freeresEv+0x3c>

00041ee0 <__cxa_call_terminate>:
   41ee0:	defffe04 	addi	sp,sp,-8
   41ee4:	dfc00115 	stw	ra,4(sp)
   41ee8:	dc000015 	stw	r16,0(sp)
   41eec:	20000d26 	beq	r4,zero,41f24 <__cxa_call_terminate+0x44>
   41ef0:	2021883a 	mov	r16,r4
   41ef4:	0041f400 	call	41f40 <__cxa_begin_catch>
   41ef8:	80800017 	ldw	r2,0(r16)
   41efc:	81000117 	ldw	r4,4(r16)
   41f00:	00ef3574 	movhi	r3,48341
   41f04:	18f54004 	addi	r3,r3,-11008
   41f08:	016e2cb4 	movhi	r5,47282
   41f0c:	296aaf04 	addi	r5,r5,-21828
   41f10:	10c7883a 	add	r3,r2,r3
   41f14:	1885803a 	cmpltu	r2,r3,r2
   41f18:	2149883a 	add	r4,r4,r5
   41f1c:	1105883a 	add	r2,r2,r4
   41f20:	10000126 	beq	r2,zero,41f28 <__cxa_call_terminate+0x48>
   41f24:	00418c00 	call	418c0 <_ZSt9terminatev>
   41f28:	18c000a8 	cmpgeui	r3,r3,2
   41f2c:	183ffd1e 	bne	r3,zero,41f24 <__cxa_call_terminate+0x44>
   41f30:	813ff817 	ldw	r4,-32(r16)
   41f34:	00417f40 	call	417f4 <_ZN10__cxxabiv111__terminateEPFvvE>

00041f38 <__cxa_get_exception_ptr>:
   41f38:	20bfff17 	ldw	r2,-4(r4)
   41f3c:	f800283a 	ret

00041f40 <__cxa_begin_catch>:
   41f40:	defffe04 	addi	sp,sp,-8
   41f44:	dc000015 	stw	r16,0(sp)
   41f48:	dfc00115 	stw	ra,4(sp)
   41f4c:	2021883a 	mov	r16,r4
   41f50:	00421440 	call	42144 <__cxa_get_globals>
   41f54:	80c00017 	ldw	r3,0(r16)
   41f58:	81800117 	ldw	r6,4(r16)
   41f5c:	012f3574 	movhi	r4,48341
   41f60:	21354004 	addi	r4,r4,-11008
   41f64:	016e2cb4 	movhi	r5,47282
   41f68:	296aaf04 	addi	r5,r5,-21828
   41f6c:	1909883a 	add	r4,r3,r4
   41f70:	314d883a 	add	r6,r6,r5
   41f74:	20c7803a 	cmpltu	r3,r4,r3
   41f78:	1987883a 	add	r3,r3,r6
   41f7c:	100b883a 	mov	r5,r2
   41f80:	81bff504 	addi	r6,r16,-44
   41f84:	10800017 	ldw	r2,0(r2)
   41f88:	18000626 	beq	r3,zero,41fa4 <__cxa_begin_catch+0x64>
   41f8c:	1000191e 	bne	r2,zero,41ff4 <__cxa_begin_catch+0xb4>
   41f90:	29800015 	stw	r6,0(r5)
   41f94:	dfc00117 	ldw	ra,4(sp)
   41f98:	dc000017 	ldw	r16,0(sp)
   41f9c:	dec00204 	addi	sp,sp,8
   41fa0:	f800283a 	ret
   41fa4:	210000a8 	cmpgeui	r4,r4,2
   41fa8:	203ff81e 	bne	r4,zero,41f8c <__cxa_begin_catch+0x4c>
   41fac:	80fffa17 	ldw	r3,-24(r16)
   41fb0:	18000d16 	blt	r3,zero,41fe8 <__cxa_begin_catch+0xa8>
   41fb4:	18c00044 	addi	r3,r3,1
   41fb8:	29000117 	ldw	r4,4(r5)
   41fbc:	80fffa15 	stw	r3,-24(r16)
   41fc0:	20ffffc4 	addi	r3,r4,-1
   41fc4:	28c00115 	stw	r3,4(r5)
   41fc8:	11800226 	beq	r2,r6,41fd4 <__cxa_begin_catch+0x94>
   41fcc:	80bff915 	stw	r2,-28(r16)
   41fd0:	29800015 	stw	r6,0(r5)
   41fd4:	80bfff17 	ldw	r2,-4(r16)
   41fd8:	dfc00117 	ldw	ra,4(sp)
   41fdc:	dc000017 	ldw	r16,0(sp)
   41fe0:	dec00204 	addi	sp,sp,8
   41fe4:	f800283a 	ret
   41fe8:	01000044 	movi	r4,1
   41fec:	20c7c83a 	sub	r3,r4,r3
   41ff0:	003ff106 	br	41fb8 <__cxa_begin_catch+0x78>
   41ff4:	00418c00 	call	418c0 <_ZSt9terminatev>

00041ff8 <__cxa_end_catch>:
   41ff8:	deffff04 	addi	sp,sp,-4
   41ffc:	dfc00015 	stw	ra,0(sp)
   42000:	00421380 	call	42138 <__cxa_get_globals_fast>
   42004:	11000017 	ldw	r4,0(r2)
   42008:	20001426 	beq	r4,zero,4205c <__cxa_end_catch+0x64>
   4200c:	20c00b17 	ldw	r3,44(r4)
   42010:	21800c17 	ldw	r6,48(r4)
   42014:	016f3574 	movhi	r5,48341
   42018:	29754004 	addi	r5,r5,-11008
   4201c:	01ee2cb4 	movhi	r7,47282
   42020:	39eaaf04 	addi	r7,r7,-21828
   42024:	194b883a 	add	r5,r3,r5
   42028:	28c7803a 	cmpltu	r3,r5,r3
   4202c:	31cd883a 	add	r6,r6,r7
   42030:	1987883a 	add	r3,r3,r6
   42034:	1800111e 	bne	r3,zero,4207c <__cxa_end_catch+0x84>
   42038:	294000a8 	cmpgeui	r5,r5,2
   4203c:	28000f1e 	bne	r5,zero,4207c <__cxa_end_catch+0x84>
   42040:	20c00517 	ldw	r3,20(r4)
   42044:	18000816 	blt	r3,zero,42068 <__cxa_end_catch+0x70>
   42048:	18ffffc4 	addi	r3,r3,-1
   4204c:	18001026 	beq	r3,zero,42090 <__cxa_end_catch+0x98>
   42050:	18bfffd8 	cmpnei	r2,r3,-1
   42054:	10001426 	beq	r2,zero,420a8 <__cxa_end_catch+0xb0>
   42058:	20c00515 	stw	r3,20(r4)
   4205c:	dfc00017 	ldw	ra,0(sp)
   42060:	dec00104 	addi	sp,sp,4
   42064:	f800283a 	ret
   42068:	18c00044 	addi	r3,r3,1
   4206c:	183ffa1e 	bne	r3,zero,42058 <__cxa_end_catch+0x60>
   42070:	21400417 	ldw	r5,16(r4)
   42074:	11400015 	stw	r5,0(r2)
   42078:	003ff706 	br	42058 <__cxa_end_catch+0x60>
   4207c:	21000b04 	addi	r4,r4,44
   42080:	10000015 	stw	zero,0(r2)
   42084:	dfc00017 	ldw	ra,0(sp)
   42088:	dec00104 	addi	sp,sp,4
   4208c:	0042fc41 	jmpi	42fc4 <_Unwind_DeleteException>
   42090:	20c00417 	ldw	r3,16(r4)
   42094:	21000b04 	addi	r4,r4,44
   42098:	10c00015 	stw	r3,0(r2)
   4209c:	dfc00017 	ldw	ra,0(sp)
   420a0:	dec00104 	addi	sp,sp,4
   420a4:	0042fc41 	jmpi	42fc4 <_Unwind_DeleteException>
   420a8:	00418c00 	call	418c0 <_ZSt9terminatev>

000420ac <_ZSt18uncaught_exceptionv>:
   420ac:	deffff04 	addi	sp,sp,-4
   420b0:	dfc00015 	stw	ra,0(sp)
   420b4:	00421440 	call	42144 <__cxa_get_globals>
   420b8:	10800117 	ldw	r2,4(r2)
   420bc:	1004c03a 	cmpne	r2,r2,zero
   420c0:	dfc00017 	ldw	ra,0(sp)
   420c4:	dec00104 	addi	sp,sp,4
   420c8:	f800283a 	ret

000420cc <_ZSt19uncaught_exceptionsv>:
   420cc:	deffff04 	addi	sp,sp,-4
   420d0:	dfc00015 	stw	ra,0(sp)
   420d4:	00421440 	call	42144 <__cxa_get_globals>
   420d8:	10800117 	ldw	r2,4(r2)
   420dc:	dfc00017 	ldw	ra,0(sp)
   420e0:	dec00104 	addi	sp,sp,4
   420e4:	f800283a 	ret

000420e8 <_ZNSt9exceptionD1Ev>:
   420e8:	f800283a 	ret

000420ec <_ZNSt13bad_exceptionD1Ev>:
   420ec:	f800283a 	ret

000420f0 <_ZGTtNKSt9exception4whatEv>:
   420f0:	00800174 	movhi	r2,5
   420f4:	108c8104 	addi	r2,r2,12804
   420f8:	f800283a 	ret

000420fc <_ZGTtNKSt13bad_exception4whatEv>:
   420fc:	00800174 	movhi	r2,5
   42100:	108c8504 	addi	r2,r2,12820
   42104:	f800283a 	ret

00042108 <_ZNSt9exceptionD0Ev>:
   42108:	01400104 	movi	r5,4
   4210c:	0040b1c1 	jmpi	40b1c <_ZdlPvj>

00042110 <_ZNSt13bad_exceptionD0Ev>:
   42110:	01400104 	movi	r5,4
   42114:	0040b1c1 	jmpi	40b1c <_ZdlPvj>

00042118 <_ZN10__cxxabiv115__forced_unwindD1Ev>:
   42118:	f800283a 	ret

0004211c <_ZN10__cxxabiv115__forced_unwindD0Ev>:
   4211c:	01400104 	movi	r5,4
   42120:	0040b1c1 	jmpi	40b1c <_ZdlPvj>

00042124 <_ZN10__cxxabiv119__foreign_exceptionD1Ev>:
   42124:	f800283a 	ret

00042128 <_ZN10__cxxabiv119__foreign_exceptionD0Ev>:
   42128:	01400104 	movi	r5,4
   4212c:	0040b1c1 	jmpi	40b1c <_ZdlPvj>

00042130 <_ZGTtNKSt9exceptionD1Ev>:
   42130:	f800283a 	ret

00042134 <_ZGTtNKSt13bad_exceptionD1Ev>:
   42134:	f800283a 	ret

00042138 <__cxa_get_globals_fast>:
   42138:	00800174 	movhi	r2,5
   4213c:	109c9004 	addi	r2,r2,29248
   42140:	f800283a 	ret

00042144 <__cxa_get_globals>:
   42144:	00800174 	movhi	r2,5
   42148:	109c9004 	addi	r2,r2,29248
   4214c:	f800283a 	ret

00042150 <_ZSt15set_new_handlerPFvvE>:
   42150:	00c00174 	movhi	r3,5
   42154:	00800174 	movhi	r2,5
   42158:	109c9217 	ldw	r2,29256(r2)
   4215c:	191c9215 	stw	r4,29256(r3)
   42160:	f800283a 	ret

00042164 <_ZSt15get_new_handlerv>:
   42164:	00800174 	movhi	r2,5
   42168:	109c9217 	ldw	r2,29256(r2)
   4216c:	f800283a 	ret

00042170 <__cxa_pure_virtual>:
   42170:	deffff04 	addi	sp,sp,-4
   42174:	dfc00015 	stw	ra,0(sp)
   42178:	00418c00 	call	418c0 <_ZSt9terminatev>

0004217c <__cxa_deleted_virtual>:
   4217c:	deffff04 	addi	sp,sp,-4
   42180:	dfc00015 	stw	ra,0(sp)
   42184:	00418c00 	call	418c0 <_ZSt9terminatev>

00042188 <_ZN10__cxxabiv120__si_class_type_infoD1Ev>:
   42188:	00800174 	movhi	r2,5
   4218c:	108cca04 	addi	r2,r2,13096
   42190:	20800015 	stw	r2,0(r4)
   42194:	00425401 	jmpi	42540 <_ZN10__cxxabiv117__class_type_infoD1Ev>

00042198 <_ZN10__cxxabiv120__si_class_type_infoD0Ev>:
   42198:	defffe04 	addi	sp,sp,-8
   4219c:	00800174 	movhi	r2,5
   421a0:	dc000015 	stw	r16,0(sp)
   421a4:	dfc00115 	stw	ra,4(sp)
   421a8:	108cca04 	addi	r2,r2,13096
   421ac:	20800015 	stw	r2,0(r4)
   421b0:	2021883a 	mov	r16,r4
   421b4:	00425400 	call	42540 <_ZN10__cxxabiv117__class_type_infoD1Ev>
   421b8:	01400304 	movi	r5,12
   421bc:	8009883a 	mov	r4,r16
   421c0:	dfc00117 	ldw	ra,4(sp)
   421c4:	dc000017 	ldw	r16,0(sp)
   421c8:	dec00204 	addi	sp,sp,8
   421cc:	0040b1c1 	jmpi	40b1c <_ZdlPvj>

000421d0 <_ZNK10__cxxabiv120__si_class_type_info20__do_find_public_srcEiPKvPKNS_17__class_type_infoES2_>:
   421d0:	defffa04 	addi	sp,sp,-24
   421d4:	dc800415 	stw	r18,16(sp)
   421d8:	dc800617 	ldw	r18,24(sp)
   421dc:	dc400315 	stw	r17,12(sp)
   421e0:	dc000215 	stw	r16,8(sp)
   421e4:	dfc00515 	stw	ra,20(sp)
   421e8:	2021883a 	mov	r16,r4
   421ec:	2823883a 	mov	r17,r5
   421f0:	91800b26 	beq	r18,r6,42220 <_ZNK10__cxxabiv120__si_class_type_info20__do_find_public_srcEiPKvPKNS_17__class_type_infoES2_+0x50>
   421f4:	81000217 	ldw	r4,8(r16)
   421f8:	880b883a 	mov	r5,r17
   421fc:	20800017 	ldw	r2,0(r4)
   42200:	dc800615 	stw	r18,24(sp)
   42204:	10800817 	ldw	r2,32(r2)
   42208:	dfc00517 	ldw	ra,20(sp)
   4220c:	dc800417 	ldw	r18,16(sp)
   42210:	dc400317 	ldw	r17,12(sp)
   42214:	dc000217 	ldw	r16,8(sp)
   42218:	dec00604 	addi	sp,sp,24
   4221c:	1000683a 	jmp	r2
   42220:	21000117 	ldw	r4,4(r4)
   42224:	39400117 	ldw	r5,4(r7)
   42228:	21400926 	beq	r4,r5,42250 <_ZNK10__cxxabiv120__si_class_type_info20__do_find_public_srcEiPKvPKNS_17__class_type_infoES2_+0x80>
   4222c:	20800007 	ldb	r2,0(r4)
   42230:	10800aa0 	cmpeqi	r2,r2,42
   42234:	103fef1e 	bne	r2,zero,421f4 <_ZNK10__cxxabiv120__si_class_type_info20__do_find_public_srcEiPKvPKNS_17__class_type_infoES2_+0x24>
   42238:	d9c00115 	stw	r7,4(sp)
   4223c:	d9800015 	stw	r6,0(sp)
   42240:	0043ec00 	call	43ec0 <strcmp>
   42244:	d9800017 	ldw	r6,0(sp)
   42248:	d9c00117 	ldw	r7,4(sp)
   4224c:	103fe91e 	bne	r2,zero,421f4 <_ZNK10__cxxabiv120__si_class_type_info20__do_find_public_srcEiPKvPKNS_17__class_type_infoES2_+0x24>
   42250:	00800184 	movi	r2,6
   42254:	dfc00517 	ldw	ra,20(sp)
   42258:	dc800417 	ldw	r18,16(sp)
   4225c:	dc400317 	ldw	r17,12(sp)
   42260:	dc000217 	ldw	r16,8(sp)
   42264:	dec00604 	addi	sp,sp,24
   42268:	f800283a 	ret

0004226c <_ZNK10__cxxabiv120__si_class_type_info12__do_dyncastEiNS_17__class_type_info10__sub_kindEPKS1_PKvS4_S6_RNS1_16__dyncast_resultE>:
   4226c:	defff504 	addi	sp,sp,-44
   42270:	dcc00415 	stw	r19,16(sp)
   42274:	38800117 	ldw	r2,4(r7)
   42278:	24c00117 	ldw	r19,4(r4)
   4227c:	df000915 	stw	fp,36(sp)
   42280:	ddc00815 	stw	r23,32(sp)
   42284:	dd800715 	stw	r22,28(sp)
   42288:	dd400615 	stw	r21,24(sp)
   4228c:	dc000115 	stw	r16,4(sp)
   42290:	dfc00a15 	stw	ra,40(sp)
   42294:	dd000515 	stw	r20,20(sp)
   42298:	dc800315 	stw	r18,12(sp)
   4229c:	dc400215 	stw	r17,8(sp)
   422a0:	dd800b17 	ldw	r22,44(sp)
   422a4:	df000c17 	ldw	fp,48(sp)
   422a8:	ddc00d17 	ldw	r23,52(sp)
   422ac:	dd400e17 	ldw	r21,56(sp)
   422b0:	2821883a 	mov	r16,r5
   422b4:	98802126 	beq	r19,r2,4233c <_ZNK10__cxxabiv120__si_class_type_info12__do_dyncastEiNS_17__class_type_info10__sub_kindEPKS1_PKvS4_S6_RNS1_16__dyncast_resultE+0xd0>
   422b8:	9d000007 	ldb	r20,0(r19)
   422bc:	2025883a 	mov	r18,r4
   422c0:	3823883a 	mov	r17,r7
   422c4:	a0c00aa0 	cmpeqi	r3,r20,42
   422c8:	1800061e 	bne	r3,zero,422e4 <_ZNK10__cxxabiv120__si_class_type_info12__do_dyncastEiNS_17__class_type_info10__sub_kindEPKS1_PKvS4_S6_RNS1_16__dyncast_resultE+0x78>
   422cc:	100b883a 	mov	r5,r2
   422d0:	9809883a 	mov	r4,r19
   422d4:	d9800015 	stw	r6,0(sp)
   422d8:	0043ec00 	call	43ec0 <strcmp>
   422dc:	d9800017 	ldw	r6,0(sp)
   422e0:	10001626 	beq	r2,zero,4233c <_ZNK10__cxxabiv120__si_class_type_info12__do_dyncastEiNS_17__class_type_info10__sub_kindEPKS1_PKvS4_S6_RNS1_16__dyncast_resultE+0xd0>
   422e4:	b5c02c26 	beq	r22,r23,42398 <_ZNK10__cxxabiv120__si_class_type_info12__do_dyncastEiNS_17__class_type_info10__sub_kindEPKS1_PKvS4_S6_RNS1_16__dyncast_resultE+0x12c>
   422e8:	91000217 	ldw	r4,8(r18)
   422ec:	880f883a 	mov	r7,r17
   422f0:	800b883a 	mov	r5,r16
   422f4:	20800017 	ldw	r2,0(r4)
   422f8:	dd400e15 	stw	r21,56(sp)
   422fc:	ddc00d15 	stw	r23,52(sp)
   42300:	df000c15 	stw	fp,48(sp)
   42304:	dd800b15 	stw	r22,44(sp)
   42308:	10800717 	ldw	r2,28(r2)
   4230c:	dfc00a17 	ldw	ra,40(sp)
   42310:	df000917 	ldw	fp,36(sp)
   42314:	ddc00817 	ldw	r23,32(sp)
   42318:	dd800717 	ldw	r22,28(sp)
   4231c:	dd400617 	ldw	r21,24(sp)
   42320:	dd000517 	ldw	r20,20(sp)
   42324:	dcc00417 	ldw	r19,16(sp)
   42328:	dc800317 	ldw	r18,12(sp)
   4232c:	dc400217 	ldw	r17,8(sp)
   42330:	dc000117 	ldw	r16,4(sp)
   42334:	dec00b04 	addi	sp,sp,44
   42338:	1000683a 	jmp	r2
   4233c:	ad800015 	stw	r22,0(r21)
   42340:	a9800115 	stw	r6,4(r21)
   42344:	80001116 	blt	r16,zero,4238c <_ZNK10__cxxabiv120__si_class_type_info12__do_dyncastEiNS_17__class_type_info10__sub_kindEPKS1_PKvS4_S6_RNS1_16__dyncast_resultE+0x120>
   42348:	b421883a 	add	r16,r22,r16
   4234c:	bc001d26 	beq	r23,r16,423c4 <_ZNK10__cxxabiv120__si_class_type_info12__do_dyncastEiNS_17__class_type_info10__sub_kindEPKS1_PKvS4_S6_RNS1_16__dyncast_resultE+0x158>
   42350:	00800044 	movi	r2,1
   42354:	a8800315 	stw	r2,12(r21)
   42358:	0005883a 	mov	r2,zero
   4235c:	dfc00a17 	ldw	ra,40(sp)
   42360:	df000917 	ldw	fp,36(sp)
   42364:	ddc00817 	ldw	r23,32(sp)
   42368:	dd800717 	ldw	r22,28(sp)
   4236c:	dd400617 	ldw	r21,24(sp)
   42370:	dd000517 	ldw	r20,20(sp)
   42374:	dcc00417 	ldw	r19,16(sp)
   42378:	dc800317 	ldw	r18,12(sp)
   4237c:	dc400217 	ldw	r17,8(sp)
   42380:	dc000117 	ldw	r16,4(sp)
   42384:	dec00b04 	addi	sp,sp,44
   42388:	f800283a 	ret
   4238c:	843fff98 	cmpnei	r16,r16,-2
   42390:	803ff11e 	bne	r16,zero,42358 <_ZNK10__cxxabiv120__si_class_type_info12__do_dyncastEiNS_17__class_type_info10__sub_kindEPKS1_PKvS4_S6_RNS1_16__dyncast_resultE+0xec>
   42394:	003fee06 	br	42350 <_ZNK10__cxxabiv120__si_class_type_info12__do_dyncastEiNS_17__class_type_info10__sub_kindEPKS1_PKvS4_S6_RNS1_16__dyncast_resultE+0xe4>
   42398:	e1400117 	ldw	r5,4(fp)
   4239c:	99400726 	beq	r19,r5,423bc <_ZNK10__cxxabiv120__si_class_type_info12__do_dyncastEiNS_17__class_type_info10__sub_kindEPKS1_PKvS4_S6_RNS1_16__dyncast_resultE+0x150>
   423a0:	a5000aa0 	cmpeqi	r20,r20,42
   423a4:	a03fd01e 	bne	r20,zero,422e8 <_ZNK10__cxxabiv120__si_class_type_info12__do_dyncastEiNS_17__class_type_info10__sub_kindEPKS1_PKvS4_S6_RNS1_16__dyncast_resultE+0x7c>
   423a8:	9809883a 	mov	r4,r19
   423ac:	d9800015 	stw	r6,0(sp)
   423b0:	0043ec00 	call	43ec0 <strcmp>
   423b4:	d9800017 	ldw	r6,0(sp)
   423b8:	103fcb1e 	bne	r2,zero,422e8 <_ZNK10__cxxabiv120__si_class_type_info12__do_dyncastEiNS_17__class_type_info10__sub_kindEPKS1_PKvS4_S6_RNS1_16__dyncast_resultE+0x7c>
   423bc:	a9800215 	stw	r6,8(r21)
   423c0:	003fe506 	br	42358 <_ZNK10__cxxabiv120__si_class_type_info12__do_dyncastEiNS_17__class_type_info10__sub_kindEPKS1_PKvS4_S6_RNS1_16__dyncast_resultE+0xec>
   423c4:	00800184 	movi	r2,6
   423c8:	003fe206 	br	42354 <_ZNK10__cxxabiv120__si_class_type_info12__do_dyncastEiNS_17__class_type_info10__sub_kindEPKS1_PKvS4_S6_RNS1_16__dyncast_resultE+0xe8>

000423cc <_ZNK10__cxxabiv120__si_class_type_info11__do_upcastEPKNS_17__class_type_infoEPKvRNS1_15__upcast_resultE>:
   423cc:	defffb04 	addi	sp,sp,-20
   423d0:	dcc00315 	stw	r19,12(sp)
   423d4:	dc800215 	stw	r18,8(sp)
   423d8:	dc400115 	stw	r17,4(sp)
   423dc:	dc000015 	stw	r16,0(sp)
   423e0:	dfc00415 	stw	ra,16(sp)
   423e4:	2025883a 	mov	r18,r4
   423e8:	2827883a 	mov	r19,r5
   423ec:	3021883a 	mov	r16,r6
   423f0:	3823883a 	mov	r17,r7
   423f4:	004264c0 	call	4264c <_ZNK10__cxxabiv117__class_type_info11__do_upcastEPKS0_PKvRNS0_15__upcast_resultE>
   423f8:	10c03fcc 	andi	r3,r2,255
   423fc:	18000d1e 	bne	r3,zero,42434 <_ZNK10__cxxabiv120__si_class_type_info11__do_upcastEPKNS_17__class_type_infoEPKvRNS1_15__upcast_resultE+0x68>
   42400:	91000217 	ldw	r4,8(r18)
   42404:	880f883a 	mov	r7,r17
   42408:	800d883a 	mov	r6,r16
   4240c:	20800017 	ldw	r2,0(r4)
   42410:	980b883a 	mov	r5,r19
   42414:	10800617 	ldw	r2,24(r2)
   42418:	dfc00417 	ldw	ra,16(sp)
   4241c:	dcc00317 	ldw	r19,12(sp)
   42420:	dc800217 	ldw	r18,8(sp)
   42424:	dc400117 	ldw	r17,4(sp)
   42428:	dc000017 	ldw	r16,0(sp)
   4242c:	dec00504 	addi	sp,sp,20
   42430:	1000683a 	jmp	r2
   42434:	dfc00417 	ldw	ra,16(sp)
   42438:	dcc00317 	ldw	r19,12(sp)
   4243c:	dc800217 	ldw	r18,8(sp)
   42440:	dc400117 	ldw	r17,4(sp)
   42444:	dc000017 	ldw	r16,0(sp)
   42448:	dec00504 	addi	sp,sp,20
   4244c:	f800283a 	ret

00042450 <_ZNSt9type_infoD1Ev>:
   42450:	f800283a 	ret

00042454 <_ZNKSt9type_info14__is_pointer_pEv>:
   42454:	0005883a 	mov	r2,zero
   42458:	f800283a 	ret

0004245c <_ZNKSt9type_info11__do_upcastEPKN10__cxxabiv117__class_type_infoEPPv>:
   4245c:	0005883a 	mov	r2,zero
   42460:	f800283a 	ret

00042464 <_ZNSt9type_infoD0Ev>:
   42464:	01400204 	movi	r5,8
   42468:	0040b1c1 	jmpi	40b1c <_ZdlPvj>

0004246c <_ZNKSt9type_info10__do_catchEPKS_PPvj>:
   4246c:	21000117 	ldw	r4,4(r4)
   42470:	29400117 	ldw	r5,4(r5)
   42474:	21400c26 	beq	r4,r5,424a8 <_ZNKSt9type_info10__do_catchEPKS_PPvj+0x3c>
   42478:	20800007 	ldb	r2,0(r4)
   4247c:	10800aa0 	cmpeqi	r2,r2,42
   42480:	1000071e 	bne	r2,zero,424a0 <_ZNKSt9type_info10__do_catchEPKS_PPvj+0x34>
   42484:	deffff04 	addi	sp,sp,-4
   42488:	dfc00015 	stw	ra,0(sp)
   4248c:	0043ec00 	call	43ec0 <strcmp>
   42490:	1005003a 	cmpeq	r2,r2,zero
   42494:	dfc00017 	ldw	ra,0(sp)
   42498:	dec00104 	addi	sp,sp,4
   4249c:	f800283a 	ret
   424a0:	0005883a 	mov	r2,zero
   424a4:	f800283a 	ret
   424a8:	00800044 	movi	r2,1
   424ac:	f800283a 	ret

000424b0 <_ZNK10__cxxabiv117__class_type_info11__do_upcastEPKS0_PPv>:
   424b0:	20800017 	ldw	r2,0(r4)
   424b4:	defffa04 	addi	sp,sp,-24
   424b8:	dc000415 	stw	r16,16(sp)
   424bc:	10800617 	ldw	r2,24(r2)
   424c0:	3021883a 	mov	r16,r6
   424c4:	31800017 	ldw	r6,0(r6)
   424c8:	00c00404 	movi	r3,16
   424cc:	dfc00515 	stw	ra,20(sp)
   424d0:	d8000015 	stw	zero,0(sp)
   424d4:	d8000115 	stw	zero,4(sp)
   424d8:	d8c00215 	stw	r3,8(sp)
   424dc:	d8000315 	stw	zero,12(sp)
   424e0:	d80f883a 	mov	r7,sp
   424e4:	103ee83a 	callr	r2
   424e8:	d8800117 	ldw	r2,4(sp)
   424ec:	1080018c 	andi	r2,r2,6
   424f0:	10800198 	cmpnei	r2,r2,6
   424f4:	1000071e 	bne	r2,zero,42514 <_ZNK10__cxxabiv117__class_type_info11__do_upcastEPKS0_PPv+0x64>
   424f8:	d8c00017 	ldw	r3,0(sp)
   424fc:	00800044 	movi	r2,1
   42500:	80c00015 	stw	r3,0(r16)
   42504:	dfc00517 	ldw	ra,20(sp)
   42508:	dc000417 	ldw	r16,16(sp)
   4250c:	dec00604 	addi	sp,sp,24
   42510:	f800283a 	ret
   42514:	0005883a 	mov	r2,zero
   42518:	dfc00517 	ldw	ra,20(sp)
   4251c:	dc000417 	ldw	r16,16(sp)
   42520:	dec00604 	addi	sp,sp,24
   42524:	f800283a 	ret

00042528 <_ZNK10__cxxabiv117__class_type_info20__do_find_public_srcEiPKvPKS0_S2_>:
   42528:	d8c00017 	ldw	r3,0(sp)
   4252c:	00800044 	movi	r2,1
   42530:	19800126 	beq	r3,r6,42538 <_ZNK10__cxxabiv117__class_type_info20__do_find_public_srcEiPKvPKS0_S2_+0x10>
   42534:	f800283a 	ret
   42538:	00800184 	movi	r2,6
   4253c:	f800283a 	ret

00042540 <_ZN10__cxxabiv117__class_type_infoD1Ev>:
   42540:	00800174 	movhi	r2,5
   42544:	108ced04 	addi	r2,r2,13236
   42548:	20800015 	stw	r2,0(r4)
   4254c:	00424501 	jmpi	42450 <_ZNSt9type_infoD1Ev>

00042550 <_ZN10__cxxabiv117__class_type_infoD0Ev>:
   42550:	defffe04 	addi	sp,sp,-8
   42554:	00800174 	movhi	r2,5
   42558:	dc000015 	stw	r16,0(sp)
   4255c:	dfc00115 	stw	ra,4(sp)
   42560:	108ced04 	addi	r2,r2,13236
   42564:	20800015 	stw	r2,0(r4)
   42568:	2021883a 	mov	r16,r4
   4256c:	00424500 	call	42450 <_ZNSt9type_infoD1Ev>
   42570:	01400204 	movi	r5,8
   42574:	8009883a 	mov	r4,r16
   42578:	dfc00117 	ldw	ra,4(sp)
   4257c:	dc000017 	ldw	r16,0(sp)
   42580:	dec00204 	addi	sp,sp,8
   42584:	0040b1c1 	jmpi	40b1c <_ZdlPvj>

00042588 <_ZNK10__cxxabiv117__class_type_info12__do_dyncastEiNS0_10__sub_kindEPKS0_PKvS3_S5_RNS0_16__dyncast_resultE>:
   42588:	defffa04 	addi	sp,sp,-24
   4258c:	dc800415 	stw	r18,16(sp)
   42590:	d8800817 	ldw	r2,32(sp)
   42594:	dc800617 	ldw	r18,24(sp)
   42598:	dc400315 	stw	r17,12(sp)
   4259c:	dc000215 	stw	r16,8(sp)
   425a0:	dfc00515 	stw	ra,20(sp)
   425a4:	dc400917 	ldw	r17,36(sp)
   425a8:	21000117 	ldw	r4,4(r4)
   425ac:	3021883a 	mov	r16,r6
   425b0:	90801226 	beq	r18,r2,425fc <_ZNK10__cxxabiv117__class_type_info12__do_dyncastEiNS0_10__sub_kindEPKS0_PKvS3_S5_RNS0_16__dyncast_resultE+0x74>
   425b4:	39400117 	ldw	r5,4(r7)
   425b8:	29000526 	beq	r5,r4,425d0 <_ZNK10__cxxabiv117__class_type_info12__do_dyncastEiNS0_10__sub_kindEPKS0_PKvS3_S5_RNS0_16__dyncast_resultE+0x48>
   425bc:	20800007 	ldb	r2,0(r4)
   425c0:	10800aa0 	cmpeqi	r2,r2,42
   425c4:	1000061e 	bne	r2,zero,425e0 <_ZNK10__cxxabiv117__class_type_info12__do_dyncastEiNS0_10__sub_kindEPKS0_PKvS3_S5_RNS0_16__dyncast_resultE+0x58>
   425c8:	0043ec00 	call	43ec0 <strcmp>
   425cc:	1000041e 	bne	r2,zero,425e0 <_ZNK10__cxxabiv117__class_type_info12__do_dyncastEiNS0_10__sub_kindEPKS0_PKvS3_S5_RNS0_16__dyncast_resultE+0x58>
   425d0:	00800044 	movi	r2,1
   425d4:	8c800015 	stw	r18,0(r17)
   425d8:	8c000115 	stw	r16,4(r17)
   425dc:	88800315 	stw	r2,12(r17)
   425e0:	0005883a 	mov	r2,zero
   425e4:	dfc00517 	ldw	ra,20(sp)
   425e8:	dc800417 	ldw	r18,16(sp)
   425ec:	dc400317 	ldw	r17,12(sp)
   425f0:	dc000217 	ldw	r16,8(sp)
   425f4:	dec00604 	addi	sp,sp,24
   425f8:	f800283a 	ret
   425fc:	d8800717 	ldw	r2,28(sp)
   42600:	11400117 	ldw	r5,4(r2)
   42604:	29000f26 	beq	r5,r4,42644 <_ZNK10__cxxabiv117__class_type_info12__do_dyncastEiNS0_10__sub_kindEPKS0_PKvS3_S5_RNS0_16__dyncast_resultE+0xbc>
   42608:	20800007 	ldb	r2,0(r4)
   4260c:	10800aa0 	cmpeqi	r2,r2,42
   42610:	1000091e 	bne	r2,zero,42638 <_ZNK10__cxxabiv117__class_type_info12__do_dyncastEiNS0_10__sub_kindEPKS0_PKvS3_S5_RNS0_16__dyncast_resultE+0xb0>
   42614:	d9c00115 	stw	r7,4(sp)
   42618:	d9000015 	stw	r4,0(sp)
   4261c:	0043ec00 	call	43ec0 <strcmp>
   42620:	10000826 	beq	r2,zero,42644 <_ZNK10__cxxabiv117__class_type_info12__do_dyncastEiNS0_10__sub_kindEPKS0_PKvS3_S5_RNS0_16__dyncast_resultE+0xbc>
   42624:	d9c00117 	ldw	r7,4(sp)
   42628:	d9000017 	ldw	r4,0(sp)
   4262c:	39400117 	ldw	r5,4(r7)
   42630:	217fe51e 	bne	r4,r5,425c8 <_ZNK10__cxxabiv117__class_type_info12__do_dyncastEiNS0_10__sub_kindEPKS0_PKvS3_S5_RNS0_16__dyncast_resultE+0x40>
   42634:	003fe606 	br	425d0 <_ZNK10__cxxabiv117__class_type_info12__do_dyncastEiNS0_10__sub_kindEPKS0_PKvS3_S5_RNS0_16__dyncast_resultE+0x48>
   42638:	38800117 	ldw	r2,4(r7)
   4263c:	113fe81e 	bne	r2,r4,425e0 <_ZNK10__cxxabiv117__class_type_info12__do_dyncastEiNS0_10__sub_kindEPKS0_PKvS3_S5_RNS0_16__dyncast_resultE+0x58>
   42640:	003fe306 	br	425d0 <_ZNK10__cxxabiv117__class_type_info12__do_dyncastEiNS0_10__sub_kindEPKS0_PKvS3_S5_RNS0_16__dyncast_resultE+0x48>
   42644:	8c000215 	stw	r16,8(r17)
   42648:	003fe506 	br	425e0 <_ZNK10__cxxabiv117__class_type_info12__do_dyncastEiNS0_10__sub_kindEPKS0_PKvS3_S5_RNS0_16__dyncast_resultE+0x58>

0004264c <_ZNK10__cxxabiv117__class_type_info11__do_upcastEPKS0_PKvRNS0_15__upcast_resultE>:
   4264c:	21000117 	ldw	r4,4(r4)
   42650:	29400117 	ldw	r5,4(r5)
   42654:	defffd04 	addi	sp,sp,-12
   42658:	dc400115 	stw	r17,4(sp)
   4265c:	dc000015 	stw	r16,0(sp)
   42660:	dfc00215 	stw	ra,8(sp)
   42664:	3023883a 	mov	r17,r6
   42668:	3821883a 	mov	r16,r7
   4266c:	21400726 	beq	r4,r5,4268c <_ZNK10__cxxabiv117__class_type_info11__do_upcastEPKS0_PKvRNS0_15__upcast_resultE+0x40>
   42670:	20800007 	ldb	r2,0(r4)
   42674:	10800aa0 	cmpeqi	r2,r2,42
   42678:	1000021e 	bne	r2,zero,42684 <_ZNK10__cxxabiv117__class_type_info11__do_upcastEPKS0_PKvRNS0_15__upcast_resultE+0x38>
   4267c:	0043ec00 	call	43ec0 <strcmp>
   42680:	10000226 	beq	r2,zero,4268c <_ZNK10__cxxabiv117__class_type_info11__do_upcastEPKS0_PKvRNS0_15__upcast_resultE+0x40>
   42684:	0005883a 	mov	r2,zero
   42688:	00000606 	br	426a4 <_ZNK10__cxxabiv117__class_type_info11__do_upcastEPKS0_PKvRNS0_15__upcast_resultE+0x58>
   4268c:	00800204 	movi	r2,8
   42690:	80800315 	stw	r2,12(r16)
   42694:	00800184 	movi	r2,6
   42698:	80800115 	stw	r2,4(r16)
   4269c:	84400015 	stw	r17,0(r16)
   426a0:	00800044 	movi	r2,1
   426a4:	dfc00217 	ldw	ra,8(sp)
   426a8:	dc400117 	ldw	r17,4(sp)
   426ac:	dc000017 	ldw	r16,0(sp)
   426b0:	dec00304 	addi	sp,sp,12
   426b4:	f800283a 	ret

000426b8 <_ZNK10__cxxabiv117__class_type_info10__do_catchEPKSt9type_infoPPvj>:
   426b8:	defffb04 	addi	sp,sp,-20
   426bc:	dc800215 	stw	r18,8(sp)
   426c0:	dc000015 	stw	r16,0(sp)
   426c4:	2025883a 	mov	r18,r4
   426c8:	2821883a 	mov	r16,r5
   426cc:	21000117 	ldw	r4,4(r4)
   426d0:	29400117 	ldw	r5,4(r5)
   426d4:	dfc00415 	stw	ra,16(sp)
   426d8:	dcc00315 	stw	r19,12(sp)
   426dc:	dc400115 	stw	r17,4(sp)
   426e0:	21401526 	beq	r4,r5,42738 <_ZNK10__cxxabiv117__class_type_info10__do_catchEPKSt9type_infoPPvj+0x80>
   426e4:	20800007 	ldb	r2,0(r4)
   426e8:	3027883a 	mov	r19,r6
   426ec:	3823883a 	mov	r17,r7
   426f0:	10800aa0 	cmpeqi	r2,r2,42
   426f4:	1000021e 	bne	r2,zero,42700 <_ZNK10__cxxabiv117__class_type_info10__do_catchEPKSt9type_infoPPvj+0x48>
   426f8:	0043ec00 	call	43ec0 <strcmp>
   426fc:	10000e26 	beq	r2,zero,42738 <_ZNK10__cxxabiv117__class_type_info10__do_catchEPKSt9type_infoPPvj+0x80>
   42700:	89c00128 	cmpgeui	r7,r17,4
   42704:	3800141e 	bne	r7,zero,42758 <_ZNK10__cxxabiv117__class_type_info10__do_catchEPKSt9type_infoPPvj+0xa0>
   42708:	80800017 	ldw	r2,0(r16)
   4270c:	980d883a 	mov	r6,r19
   42710:	900b883a 	mov	r5,r18
   42714:	10800517 	ldw	r2,20(r2)
   42718:	8009883a 	mov	r4,r16
   4271c:	dfc00417 	ldw	ra,16(sp)
   42720:	dcc00317 	ldw	r19,12(sp)
   42724:	dc800217 	ldw	r18,8(sp)
   42728:	dc400117 	ldw	r17,4(sp)
   4272c:	dc000017 	ldw	r16,0(sp)
   42730:	dec00504 	addi	sp,sp,20
   42734:	1000683a 	jmp	r2
   42738:	00800044 	movi	r2,1
   4273c:	dfc00417 	ldw	ra,16(sp)
   42740:	dcc00317 	ldw	r19,12(sp)
   42744:	dc800217 	ldw	r18,8(sp)
   42748:	dc400117 	ldw	r17,4(sp)
   4274c:	dc000017 	ldw	r16,0(sp)
   42750:	dec00504 	addi	sp,sp,20
   42754:	f800283a 	ret
   42758:	0005883a 	mov	r2,zero
   4275c:	003ff706 	br	4273c <_ZNK10__cxxabiv117__class_type_info10__do_catchEPKSt9type_infoPPvj+0x84>

00042760 <__divsi3>:
   42760:	20001a16 	blt	r4,zero,427cc <__divsi3+0x6c>
   42764:	000f883a 	mov	r7,zero
   42768:	2800020e 	bge	r5,zero,42774 <__divsi3+0x14>
   4276c:	014bc83a 	sub	r5,zero,r5
   42770:	39c0005c 	xori	r7,r7,1
   42774:	200d883a 	mov	r6,r4
   42778:	00c00044 	movi	r3,1
   4277c:	2900092e 	bgeu	r5,r4,427a4 <__divsi3+0x44>
   42780:	00800804 	movi	r2,32
   42784:	00c00044 	movi	r3,1
   42788:	00000106 	br	42790 <__divsi3+0x30>
   4278c:	10001226 	beq	r2,zero,427d8 <__divsi3+0x78>
   42790:	294b883a 	add	r5,r5,r5
   42794:	10bfffc4 	addi	r2,r2,-1
   42798:	18c7883a 	add	r3,r3,r3
   4279c:	293ffb36 	bltu	r5,r4,4278c <__divsi3+0x2c>
   427a0:	18000d26 	beq	r3,zero,427d8 <__divsi3+0x78>
   427a4:	0005883a 	mov	r2,zero
   427a8:	31400236 	bltu	r6,r5,427b4 <__divsi3+0x54>
   427ac:	314dc83a 	sub	r6,r6,r5
   427b0:	10c4b03a 	or	r2,r2,r3
   427b4:	1806d07a 	srli	r3,r3,1
   427b8:	280ad07a 	srli	r5,r5,1
   427bc:	183ffa1e 	bne	r3,zero,427a8 <__divsi3+0x48>
   427c0:	38000126 	beq	r7,zero,427c8 <__divsi3+0x68>
   427c4:	0085c83a 	sub	r2,zero,r2
   427c8:	f800283a 	ret
   427cc:	0109c83a 	sub	r4,zero,r4
   427d0:	01c00044 	movi	r7,1
   427d4:	003fe406 	br	42768 <__divsi3+0x8>
   427d8:	0005883a 	mov	r2,zero
   427dc:	003ff806 	br	427c0 <__divsi3+0x60>

000427e0 <__modsi3>:
   427e0:	20001916 	blt	r4,zero,42848 <__modsi3+0x68>
   427e4:	000f883a 	mov	r7,zero
   427e8:	2005883a 	mov	r2,r4
   427ec:	2800010e 	bge	r5,zero,427f4 <__modsi3+0x14>
   427f0:	014bc83a 	sub	r5,zero,r5
   427f4:	00c00044 	movi	r3,1
   427f8:	2900092e 	bgeu	r5,r4,42820 <__modsi3+0x40>
   427fc:	01800804 	movi	r6,32
   42800:	00c00044 	movi	r3,1
   42804:	00000106 	br	4280c <__modsi3+0x2c>
   42808:	30000d26 	beq	r6,zero,42840 <__modsi3+0x60>
   4280c:	294b883a 	add	r5,r5,r5
   42810:	31bfffc4 	addi	r6,r6,-1
   42814:	18c7883a 	add	r3,r3,r3
   42818:	293ffb36 	bltu	r5,r4,42808 <__modsi3+0x28>
   4281c:	18000826 	beq	r3,zero,42840 <__modsi3+0x60>
   42820:	1806d07a 	srli	r3,r3,1
   42824:	11400136 	bltu	r2,r5,4282c <__modsi3+0x4c>
   42828:	1145c83a 	sub	r2,r2,r5
   4282c:	280ad07a 	srli	r5,r5,1
   42830:	183ffb1e 	bne	r3,zero,42820 <__modsi3+0x40>
   42834:	38000126 	beq	r7,zero,4283c <__modsi3+0x5c>
   42838:	0085c83a 	sub	r2,zero,r2
   4283c:	f800283a 	ret
   42840:	2005883a 	mov	r2,r4
   42844:	003ffb06 	br	42834 <__modsi3+0x54>
   42848:	0109c83a 	sub	r4,zero,r4
   4284c:	01c00044 	movi	r7,1
   42850:	003fe506 	br	427e8 <__modsi3+0x8>

00042854 <__udivsi3>:
   42854:	200d883a 	mov	r6,r4
   42858:	2900152e 	bgeu	r5,r4,428b0 <__udivsi3+0x5c>
   4285c:	28001416 	blt	r5,zero,428b0 <__udivsi3+0x5c>
   42860:	00800804 	movi	r2,32
   42864:	00c00044 	movi	r3,1
   42868:	00000206 	br	42874 <__udivsi3+0x20>
   4286c:	10000e26 	beq	r2,zero,428a8 <__udivsi3+0x54>
   42870:	28000516 	blt	r5,zero,42888 <__udivsi3+0x34>
   42874:	294b883a 	add	r5,r5,r5
   42878:	10bfffc4 	addi	r2,r2,-1
   4287c:	18c7883a 	add	r3,r3,r3
   42880:	293ffa36 	bltu	r5,r4,4286c <__udivsi3+0x18>
   42884:	18000826 	beq	r3,zero,428a8 <__udivsi3+0x54>
   42888:	0005883a 	mov	r2,zero
   4288c:	31400236 	bltu	r6,r5,42898 <__udivsi3+0x44>
   42890:	314dc83a 	sub	r6,r6,r5
   42894:	10c4b03a 	or	r2,r2,r3
   42898:	1806d07a 	srli	r3,r3,1
   4289c:	280ad07a 	srli	r5,r5,1
   428a0:	183ffa1e 	bne	r3,zero,4288c <__udivsi3+0x38>
   428a4:	f800283a 	ret
   428a8:	0005883a 	mov	r2,zero
   428ac:	f800283a 	ret
   428b0:	00c00044 	movi	r3,1
   428b4:	003ff406 	br	42888 <__udivsi3+0x34>

000428b8 <__umodsi3>:
   428b8:	2005883a 	mov	r2,r4
   428bc:	2900132e 	bgeu	r5,r4,4290c <__umodsi3+0x54>
   428c0:	28001216 	blt	r5,zero,4290c <__umodsi3+0x54>
   428c4:	01800804 	movi	r6,32
   428c8:	00c00044 	movi	r3,1
   428cc:	00000206 	br	428d8 <__umodsi3+0x20>
   428d0:	30000c26 	beq	r6,zero,42904 <__umodsi3+0x4c>
   428d4:	28000516 	blt	r5,zero,428ec <__umodsi3+0x34>
   428d8:	294b883a 	add	r5,r5,r5
   428dc:	31bfffc4 	addi	r6,r6,-1
   428e0:	18c7883a 	add	r3,r3,r3
   428e4:	293ffa36 	bltu	r5,r4,428d0 <__umodsi3+0x18>
   428e8:	18000626 	beq	r3,zero,42904 <__umodsi3+0x4c>
   428ec:	1806d07a 	srli	r3,r3,1
   428f0:	11400136 	bltu	r2,r5,428f8 <__umodsi3+0x40>
   428f4:	1145c83a 	sub	r2,r2,r5
   428f8:	280ad07a 	srli	r5,r5,1
   428fc:	183ffb1e 	bne	r3,zero,428ec <__umodsi3+0x34>
   42900:	f800283a 	ret
   42904:	2005883a 	mov	r2,r4
   42908:	f800283a 	ret
   4290c:	00c00044 	movi	r3,1
   42910:	003ff606 	br	428ec <__umodsi3+0x34>

00042914 <__floatsisf>:
   42914:	defffd04 	addi	sp,sp,-12
   42918:	dfc00215 	stw	ra,8(sp)
   4291c:	dc400115 	stw	r17,4(sp)
   42920:	dc000015 	stw	r16,0(sp)
   42924:	20001226 	beq	r4,zero,42970 <__floatsisf+0x5c>
   42928:	2022d7fa 	srli	r17,r4,31
   4292c:	2021883a 	mov	r16,r4
   42930:	20001d16 	blt	r4,zero,429a8 <__floatsisf+0x94>
   42934:	8009883a 	mov	r4,r16
   42938:	00430640 	call	43064 <__clzsi2>
   4293c:	100b883a 	mov	r5,r2
   42940:	00802784 	movi	r2,158
   42944:	1145c83a 	sub	r2,r2,r5
   42948:	10c025c8 	cmpgei	r3,r2,151
   4294c:	1800181e 	bne	r3,zero,429b0 <__floatsisf+0x9c>
   42950:	28c00248 	cmpgei	r3,r5,9
   42954:	18003426 	beq	r3,zero,42a28 <__floatsisf+0x114>
   42958:	297ffe04 	addi	r5,r5,-8
   4295c:	8160983a 	sll	r16,r16,r5
   42960:	00c02034 	movhi	r3,128
   42964:	18ffffc4 	addi	r3,r3,-1
   42968:	80e0703a 	and	r16,r16,r3
   4296c:	00000306 	br	4297c <__floatsisf+0x68>
   42970:	0023883a 	mov	r17,zero
   42974:	0005883a 	mov	r2,zero
   42978:	0021883a 	mov	r16,zero
   4297c:	10803fcc 	andi	r2,r2,255
   42980:	100495fa 	slli	r2,r2,23
   42984:	8c403fcc 	andi	r17,r17,255
   42988:	882297fa 	slli	r17,r17,31
   4298c:	1404b03a 	or	r2,r2,r16
   42990:	1444b03a 	or	r2,r2,r17
   42994:	dfc00217 	ldw	ra,8(sp)
   42998:	dc400117 	ldw	r17,4(sp)
   4299c:	dc000017 	ldw	r16,0(sp)
   429a0:	dec00304 	addi	sp,sp,12
   429a4:	f800283a 	ret
   429a8:	0121c83a 	sub	r16,zero,r4
   429ac:	003fe106 	br	42934 <__floatsisf+0x20>
   429b0:	10c02690 	cmplti	r3,r2,154
   429b4:	1800071e 	bne	r3,zero,429d4 <__floatsisf+0xc0>
   429b8:	28c006c4 	addi	r3,r5,27
   429bc:	01000144 	movi	r4,5
   429c0:	80c6983a 	sll	r3,r16,r3
   429c4:	2149c83a 	sub	r4,r4,r5
   429c8:	8120d83a 	srl	r16,r16,r4
   429cc:	1806c03a 	cmpne	r3,r3,zero
   429d0:	80e0b03a 	or	r16,r16,r3
   429d4:	28c00190 	cmplti	r3,r5,6
   429d8:	1800021e 	bne	r3,zero,429e4 <__floatsisf+0xd0>
   429dc:	28fffec4 	addi	r3,r5,-5
   429e0:	80e0983a 	sll	r16,r16,r3
   429e4:	00ff0034 	movhi	r3,64512
   429e8:	18ffffc4 	addi	r3,r3,-1
   429ec:	810001cc 	andi	r4,r16,7
   429f0:	80cc703a 	and	r6,r16,r3
   429f4:	20000926 	beq	r4,zero,42a1c <__floatsisf+0x108>
   429f8:	810003cc 	andi	r4,r16,15
   429fc:	21000120 	cmpeqi	r4,r4,4
   42a00:	2000061e 	bne	r4,zero,42a1c <__floatsisf+0x108>
   42a04:	31800104 	addi	r6,r6,4
   42a08:	3101002c 	andhi	r4,r6,1024
   42a0c:	20000326 	beq	r4,zero,42a1c <__floatsisf+0x108>
   42a10:	30cc703a 	and	r6,r6,r3
   42a14:	00c027c4 	movi	r3,159
   42a18:	1945c83a 	sub	r2,r3,r5
   42a1c:	302091ba 	slli	r16,r6,6
   42a20:	8020d27a 	srli	r16,r16,9
   42a24:	003fd506 	br	4297c <__floatsisf+0x68>
   42a28:	01002034 	movhi	r4,128
   42a2c:	213fffc4 	addi	r4,r4,-1
   42a30:	8120703a 	and	r16,r16,r4
   42a34:	003fd106 	br	4297c <__floatsisf+0x68>

00042a38 <__extendsfdf2>:
   42a38:	200ad5fa 	srli	r5,r4,23
   42a3c:	defffd04 	addi	sp,sp,-12
   42a40:	dc000015 	stw	r16,0(sp)
   42a44:	29403fcc 	andi	r5,r5,255
   42a48:	04002034 	movhi	r16,128
   42a4c:	28800044 	addi	r2,r5,1
   42a50:	dc400115 	stw	r17,4(sp)
   42a54:	843fffc4 	addi	r16,r16,-1
   42a58:	dfc00215 	stw	ra,8(sp)
   42a5c:	10803f8c 	andi	r2,r2,254
   42a60:	2022d7fa 	srli	r17,r4,31
   42a64:	8120703a 	and	r16,r16,r4
   42a68:	10000d26 	beq	r2,zero,42aa0 <__extendsfdf2+0x68>
   42a6c:	8008d0fa 	srli	r4,r16,3
   42a70:	8020977a 	slli	r16,r16,29
   42a74:	28c0e004 	addi	r3,r5,896
   42a78:	180a953a 	slli	r5,r3,20
   42a7c:	880697fa 	slli	r3,r17,31
   42a80:	8005883a 	mov	r2,r16
   42a84:	290ab03a 	or	r5,r5,r4
   42a88:	28c6b03a 	or	r3,r5,r3
   42a8c:	dfc00217 	ldw	ra,8(sp)
   42a90:	dc400117 	ldw	r17,4(sp)
   42a94:	dc000017 	ldw	r16,0(sp)
   42a98:	dec00304 	addi	sp,sp,12
   42a9c:	f800283a 	ret
   42aa0:	2800111e 	bne	r5,zero,42ae8 <__extendsfdf2+0xb0>
   42aa4:	80001926 	beq	r16,zero,42b0c <__extendsfdf2+0xd4>
   42aa8:	8009883a 	mov	r4,r16
   42aac:	00430640 	call	43064 <__clzsi2>
   42ab0:	10c002c8 	cmpgei	r3,r2,11
   42ab4:	18001b1e 	bne	r3,zero,42b24 <__extendsfdf2+0xec>
   42ab8:	010002c4 	movi	r4,11
   42abc:	2089c83a 	sub	r4,r4,r2
   42ac0:	10c00544 	addi	r3,r2,21
   42ac4:	810ad83a 	srl	r5,r16,r4
   42ac8:	80e0983a 	sll	r16,r16,r3
   42acc:	00c0e244 	movi	r3,905
   42ad0:	01000434 	movhi	r4,16
   42ad4:	213fffc4 	addi	r4,r4,-1
   42ad8:	1885c83a 	sub	r2,r3,r2
   42adc:	2908703a 	and	r4,r5,r4
   42ae0:	10c1ffcc 	andi	r3,r2,2047
   42ae4:	003fe406 	br	42a78 <__extendsfdf2+0x40>
   42ae8:	80000b26 	beq	r16,zero,42b18 <__extendsfdf2+0xe0>
   42aec:	800ad0fa 	srli	r5,r16,3
   42af0:	00800434 	movhi	r2,16
   42af4:	10bfffc4 	addi	r2,r2,-1
   42af8:	29000234 	orhi	r4,r5,8
   42afc:	8020977a 	slli	r16,r16,29
   42b00:	2088703a 	and	r4,r4,r2
   42b04:	00c1ffc4 	movi	r3,2047
   42b08:	003fdb06 	br	42a78 <__extendsfdf2+0x40>
   42b0c:	0007883a 	mov	r3,zero
   42b10:	0009883a 	mov	r4,zero
   42b14:	003fd806 	br	42a78 <__extendsfdf2+0x40>
   42b18:	00c1ffc4 	movi	r3,2047
   42b1c:	0009883a 	mov	r4,zero
   42b20:	003fd506 	br	42a78 <__extendsfdf2+0x40>
   42b24:	113ffd44 	addi	r4,r2,-11
   42b28:	810a983a 	sll	r5,r16,r4
   42b2c:	0021883a 	mov	r16,zero
   42b30:	003fe606 	br	42acc <__extendsfdf2+0x94>

00042b34 <_Unwind_ForcedUnwind_Phase2>:
   42b34:	28800017 	ldw	r2,0(r5)
   42b38:	defff504 	addi	sp,sp,-44
   42b3c:	dd400815 	stw	r21,32(sp)
   42b40:	dd000715 	stw	r20,28(sp)
   42b44:	dcc00615 	stw	r19,24(sp)
   42b48:	dc800515 	stw	r18,20(sp)
   42b4c:	dc400415 	stw	r17,16(sp)
   42b50:	dc000315 	stw	r16,12(sp)
   42b54:	dfc00a15 	stw	ra,40(sp)
   42b58:	dd800915 	stw	r22,36(sp)
   42b5c:	302b883a 	mov	r21,r6
   42b60:	24c00317 	ldw	r19,12(r4)
   42b64:	25000417 	ldw	r20,16(r4)
   42b68:	21800017 	ldw	r6,0(r4)
   42b6c:	21c00117 	ldw	r7,4(r4)
   42b70:	2823883a 	mov	r17,r5
   42b74:	2021883a 	mov	r16,r4
   42b78:	04800044 	movi	r18,1
   42b7c:	10001d26 	beq	r2,zero,42bf4 <_Unwind_ForcedUnwind_Phase2+0xc0>
   42b80:	15800617 	ldw	r22,24(r2)
   42b84:	01400284 	movi	r5,10
   42b88:	01000044 	movi	r4,1
   42b8c:	dd000215 	stw	r20,8(sp)
   42b90:	dc400115 	stw	r17,4(sp)
   42b94:	dc000015 	stw	r16,0(sp)
   42b98:	983ee83a 	callr	r19
   42b9c:	01400284 	movi	r5,10
   42ba0:	01000044 	movi	r4,1
   42ba4:	10001a1e 	bne	r2,zero,42c10 <_Unwind_ForcedUnwind_Phase2+0xdc>
   42ba8:	81800017 	ldw	r6,0(r16)
   42bac:	81c00117 	ldw	r7,4(r16)
   42bb0:	b0000926 	beq	r22,zero,42bd8 <_Unwind_ForcedUnwind_Phase2+0xa4>
   42bb4:	dc400115 	stw	r17,4(sp)
   42bb8:	dc000015 	stw	r16,0(sp)
   42bbc:	b03ee83a 	callr	r22
   42bc0:	10c001e0 	cmpeqi	r3,r2,7
   42bc4:	11000218 	cmpnei	r4,r2,8
   42bc8:	18001d1e 	bne	r3,zero,42c40 <_Unwind_ForcedUnwind_Phase2+0x10c>
   42bcc:	2000101e 	bne	r4,zero,42c10 <_Unwind_ForcedUnwind_Phase2+0xdc>
   42bd0:	81800017 	ldw	r6,0(r16)
   42bd4:	81c00117 	ldw	r7,4(r16)
   42bd8:	88800017 	ldw	r2,0(r17)
   42bdc:	00c00174 	movhi	r3,5
   42be0:	94800044 	addi	r18,r18,1
   42be4:	10800017 	ldw	r2,0(r2)
   42be8:	189c9315 	stw	r2,29260(r3)
   42bec:	88800015 	stw	r2,0(r17)
   42bf0:	103fe31e 	bne	r2,zero,42b80 <_Unwind_ForcedUnwind_Phase2+0x4c>
   42bf4:	dd000215 	stw	r20,8(sp)
   42bf8:	dc400115 	stw	r17,4(sp)
   42bfc:	dc000015 	stw	r16,0(sp)
   42c00:	01400684 	movi	r5,26
   42c04:	01000044 	movi	r4,1
   42c08:	983ee83a 	callr	r19
   42c0c:	10000b26 	beq	r2,zero,42c3c <_Unwind_ForcedUnwind_Phase2+0x108>
   42c10:	00800084 	movi	r2,2
   42c14:	dfc00a17 	ldw	ra,40(sp)
   42c18:	dd800917 	ldw	r22,36(sp)
   42c1c:	dd400817 	ldw	r21,32(sp)
   42c20:	dd000717 	ldw	r20,28(sp)
   42c24:	dcc00617 	ldw	r19,24(sp)
   42c28:	dc800517 	ldw	r18,20(sp)
   42c2c:	dc400417 	ldw	r17,16(sp)
   42c30:	dc000317 	ldw	r16,12(sp)
   42c34:	dec00b04 	addi	sp,sp,44
   42c38:	f800283a 	ret
   42c3c:	00800144 	movi	r2,5
   42c40:	ac800015 	stw	r18,0(r21)
   42c44:	003ff306 	br	42c14 <_Unwind_ForcedUnwind_Phase2+0xe0>

00042c48 <_Unwind_RaiseException_Phase2>:
   42c48:	28800017 	ldw	r2,0(r5)
   42c4c:	10002f26 	beq	r2,zero,42d0c <_Unwind_RaiseException_Phase2+0xc4>
   42c50:	defff804 	addi	sp,sp,-32
   42c54:	dcc00515 	stw	r19,20(sp)
   42c58:	dc800415 	stw	r18,16(sp)
   42c5c:	dc400315 	stw	r17,12(sp)
   42c60:	dc000215 	stw	r16,8(sp)
   42c64:	dfc00715 	stw	ra,28(sp)
   42c68:	dd000615 	stw	r20,24(sp)
   42c6c:	2823883a 	mov	r17,r5
   42c70:	2021883a 	mov	r16,r4
   42c74:	3027883a 	mov	r19,r6
   42c78:	04800044 	movi	r18,1
   42c7c:	00001306 	br	42ccc <_Unwind_RaiseException_Phase2+0x84>
   42c80:	18000e26 	beq	r3,zero,42cbc <_Unwind_RaiseException_Phase2+0x74>
   42c84:	01400084 	movi	r5,2
   42c88:	0029883a 	mov	r20,zero
   42c8c:	81800017 	ldw	r6,0(r16)
   42c90:	81c00117 	ldw	r7,4(r16)
   42c94:	01000044 	movi	r4,1
   42c98:	dc400115 	stw	r17,4(sp)
   42c9c:	dc000015 	stw	r16,0(sp)
   42ca0:	183ee83a 	callr	r3
   42ca4:	10c001e0 	cmpeqi	r3,r2,7
   42ca8:	18001a1e 	bne	r3,zero,42d14 <_Unwind_RaiseException_Phase2+0xcc>
   42cac:	10800218 	cmpnei	r2,r2,8
   42cb0:	10000d1e 	bne	r2,zero,42ce8 <_Unwind_RaiseException_Phase2+0xa0>
   42cb4:	a000191e 	bne	r20,zero,42d1c <_Unwind_RaiseException_Phase2+0xd4>
   42cb8:	88800017 	ldw	r2,0(r17)
   42cbc:	10800017 	ldw	r2,0(r2)
   42cc0:	94800044 	addi	r18,r18,1
   42cc4:	88800015 	stw	r2,0(r17)
   42cc8:	10000726 	beq	r2,zero,42ce8 <_Unwind_RaiseException_Phase2+0xa0>
   42ccc:	81000417 	ldw	r4,16(r16)
   42cd0:	10c00617 	ldw	r3,24(r2)
   42cd4:	113fea1e 	bne	r2,r4,42c80 <_Unwind_RaiseException_Phase2+0x38>
   42cd8:	18001026 	beq	r3,zero,42d1c <_Unwind_RaiseException_Phase2+0xd4>
   42cdc:	01400184 	movi	r5,6
   42ce0:	05000104 	movi	r20,4
   42ce4:	003fe906 	br	42c8c <_Unwind_RaiseException_Phase2+0x44>
   42ce8:	00800084 	movi	r2,2
   42cec:	dfc00717 	ldw	ra,28(sp)
   42cf0:	dd000617 	ldw	r20,24(sp)
   42cf4:	dcc00517 	ldw	r19,20(sp)
   42cf8:	dc800417 	ldw	r18,16(sp)
   42cfc:	dc400317 	ldw	r17,12(sp)
   42d00:	dc000217 	ldw	r16,8(sp)
   42d04:	dec00804 	addi	sp,sp,32
   42d08:	f800283a 	ret
   42d0c:	00800084 	movi	r2,2
   42d10:	f800283a 	ret
   42d14:	9c800015 	stw	r18,0(r19)
   42d18:	003ff406 	br	42cec <_Unwind_RaiseException_Phase2+0xa4>
   42d1c:	00430b80 	call	430b8 <abort>

00042d20 <uw_install_context.isra.0>:
   42d20:	deffff04 	addi	sp,sp,-4
   42d24:	df000015 	stw	fp,0(sp)
   42d28:	20800804 	addi	r2,r4,32
   42d2c:	00c00174 	movhi	r3,5
   42d30:	191c9315 	stw	r4,29260(r3)
   42d34:	d839883a 	mov	fp,sp
   42d38:	20c00917 	ldw	r3,36(r4)
   42d3c:	21000817 	ldw	r4,32(r4)
   42d40:	16c00217 	ldw	sp,8(r2)
   42d44:	2039883a 	mov	fp,r4
   42d48:	1800683a 	jmp	r3

00042d4c <_Unwind_SjLj_Register>:
   42d4c:	00800174 	movhi	r2,5
   42d50:	109c9317 	ldw	r2,29260(r2)
   42d54:	20800015 	stw	r2,0(r4)
   42d58:	00800174 	movhi	r2,5
   42d5c:	111c9315 	stw	r4,29260(r2)
   42d60:	f800283a 	ret

00042d64 <_Unwind_SjLj_Unregister>:
   42d64:	20c00017 	ldw	r3,0(r4)
   42d68:	00800174 	movhi	r2,5
   42d6c:	10dc9315 	stw	r3,29260(r2)
   42d70:	f800283a 	ret

00042d74 <_Unwind_GetGR>:
   42d74:	29400084 	addi	r5,r5,2
   42d78:	20800017 	ldw	r2,0(r4)
   42d7c:	280a90ba 	slli	r5,r5,2
   42d80:	114b883a 	add	r5,r2,r5
   42d84:	28800017 	ldw	r2,0(r5)
   42d88:	f800283a 	ret

00042d8c <_Unwind_GetCFA>:
   42d8c:	20800017 	ldw	r2,0(r4)
   42d90:	10000226 	beq	r2,zero,42d9c <_Unwind_GetCFA+0x10>
   42d94:	10800a17 	ldw	r2,40(r2)
   42d98:	f800283a 	ret
   42d9c:	0005883a 	mov	r2,zero
   42da0:	f800283a 	ret

00042da4 <_Unwind_SetGR>:
   42da4:	29400084 	addi	r5,r5,2
   42da8:	20800017 	ldw	r2,0(r4)
   42dac:	280a90ba 	slli	r5,r5,2
   42db0:	114b883a 	add	r5,r2,r5
   42db4:	29800015 	stw	r6,0(r5)
   42db8:	f800283a 	ret

00042dbc <_Unwind_GetIP>:
   42dbc:	20800017 	ldw	r2,0(r4)
   42dc0:	10800117 	ldw	r2,4(r2)
   42dc4:	10800044 	addi	r2,r2,1
   42dc8:	f800283a 	ret

00042dcc <_Unwind_GetIPInfo>:
   42dcc:	20800017 	ldw	r2,0(r4)
   42dd0:	28000015 	stw	zero,0(r5)
   42dd4:	10000326 	beq	r2,zero,42de4 <_Unwind_GetIPInfo+0x18>
   42dd8:	10800117 	ldw	r2,4(r2)
   42ddc:	10800044 	addi	r2,r2,1
   42de0:	f800283a 	ret
   42de4:	0005883a 	mov	r2,zero
   42de8:	f800283a 	ret

00042dec <_Unwind_SetIP>:
   42dec:	20800017 	ldw	r2,0(r4)
   42df0:	297fffc4 	addi	r5,r5,-1
   42df4:	11400115 	stw	r5,4(r2)
   42df8:	f800283a 	ret

00042dfc <_Unwind_GetLanguageSpecificData>:
   42dfc:	20800017 	ldw	r2,0(r4)
   42e00:	10800717 	ldw	r2,28(r2)
   42e04:	f800283a 	ret

00042e08 <_Unwind_GetRegionStart>:
   42e08:	0005883a 	mov	r2,zero
   42e0c:	f800283a 	ret

00042e10 <_Unwind_FindEnclosingFunction>:
   42e10:	0005883a 	mov	r2,zero
   42e14:	f800283a 	ret

00042e18 <_Unwind_GetDataRelBase>:
   42e18:	0005883a 	mov	r2,zero
   42e1c:	f800283a 	ret

00042e20 <_Unwind_GetTextRelBase>:
   42e20:	0005883a 	mov	r2,zero
   42e24:	f800283a 	ret

00042e28 <_Unwind_SjLj_RaiseException>:
   42e28:	defff804 	addi	sp,sp,-32
   42e2c:	00800174 	movhi	r2,5
   42e30:	dc400515 	stw	r17,20(sp)
   42e34:	145c9317 	ldw	r17,29260(r2)
   42e38:	dfc00715 	stw	ra,28(sp)
   42e3c:	dc800615 	stw	r18,24(sp)
   42e40:	dc000415 	stw	r16,16(sp)
   42e44:	dc400215 	stw	r17,8(sp)
   42e48:	88001426 	beq	r17,zero,42e9c <_Unwind_SjLj_RaiseException+0x74>
   42e4c:	2021883a 	mov	r16,r4
   42e50:	8805883a 	mov	r2,r17
   42e54:	dc800204 	addi	r18,sp,8
   42e58:	10800617 	ldw	r2,24(r2)
   42e5c:	10000b26 	beq	r2,zero,42e8c <_Unwind_SjLj_RaiseException+0x64>
   42e60:	81800017 	ldw	r6,0(r16)
   42e64:	81c00117 	ldw	r7,4(r16)
   42e68:	01400044 	movi	r5,1
   42e6c:	dc800115 	stw	r18,4(sp)
   42e70:	dc000015 	stw	r16,0(sp)
   42e74:	01000044 	movi	r4,1
   42e78:	103ee83a 	callr	r2
   42e7c:	10c001a0 	cmpeqi	r3,r2,6
   42e80:	18000d1e 	bne	r3,zero,42eb8 <_Unwind_SjLj_RaiseException+0x90>
   42e84:	10800218 	cmpnei	r2,r2,8
   42e88:	1000171e 	bne	r2,zero,42ee8 <_Unwind_SjLj_RaiseException+0xc0>
   42e8c:	d8800217 	ldw	r2,8(sp)
   42e90:	10800017 	ldw	r2,0(r2)
   42e94:	d8800215 	stw	r2,8(sp)
   42e98:	103fef1e 	bne	r2,zero,42e58 <_Unwind_SjLj_RaiseException+0x30>
   42e9c:	00800144 	movi	r2,5
   42ea0:	dfc00717 	ldw	ra,28(sp)
   42ea4:	dc800617 	ldw	r18,24(sp)
   42ea8:	dc400517 	ldw	r17,20(sp)
   42eac:	dc000417 	ldw	r16,16(sp)
   42eb0:	dec00804 	addi	sp,sp,32
   42eb4:	f800283a 	ret
   42eb8:	d8800217 	ldw	r2,8(sp)
   42ebc:	80000315 	stw	zero,12(r16)
   42ec0:	d9800304 	addi	r6,sp,12
   42ec4:	80800415 	stw	r2,16(r16)
   42ec8:	900b883a 	mov	r5,r18
   42ecc:	8009883a 	mov	r4,r16
   42ed0:	dc400215 	stw	r17,8(sp)
   42ed4:	0042c480 	call	42c48 <_Unwind_RaiseException_Phase2>
   42ed8:	10c001d8 	cmpnei	r3,r2,7
   42edc:	183ff01e 	bne	r3,zero,42ea0 <_Unwind_SjLj_RaiseException+0x78>
   42ee0:	d9000217 	ldw	r4,8(sp)
   42ee4:	0042d200 	call	42d20 <uw_install_context.isra.0>
   42ee8:	008000c4 	movi	r2,3
   42eec:	003fec06 	br	42ea0 <_Unwind_SjLj_RaiseException+0x78>

00042ef0 <_Unwind_SjLj_ForcedUnwind>:
   42ef0:	00800174 	movhi	r2,5
   42ef4:	defffd04 	addi	sp,sp,-12
   42ef8:	10dc9317 	ldw	r3,29260(r2)
   42efc:	dfc00215 	stw	ra,8(sp)
   42f00:	21400315 	stw	r5,12(r4)
   42f04:	21800415 	stw	r6,16(r4)
   42f08:	d80b883a 	mov	r5,sp
   42f0c:	d9800104 	addi	r6,sp,4
   42f10:	d8c00015 	stw	r3,0(sp)
   42f14:	0042b340 	call	42b34 <_Unwind_ForcedUnwind_Phase2>
   42f18:	10c001e0 	cmpeqi	r3,r2,7
   42f1c:	1800031e 	bne	r3,zero,42f2c <_Unwind_SjLj_ForcedUnwind+0x3c>
   42f20:	dfc00217 	ldw	ra,8(sp)
   42f24:	dec00304 	addi	sp,sp,12
   42f28:	f800283a 	ret
   42f2c:	d9000017 	ldw	r4,0(sp)
   42f30:	0042d200 	call	42d20 <uw_install_context.isra.0>

00042f34 <_Unwind_SjLj_Resume>:
   42f34:	00800174 	movhi	r2,5
   42f38:	10dc9317 	ldw	r3,29260(r2)
   42f3c:	20800317 	ldw	r2,12(r4)
   42f40:	defffd04 	addi	sp,sp,-12
   42f44:	dfc00215 	stw	ra,8(sp)
   42f48:	d8c00015 	stw	r3,0(sp)
   42f4c:	d9800104 	addi	r6,sp,4
   42f50:	d80b883a 	mov	r5,sp
   42f54:	1000051e 	bne	r2,zero,42f6c <_Unwind_SjLj_Resume+0x38>
   42f58:	0042c480 	call	42c48 <_Unwind_RaiseException_Phase2>
   42f5c:	108001e0 	cmpeqi	r2,r2,7
   42f60:	10000426 	beq	r2,zero,42f74 <_Unwind_SjLj_Resume+0x40>
   42f64:	d9000017 	ldw	r4,0(sp)
   42f68:	0042d200 	call	42d20 <uw_install_context.isra.0>
   42f6c:	0042b340 	call	42b34 <_Unwind_ForcedUnwind_Phase2>
   42f70:	003ffa06 	br	42f5c <_Unwind_SjLj_Resume+0x28>
   42f74:	00430b80 	call	430b8 <abort>

00042f78 <_Unwind_SjLj_Resume_or_Rethrow>:
   42f78:	20800317 	ldw	r2,12(r4)
   42f7c:	defffd04 	addi	sp,sp,-12
   42f80:	dfc00215 	stw	ra,8(sp)
   42f84:	1000041e 	bne	r2,zero,42f98 <_Unwind_SjLj_Resume_or_Rethrow+0x20>
   42f88:	0042e280 	call	42e28 <_Unwind_SjLj_RaiseException>
   42f8c:	dfc00217 	ldw	ra,8(sp)
   42f90:	dec00304 	addi	sp,sp,12
   42f94:	f800283a 	ret
   42f98:	00800174 	movhi	r2,5
   42f9c:	109c9317 	ldw	r2,29260(r2)
   42fa0:	d9800104 	addi	r6,sp,4
   42fa4:	d80b883a 	mov	r5,sp
   42fa8:	d8800015 	stw	r2,0(sp)
   42fac:	0042b340 	call	42b34 <_Unwind_ForcedUnwind_Phase2>
   42fb0:	108001e0 	cmpeqi	r2,r2,7
   42fb4:	10000226 	beq	r2,zero,42fc0 <_Unwind_SjLj_Resume_or_Rethrow+0x48>
   42fb8:	d9000017 	ldw	r4,0(sp)
   42fbc:	0042d200 	call	42d20 <uw_install_context.isra.0>
   42fc0:	00430b80 	call	430b8 <abort>

00042fc4 <_Unwind_DeleteException>:
   42fc4:	20800217 	ldw	r2,8(r4)
   42fc8:	200b883a 	mov	r5,r4
   42fcc:	10000226 	beq	r2,zero,42fd8 <_Unwind_DeleteException+0x14>
   42fd0:	01000044 	movi	r4,1
   42fd4:	1000683a 	jmp	r2
   42fd8:	f800283a 	ret

00042fdc <_Unwind_Backtrace>:
   42fdc:	00800174 	movhi	r2,5
   42fe0:	109c9317 	ldw	r2,29260(r2)
   42fe4:	defffb04 	addi	sp,sp,-20
   42fe8:	dc800315 	stw	r18,12(sp)
   42fec:	dc400215 	stw	r17,8(sp)
   42ff0:	dc000115 	stw	r16,4(sp)
   42ff4:	dfc00415 	stw	ra,16(sp)
   42ff8:	d8800015 	stw	r2,0(sp)
   42ffc:	2021883a 	mov	r16,r4
   43000:	2823883a 	mov	r17,r5
   43004:	d825883a 	mov	r18,sp
   43008:	10000826 	beq	r2,zero,4302c <_Unwind_Backtrace+0x50>
   4300c:	880b883a 	mov	r5,r17
   43010:	9009883a 	mov	r4,r18
   43014:	803ee83a 	callr	r16
   43018:	1000101e 	bne	r2,zero,4305c <_Unwind_Backtrace+0x80>
   4301c:	d8800017 	ldw	r2,0(sp)
   43020:	10800017 	ldw	r2,0(r2)
   43024:	d8800015 	stw	r2,0(sp)
   43028:	103ff81e 	bne	r2,zero,4300c <_Unwind_Backtrace+0x30>
   4302c:	880b883a 	mov	r5,r17
   43030:	9009883a 	mov	r4,r18
   43034:	803ee83a 	callr	r16
   43038:	00c00144 	movi	r3,5
   4303c:	1000071e 	bne	r2,zero,4305c <_Unwind_Backtrace+0x80>
   43040:	1805883a 	mov	r2,r3
   43044:	dfc00417 	ldw	ra,16(sp)
   43048:	dc800317 	ldw	r18,12(sp)
   4304c:	dc400217 	ldw	r17,8(sp)
   43050:	dc000117 	ldw	r16,4(sp)
   43054:	dec00504 	addi	sp,sp,20
   43058:	f800283a 	ret
   4305c:	00c000c4 	movi	r3,3
   43060:	003ff706 	br	43040 <_Unwind_Backtrace+0x64>

00043064 <__clzsi2>:
   43064:	00bfffd4 	movui	r2,65535
   43068:	11000436 	bltu	r2,r4,4307c <__clzsi2+0x18>
   4306c:	20804030 	cmpltui	r2,r4,256
   43070:	10000e26 	beq	r2,zero,430ac <__clzsi2+0x48>
   43074:	01400804 	movi	r5,32
   43078:	00000406 	br	4308c <__clzsi2+0x28>
   4307c:	00804034 	movhi	r2,256
   43080:	20800736 	bltu	r4,r2,430a0 <__clzsi2+0x3c>
   43084:	2008d63a 	srli	r4,r4,24
   43088:	01400204 	movi	r5,8
   4308c:	00c00174 	movhi	r3,5
   43090:	20c7883a 	add	r3,r4,r3
   43094:	188cf603 	ldbu	r2,13272(r3)
   43098:	2885c83a 	sub	r2,r5,r2
   4309c:	f800283a 	ret
   430a0:	2008d43a 	srli	r4,r4,16
   430a4:	01400404 	movi	r5,16
   430a8:	003ff806 	br	4308c <__clzsi2+0x28>
   430ac:	2008d23a 	srli	r4,r4,8
   430b0:	01400604 	movi	r5,24
   430b4:	003ff506 	br	4308c <__clzsi2+0x28>

000430b8 <abort>:
   430b8:	deffff04 	addi	sp,sp,-4
   430bc:	01000184 	movi	r4,6
   430c0:	dfc00015 	stw	ra,0(sp)
   430c4:	0043c780 	call	43c78 <raise>
   430c8:	01000044 	movi	r4,1
   430cc:	0050b600 	call	50b60 <_exit>

000430d0 <malloc>:
   430d0:	00800174 	movhi	r2,5
   430d4:	200b883a 	mov	r5,r4
   430d8:	11158317 	ldw	r4,22028(r2)
   430dc:	00430f01 	jmpi	430f0 <_malloc_r>

000430e0 <free>:
   430e0:	00800174 	movhi	r2,5
   430e4:	200b883a 	mov	r5,r4
   430e8:	11158317 	ldw	r4,22028(r2)
   430ec:	0047b141 	jmpi	47b14 <_free_r>

000430f0 <_malloc_r>:
   430f0:	defff604 	addi	sp,sp,-40
   430f4:	dc400115 	stw	r17,4(sp)
   430f8:	2c4002c4 	addi	r17,r5,11
   430fc:	dc800215 	stw	r18,8(sp)
   43100:	dfc00915 	stw	ra,36(sp)
   43104:	df000815 	stw	fp,32(sp)
   43108:	ddc00715 	stw	r23,28(sp)
   4310c:	dd800615 	stw	r22,24(sp)
   43110:	dd400515 	stw	r21,20(sp)
   43114:	dd000415 	stw	r20,16(sp)
   43118:	dcc00315 	stw	r19,12(sp)
   4311c:	dc000015 	stw	r16,0(sp)
   43120:	888005e8 	cmpgeui	r2,r17,23
   43124:	2025883a 	mov	r18,r4
   43128:	10001b1e 	bne	r2,zero,43198 <_malloc_r+0xa8>
   4312c:	29400468 	cmpgeui	r5,r5,17
   43130:	2800821e 	bne	r5,zero,4333c <_malloc_r+0x24c>
   43134:	00511640 	call	51164 <__malloc_lock>
   43138:	04400404 	movi	r17,16
   4313c:	01c00084 	movi	r7,2
   43140:	00800604 	movi	r2,24
   43144:	04c00174 	movhi	r19,5
   43148:	9cce8d04 	addi	r19,r19,14900
   4314c:	9885883a 	add	r2,r19,r2
   43150:	14000117 	ldw	r16,4(r2)
   43154:	10fffe04 	addi	r3,r2,-8
   43158:	80c08b26 	beq	r16,r3,43388 <_malloc_r+0x298>
   4315c:	80800117 	ldw	r2,4(r16)
   43160:	81000317 	ldw	r4,12(r16)
   43164:	00ffff04 	movi	r3,-4
   43168:	10c4703a 	and	r2,r2,r3
   4316c:	81400217 	ldw	r5,8(r16)
   43170:	8085883a 	add	r2,r16,r2
   43174:	10c00117 	ldw	r3,4(r2)
   43178:	29000315 	stw	r4,12(r5)
   4317c:	21400215 	stw	r5,8(r4)
   43180:	18c00054 	ori	r3,r3,1
   43184:	10c00115 	stw	r3,4(r2)
   43188:	9009883a 	mov	r4,r18
   4318c:	00511880 	call	51188 <__malloc_unlock>
   43190:	80800204 	addi	r2,r16,8
   43194:	00006c06 	br	43348 <_malloc_r+0x258>
   43198:	00bffe04 	movi	r2,-8
   4319c:	88a2703a 	and	r17,r17,r2
   431a0:	88006616 	blt	r17,zero,4333c <_malloc_r+0x24c>
   431a4:	89406536 	bltu	r17,r5,4333c <_malloc_r+0x24c>
   431a8:	00511640 	call	51164 <__malloc_lock>
   431ac:	88807e28 	cmpgeui	r2,r17,504
   431b0:	10012226 	beq	r2,zero,4363c <_malloc_r+0x54c>
   431b4:	8804d27a 	srli	r2,r17,9
   431b8:	10006f26 	beq	r2,zero,43378 <_malloc_r+0x288>
   431bc:	10c00168 	cmpgeui	r3,r2,5
   431c0:	1800fe1e 	bne	r3,zero,435bc <_malloc_r+0x4cc>
   431c4:	8804d1ba 	srli	r2,r17,6
   431c8:	11c00e44 	addi	r7,r2,57
   431cc:	380890fa 	slli	r4,r7,3
   431d0:	12000e04 	addi	r8,r2,56
   431d4:	04c00174 	movhi	r19,5
   431d8:	9cce8d04 	addi	r19,r19,14900
   431dc:	9909883a 	add	r4,r19,r4
   431e0:	24000117 	ldw	r16,4(r4)
   431e4:	213ffe04 	addi	r4,r4,-8
   431e8:	24000b26 	beq	r4,r16,43218 <_malloc_r+0x128>
   431ec:	01bfff04 	movi	r6,-4
   431f0:	00000306 	br	43200 <_malloc_r+0x110>
   431f4:	1800d60e 	bge	r3,zero,43550 <_malloc_r+0x460>
   431f8:	84000317 	ldw	r16,12(r16)
   431fc:	24000626 	beq	r4,r16,43218 <_malloc_r+0x128>
   43200:	80800117 	ldw	r2,4(r16)
   43204:	1184703a 	and	r2,r2,r6
   43208:	1447c83a 	sub	r3,r2,r17
   4320c:	19400408 	cmpgei	r5,r3,16
   43210:	283ff826 	beq	r5,zero,431f4 <_malloc_r+0x104>
   43214:	400f883a 	mov	r7,r8
   43218:	9c000417 	ldw	r16,16(r19)
   4321c:	02400174 	movhi	r9,5
   43220:	4a4e8f04 	addi	r9,r9,14908
   43224:	82405f26 	beq	r16,r9,433a4 <_malloc_r+0x2b4>
   43228:	80c00117 	ldw	r3,4(r16)
   4322c:	00bfff04 	movi	r2,-4
   43230:	1884703a 	and	r2,r3,r2
   43234:	1447c83a 	sub	r3,r2,r17
   43238:	19000410 	cmplti	r4,r3,16
   4323c:	20010a26 	beq	r4,zero,43668 <_malloc_r+0x578>
   43240:	9a400515 	stw	r9,20(r19)
   43244:	9a400415 	stw	r9,16(r19)
   43248:	1800ff0e 	bge	r3,zero,43648 <_malloc_r+0x558>
   4324c:	10c08028 	cmpgeui	r3,r2,512
   43250:	1800c11e 	bne	r3,zero,43558 <_malloc_r+0x468>
   43254:	1006d0fa 	srli	r3,r2,3
   43258:	1008d17a 	srli	r4,r2,5
   4325c:	00800044 	movi	r2,1
   43260:	18c00044 	addi	r3,r3,1
   43264:	180690fa 	slli	r3,r3,3
   43268:	99400117 	ldw	r5,4(r19)
   4326c:	1104983a 	sll	r2,r2,r4
   43270:	98c7883a 	add	r3,r19,r3
   43274:	19000017 	ldw	r4,0(r3)
   43278:	1144b03a 	or	r2,r2,r5
   4327c:	197ffe04 	addi	r5,r3,-8
   43280:	81400315 	stw	r5,12(r16)
   43284:	81000215 	stw	r4,8(r16)
   43288:	98800115 	stw	r2,4(r19)
   4328c:	1c000015 	stw	r16,0(r3)
   43290:	24000315 	stw	r16,12(r4)
   43294:	3807d0ba 	srai	r3,r7,2
   43298:	01000044 	movi	r4,1
   4329c:	20c8983a 	sll	r4,r4,r3
   432a0:	11004536 	bltu	r2,r4,433b8 <_malloc_r+0x2c8>
   432a4:	2086703a 	and	r3,r4,r2
   432a8:	18000a1e 	bne	r3,zero,432d4 <_malloc_r+0x1e4>
   432ac:	00ffff04 	movi	r3,-4
   432b0:	2109883a 	add	r4,r4,r4
   432b4:	38ce703a 	and	r7,r7,r3
   432b8:	2086703a 	and	r3,r4,r2
   432bc:	39c00104 	addi	r7,r7,4
   432c0:	1800041e 	bne	r3,zero,432d4 <_malloc_r+0x1e4>
   432c4:	2109883a 	add	r4,r4,r4
   432c8:	2086703a 	and	r3,r4,r2
   432cc:	39c00104 	addi	r7,r7,4
   432d0:	183ffc26 	beq	r3,zero,432c4 <_malloc_r+0x1d4>
   432d4:	02bfff04 	movi	r10,-4
   432d8:	381690fa 	slli	r11,r7,3
   432dc:	3819883a 	mov	r12,r7
   432e0:	9ad7883a 	add	r11,r19,r11
   432e4:	5811883a 	mov	r8,r11
   432e8:	40800317 	ldw	r2,12(r8)
   432ec:	4080bc26 	beq	r8,r2,435e0 <_malloc_r+0x4f0>
   432f0:	10c00117 	ldw	r3,4(r2)
   432f4:	1021883a 	mov	r16,r2
   432f8:	10800317 	ldw	r2,12(r2)
   432fc:	1a86703a 	and	r3,r3,r10
   43300:	1c4bc83a 	sub	r5,r3,r17
   43304:	29800410 	cmplti	r6,r5,16
   43308:	3000ba26 	beq	r6,zero,435f4 <_malloc_r+0x504>
   4330c:	283ff716 	blt	r5,zero,432ec <_malloc_r+0x1fc>
   43310:	80c7883a 	add	r3,r16,r3
   43314:	19400117 	ldw	r5,4(r3)
   43318:	81800217 	ldw	r6,8(r16)
   4331c:	9009883a 	mov	r4,r18
   43320:	29400054 	ori	r5,r5,1
   43324:	19400115 	stw	r5,4(r3)
   43328:	30800315 	stw	r2,12(r6)
   4332c:	11800215 	stw	r6,8(r2)
   43330:	00511880 	call	51188 <__malloc_unlock>
   43334:	80800204 	addi	r2,r16,8
   43338:	00000306 	br	43348 <_malloc_r+0x258>
   4333c:	00800304 	movi	r2,12
   43340:	90800015 	stw	r2,0(r18)
   43344:	0005883a 	mov	r2,zero
   43348:	dfc00917 	ldw	ra,36(sp)
   4334c:	df000817 	ldw	fp,32(sp)
   43350:	ddc00717 	ldw	r23,28(sp)
   43354:	dd800617 	ldw	r22,24(sp)
   43358:	dd400517 	ldw	r21,20(sp)
   4335c:	dd000417 	ldw	r20,16(sp)
   43360:	dcc00317 	ldw	r19,12(sp)
   43364:	dc800217 	ldw	r18,8(sp)
   43368:	dc400117 	ldw	r17,4(sp)
   4336c:	dc000017 	ldw	r16,0(sp)
   43370:	dec00a04 	addi	sp,sp,40
   43374:	f800283a 	ret
   43378:	01008004 	movi	r4,512
   4337c:	01c01004 	movi	r7,64
   43380:	02000fc4 	movi	r8,63
   43384:	003f9306 	br	431d4 <_malloc_r+0xe4>
   43388:	14000317 	ldw	r16,12(r2)
   4338c:	39c00084 	addi	r7,r7,2
   43390:	143f721e 	bne	r2,r16,4315c <_malloc_r+0x6c>
   43394:	9c000417 	ldw	r16,16(r19)
   43398:	02400174 	movhi	r9,5
   4339c:	4a4e8f04 	addi	r9,r9,14908
   433a0:	827fa11e 	bne	r16,r9,43228 <_malloc_r+0x138>
   433a4:	3807d0ba 	srai	r3,r7,2
   433a8:	01000044 	movi	r4,1
   433ac:	98800117 	ldw	r2,4(r19)
   433b0:	20c8983a 	sll	r4,r4,r3
   433b4:	113fbb2e 	bgeu	r2,r4,432a4 <_malloc_r+0x1b4>
   433b8:	9c000217 	ldw	r16,8(r19)
   433bc:	00bfff04 	movi	r2,-4
   433c0:	85400117 	ldw	r21,4(r16)
   433c4:	a8ac703a 	and	r22,r21,r2
   433c8:	b4400336 	bltu	r22,r17,433d8 <_malloc_r+0x2e8>
   433cc:	b445c83a 	sub	r2,r22,r17
   433d0:	10c00408 	cmpgei	r3,r2,16
   433d4:	1800541e 	bne	r3,zero,43528 <_malloc_r+0x438>
   433d8:	00800174 	movhi	r2,5
   433dc:	10958017 	ldw	r2,22016(r2)
   433e0:	00c00174 	movhi	r3,5
   433e4:	1d5c9617 	ldw	r21,29272(r3)
   433e8:	10bfffd8 	cmpnei	r2,r2,-1
   433ec:	85b9883a 	add	fp,r16,r22
   433f0:	8d6b883a 	add	r21,r17,r21
   433f4:	1000d626 	beq	r2,zero,43750 <_malloc_r+0x660>
   433f8:	ad4403c4 	addi	r21,r21,4111
   433fc:	00bc0004 	movi	r2,-4096
   43400:	a8aa703a 	and	r21,r21,r2
   43404:	a80b883a 	mov	r5,r21
   43408:	9009883a 	mov	r4,r18
   4340c:	00439c00 	call	439c0 <_sbrk_r>
   43410:	102f883a 	mov	r23,r2
   43414:	10bfffd8 	cmpnei	r2,r2,-1
   43418:	1000a826 	beq	r2,zero,436bc <_malloc_r+0x5cc>
   4341c:	bf00a636 	bltu	r23,fp,436b8 <_malloc_r+0x5c8>
   43420:	00800174 	movhi	r2,5
   43424:	151ca417 	ldw	r20,29328(r2)
   43428:	ad29883a 	add	r20,r21,r20
   4342c:	151ca415 	stw	r20,29328(r2)
   43430:	a007883a 	mov	r3,r20
   43434:	e5c0ec26 	beq	fp,r23,437e8 <_malloc_r+0x6f8>
   43438:	00800174 	movhi	r2,5
   4343c:	10958017 	ldw	r2,22016(r2)
   43440:	10bfffd8 	cmpnei	r2,r2,-1
   43444:	1000ef26 	beq	r2,zero,43804 <_malloc_r+0x714>
   43448:	bf39c83a 	sub	fp,r23,fp
   4344c:	e0c7883a 	add	r3,fp,r3
   43450:	00800174 	movhi	r2,5
   43454:	10dca415 	stw	r3,29328(r2)
   43458:	bf0001cc 	andi	fp,r23,7
   4345c:	e000c526 	beq	fp,zero,43774 <_malloc_r+0x684>
   43460:	bf2fc83a 	sub	r23,r23,fp
   43464:	bdc00204 	addi	r23,r23,8
   43468:	05040204 	movi	r20,4104
   4346c:	a729c83a 	sub	r20,r20,fp
   43470:	bd6b883a 	add	r21,r23,r21
   43474:	a569c83a 	sub	r20,r20,r21
   43478:	a503ffcc 	andi	r20,r20,4095
   4347c:	a00b883a 	mov	r5,r20
   43480:	9009883a 	mov	r4,r18
   43484:	00439c00 	call	439c0 <_sbrk_r>
   43488:	10ffffe0 	cmpeqi	r3,r2,-1
   4348c:	1800f31e 	bne	r3,zero,4385c <_malloc_r+0x76c>
   43490:	15c5c83a 	sub	r2,r2,r23
   43494:	152b883a 	add	r21,r2,r20
   43498:	00800174 	movhi	r2,5
   4349c:	115ca417 	ldw	r5,29328(r2)
   434a0:	9dc00215 	stw	r23,8(r19)
   434a4:	ad400054 	ori	r21,r21,1
   434a8:	a169883a 	add	r20,r20,r5
   434ac:	151ca415 	stw	r20,29328(r2)
   434b0:	bd400115 	stw	r21,4(r23)
   434b4:	84c0d626 	beq	r16,r19,43810 <_malloc_r+0x720>
   434b8:	b0800428 	cmpgeui	r2,r22,16
   434bc:	1000d626 	beq	r2,zero,43818 <_malloc_r+0x728>
   434c0:	80c00117 	ldw	r3,4(r16)
   434c4:	013ffe04 	movi	r4,-8
   434c8:	b0bffd04 	addi	r2,r22,-12
   434cc:	1104703a 	and	r2,r2,r4
   434d0:	18c0004c 	andi	r3,r3,1
   434d4:	1886b03a 	or	r3,r3,r2
   434d8:	80c00115 	stw	r3,4(r16)
   434dc:	01000144 	movi	r4,5
   434e0:	8087883a 	add	r3,r16,r2
   434e4:	19000115 	stw	r4,4(r3)
   434e8:	19000215 	stw	r4,8(r3)
   434ec:	10800428 	cmpgeui	r2,r2,16
   434f0:	1000df1e 	bne	r2,zero,43870 <_malloc_r+0x780>
   434f4:	bd400117 	ldw	r21,4(r23)
   434f8:	b821883a 	mov	r16,r23
   434fc:	00800174 	movhi	r2,5
   43500:	109c9517 	ldw	r2,29268(r2)
   43504:	1500022e 	bgeu	r2,r20,43510 <_malloc_r+0x420>
   43508:	00800174 	movhi	r2,5
   4350c:	151c9515 	stw	r20,29268(r2)
   43510:	00800174 	movhi	r2,5
   43514:	109c9417 	ldw	r2,29264(r2)
   43518:	15006a2e 	bgeu	r2,r20,436c4 <_malloc_r+0x5d4>
   4351c:	00800174 	movhi	r2,5
   43520:	151c9415 	stw	r20,29264(r2)
   43524:	00006706 	br	436c4 <_malloc_r+0x5d4>
   43528:	88c00054 	ori	r3,r17,1
   4352c:	80c00115 	stw	r3,4(r16)
   43530:	8463883a 	add	r17,r16,r17
   43534:	10800054 	ori	r2,r2,1
   43538:	9c400215 	stw	r17,8(r19)
   4353c:	88800115 	stw	r2,4(r17)
   43540:	9009883a 	mov	r4,r18
   43544:	00511880 	call	51188 <__malloc_unlock>
   43548:	80800204 	addi	r2,r16,8
   4354c:	003f7e06 	br	43348 <_malloc_r+0x258>
   43550:	81000317 	ldw	r4,12(r16)
   43554:	003f0506 	br	4316c <_malloc_r+0x7c>
   43558:	1006d27a 	srli	r3,r2,9
   4355c:	19000168 	cmpgeui	r4,r3,5
   43560:	20005026 	beq	r4,zero,436a4 <_malloc_r+0x5b4>
   43564:	19000568 	cmpgeui	r4,r3,21
   43568:	20008c1e 	bne	r4,zero,4379c <_malloc_r+0x6ac>
   4356c:	19401704 	addi	r5,r3,92
   43570:	280a90fa 	slli	r5,r5,3
   43574:	190016c4 	addi	r4,r3,91
   43578:	994b883a 	add	r5,r19,r5
   4357c:	28c00017 	ldw	r3,0(r5)
   43580:	297ffe04 	addi	r5,r5,-8
   43584:	28c07426 	beq	r5,r3,43758 <_malloc_r+0x668>
   43588:	01bfff04 	movi	r6,-4
   4358c:	19000117 	ldw	r4,4(r3)
   43590:	2188703a 	and	r4,r4,r6
   43594:	1100022e 	bgeu	r2,r4,435a0 <_malloc_r+0x4b0>
   43598:	18c00217 	ldw	r3,8(r3)
   4359c:	28fffb1e 	bne	r5,r3,4358c <_malloc_r+0x49c>
   435a0:	19400317 	ldw	r5,12(r3)
   435a4:	98800117 	ldw	r2,4(r19)
   435a8:	81400315 	stw	r5,12(r16)
   435ac:	80c00215 	stw	r3,8(r16)
   435b0:	2c000215 	stw	r16,8(r5)
   435b4:	1c000315 	stw	r16,12(r3)
   435b8:	003f3606 	br	43294 <_malloc_r+0x1a4>
   435bc:	10c00568 	cmpgeui	r3,r2,21
   435c0:	18004a26 	beq	r3,zero,436ec <_malloc_r+0x5fc>
   435c4:	10c01568 	cmpgeui	r3,r2,85
   435c8:	18007b1e 	bne	r3,zero,437b8 <_malloc_r+0x6c8>
   435cc:	8804d33a 	srli	r2,r17,12
   435d0:	11c01bc4 	addi	r7,r2,111
   435d4:	380890fa 	slli	r4,r7,3
   435d8:	12001b84 	addi	r8,r2,110
   435dc:	003efd06 	br	431d4 <_malloc_r+0xe4>
   435e0:	63000044 	addi	r12,r12,1
   435e4:	608000cc 	andi	r2,r12,3
   435e8:	42000204 	addi	r8,r8,8
   435ec:	103f3e1e 	bne	r2,zero,432e8 <_malloc_r+0x1f8>
   435f0:	00004506 	br	43708 <_malloc_r+0x618>
   435f4:	81000217 	ldw	r4,8(r16)
   435f8:	89800054 	ori	r6,r17,1
   435fc:	81800115 	stw	r6,4(r16)
   43600:	20800315 	stw	r2,12(r4)
   43604:	11000215 	stw	r4,8(r2)
   43608:	8463883a 	add	r17,r16,r17
   4360c:	9c400515 	stw	r17,20(r19)
   43610:	9c400415 	stw	r17,16(r19)
   43614:	28800054 	ori	r2,r5,1
   43618:	88800115 	stw	r2,4(r17)
   4361c:	8a400315 	stw	r9,12(r17)
   43620:	8a400215 	stw	r9,8(r17)
   43624:	80c7883a 	add	r3,r16,r3
   43628:	19400015 	stw	r5,0(r3)
   4362c:	9009883a 	mov	r4,r18
   43630:	00511880 	call	51188 <__malloc_unlock>
   43634:	80800204 	addi	r2,r16,8
   43638:	003f4306 	br	43348 <_malloc_r+0x258>
   4363c:	880ed0fa 	srli	r7,r17,3
   43640:	88800204 	addi	r2,r17,8
   43644:	003ebf06 	br	43144 <_malloc_r+0x54>
   43648:	8085883a 	add	r2,r16,r2
   4364c:	10c00117 	ldw	r3,4(r2)
   43650:	9009883a 	mov	r4,r18
   43654:	18c00054 	ori	r3,r3,1
   43658:	10c00115 	stw	r3,4(r2)
   4365c:	00511880 	call	51188 <__malloc_unlock>
   43660:	80800204 	addi	r2,r16,8
   43664:	003f3806 	br	43348 <_malloc_r+0x258>
   43668:	89000054 	ori	r4,r17,1
   4366c:	81000115 	stw	r4,4(r16)
   43670:	8463883a 	add	r17,r16,r17
   43674:	9c400515 	stw	r17,20(r19)
   43678:	9c400415 	stw	r17,16(r19)
   4367c:	19000054 	ori	r4,r3,1
   43680:	89000115 	stw	r4,4(r17)
   43684:	8085883a 	add	r2,r16,r2
   43688:	8a400315 	stw	r9,12(r17)
   4368c:	8a400215 	stw	r9,8(r17)
   43690:	10c00015 	stw	r3,0(r2)
   43694:	9009883a 	mov	r4,r18
   43698:	00511880 	call	51188 <__malloc_unlock>
   4369c:	80800204 	addi	r2,r16,8
   436a0:	003f2906 	br	43348 <_malloc_r+0x258>
   436a4:	1006d1ba 	srli	r3,r2,6
   436a8:	19400e44 	addi	r5,r3,57
   436ac:	280a90fa 	slli	r5,r5,3
   436b0:	19000e04 	addi	r4,r3,56
   436b4:	003fb006 	br	43578 <_malloc_r+0x488>
   436b8:	84c04626 	beq	r16,r19,437d4 <_malloc_r+0x6e4>
   436bc:	9c000217 	ldw	r16,8(r19)
   436c0:	85400117 	ldw	r21,4(r16)
   436c4:	00bfff04 	movi	r2,-4
   436c8:	a8aa703a 	and	r21,r21,r2
   436cc:	ac45c83a 	sub	r2,r21,r17
   436d0:	ac400236 	bltu	r21,r17,436dc <_malloc_r+0x5ec>
   436d4:	10c00408 	cmpgei	r3,r2,16
   436d8:	183f931e 	bne	r3,zero,43528 <_malloc_r+0x438>
   436dc:	9009883a 	mov	r4,r18
   436e0:	00511880 	call	51188 <__malloc_unlock>
   436e4:	0005883a 	mov	r2,zero
   436e8:	003f1706 	br	43348 <_malloc_r+0x258>
   436ec:	11c01704 	addi	r7,r2,92
   436f0:	380890fa 	slli	r4,r7,3
   436f4:	120016c4 	addi	r8,r2,91
   436f8:	003eb606 	br	431d4 <_malloc_r+0xe4>
   436fc:	58800217 	ldw	r2,8(r11)
   43700:	39ffffc4 	addi	r7,r7,-1
   43704:	12c0701e 	bne	r2,r11,438c8 <_malloc_r+0x7d8>
   43708:	388000cc 	andi	r2,r7,3
   4370c:	5afffe04 	addi	r11,r11,-8
   43710:	103ffa1e 	bne	r2,zero,436fc <_malloc_r+0x60c>
   43714:	98c00117 	ldw	r3,4(r19)
   43718:	0104303a 	nor	r2,zero,r4
   4371c:	10c4703a 	and	r2,r2,r3
   43720:	98800115 	stw	r2,4(r19)
   43724:	2109883a 	add	r4,r4,r4
   43728:	113f2336 	bltu	r2,r4,433b8 <_malloc_r+0x2c8>
   4372c:	203f2226 	beq	r4,zero,433b8 <_malloc_r+0x2c8>
   43730:	2086703a 	and	r3,r4,r2
   43734:	1800041e 	bne	r3,zero,43748 <_malloc_r+0x658>
   43738:	2109883a 	add	r4,r4,r4
   4373c:	2086703a 	and	r3,r4,r2
   43740:	63000104 	addi	r12,r12,4
   43744:	183ffc26 	beq	r3,zero,43738 <_malloc_r+0x648>
   43748:	600f883a 	mov	r7,r12
   4374c:	003ee206 	br	432d8 <_malloc_r+0x1e8>
   43750:	ad400404 	addi	r21,r21,16
   43754:	003f2b06 	br	43404 <_malloc_r+0x314>
   43758:	2009d0ba 	srai	r4,r4,2
   4375c:	00800044 	movi	r2,1
   43760:	99800117 	ldw	r6,4(r19)
   43764:	1104983a 	sll	r2,r2,r4
   43768:	1184b03a 	or	r2,r2,r6
   4376c:	98800115 	stw	r2,4(r19)
   43770:	003f8d06 	br	435a8 <_malloc_r+0x4b8>
   43774:	bd69883a 	add	r20,r23,r21
   43778:	0529c83a 	sub	r20,zero,r20
   4377c:	a503ffcc 	andi	r20,r20,4095
   43780:	a00b883a 	mov	r5,r20
   43784:	9009883a 	mov	r4,r18
   43788:	00439c00 	call	439c0 <_sbrk_r>
   4378c:	10ffffe0 	cmpeqi	r3,r2,-1
   43790:	183f3f26 	beq	r3,zero,43490 <_malloc_r+0x3a0>
   43794:	0029883a 	mov	r20,zero
   43798:	003f3f06 	br	43498 <_malloc_r+0x3a8>
   4379c:	19001568 	cmpgeui	r4,r3,85
   437a0:	2000201e 	bne	r4,zero,43824 <_malloc_r+0x734>
   437a4:	1006d33a 	srli	r3,r2,12
   437a8:	19401bc4 	addi	r5,r3,111
   437ac:	280a90fa 	slli	r5,r5,3
   437b0:	19001b84 	addi	r4,r3,110
   437b4:	003f7006 	br	43578 <_malloc_r+0x488>
   437b8:	10c05568 	cmpgeui	r3,r2,341
   437bc:	1800201e 	bne	r3,zero,43840 <_malloc_r+0x750>
   437c0:	8804d3fa 	srli	r2,r17,15
   437c4:	11c01e04 	addi	r7,r2,120
   437c8:	380890fa 	slli	r4,r7,3
   437cc:	12001dc4 	addi	r8,r2,119
   437d0:	003e8006 	br	431d4 <_malloc_r+0xe4>
   437d4:	00800174 	movhi	r2,5
   437d8:	10dca417 	ldw	r3,29328(r2)
   437dc:	a8c7883a 	add	r3,r21,r3
   437e0:	10dca415 	stw	r3,29328(r2)
   437e4:	003f1406 	br	43438 <_malloc_r+0x348>
   437e8:	e083ffcc 	andi	r2,fp,4095
   437ec:	103f121e 	bne	r2,zero,43438 <_malloc_r+0x348>
   437f0:	9c000217 	ldw	r16,8(r19)
   437f4:	b56b883a 	add	r21,r22,r21
   437f8:	ad400054 	ori	r21,r21,1
   437fc:	85400115 	stw	r21,4(r16)
   43800:	003f3e06 	br	434fc <_malloc_r+0x40c>
   43804:	00800174 	movhi	r2,5
   43808:	15d58015 	stw	r23,22016(r2)
   4380c:	003f1206 	br	43458 <_malloc_r+0x368>
   43810:	b821883a 	mov	r16,r23
   43814:	003f3906 	br	434fc <_malloc_r+0x40c>
   43818:	00800044 	movi	r2,1
   4381c:	b8800115 	stw	r2,4(r23)
   43820:	003fae06 	br	436dc <_malloc_r+0x5ec>
   43824:	19005568 	cmpgeui	r4,r3,341
   43828:	2000191e 	bne	r4,zero,43890 <_malloc_r+0x7a0>
   4382c:	1006d3fa 	srli	r3,r2,15
   43830:	19401e04 	addi	r5,r3,120
   43834:	280a90fa 	slli	r5,r5,3
   43838:	19001dc4 	addi	r4,r3,119
   4383c:	003f4e06 	br	43578 <_malloc_r+0x488>
   43840:	10815568 	cmpgeui	r2,r2,1365
   43844:	1000191e 	bne	r2,zero,438ac <_malloc_r+0x7bc>
   43848:	8804d4ba 	srli	r2,r17,18
   4384c:	11c01f44 	addi	r7,r2,125
   43850:	380890fa 	slli	r4,r7,3
   43854:	12001f04 	addi	r8,r2,124
   43858:	003e5e06 	br	431d4 <_malloc_r+0xe4>
   4385c:	e73ffe04 	addi	fp,fp,-8
   43860:	af2b883a 	add	r21,r21,fp
   43864:	adebc83a 	sub	r21,r21,r23
   43868:	0029883a 	mov	r20,zero
   4386c:	003f0a06 	br	43498 <_malloc_r+0x3a8>
   43870:	81400204 	addi	r5,r16,8
   43874:	9009883a 	mov	r4,r18
   43878:	0047b140 	call	47b14 <_free_r>
   4387c:	9c000217 	ldw	r16,8(r19)
   43880:	00800174 	movhi	r2,5
   43884:	151ca417 	ldw	r20,29328(r2)
   43888:	85400117 	ldw	r21,4(r16)
   4388c:	003f1b06 	br	434fc <_malloc_r+0x40c>
   43890:	18c15568 	cmpgeui	r3,r3,1365
   43894:	1800091e 	bne	r3,zero,438bc <_malloc_r+0x7cc>
   43898:	1006d4ba 	srli	r3,r2,18
   4389c:	19401f44 	addi	r5,r3,125
   438a0:	280a90fa 	slli	r5,r5,3
   438a4:	19001f04 	addi	r4,r3,124
   438a8:	003f3306 	br	43578 <_malloc_r+0x488>
   438ac:	0100fe04 	movi	r4,1016
   438b0:	01c01fc4 	movi	r7,127
   438b4:	02001f84 	movi	r8,126
   438b8:	003e4606 	br	431d4 <_malloc_r+0xe4>
   438bc:	0140fe04 	movi	r5,1016
   438c0:	01001f84 	movi	r4,126
   438c4:	003f2c06 	br	43578 <_malloc_r+0x488>
   438c8:	98800117 	ldw	r2,4(r19)
   438cc:	003f9506 	br	43724 <_malloc_r+0x634>

000438d0 <memset>:
   438d0:	20c000cc 	andi	r3,r4,3
   438d4:	2005883a 	mov	r2,r4
   438d8:	18003626 	beq	r3,zero,439b4 <memset+0xe4>
   438dc:	31ffffc4 	addi	r7,r6,-1
   438e0:	30003326 	beq	r6,zero,439b0 <memset+0xe0>
   438e4:	2811883a 	mov	r8,r5
   438e8:	2007883a 	mov	r3,r4
   438ec:	00000306 	br	438fc <memset+0x2c>
   438f0:	39ffffc4 	addi	r7,r7,-1
   438f4:	39bfffe0 	cmpeqi	r6,r7,-1
   438f8:	30002d1e 	bne	r6,zero,439b0 <memset+0xe0>
   438fc:	18c00044 	addi	r3,r3,1
   43900:	198000cc 	andi	r6,r3,3
   43904:	1a3fffc5 	stb	r8,-1(r3)
   43908:	303ff91e 	bne	r6,zero,438f0 <memset+0x20>
   4390c:	39000130 	cmpltui	r4,r7,4
   43910:	2000221e 	bne	r4,zero,4399c <memset+0xcc>
   43914:	29003fcc 	andi	r4,r5,255
   43918:	200c923a 	slli	r6,r4,8
   4391c:	3a000430 	cmpltui	r8,r7,16
   43920:	3108b03a 	or	r4,r6,r4
   43924:	200c943a 	slli	r6,r4,16
   43928:	310cb03a 	or	r6,r6,r4
   4392c:	40000e1e 	bne	r8,zero,43968 <memset+0x98>
   43930:	393ffc04 	addi	r4,r7,-16
   43934:	2008d13a 	srli	r4,r4,4
   43938:	21000044 	addi	r4,r4,1
   4393c:	2008913a 	slli	r4,r4,4
   43940:	1909883a 	add	r4,r3,r4
   43944:	19800015 	stw	r6,0(r3)
   43948:	19800115 	stw	r6,4(r3)
   4394c:	19800215 	stw	r6,8(r3)
   43950:	19800315 	stw	r6,12(r3)
   43954:	18c00404 	addi	r3,r3,16
   43958:	20fffa1e 	bne	r4,r3,43944 <memset+0x74>
   4395c:	3900030c 	andi	r4,r7,12
   43960:	39c003cc 	andi	r7,r7,15
   43964:	20000d26 	beq	r4,zero,4399c <memset+0xcc>
   43968:	1811883a 	mov	r8,r3
   4396c:	42000104 	addi	r8,r8,4
   43970:	3a09c83a 	sub	r4,r7,r8
   43974:	1909883a 	add	r4,r3,r4
   43978:	21000128 	cmpgeui	r4,r4,4
   4397c:	41bfff15 	stw	r6,-4(r8)
   43980:	203ffa1e 	bne	r4,zero,4396c <memset+0x9c>
   43984:	393fff04 	addi	r4,r7,-4
   43988:	2008d0ba 	srli	r4,r4,2
   4398c:	39c000cc 	andi	r7,r7,3
   43990:	21000044 	addi	r4,r4,1
   43994:	200890ba 	slli	r4,r4,2
   43998:	1907883a 	add	r3,r3,r4
   4399c:	38000426 	beq	r7,zero,439b0 <memset+0xe0>
   439a0:	19cf883a 	add	r7,r3,r7
   439a4:	18c00044 	addi	r3,r3,1
   439a8:	197fffc5 	stb	r5,-1(r3)
   439ac:	38fffd1e 	bne	r7,r3,439a4 <memset+0xd4>
   439b0:	f800283a 	ret
   439b4:	2007883a 	mov	r3,r4
   439b8:	300f883a 	mov	r7,r6
   439bc:	003fd306 	br	4390c <memset+0x3c>

000439c0 <_sbrk_r>:
   439c0:	defffe04 	addi	sp,sp,-8
   439c4:	dc000015 	stw	r16,0(sp)
   439c8:	00800174 	movhi	r2,5
   439cc:	2021883a 	mov	r16,r4
   439d0:	2809883a 	mov	r4,r5
   439d4:	dfc00115 	stw	ra,4(sp)
   439d8:	101c9715 	stw	zero,29276(r2)
   439dc:	005133c0 	call	5133c <sbrk>
   439e0:	10ffffd8 	cmpnei	r3,r2,-1
   439e4:	18000426 	beq	r3,zero,439f8 <_sbrk_r+0x38>
   439e8:	dfc00117 	ldw	ra,4(sp)
   439ec:	dc000017 	ldw	r16,0(sp)
   439f0:	dec00204 	addi	sp,sp,8
   439f4:	f800283a 	ret
   439f8:	00c00174 	movhi	r3,5
   439fc:	18dc9717 	ldw	r3,29276(r3)
   43a00:	183ff926 	beq	r3,zero,439e8 <_sbrk_r+0x28>
   43a04:	80c00015 	stw	r3,0(r16)
   43a08:	dfc00117 	ldw	ra,4(sp)
   43a0c:	dc000017 	ldw	r16,0(sp)
   43a10:	dec00204 	addi	sp,sp,8
   43a14:	f800283a 	ret

00043a18 <_init_signal_r.part.0>:
   43a18:	defffe04 	addi	sp,sp,-8
   43a1c:	01402004 	movi	r5,128
   43a20:	dc000015 	stw	r16,0(sp)
   43a24:	dfc00115 	stw	ra,4(sp)
   43a28:	2021883a 	mov	r16,r4
   43a2c:	00430f00 	call	430f0 <_malloc_r>
   43a30:	8080b715 	stw	r2,732(r16)
   43a34:	10000926 	beq	r2,zero,43a5c <_init_signal_r.part.0+0x44>
   43a38:	10c02004 	addi	r3,r2,128
   43a3c:	10000015 	stw	zero,0(r2)
   43a40:	10800104 	addi	r2,r2,4
   43a44:	10fffd1e 	bne	r2,r3,43a3c <_init_signal_r.part.0+0x24>
   43a48:	0005883a 	mov	r2,zero
   43a4c:	dfc00117 	ldw	ra,4(sp)
   43a50:	dc000017 	ldw	r16,0(sp)
   43a54:	dec00204 	addi	sp,sp,8
   43a58:	f800283a 	ret
   43a5c:	00bfffc4 	movi	r2,-1
   43a60:	003ffa06 	br	43a4c <_init_signal_r.part.0+0x34>

00043a64 <_init_signal_r>:
   43a64:	2080b717 	ldw	r2,732(r4)
   43a68:	10000226 	beq	r2,zero,43a74 <_init_signal_r+0x10>
   43a6c:	0005883a 	mov	r2,zero
   43a70:	f800283a 	ret
   43a74:	0043a181 	jmpi	43a18 <_init_signal_r.part.0>

00043a78 <_signal_r>:
   43a78:	defffc04 	addi	sp,sp,-16
   43a7c:	dc000215 	stw	r16,8(sp)
   43a80:	dfc00315 	stw	ra,12(sp)
   43a84:	28800830 	cmpltui	r2,r5,32
   43a88:	2021883a 	mov	r16,r4
   43a8c:	10000a26 	beq	r2,zero,43ab8 <_signal_r+0x40>
   43a90:	2080b717 	ldw	r2,732(r4)
   43a94:	10000f26 	beq	r2,zero,43ad4 <_signal_r+0x5c>
   43a98:	280a90ba 	slli	r5,r5,2
   43a9c:	114b883a 	add	r5,r2,r5
   43aa0:	28800017 	ldw	r2,0(r5)
   43aa4:	29800015 	stw	r6,0(r5)
   43aa8:	dfc00317 	ldw	ra,12(sp)
   43aac:	dc000217 	ldw	r16,8(sp)
   43ab0:	dec00404 	addi	sp,sp,16
   43ab4:	f800283a 	ret
   43ab8:	00800584 	movi	r2,22
   43abc:	20800015 	stw	r2,0(r4)
   43ac0:	00bfffc4 	movi	r2,-1
   43ac4:	dfc00317 	ldw	ra,12(sp)
   43ac8:	dc000217 	ldw	r16,8(sp)
   43acc:	dec00404 	addi	sp,sp,16
   43ad0:	f800283a 	ret
   43ad4:	d9800115 	stw	r6,4(sp)
   43ad8:	d9400015 	stw	r5,0(sp)
   43adc:	0043a180 	call	43a18 <_init_signal_r.part.0>
   43ae0:	1000041e 	bne	r2,zero,43af4 <_signal_r+0x7c>
   43ae4:	8080b717 	ldw	r2,732(r16)
   43ae8:	d9800117 	ldw	r6,4(sp)
   43aec:	d9400017 	ldw	r5,0(sp)
   43af0:	003fe906 	br	43a98 <_signal_r+0x20>
   43af4:	00bfffc4 	movi	r2,-1
   43af8:	003feb06 	br	43aa8 <_signal_r+0x30>

00043afc <_raise_r>:
   43afc:	28800830 	cmpltui	r2,r5,32
   43b00:	10002b26 	beq	r2,zero,43bb0 <_raise_r+0xb4>
   43b04:	2080b717 	ldw	r2,732(r4)
   43b08:	defffd04 	addi	sp,sp,-12
   43b0c:	dc000115 	stw	r16,4(sp)
   43b10:	dfc00215 	stw	ra,8(sp)
   43b14:	2821883a 	mov	r16,r5
   43b18:	10001026 	beq	r2,zero,43b5c <_raise_r+0x60>
   43b1c:	280690ba 	slli	r3,r5,2
   43b20:	10c5883a 	add	r2,r2,r3
   43b24:	10c00017 	ldw	r3,0(r2)
   43b28:	18000c26 	beq	r3,zero,43b5c <_raise_r+0x60>
   43b2c:	19400060 	cmpeqi	r5,r3,1
   43b30:	28001a1e 	bne	r5,zero,43b9c <_raise_r+0xa0>
   43b34:	197fffd8 	cmpnei	r5,r3,-1
   43b38:	28001126 	beq	r5,zero,43b80 <_raise_r+0x84>
   43b3c:	10000015 	stw	zero,0(r2)
   43b40:	8009883a 	mov	r4,r16
   43b44:	183ee83a 	callr	r3
   43b48:	0005883a 	mov	r2,zero
   43b4c:	dfc00217 	ldw	ra,8(sp)
   43b50:	dc000117 	ldw	r16,4(sp)
   43b54:	dec00304 	addi	sp,sp,12
   43b58:	f800283a 	ret
   43b5c:	d9000015 	stw	r4,0(sp)
   43b60:	0043d2c0 	call	43d2c <_getpid_r>
   43b64:	d9000017 	ldw	r4,0(sp)
   43b68:	800d883a 	mov	r6,r16
   43b6c:	100b883a 	mov	r5,r2
   43b70:	dfc00217 	ldw	ra,8(sp)
   43b74:	dc000117 	ldw	r16,4(sp)
   43b78:	dec00304 	addi	sp,sp,12
   43b7c:	0043ccc1 	jmpi	43ccc <_kill_r>
   43b80:	00800584 	movi	r2,22
   43b84:	20800015 	stw	r2,0(r4)
   43b88:	00800044 	movi	r2,1
   43b8c:	dfc00217 	ldw	ra,8(sp)
   43b90:	dc000117 	ldw	r16,4(sp)
   43b94:	dec00304 	addi	sp,sp,12
   43b98:	f800283a 	ret
   43b9c:	0005883a 	mov	r2,zero
   43ba0:	dfc00217 	ldw	ra,8(sp)
   43ba4:	dc000117 	ldw	r16,4(sp)
   43ba8:	dec00304 	addi	sp,sp,12
   43bac:	f800283a 	ret
   43bb0:	00800584 	movi	r2,22
   43bb4:	20800015 	stw	r2,0(r4)
   43bb8:	00bfffc4 	movi	r2,-1
   43bbc:	f800283a 	ret

00043bc0 <__sigtramp_r>:
   43bc0:	28800830 	cmpltui	r2,r5,32
   43bc4:	10002a26 	beq	r2,zero,43c70 <__sigtramp_r+0xb0>
   43bc8:	2080b717 	ldw	r2,732(r4)
   43bcc:	defffd04 	addi	sp,sp,-12
   43bd0:	dc400115 	stw	r17,4(sp)
   43bd4:	dfc00215 	stw	ra,8(sp)
   43bd8:	2023883a 	mov	r17,r4
   43bdc:	10001526 	beq	r2,zero,43c34 <__sigtramp_r+0x74>
   43be0:	280690ba 	slli	r3,r5,2
   43be4:	10c5883a 	add	r2,r2,r3
   43be8:	10c00017 	ldw	r3,0(r2)
   43bec:	18000c26 	beq	r3,zero,43c20 <__sigtramp_r+0x60>
   43bf0:	193fffe0 	cmpeqi	r4,r3,-1
   43bf4:	20001a1e 	bne	r4,zero,43c60 <__sigtramp_r+0xa0>
   43bf8:	19000060 	cmpeqi	r4,r3,1
   43bfc:	2000131e 	bne	r4,zero,43c4c <__sigtramp_r+0x8c>
   43c00:	10000015 	stw	zero,0(r2)
   43c04:	2809883a 	mov	r4,r5
   43c08:	183ee83a 	callr	r3
   43c0c:	0005883a 	mov	r2,zero
   43c10:	dfc00217 	ldw	ra,8(sp)
   43c14:	dc400117 	ldw	r17,4(sp)
   43c18:	dec00304 	addi	sp,sp,12
   43c1c:	f800283a 	ret
   43c20:	00800044 	movi	r2,1
   43c24:	dfc00217 	ldw	ra,8(sp)
   43c28:	dc400117 	ldw	r17,4(sp)
   43c2c:	dec00304 	addi	sp,sp,12
   43c30:	f800283a 	ret
   43c34:	d9400015 	stw	r5,0(sp)
   43c38:	0043a180 	call	43a18 <_init_signal_r.part.0>
   43c3c:	10000a1e 	bne	r2,zero,43c68 <__sigtramp_r+0xa8>
   43c40:	8880b717 	ldw	r2,732(r17)
   43c44:	d9400017 	ldw	r5,0(sp)
   43c48:	003fe506 	br	43be0 <__sigtramp_r+0x20>
   43c4c:	008000c4 	movi	r2,3
   43c50:	dfc00217 	ldw	ra,8(sp)
   43c54:	dc400117 	ldw	r17,4(sp)
   43c58:	dec00304 	addi	sp,sp,12
   43c5c:	f800283a 	ret
   43c60:	00800084 	movi	r2,2
   43c64:	003fea06 	br	43c10 <__sigtramp_r+0x50>
   43c68:	00bfffc4 	movi	r2,-1
   43c6c:	003fe806 	br	43c10 <__sigtramp_r+0x50>
   43c70:	00bfffc4 	movi	r2,-1
   43c74:	f800283a 	ret

00043c78 <raise>:
   43c78:	00800174 	movhi	r2,5
   43c7c:	200b883a 	mov	r5,r4
   43c80:	11158317 	ldw	r4,22028(r2)
   43c84:	0043afc1 	jmpi	43afc <_raise_r>

00043c88 <signal>:
   43c88:	00c00174 	movhi	r3,5
   43c8c:	2005883a 	mov	r2,r4
   43c90:	19158317 	ldw	r4,22028(r3)
   43c94:	280d883a 	mov	r6,r5
   43c98:	100b883a 	mov	r5,r2
   43c9c:	0043a781 	jmpi	43a78 <_signal_r>

00043ca0 <_init_signal>:
   43ca0:	00800174 	movhi	r2,5
   43ca4:	11158317 	ldw	r4,22028(r2)
   43ca8:	2080b717 	ldw	r2,732(r4)
   43cac:	10000226 	beq	r2,zero,43cb8 <_init_signal+0x18>
   43cb0:	0005883a 	mov	r2,zero
   43cb4:	f800283a 	ret
   43cb8:	0043a181 	jmpi	43a18 <_init_signal_r.part.0>

00043cbc <__sigtramp>:
   43cbc:	00800174 	movhi	r2,5
   43cc0:	200b883a 	mov	r5,r4
   43cc4:	11158317 	ldw	r4,22028(r2)
   43cc8:	0043bc01 	jmpi	43bc0 <__sigtramp_r>

00043ccc <_kill_r>:
   43ccc:	2807883a 	mov	r3,r5
   43cd0:	defffe04 	addi	sp,sp,-8
   43cd4:	dc000015 	stw	r16,0(sp)
   43cd8:	00800174 	movhi	r2,5
   43cdc:	300b883a 	mov	r5,r6
   43ce0:	2021883a 	mov	r16,r4
   43ce4:	1809883a 	mov	r4,r3
   43ce8:	dfc00115 	stw	ra,4(sp)
   43cec:	101c9715 	stw	zero,29276(r2)
   43cf0:	0050dc00 	call	50dc0 <kill>
   43cf4:	10ffffd8 	cmpnei	r3,r2,-1
   43cf8:	18000426 	beq	r3,zero,43d0c <_kill_r+0x40>
   43cfc:	dfc00117 	ldw	ra,4(sp)
   43d00:	dc000017 	ldw	r16,0(sp)
   43d04:	dec00204 	addi	sp,sp,8
   43d08:	f800283a 	ret
   43d0c:	00c00174 	movhi	r3,5
   43d10:	18dc9717 	ldw	r3,29276(r3)
   43d14:	183ff926 	beq	r3,zero,43cfc <_kill_r+0x30>
   43d18:	80c00015 	stw	r3,0(r16)
   43d1c:	dfc00117 	ldw	ra,4(sp)
   43d20:	dc000017 	ldw	r16,0(sp)
   43d24:	dec00204 	addi	sp,sp,8
   43d28:	f800283a 	ret

00043d2c <_getpid_r>:
   43d2c:	0050c841 	jmpi	50c84 <getpid>

00043d30 <_snprintf_r>:
   43d30:	deffe404 	addi	sp,sp,-112
   43d34:	dc001a15 	stw	r16,104(sp)
   43d38:	dfc01b15 	stw	ra,108(sp)
   43d3c:	3005883a 	mov	r2,r6
   43d40:	2021883a 	mov	r16,r4
   43d44:	30002716 	blt	r6,zero,43de4 <_snprintf_r+0xb4>
   43d48:	00c08204 	movi	r3,520
   43d4c:	d8c0030d 	sth	r3,12(sp)
   43d50:	d9400015 	stw	r5,0(sp)
   43d54:	d9400415 	stw	r5,16(sp)
   43d58:	380d883a 	mov	r6,r7
   43d5c:	10001226 	beq	r2,zero,43da8 <_snprintf_r+0x78>
   43d60:	10bfffc4 	addi	r2,r2,-1
   43d64:	d8800215 	stw	r2,8(sp)
   43d68:	d8800515 	stw	r2,20(sp)
   43d6c:	d9c01c04 	addi	r7,sp,112
   43d70:	00bfffc4 	movi	r2,-1
   43d74:	d80b883a 	mov	r5,sp
   43d78:	d880038d 	sth	r2,14(sp)
   43d7c:	00440100 	call	44010 <___svfprintf_internal_r>
   43d80:	10ffffd0 	cmplti	r3,r2,-1
   43d84:	18000226 	beq	r3,zero,43d90 <_snprintf_r+0x60>
   43d88:	00c022c4 	movi	r3,139
   43d8c:	80c00015 	stw	r3,0(r16)
   43d90:	d8c00017 	ldw	r3,0(sp)
   43d94:	18000005 	stb	zero,0(r3)
   43d98:	dfc01b17 	ldw	ra,108(sp)
   43d9c:	dc001a17 	ldw	r16,104(sp)
   43da0:	dec01c04 	addi	sp,sp,112
   43da4:	f800283a 	ret
   43da8:	00bfffc4 	movi	r2,-1
   43dac:	d9c01c04 	addi	r7,sp,112
   43db0:	d80b883a 	mov	r5,sp
   43db4:	d8000215 	stw	zero,8(sp)
   43db8:	d8000515 	stw	zero,20(sp)
   43dbc:	d880038d 	sth	r2,14(sp)
   43dc0:	00440100 	call	44010 <___svfprintf_internal_r>
   43dc4:	10ffffd0 	cmplti	r3,r2,-1
   43dc8:	18000226 	beq	r3,zero,43dd4 <_snprintf_r+0xa4>
   43dcc:	00c022c4 	movi	r3,139
   43dd0:	80c00015 	stw	r3,0(r16)
   43dd4:	dfc01b17 	ldw	ra,108(sp)
   43dd8:	dc001a17 	ldw	r16,104(sp)
   43ddc:	dec01c04 	addi	sp,sp,112
   43de0:	f800283a 	ret
   43de4:	008022c4 	movi	r2,139
   43de8:	20800015 	stw	r2,0(r4)
   43dec:	00bfffc4 	movi	r2,-1
   43df0:	003ff806 	br	43dd4 <_snprintf_r+0xa4>

00043df4 <snprintf>:
   43df4:	deffe304 	addi	sp,sp,-116
   43df8:	dfc01b15 	stw	ra,108(sp)
   43dfc:	dc001a15 	stw	r16,104(sp)
   43e00:	d9c01c15 	stw	r7,112(sp)
   43e04:	00c00174 	movhi	r3,5
   43e08:	1c158317 	ldw	r16,22028(r3)
   43e0c:	28002816 	blt	r5,zero,43eb0 <snprintf+0xbc>
   43e10:	00c08204 	movi	r3,520
   43e14:	d8c0030d 	sth	r3,12(sp)
   43e18:	d9000015 	stw	r4,0(sp)
   43e1c:	d9000415 	stw	r4,16(sp)
   43e20:	28001326 	beq	r5,zero,43e70 <snprintf+0x7c>
   43e24:	28bfffc4 	addi	r2,r5,-1
   43e28:	d8800215 	stw	r2,8(sp)
   43e2c:	d8800515 	stw	r2,20(sp)
   43e30:	d9c01c04 	addi	r7,sp,112
   43e34:	00bfffc4 	movi	r2,-1
   43e38:	d80b883a 	mov	r5,sp
   43e3c:	8009883a 	mov	r4,r16
   43e40:	d880038d 	sth	r2,14(sp)
   43e44:	00440100 	call	44010 <___svfprintf_internal_r>
   43e48:	10ffffd0 	cmplti	r3,r2,-1
   43e4c:	18000226 	beq	r3,zero,43e58 <snprintf+0x64>
   43e50:	00c022c4 	movi	r3,139
   43e54:	80c00015 	stw	r3,0(r16)
   43e58:	d8c00017 	ldw	r3,0(sp)
   43e5c:	18000005 	stb	zero,0(r3)
   43e60:	dfc01b17 	ldw	ra,108(sp)
   43e64:	dc001a17 	ldw	r16,104(sp)
   43e68:	dec01d04 	addi	sp,sp,116
   43e6c:	f800283a 	ret
   43e70:	00bfffc4 	movi	r2,-1
   43e74:	d9c01c04 	addi	r7,sp,112
   43e78:	d80b883a 	mov	r5,sp
   43e7c:	8009883a 	mov	r4,r16
   43e80:	d8000215 	stw	zero,8(sp)
   43e84:	d8000515 	stw	zero,20(sp)
   43e88:	d880038d 	sth	r2,14(sp)
   43e8c:	00440100 	call	44010 <___svfprintf_internal_r>
   43e90:	10ffffd0 	cmplti	r3,r2,-1
   43e94:	18000226 	beq	r3,zero,43ea0 <snprintf+0xac>
   43e98:	00c022c4 	movi	r3,139
   43e9c:	80c00015 	stw	r3,0(r16)
   43ea0:	dfc01b17 	ldw	ra,108(sp)
   43ea4:	dc001a17 	ldw	r16,104(sp)
   43ea8:	dec01d04 	addi	sp,sp,116
   43eac:	f800283a 	ret
   43eb0:	008022c4 	movi	r2,139
   43eb4:	80800015 	stw	r2,0(r16)
   43eb8:	00bfffc4 	movi	r2,-1
   43ebc:	003ff806 	br	43ea0 <snprintf+0xac>

00043ec0 <strcmp>:
   43ec0:	2144b03a 	or	r2,r4,r5
   43ec4:	108000cc 	andi	r2,r2,3
   43ec8:	1000141e 	bne	r2,zero,43f1c <strcmp+0x5c>
   43ecc:	20800017 	ldw	r2,0(r4)
   43ed0:	28c00017 	ldw	r3,0(r5)
   43ed4:	10c0111e 	bne	r2,r3,43f1c <strcmp+0x5c>
   43ed8:	01ffbff4 	movhi	r7,65279
   43edc:	01a02074 	movhi	r6,32897
   43ee0:	39ffbfc4 	addi	r7,r7,-257
   43ee4:	31a02004 	addi	r6,r6,-32640
   43ee8:	00000306 	br	43ef8 <strcmp+0x38>
   43eec:	20800017 	ldw	r2,0(r4)
   43ef0:	28c00017 	ldw	r3,0(r5)
   43ef4:	10c0091e 	bne	r2,r3,43f1c <strcmp+0x5c>
   43ef8:	11c7883a 	add	r3,r2,r7
   43efc:	0084303a 	nor	r2,zero,r2
   43f00:	1884703a 	and	r2,r3,r2
   43f04:	1184703a 	and	r2,r2,r6
   43f08:	21000104 	addi	r4,r4,4
   43f0c:	29400104 	addi	r5,r5,4
   43f10:	103ff626 	beq	r2,zero,43eec <strcmp+0x2c>
   43f14:	0005883a 	mov	r2,zero
   43f18:	f800283a 	ret
   43f1c:	20c00003 	ldbu	r3,0(r4)
   43f20:	18803fcc 	andi	r2,r3,255
   43f24:	1080201c 	xori	r2,r2,128
   43f28:	10bfe004 	addi	r2,r2,-128
   43f2c:	1000071e 	bne	r2,zero,43f4c <strcmp+0x8c>
   43f30:	00000a06 	br	43f5c <strcmp+0x9c>
   43f34:	20c00003 	ldbu	r3,0(r4)
   43f38:	29400044 	addi	r5,r5,1
   43f3c:	18803fcc 	andi	r2,r3,255
   43f40:	1080201c 	xori	r2,r2,128
   43f44:	10bfe004 	addi	r2,r2,-128
   43f48:	10000726 	beq	r2,zero,43f68 <strcmp+0xa8>
   43f4c:	29800007 	ldb	r6,0(r5)
   43f50:	21000044 	addi	r4,r4,1
   43f54:	30bff726 	beq	r6,r2,43f34 <strcmp+0x74>
   43f58:	18803fcc 	andi	r2,r3,255
   43f5c:	28c00003 	ldbu	r3,0(r5)
   43f60:	10c5c83a 	sub	r2,r2,r3
   43f64:	f800283a 	ret
   43f68:	28c00003 	ldbu	r3,0(r5)
   43f6c:	0005883a 	mov	r2,zero
   43f70:	10c5c83a 	sub	r2,r2,r3
   43f74:	f800283a 	ret

00043f78 <strlen>:
   43f78:	208000cc 	andi	r2,r4,3
   43f7c:	10000926 	beq	r2,zero,43fa4 <strlen+0x2c>
   43f80:	2005883a 	mov	r2,r4
   43f84:	00000306 	br	43f94 <strlen+0x1c>
   43f88:	10800044 	addi	r2,r2,1
   43f8c:	10c000cc 	andi	r3,r2,3
   43f90:	18000526 	beq	r3,zero,43fa8 <strlen+0x30>
   43f94:	10c00007 	ldb	r3,0(r2)
   43f98:	183ffb1e 	bne	r3,zero,43f88 <strlen+0x10>
   43f9c:	1105c83a 	sub	r2,r2,r4
   43fa0:	f800283a 	ret
   43fa4:	2005883a 	mov	r2,r4
   43fa8:	11400017 	ldw	r5,0(r2)
   43fac:	01ffbff4 	movhi	r7,65279
   43fb0:	39ffbfc4 	addi	r7,r7,-257
   43fb4:	29c7883a 	add	r3,r5,r7
   43fb8:	01a02074 	movhi	r6,32897
   43fbc:	014a303a 	nor	r5,zero,r5
   43fc0:	1946703a 	and	r3,r3,r5
   43fc4:	31a02004 	addi	r6,r6,-32640
   43fc8:	1986703a 	and	r3,r3,r6
   43fcc:	1800071e 	bne	r3,zero,43fec <strlen+0x74>
   43fd0:	11400117 	ldw	r5,4(r2)
   43fd4:	10800104 	addi	r2,r2,4
   43fd8:	29c7883a 	add	r3,r5,r7
   43fdc:	014a303a 	nor	r5,zero,r5
   43fe0:	1946703a 	and	r3,r3,r5
   43fe4:	1986703a 	and	r3,r3,r6
   43fe8:	183ff926 	beq	r3,zero,43fd0 <strlen+0x58>
   43fec:	10c00007 	ldb	r3,0(r2)
   43ff0:	183fea26 	beq	r3,zero,43f9c <strlen+0x24>
   43ff4:	10c00047 	ldb	r3,1(r2)
   43ff8:	10800044 	addi	r2,r2,1
   43ffc:	183fe726 	beq	r3,zero,43f9c <strlen+0x24>
   44000:	10c00047 	ldb	r3,1(r2)
   44004:	10800044 	addi	r2,r2,1
   44008:	183ffa1e 	bne	r3,zero,43ff4 <strlen+0x7c>
   4400c:	003fe306 	br	43f9c <strlen+0x24>

00044010 <___svfprintf_internal_r>:
   44010:	deffbf04 	addi	sp,sp,-260
   44014:	dfc04015 	stw	ra,256(sp)
   44018:	dd803d15 	stw	r22,244(sp)
   4401c:	dcc03a15 	stw	r19,232(sp)
   44020:	dc803915 	stw	r18,228(sp)
   44024:	2027883a 	mov	r19,r4
   44028:	2825883a 	mov	r18,r5
   4402c:	302d883a 	mov	r22,r6
   44030:	d9c00615 	stw	r7,24(sp)
   44034:	df003f15 	stw	fp,252(sp)
   44038:	ddc03e15 	stw	r23,248(sp)
   4403c:	dd403c15 	stw	r21,240(sp)
   44040:	dd003b15 	stw	r20,236(sp)
   44044:	dc403815 	stw	r17,224(sp)
   44048:	dc003715 	stw	r16,220(sp)
   4404c:	0047e180 	call	47e18 <_localeconv_r>
   44050:	10800017 	ldw	r2,0(r2)
   44054:	1009883a 	mov	r4,r2
   44058:	d8800d15 	stw	r2,52(sp)
   4405c:	0043f780 	call	43f78 <strlen>
   44060:	90c0030b 	ldhu	r3,12(r18)
   44064:	d8800c15 	stw	r2,48(sp)
   44068:	18c0200c 	andi	r3,r3,128
   4406c:	18000226 	beq	r3,zero,44078 <___svfprintf_internal_r+0x68>
   44070:	90800417 	ldw	r2,16(r18)
   44074:	10055c26 	beq	r2,zero,455e8 <___svfprintf_internal_r+0x15d8>
   44078:	d8802704 	addi	r2,sp,156
   4407c:	b02f883a 	mov	r23,r22
   44080:	d8801a15 	stw	r2,104(sp)
   44084:	d8001c15 	stw	zero,112(sp)
   44088:	d8001b15 	stw	zero,108(sp)
   4408c:	d8000815 	stw	zero,32(sp)
   44090:	d8000915 	stw	zero,36(sp)
   44094:	d8000a15 	stw	zero,40(sp)
   44098:	d8000b15 	stw	zero,44(sp)
   4409c:	d8001015 	stw	zero,64(sp)
   440a0:	d8000515 	stw	zero,20(sp)
   440a4:	102d883a 	mov	r22,r2
   440a8:	b8800007 	ldb	r2,0(r23)
   440ac:	1000d526 	beq	r2,zero,44404 <___svfprintf_internal_r+0x3f4>
   440b0:	b821883a 	mov	r16,r23
   440b4:	00000306 	br	440c4 <___svfprintf_internal_r+0xb4>
   440b8:	80800047 	ldb	r2,1(r16)
   440bc:	84000044 	addi	r16,r16,1
   440c0:	10010626 	beq	r2,zero,444dc <___svfprintf_internal_r+0x4cc>
   440c4:	10800958 	cmpnei	r2,r2,37
   440c8:	103ffb1e 	bne	r2,zero,440b8 <___svfprintf_internal_r+0xa8>
   440cc:	85e3c83a 	sub	r17,r16,r23
   440d0:	85c1041e 	bne	r16,r23,444e4 <___svfprintf_internal_r+0x4d4>
   440d4:	80800003 	ldbu	r2,0(r16)
   440d8:	10803fcc 	andi	r2,r2,255
   440dc:	1080201c 	xori	r2,r2,128
   440e0:	10bfe004 	addi	r2,r2,-128
   440e4:	1000c726 	beq	r2,zero,44404 <___svfprintf_internal_r+0x3f4>
   440e8:	82c00047 	ldb	r11,1(r16)
   440ec:	85c00044 	addi	r23,r16,1
   440f0:	d8001345 	stb	zero,77(sp)
   440f4:	0009883a 	mov	r4,zero
   440f8:	000b883a 	mov	r5,zero
   440fc:	023fffc4 	movi	r8,-1
   44100:	0021883a 	mov	r16,zero
   44104:	0019883a 	mov	r12,zero
   44108:	bdc00044 	addi	r23,r23,1
   4410c:	5839883a 	mov	fp,r11
   44110:	e0bff804 	addi	r2,fp,-32
   44114:	10c01668 	cmpgeui	r3,r2,89
   44118:	18006a1e 	bne	r3,zero,442c4 <___svfprintf_internal_r+0x2b4>
   4411c:	100490ba 	slli	r2,r2,2
   44120:	00c00134 	movhi	r3,4
   44124:	10c7883a 	add	r3,r2,r3
   44128:	18904c17 	ldw	r2,16688(r3)
   4412c:	1000683a 	jmp	r2
   44130:	00044a10 	cmplti	zero,zero,4392
   44134:	000442c4 	movi	zero,4363
   44138:	000442c4 	movi	zero,4363
   4413c:	00044a04 	movi	zero,4392
   44140:	000442c4 	movi	zero,4363
   44144:	000442c4 	movi	zero,4363
   44148:	000442c4 	movi	zero,4363
   4414c:	000442c4 	movi	zero,4363
   44150:	000442c4 	movi	zero,4363
   44154:	000442c4 	movi	zero,4363
   44158:	000449dc 	xori	zero,zero,4391
   4415c:	000449cc 	andi	zero,zero,4391
   44160:	000442c4 	movi	zero,4363
   44164:	000449b4 	movhi	zero,4390
   44168:	00044970 	cmpltui	zero,zero,4389
   4416c:	000442c4 	movi	zero,4363
   44170:	00044964 	muli	zero,zero,4389
   44174:	00044294 	movui	zero,4362
   44178:	00044294 	movui	zero,4362
   4417c:	00044294 	movui	zero,4362
   44180:	00044294 	movui	zero,4362
   44184:	00044294 	movui	zero,4362
   44188:	00044294 	movui	zero,4362
   4418c:	00044294 	movui	zero,4362
   44190:	00044294 	movui	zero,4362
   44194:	00044294 	movui	zero,4362
   44198:	000442c4 	movi	zero,4363
   4419c:	000442c4 	movi	zero,4363
   441a0:	000442c4 	movi	zero,4363
   441a4:	000442c4 	movi	zero,4363
   441a8:	000442c4 	movi	zero,4363
   441ac:	000442c4 	movi	zero,4363
   441b0:	000442c4 	movi	zero,4363
   441b4:	000442c4 	movi	zero,4363
   441b8:	000442c4 	movi	zero,4363
   441bc:	000442c4 	movi	zero,4363
   441c0:	00044858 	cmpnei	zero,zero,4385
   441c4:	00044540 	call	4454 <__alt_mem_Memory-0x3bbac>
   441c8:	000442c4 	movi	zero,4363
   441cc:	00044540 	call	4454 <__alt_mem_Memory-0x3bbac>
   441d0:	000442c4 	movi	zero,4363
   441d4:	000442c4 	movi	zero,4363
   441d8:	000442c4 	movi	zero,4363
   441dc:	000442c4 	movi	zero,4363
   441e0:	0004484c 	andi	zero,zero,4385
   441e4:	000442c4 	movi	zero,4363
   441e8:	000442c4 	movi	zero,4363
   441ec:	00044474 	movhi	zero,4369
   441f0:	000442c4 	movi	zero,4363
   441f4:	000442c4 	movi	zero,4363
   441f8:	000442c4 	movi	zero,4363
   441fc:	000442c4 	movi	zero,4363
   44200:	000442c4 	movi	zero,4363
   44204:	0004444c 	andi	zero,zero,4369
   44208:	000442c4 	movi	zero,4363
   4420c:	000442c4 	movi	zero,4363
   44210:	00044b04 	movi	zero,4396
   44214:	000442c4 	movi	zero,4363
   44218:	000442c4 	movi	zero,4363
   4421c:	000442c4 	movi	zero,4363
   44220:	000442c4 	movi	zero,4363
   44224:	000442c4 	movi	zero,4363
   44228:	000442c4 	movi	zero,4363
   4422c:	000442c4 	movi	zero,4363
   44230:	000442c4 	movi	zero,4363
   44234:	000442c4 	movi	zero,4363
   44238:	000442c4 	movi	zero,4363
   4423c:	00044adc 	xori	zero,zero,4395
   44240:	00044744 	movi	zero,4381
   44244:	00044540 	call	4454 <__alt_mem_Memory-0x3bbac>
   44248:	00044540 	call	4454 <__alt_mem_Memory-0x3bbac>
   4424c:	00044540 	call	4454 <__alt_mem_Memory-0x3bbac>
   44250:	000447a4 	muli	zero,zero,4382
   44254:	00044744 	movi	zero,4381
   44258:	000442c4 	movi	zero,4363
   4425c:	000442c4 	movi	zero,4363
   44260:	00044838 	rdprs	zero,zero,4384
   44264:	000442c4 	movi	zero,4363
   44268:	000447fc 	xorhi	zero,zero,4383
   4426c:	00044478 	rdprs	zero,zero,4369
   44270:	000447bc 	xorhi	zero,zero,4382
   44274:	000447b0 	cmpltui	zero,zero,4382
   44278:	000442c4 	movi	zero,4363
   4427c:	00044a84 	movi	zero,4394
   44280:	000442c4 	movi	zero,4363
   44284:	00044450 	cmplti	zero,zero,4369
   44288:	000442c4 	movi	zero,4363
   4428c:	000442c4 	movi	zero,4363
   44290:	00044a3c 	xorhi	zero,zero,4392
   44294:	0021883a 	mov	r16,zero
   44298:	e0bff404 	addi	r2,fp,-48
   4429c:	bf000007 	ldb	fp,0(r23)
   442a0:	840002a4 	muli	r16,r16,10
   442a4:	bdc00044 	addi	r23,r23,1
   442a8:	1421883a 	add	r16,r2,r16
   442ac:	e0bff404 	addi	r2,fp,-48
   442b0:	10c002b0 	cmpltui	r3,r2,10
   442b4:	183ff91e 	bne	r3,zero,4429c <___svfprintf_internal_r+0x28c>
   442b8:	e0bff804 	addi	r2,fp,-32
   442bc:	10c01668 	cmpgeui	r3,r2,89
   442c0:	183f9626 	beq	r3,zero,4411c <___svfprintf_internal_r+0x10c>
   442c4:	21003fcc 	andi	r4,r4,255
   442c8:	2006981e 	bne	r4,zero,45d2c <___svfprintf_internal_r+0x1d1c>
   442cc:	e0004d26 	beq	fp,zero,44404 <___svfprintf_internal_r+0x3f4>
   442d0:	df001d05 	stb	fp,116(sp)
   442d4:	d8001345 	stb	zero,77(sp)
   442d8:	05000044 	movi	r20,1
   442dc:	05400044 	movi	r21,1
   442e0:	dc401d04 	addi	r17,sp,116
   442e4:	db000415 	stw	r12,16(sp)
   442e8:	0011883a 	mov	r8,zero
   442ec:	d8000715 	stw	zero,28(sp)
   442f0:	d8800417 	ldw	r2,16(sp)
   442f4:	1380008c 	andi	r14,r2,2
   442f8:	70000126 	beq	r14,zero,44300 <___svfprintf_internal_r+0x2f0>
   442fc:	a5000084 	addi	r20,r20,2
   44300:	d8800417 	ldw	r2,16(sp)
   44304:	d8c01c17 	ldw	r3,112(sp)
   44308:	1340210c 	andi	r13,r2,132
   4430c:	6800021e 	bne	r13,zero,44318 <___svfprintf_internal_r+0x308>
   44310:	850fc83a 	sub	r7,r16,r20
   44314:	01c32d16 	blt	zero,r7,44fcc <___svfprintf_internal_r+0xfbc>
   44318:	d8801347 	ldb	r2,77(sp)
   4431c:	10000c26 	beq	r2,zero,44350 <___svfprintf_internal_r+0x340>
   44320:	d8801b17 	ldw	r2,108(sp)
   44324:	d9001344 	addi	r4,sp,77
   44328:	18c00044 	addi	r3,r3,1
   4432c:	10800044 	addi	r2,r2,1
   44330:	b1000015 	stw	r4,0(r22)
   44334:	01000044 	movi	r4,1
   44338:	d8801b15 	stw	r2,108(sp)
   4433c:	b1000115 	stw	r4,4(r22)
   44340:	d8c01c15 	stw	r3,112(sp)
   44344:	10800208 	cmpgei	r2,r2,8
   44348:	1003611e 	bne	r2,zero,450d0 <___svfprintf_internal_r+0x10c0>
   4434c:	b5800204 	addi	r22,r22,8
   44350:	70000c26 	beq	r14,zero,44384 <___svfprintf_internal_r+0x374>
   44354:	d8801b17 	ldw	r2,108(sp)
   44358:	d9001384 	addi	r4,sp,78
   4435c:	18c00084 	addi	r3,r3,2
   44360:	10800044 	addi	r2,r2,1
   44364:	b1000015 	stw	r4,0(r22)
   44368:	01000084 	movi	r4,2
   4436c:	d8801b15 	stw	r2,108(sp)
   44370:	b1000115 	stw	r4,4(r22)
   44374:	d8c01c15 	stw	r3,112(sp)
   44378:	10800208 	cmpgei	r2,r2,8
   4437c:	1003621e 	bne	r2,zero,45108 <___svfprintf_internal_r+0x10f8>
   44380:	b5800204 	addi	r22,r22,8
   44384:	6b402018 	cmpnei	r13,r13,128
   44388:	68023926 	beq	r13,zero,44c70 <___svfprintf_internal_r+0xc60>
   4438c:	4551c83a 	sub	r8,r8,r21
   44390:	02027116 	blt	zero,r8,44d58 <___svfprintf_internal_r+0xd48>
   44394:	d8800417 	ldw	r2,16(sp)
   44398:	1080400c 	andi	r2,r2,256
   4439c:	1001eb1e 	bne	r2,zero,44b4c <___svfprintf_internal_r+0xb3c>
   443a0:	d8801b17 	ldw	r2,108(sp)
   443a4:	1d47883a 	add	r3,r3,r21
   443a8:	b4400015 	stw	r17,0(r22)
   443ac:	10800044 	addi	r2,r2,1
   443b0:	b5400115 	stw	r21,4(r22)
   443b4:	d8801b15 	stw	r2,108(sp)
   443b8:	d8c01c15 	stw	r3,112(sp)
   443bc:	10800208 	cmpgei	r2,r2,8
   443c0:	1002ee1e 	bne	r2,zero,44f7c <___svfprintf_internal_r+0xf6c>
   443c4:	b5800204 	addi	r22,r22,8
   443c8:	d8800417 	ldw	r2,16(sp)
   443cc:	1440010c 	andi	r17,r2,4
   443d0:	88000226 	beq	r17,zero,443dc <___svfprintf_internal_r+0x3cc>
   443d4:	8523c83a 	sub	r17,r16,r20
   443d8:	0440ab16 	blt	zero,r17,44688 <___svfprintf_internal_r+0x678>
   443dc:	8500010e 	bge	r16,r20,443e4 <___svfprintf_internal_r+0x3d4>
   443e0:	a021883a 	mov	r16,r20
   443e4:	d8800517 	ldw	r2,20(sp)
   443e8:	1405883a 	add	r2,r2,r16
   443ec:	d8800515 	stw	r2,20(sp)
   443f0:	1802a01e 	bne	r3,zero,44e74 <___svfprintf_internal_r+0xe64>
   443f4:	b8800007 	ldb	r2,0(r23)
   443f8:	d8001b15 	stw	zero,108(sp)
   443fc:	dd802704 	addi	r22,sp,156
   44400:	103f2b1e 	bne	r2,zero,440b0 <___svfprintf_internal_r+0xa0>
   44404:	d8801c17 	ldw	r2,112(sp)
   44408:	10064a1e 	bne	r2,zero,45d34 <___svfprintf_internal_r+0x1d24>
   4440c:	9080030b 	ldhu	r2,12(r18)
   44410:	1080100c 	andi	r2,r2,64
   44414:	1006eb1e 	bne	r2,zero,45fc4 <___svfprintf_internal_r+0x1fb4>
   44418:	d8800517 	ldw	r2,20(sp)
   4441c:	dfc04017 	ldw	ra,256(sp)
   44420:	df003f17 	ldw	fp,252(sp)
   44424:	ddc03e17 	ldw	r23,248(sp)
   44428:	dd803d17 	ldw	r22,244(sp)
   4442c:	dd403c17 	ldw	r21,240(sp)
   44430:	dd003b17 	ldw	r20,236(sp)
   44434:	dcc03a17 	ldw	r19,232(sp)
   44438:	dc803917 	ldw	r18,228(sp)
   4443c:	dc403817 	ldw	r17,224(sp)
   44440:	dc003717 	ldw	r16,220(sp)
   44444:	dec04104 	addi	sp,sp,260
   44448:	f800283a 	ret
   4444c:	63000414 	ori	r12,r12,16
   44450:	6080080c 	andi	r2,r12,32
   44454:	10008026 	beq	r2,zero,44658 <___svfprintf_internal_r+0x648>
   44458:	d8c00617 	ldw	r3,24(sp)
   4445c:	00800044 	movi	r2,1
   44460:	1d000017 	ldw	r20,0(r3)
   44464:	1d400117 	ldw	r21,4(r3)
   44468:	18c00204 	addi	r3,r3,8
   4446c:	d8c00615 	stw	r3,24(sp)
   44470:	00000906 	br	44498 <___svfprintf_internal_r+0x488>
   44474:	63000414 	ori	r12,r12,16
   44478:	6080080c 	andi	r2,r12,32
   4447c:	10006a26 	beq	r2,zero,44628 <___svfprintf_internal_r+0x618>
   44480:	d8c00617 	ldw	r3,24(sp)
   44484:	0005883a 	mov	r2,zero
   44488:	1d000017 	ldw	r20,0(r3)
   4448c:	1d400117 	ldw	r21,4(r3)
   44490:	18c00204 	addi	r3,r3,8
   44494:	d8c00615 	stw	r3,24(sp)
   44498:	d8001345 	stb	zero,77(sp)
   4449c:	40ffffe0 	cmpeqi	r3,r8,-1
   444a0:	001b883a 	mov	r13,zero
   444a4:	1801071e 	bne	r3,zero,448c4 <___svfprintf_internal_r+0x8b4>
   444a8:	047fdfc4 	movi	r17,-129
   444ac:	6448703a 	and	r4,r12,r17
   444b0:	a546b03a 	or	r3,r20,r21
   444b4:	d9000415 	stw	r4,16(sp)
   444b8:	1802b81e 	bne	r3,zero,44f9c <___svfprintf_internal_r+0xf8c>
   444bc:	4002571e 	bne	r8,zero,44e1c <___svfprintf_internal_r+0xe0c>
   444c0:	1000b41e 	bne	r2,zero,44794 <___svfprintf_internal_r+0x784>
   444c4:	6540004c 	andi	r21,r12,1
   444c8:	a803bb26 	beq	r21,zero,453b8 <___svfprintf_internal_r+0x13a8>
   444cc:	00800c04 	movi	r2,48
   444d0:	d88026c5 	stb	r2,155(sp)
   444d4:	dc4026c4 	addi	r17,sp,155
   444d8:	00011806 	br	4493c <___svfprintf_internal_r+0x92c>
   444dc:	85e3c83a 	sub	r17,r16,r23
   444e0:	85ffc826 	beq	r16,r23,44404 <___svfprintf_internal_r+0x3f4>
   444e4:	d8c01c17 	ldw	r3,112(sp)
   444e8:	d8801b17 	ldw	r2,108(sp)
   444ec:	b5c00015 	stw	r23,0(r22)
   444f0:	1c47883a 	add	r3,r3,r17
   444f4:	10800044 	addi	r2,r2,1
   444f8:	d8801b15 	stw	r2,108(sp)
   444fc:	b4400115 	stw	r17,4(r22)
   44500:	d8c01c15 	stw	r3,112(sp)
   44504:	10800208 	cmpgei	r2,r2,8
   44508:	1000061e 	bne	r2,zero,44524 <___svfprintf_internal_r+0x514>
   4450c:	b5800204 	addi	r22,r22,8
   44510:	d8c00517 	ldw	r3,20(sp)
   44514:	80800003 	ldbu	r2,0(r16)
   44518:	1c47883a 	add	r3,r3,r17
   4451c:	d8c00515 	stw	r3,20(sp)
   44520:	003eed06 	br	440d8 <___svfprintf_internal_r+0xc8>
   44524:	d9801a04 	addi	r6,sp,104
   44528:	900b883a 	mov	r5,r18
   4452c:	9809883a 	mov	r4,r19
   44530:	00490a00 	call	490a0 <__ssprint_r>
   44534:	103fb51e 	bne	r2,zero,4440c <___svfprintf_internal_r+0x3fc>
   44538:	dd802704 	addi	r22,sp,156
   4453c:	003ff406 	br	44510 <___svfprintf_internal_r+0x500>
   44540:	21003fcc 	andi	r4,r4,255
   44544:	2006611e 	bne	r4,zero,45ecc <___svfprintf_internal_r+0x1ebc>
   44548:	d8c00617 	ldw	r3,24(sp)
   4454c:	6080020c 	andi	r2,r12,8
   44550:	19000204 	addi	r4,r3,8
   44554:	d9000e15 	stw	r4,56(sp)
   44558:	1003a326 	beq	r2,zero,453e8 <___svfprintf_internal_r+0x13d8>
   4455c:	18800017 	ldw	r2,0(r3)
   44560:	d8800915 	stw	r2,36(sp)
   44564:	18800117 	ldw	r2,4(r3)
   44568:	d8800a15 	stw	r2,40(sp)
   4456c:	dd400a17 	ldw	r21,40(sp)
   44570:	dd000917 	ldw	r20,36(sp)
   44574:	00a00034 	movhi	r2,32768
   44578:	10bfffc4 	addi	r2,r2,-1
   4457c:	a8a2703a 	and	r17,r21,r2
   44580:	01dffc34 	movhi	r7,32752
   44584:	01bfffc4 	movi	r6,-1
   44588:	39ffffc4 	addi	r7,r7,-1
   4458c:	a009883a 	mov	r4,r20
   44590:	880b883a 	mov	r5,r17
   44594:	da000615 	stw	r8,24(sp)
   44598:	db000415 	stw	r12,16(sp)
   4459c:	00508080 	call	50808 <__unorddf2>
   445a0:	db000417 	ldw	r12,16(sp)
   445a4:	da000617 	ldw	r8,24(sp)
   445a8:	10045f1e 	bne	r2,zero,45728 <___svfprintf_internal_r+0x1718>
   445ac:	01dffc34 	movhi	r7,32752
   445b0:	01bfffc4 	movi	r6,-1
   445b4:	39ffffc4 	addi	r7,r7,-1
   445b8:	a009883a 	mov	r4,r20
   445bc:	880b883a 	mov	r5,r17
   445c0:	004f7740 	call	4f774 <__ledf2>
   445c4:	db000417 	ldw	r12,16(sp)
   445c8:	da000617 	ldw	r8,24(sp)
   445cc:	0084560e 	bge	zero,r2,45728 <___svfprintf_internal_r+0x1718>
   445d0:	000d883a 	mov	r6,zero
   445d4:	000f883a 	mov	r7,zero
   445d8:	a009883a 	mov	r4,r20
   445dc:	a80b883a 	mov	r5,r21
   445e0:	004f7740 	call	4f774 <__ledf2>
   445e4:	db000417 	ldw	r12,16(sp)
   445e8:	1005b216 	blt	r2,zero,45cb4 <___svfprintf_internal_r+0x1ca4>
   445ec:	db401343 	ldbu	r13,77(sp)
   445f0:	e0801210 	cmplti	r2,fp,72
   445f4:	10055d1e 	bne	r2,zero,45b6c <___svfprintf_internal_r+0x1b5c>
   445f8:	04400174 	movhi	r17,5
   445fc:	8c4d3704 	addi	r17,r17,13532
   44600:	00bfdfc4 	movi	r2,-129
   44604:	6084703a 	and	r2,r12,r2
   44608:	d8800415 	stw	r2,16(sp)
   4460c:	d8800e17 	ldw	r2,56(sp)
   44610:	050000c4 	movi	r20,3
   44614:	054000c4 	movi	r21,3
   44618:	d8800615 	stw	r2,24(sp)
   4461c:	0011883a 	mov	r8,zero
   44620:	d8000715 	stw	zero,28(sp)
   44624:	0000c906 	br	4494c <___svfprintf_internal_r+0x93c>
   44628:	d9000617 	ldw	r4,24(sp)
   4462c:	6080040c 	andi	r2,r12,16
   44630:	20c00104 	addi	r3,r4,4
   44634:	1003671e 	bne	r2,zero,453d4 <___svfprintf_internal_r+0x13c4>
   44638:	6080100c 	andi	r2,r12,64
   4463c:	10054526 	beq	r2,zero,45b54 <___svfprintf_internal_r+0x1b44>
   44640:	d8800617 	ldw	r2,24(sp)
   44644:	002b883a 	mov	r21,zero
   44648:	d8c00615 	stw	r3,24(sp)
   4464c:	1500000b 	ldhu	r20,0(r2)
   44650:	0005883a 	mov	r2,zero
   44654:	003f9006 	br	44498 <___svfprintf_internal_r+0x488>
   44658:	d9000617 	ldw	r4,24(sp)
   4465c:	6080040c 	andi	r2,r12,16
   44660:	20c00104 	addi	r3,r4,4
   44664:	1003561e 	bne	r2,zero,453c0 <___svfprintf_internal_r+0x13b0>
   44668:	6080100c 	andi	r2,r12,64
   4466c:	1004f326 	beq	r2,zero,45a3c <___svfprintf_internal_r+0x1a2c>
   44670:	d8800617 	ldw	r2,24(sp)
   44674:	002b883a 	mov	r21,zero
   44678:	d8c00615 	stw	r3,24(sp)
   4467c:	1500000b 	ldhu	r20,0(r2)
   44680:	00800044 	movi	r2,1
   44684:	003f8406 	br	44498 <___svfprintf_internal_r+0x488>
   44688:	03000174 	movhi	r12,5
   4468c:	89000450 	cmplti	r4,r17,17
   44690:	d8801b17 	ldw	r2,108(sp)
   44694:	630d4b04 	addi	r12,r12,13612
   44698:	20001b1e 	bne	r4,zero,44708 <___svfprintf_internal_r+0x6f8>
   4469c:	05400404 	movi	r21,16
   446a0:	6039883a 	mov	fp,r12
   446a4:	00000406 	br	446b8 <___svfprintf_internal_r+0x6a8>
   446a8:	8c7ffc04 	addi	r17,r17,-16
   446ac:	89000448 	cmpgei	r4,r17,17
   446b0:	b5800204 	addi	r22,r22,8
   446b4:	20001326 	beq	r4,zero,44704 <___svfprintf_internal_r+0x6f4>
   446b8:	10800044 	addi	r2,r2,1
   446bc:	18c00404 	addi	r3,r3,16
   446c0:	b7000015 	stw	fp,0(r22)
   446c4:	b5400115 	stw	r21,4(r22)
   446c8:	d8c01c15 	stw	r3,112(sp)
   446cc:	d8801b15 	stw	r2,108(sp)
   446d0:	11000208 	cmpgei	r4,r2,8
   446d4:	203ff426 	beq	r4,zero,446a8 <___svfprintf_internal_r+0x698>
   446d8:	d9801a04 	addi	r6,sp,104
   446dc:	900b883a 	mov	r5,r18
   446e0:	9809883a 	mov	r4,r19
   446e4:	00490a00 	call	490a0 <__ssprint_r>
   446e8:	103f481e 	bne	r2,zero,4440c <___svfprintf_internal_r+0x3fc>
   446ec:	8c7ffc04 	addi	r17,r17,-16
   446f0:	89000448 	cmpgei	r4,r17,17
   446f4:	d8c01c17 	ldw	r3,112(sp)
   446f8:	d8801b17 	ldw	r2,108(sp)
   446fc:	dd802704 	addi	r22,sp,156
   44700:	203fed1e 	bne	r4,zero,446b8 <___svfprintf_internal_r+0x6a8>
   44704:	e019883a 	mov	r12,fp
   44708:	10800044 	addi	r2,r2,1
   4470c:	1c47883a 	add	r3,r3,r17
   44710:	d8801b15 	stw	r2,108(sp)
   44714:	b3000015 	stw	r12,0(r22)
   44718:	b4400115 	stw	r17,4(r22)
   4471c:	d8c01c15 	stw	r3,112(sp)
   44720:	10800210 	cmplti	r2,r2,8
   44724:	103f2d1e 	bne	r2,zero,443dc <___svfprintf_internal_r+0x3cc>
   44728:	d9801a04 	addi	r6,sp,104
   4472c:	900b883a 	mov	r5,r18
   44730:	9809883a 	mov	r4,r19
   44734:	00490a00 	call	490a0 <__ssprint_r>
   44738:	103f341e 	bne	r2,zero,4440c <___svfprintf_internal_r+0x3fc>
   4473c:	d8c01c17 	ldw	r3,112(sp)
   44740:	003f2606 	br	443dc <___svfprintf_internal_r+0x3cc>
   44744:	21003fcc 	andi	r4,r4,255
   44748:	2005ea1e 	bne	r4,zero,45ef4 <___svfprintf_internal_r+0x1ee4>
   4474c:	6080080c 	andi	r2,r12,32
   44750:	10004626 	beq	r2,zero,4486c <___svfprintf_internal_r+0x85c>
   44754:	d8c00617 	ldw	r3,24(sp)
   44758:	18800117 	ldw	r2,4(r3)
   4475c:	1d000017 	ldw	r20,0(r3)
   44760:	18c00204 	addi	r3,r3,8
   44764:	d8c00615 	stw	r3,24(sp)
   44768:	102b883a 	mov	r21,r2
   4476c:	10004b16 	blt	r2,zero,4489c <___svfprintf_internal_r+0x88c>
   44770:	40bfffd8 	cmpnei	r2,r8,-1
   44774:	10043f26 	beq	r2,zero,45874 <___svfprintf_internal_r+0x1864>
   44778:	047fdfc4 	movi	r17,-129
   4477c:	6446703a 	and	r3,r12,r17
   44780:	a544b03a 	or	r2,r20,r21
   44784:	d8c00415 	stw	r3,16(sp)
   44788:	db401343 	ldbu	r13,77(sp)
   4478c:	1003411e 	bne	r2,zero,45494 <___svfprintf_internal_r+0x1484>
   44790:	4005801e 	bne	r8,zero,45d94 <___svfprintf_internal_r+0x1d84>
   44794:	0011883a 	mov	r8,zero
   44798:	002b883a 	mov	r21,zero
   4479c:	dc402704 	addi	r17,sp,156
   447a0:	00006606 	br	4493c <___svfprintf_internal_r+0x92c>
   447a4:	bac00007 	ldb	r11,0(r23)
   447a8:	63001014 	ori	r12,r12,64
   447ac:	003e5606 	br	44108 <___svfprintf_internal_r+0xf8>
   447b0:	bac00007 	ldb	r11,0(r23)
   447b4:	63000814 	ori	r12,r12,32
   447b8:	003e5306 	br	44108 <___svfprintf_internal_r+0xf8>
   447bc:	d8c00617 	ldw	r3,24(sp)
   447c0:	00800c04 	movi	r2,48
   447c4:	d8801385 	stb	r2,78(sp)
   447c8:	00801e04 	movi	r2,120
   447cc:	01000174 	movhi	r4,5
   447d0:	d88013c5 	stb	r2,79(sp)
   447d4:	18800104 	addi	r2,r3,4
   447d8:	d8800615 	stw	r2,24(sp)
   447dc:	208d3f04 	addi	r2,r4,13564
   447e0:	d8800b15 	stw	r2,44(sp)
   447e4:	1d000017 	ldw	r20,0(r3)
   447e8:	002b883a 	mov	r21,zero
   447ec:	63000094 	ori	r12,r12,2
   447f0:	00800084 	movi	r2,2
   447f4:	07001e04 	movi	fp,120
   447f8:	003f2706 	br	44498 <___svfprintf_internal_r+0x488>
   447fc:	21003fcc 	andi	r4,r4,255
   44800:	2005b41e 	bne	r4,zero,45ed4 <___svfprintf_internal_r+0x1ec4>
   44804:	d9000617 	ldw	r4,24(sp)
   44808:	6080080c 	andi	r2,r12,32
   4480c:	20c00017 	ldw	r3,0(r4)
   44810:	21000104 	addi	r4,r4,4
   44814:	d9000615 	stw	r4,24(sp)
   44818:	1002f91e 	bne	r2,zero,45400 <___svfprintf_internal_r+0x13f0>
   4481c:	6080040c 	andi	r2,r12,16
   44820:	10037a1e 	bne	r2,zero,4560c <___svfprintf_internal_r+0x15fc>
   44824:	6300100c 	andi	r12,r12,64
   44828:	60037826 	beq	r12,zero,4560c <___svfprintf_internal_r+0x15fc>
   4482c:	d8800517 	ldw	r2,20(sp)
   44830:	1880000d 	sth	r2,0(r3)
   44834:	003e1c06 	br	440a8 <___svfprintf_internal_r+0x98>
   44838:	bac00007 	ldb	r11,0(r23)
   4483c:	58801b18 	cmpnei	r2,r11,108
   44840:	10042d26 	beq	r2,zero,458f8 <___svfprintf_internal_r+0x18e8>
   44844:	63000414 	ori	r12,r12,16
   44848:	003e2f06 	br	44108 <___svfprintf_internal_r+0xf8>
   4484c:	bac00007 	ldb	r11,0(r23)
   44850:	63000214 	ori	r12,r12,8
   44854:	003e2c06 	br	44108 <___svfprintf_internal_r+0xf8>
   44858:	21003fcc 	andi	r4,r4,255
   4485c:	2005a31e 	bne	r4,zero,45eec <___svfprintf_internal_r+0x1edc>
   44860:	63000414 	ori	r12,r12,16
   44864:	6080080c 	andi	r2,r12,32
   44868:	103fba1e 	bne	r2,zero,44754 <___svfprintf_internal_r+0x744>
   4486c:	d9000617 	ldw	r4,24(sp)
   44870:	6080040c 	andi	r2,r12,16
   44874:	20c00104 	addi	r3,r4,4
   44878:	1002f01e 	bne	r2,zero,4543c <___svfprintf_internal_r+0x142c>
   4487c:	6080100c 	andi	r2,r12,64
   44880:	10046826 	beq	r2,zero,45a24 <___svfprintf_internal_r+0x1a14>
   44884:	d8800617 	ldw	r2,24(sp)
   44888:	d8c00615 	stw	r3,24(sp)
   4488c:	1500000f 	ldh	r20,0(r2)
   44890:	a02bd7fa 	srai	r21,r20,31
   44894:	a805883a 	mov	r2,r21
   44898:	103fb50e 	bge	r2,zero,44770 <___svfprintf_internal_r+0x760>
   4489c:	a004c03a 	cmpne	r2,r20,zero
   448a0:	056bc83a 	sub	r21,zero,r21
   448a4:	a8abc83a 	sub	r21,r21,r2
   448a8:	00800b44 	movi	r2,45
   448ac:	d8801345 	stb	r2,77(sp)
   448b0:	40ffffe0 	cmpeqi	r3,r8,-1
   448b4:	0529c83a 	sub	r20,zero,r20
   448b8:	03400b44 	movi	r13,45
   448bc:	00800044 	movi	r2,1
   448c0:	183ef926 	beq	r3,zero,444a8 <___svfprintf_internal_r+0x498>
   448c4:	10c00060 	cmpeqi	r3,r2,1
   448c8:	1801b71e 	bne	r3,zero,44fa8 <___svfprintf_internal_r+0xf98>
   448cc:	108000a0 	cmpeqi	r2,r2,2
   448d0:	1001571e 	bne	r2,zero,44e30 <___svfprintf_internal_r+0xe20>
   448d4:	dc402704 	addi	r17,sp,156
   448d8:	a004d0fa 	srli	r2,r20,3
   448dc:	a806977a 	slli	r3,r21,29
   448e0:	a82ad0fa 	srli	r21,r21,3
   448e4:	a50001cc 	andi	r20,r20,7
   448e8:	a1000c04 	addi	r4,r20,48
   448ec:	18a8b03a 	or	r20,r3,r2
   448f0:	893fffc5 	stb	r4,-1(r17)
   448f4:	a544b03a 	or	r2,r20,r21
   448f8:	880b883a 	mov	r5,r17
   448fc:	8c7fffc4 	addi	r17,r17,-1
   44900:	103ff51e 	bne	r2,zero,448d8 <___svfprintf_internal_r+0x8c8>
   44904:	6080004c 	andi	r2,r12,1
   44908:	10015626 	beq	r2,zero,44e64 <___svfprintf_internal_r+0xe54>
   4490c:	21003fcc 	andi	r4,r4,255
   44910:	2100201c 	xori	r4,r4,128
   44914:	213fe004 	addi	r4,r4,-128
   44918:	20800c18 	cmpnei	r2,r4,48
   4491c:	10015126 	beq	r2,zero,44e64 <___svfprintf_internal_r+0xe54>
   44920:	00800c04 	movi	r2,48
   44924:	297fff84 	addi	r5,r5,-2
   44928:	88bfffc5 	stb	r2,-1(r17)
   4492c:	d8802704 	addi	r2,sp,156
   44930:	116bc83a 	sub	r21,r2,r5
   44934:	db000415 	stw	r12,16(sp)
   44938:	2823883a 	mov	r17,r5
   4493c:	4029883a 	mov	r20,r8
   44940:	4540010e 	bge	r8,r21,44948 <___svfprintf_internal_r+0x938>
   44944:	a829883a 	mov	r20,r21
   44948:	d8000715 	stw	zero,28(sp)
   4494c:	6b403fcc 	andi	r13,r13,255
   44950:	6b40201c 	xori	r13,r13,128
   44954:	6b7fe004 	addi	r13,r13,-128
   44958:	683e6526 	beq	r13,zero,442f0 <___svfprintf_internal_r+0x2e0>
   4495c:	a5000044 	addi	r20,r20,1
   44960:	003e6306 	br	442f0 <___svfprintf_internal_r+0x2e0>
   44964:	bac00007 	ldb	r11,0(r23)
   44968:	63002014 	ori	r12,r12,128
   4496c:	003de606 	br	44108 <___svfprintf_internal_r+0xf8>
   44970:	bf000007 	ldb	fp,0(r23)
   44974:	b8c00044 	addi	r3,r23,1
   44978:	e0800aa0 	cmpeqi	r2,fp,42
   4497c:	1005b71e 	bne	r2,zero,4605c <___svfprintf_internal_r+0x204c>
   44980:	e0bff404 	addi	r2,fp,-48
   44984:	118002b0 	cmpltui	r6,r2,10
   44988:	182f883a 	mov	r23,r3
   4498c:	0011883a 	mov	r8,zero
   44990:	303ddf26 	beq	r6,zero,44110 <___svfprintf_internal_r+0x100>
   44994:	bf000007 	ldb	fp,0(r23)
   44998:	420002a4 	muli	r8,r8,10
   4499c:	bdc00044 	addi	r23,r23,1
   449a0:	4091883a 	add	r8,r8,r2
   449a4:	e0bff404 	addi	r2,fp,-48
   449a8:	10c002b0 	cmpltui	r3,r2,10
   449ac:	183ff91e 	bne	r3,zero,44994 <___svfprintf_internal_r+0x984>
   449b0:	003dd706 	br	44110 <___svfprintf_internal_r+0x100>
   449b4:	bf000003 	ldbu	fp,0(r23)
   449b8:	e2c03fcc 	andi	r11,fp,255
   449bc:	5ac0201c 	xori	r11,r11,128
   449c0:	63000114 	ori	r12,r12,4
   449c4:	5affe004 	addi	r11,r11,-128
   449c8:	003dcf06 	br	44108 <___svfprintf_internal_r+0xf8>
   449cc:	bac00007 	ldb	r11,0(r23)
   449d0:	01000044 	movi	r4,1
   449d4:	01400ac4 	movi	r5,43
   449d8:	003dcb06 	br	44108 <___svfprintf_internal_r+0xf8>
   449dc:	d8800617 	ldw	r2,24(sp)
   449e0:	bf000003 	ldbu	fp,0(r23)
   449e4:	14000017 	ldw	r16,0(r2)
   449e8:	10800104 	addi	r2,r2,4
   449ec:	80029816 	blt	r16,zero,45450 <___svfprintf_internal_r+0x1440>
   449f0:	d8800615 	stw	r2,24(sp)
   449f4:	e2c03fcc 	andi	r11,fp,255
   449f8:	5ac0201c 	xori	r11,r11,128
   449fc:	5affe004 	addi	r11,r11,-128
   44a00:	003dc106 	br	44108 <___svfprintf_internal_r+0xf8>
   44a04:	bac00007 	ldb	r11,0(r23)
   44a08:	63000054 	ori	r12,r12,1
   44a0c:	003dbe06 	br	44108 <___svfprintf_internal_r+0xf8>
   44a10:	28803fcc 	andi	r2,r5,255
   44a14:	1080201c 	xori	r2,r2,128
   44a18:	10bfe004 	addi	r2,r2,-128
   44a1c:	bf000003 	ldbu	fp,0(r23)
   44a20:	103ff41e 	bne	r2,zero,449f4 <___svfprintf_internal_r+0x9e4>
   44a24:	e2c03fcc 	andi	r11,fp,255
   44a28:	5ac0201c 	xori	r11,r11,128
   44a2c:	01000044 	movi	r4,1
   44a30:	01400804 	movi	r5,32
   44a34:	5affe004 	addi	r11,r11,-128
   44a38:	003db306 	br	44108 <___svfprintf_internal_r+0xf8>
   44a3c:	21003fcc 	andi	r4,r4,255
   44a40:	2005281e 	bne	r4,zero,45ee4 <___svfprintf_internal_r+0x1ed4>
   44a44:	00800174 	movhi	r2,5
   44a48:	108d3f04 	addi	r2,r2,13564
   44a4c:	d8800b15 	stw	r2,44(sp)
   44a50:	6080080c 	andi	r2,r12,32
   44a54:	10003226 	beq	r2,zero,44b20 <___svfprintf_internal_r+0xb10>
   44a58:	d8800617 	ldw	r2,24(sp)
   44a5c:	15000017 	ldw	r20,0(r2)
   44a60:	15400117 	ldw	r21,4(r2)
   44a64:	10800204 	addi	r2,r2,8
   44a68:	d8800615 	stw	r2,24(sp)
   44a6c:	6080004c 	andi	r2,r12,1
   44a70:	10000226 	beq	r2,zero,44a7c <___svfprintf_internal_r+0xa6c>
   44a74:	a544b03a 	or	r2,r20,r21
   44a78:	1002661e 	bne	r2,zero,45414 <___svfprintf_internal_r+0x1404>
   44a7c:	00800084 	movi	r2,2
   44a80:	003e8506 	br	44498 <___svfprintf_internal_r+0x488>
   44a84:	d8800617 	ldw	r2,24(sp)
   44a88:	d8001345 	stb	zero,77(sp)
   44a8c:	14400017 	ldw	r17,0(r2)
   44a90:	10c00104 	addi	r3,r2,4
   44a94:	88039f26 	beq	r17,zero,45914 <___svfprintf_internal_r+0x1904>
   44a98:	40bfffe0 	cmpeqi	r2,r8,-1
   44a9c:	1002ac1e 	bne	r2,zero,45550 <___svfprintf_internal_r+0x1540>
   44aa0:	400d883a 	mov	r6,r8
   44aa4:	000b883a 	mov	r5,zero
   44aa8:	8809883a 	mov	r4,r17
   44aac:	d8c00715 	stw	r3,28(sp)
   44ab0:	db000615 	stw	r12,24(sp)
   44ab4:	da000415 	stw	r8,16(sp)
   44ab8:	0047e300 	call	47e30 <memchr>
   44abc:	da000417 	ldw	r8,16(sp)
   44ac0:	db000617 	ldw	r12,24(sp)
   44ac4:	d8c00717 	ldw	r3,28(sp)
   44ac8:	1004f026 	beq	r2,zero,45e8c <___svfprintf_internal_r+0x1e7c>
   44acc:	146bc83a 	sub	r21,r2,r17
   44ad0:	a829883a 	mov	r20,r21
   44ad4:	d8c00615 	stw	r3,24(sp)
   44ad8:	003e0206 	br	442e4 <___svfprintf_internal_r+0x2d4>
   44adc:	d8c00617 	ldw	r3,24(sp)
   44ae0:	d8001345 	stb	zero,77(sp)
   44ae4:	05000044 	movi	r20,1
   44ae8:	18800017 	ldw	r2,0(r3)
   44aec:	18c00104 	addi	r3,r3,4
   44af0:	d8c00615 	stw	r3,24(sp)
   44af4:	d8801d05 	stb	r2,116(sp)
   44af8:	05400044 	movi	r21,1
   44afc:	dc401d04 	addi	r17,sp,116
   44b00:	003df806 	br	442e4 <___svfprintf_internal_r+0x2d4>
   44b04:	21003fcc 	andi	r4,r4,255
   44b08:	2004f41e 	bne	r4,zero,45edc <___svfprintf_internal_r+0x1ecc>
   44b0c:	00800174 	movhi	r2,5
   44b10:	108d3a04 	addi	r2,r2,13544
   44b14:	d8800b15 	stw	r2,44(sp)
   44b18:	6080080c 	andi	r2,r12,32
   44b1c:	103fce1e 	bne	r2,zero,44a58 <___svfprintf_internal_r+0xa48>
   44b20:	d9000617 	ldw	r4,24(sp)
   44b24:	6080040c 	andi	r2,r12,16
   44b28:	20c00104 	addi	r3,r4,4
   44b2c:	10023f1e 	bne	r2,zero,4542c <___svfprintf_internal_r+0x141c>
   44b30:	6080100c 	andi	r2,r12,64
   44b34:	10040226 	beq	r2,zero,45b40 <___svfprintf_internal_r+0x1b30>
   44b38:	d8800617 	ldw	r2,24(sp)
   44b3c:	002b883a 	mov	r21,zero
   44b40:	d8c00615 	stw	r3,24(sp)
   44b44:	1500000b 	ldhu	r20,0(r2)
   44b48:	003fc806 	br	44a6c <___svfprintf_internal_r+0xa5c>
   44b4c:	e2c01990 	cmplti	r11,fp,102
   44b50:	5800ce1e 	bne	r11,zero,44e8c <___svfprintf_internal_r+0xe7c>
   44b54:	d9000917 	ldw	r4,36(sp)
   44b58:	d9400a17 	ldw	r5,40(sp)
   44b5c:	000d883a 	mov	r6,zero
   44b60:	000f883a 	mov	r7,zero
   44b64:	d8c00e15 	stw	r3,56(sp)
   44b68:	004f6040 	call	4f604 <__eqdf2>
   44b6c:	d8c00e17 	ldw	r3,56(sp)
   44b70:	1001711e 	bne	r2,zero,45138 <___svfprintf_internal_r+0x1128>
   44b74:	d8801b17 	ldw	r2,108(sp)
   44b78:	01000174 	movhi	r4,5
   44b7c:	210d4604 	addi	r4,r4,13592
   44b80:	10800044 	addi	r2,r2,1
   44b84:	18c00044 	addi	r3,r3,1
   44b88:	b1000015 	stw	r4,0(r22)
   44b8c:	01000044 	movi	r4,1
   44b90:	d8801b15 	stw	r2,108(sp)
   44b94:	b1000115 	stw	r4,4(r22)
   44b98:	d8c01c15 	stw	r3,112(sp)
   44b9c:	10800208 	cmpgei	r2,r2,8
   44ba0:	10033b1e 	bne	r2,zero,45890 <___svfprintf_internal_r+0x1880>
   44ba4:	b5800204 	addi	r22,r22,8
   44ba8:	d8801417 	ldw	r2,80(sp)
   44bac:	d9000817 	ldw	r4,32(sp)
   44bb0:	11000316 	blt	r2,r4,44bc0 <___svfprintf_internal_r+0xbb0>
   44bb4:	d8800417 	ldw	r2,16(sp)
   44bb8:	1080004c 	andi	r2,r2,1
   44bbc:	103e0226 	beq	r2,zero,443c8 <___svfprintf_internal_r+0x3b8>
   44bc0:	d8800d17 	ldw	r2,52(sp)
   44bc4:	d9000c17 	ldw	r4,48(sp)
   44bc8:	b0800015 	stw	r2,0(r22)
   44bcc:	d8801b17 	ldw	r2,108(sp)
   44bd0:	1907883a 	add	r3,r3,r4
   44bd4:	b1000115 	stw	r4,4(r22)
   44bd8:	10800044 	addi	r2,r2,1
   44bdc:	d8801b15 	stw	r2,108(sp)
   44be0:	d8c01c15 	stw	r3,112(sp)
   44be4:	10800208 	cmpgei	r2,r2,8
   44be8:	10033b1e 	bne	r2,zero,458d8 <___svfprintf_internal_r+0x18c8>
   44bec:	b5800204 	addi	r22,r22,8
   44bf0:	d8800817 	ldw	r2,32(sp)
   44bf4:	157fffc4 	addi	r21,r2,-1
   44bf8:	057df30e 	bge	zero,r21,443c8 <___svfprintf_internal_r+0x3b8>
   44bfc:	01c00174 	movhi	r7,5
   44c00:	a9000450 	cmplti	r4,r21,17
   44c04:	d8801b17 	ldw	r2,108(sp)
   44c08:	39cd4704 	addi	r7,r7,13596
   44c0c:	20031c1e 	bne	r4,zero,45880 <___svfprintf_internal_r+0x1870>
   44c10:	07000404 	movi	fp,16
   44c14:	3823883a 	mov	r17,r7
   44c18:	00000406 	br	44c2c <___svfprintf_internal_r+0xc1c>
   44c1c:	b5800204 	addi	r22,r22,8
   44c20:	ad7ffc04 	addi	r21,r21,-16
   44c24:	a9000448 	cmpgei	r4,r21,17
   44c28:	20031426 	beq	r4,zero,4587c <___svfprintf_internal_r+0x186c>
   44c2c:	10800044 	addi	r2,r2,1
   44c30:	18c00404 	addi	r3,r3,16
   44c34:	b4400015 	stw	r17,0(r22)
   44c38:	b7000115 	stw	fp,4(r22)
   44c3c:	d8c01c15 	stw	r3,112(sp)
   44c40:	d8801b15 	stw	r2,108(sp)
   44c44:	11000208 	cmpgei	r4,r2,8
   44c48:	203ff426 	beq	r4,zero,44c1c <___svfprintf_internal_r+0xc0c>
   44c4c:	d9801a04 	addi	r6,sp,104
   44c50:	900b883a 	mov	r5,r18
   44c54:	9809883a 	mov	r4,r19
   44c58:	00490a00 	call	490a0 <__ssprint_r>
   44c5c:	103deb1e 	bne	r2,zero,4440c <___svfprintf_internal_r+0x3fc>
   44c60:	d8c01c17 	ldw	r3,112(sp)
   44c64:	d8801b17 	ldw	r2,108(sp)
   44c68:	dd802704 	addi	r22,sp,156
   44c6c:	003fec06 	br	44c20 <___svfprintf_internal_r+0xc10>
   44c70:	8519c83a 	sub	r12,r16,r20
   44c74:	033dc50e 	bge	zero,r12,4438c <___svfprintf_internal_r+0x37c>
   44c78:	01c00174 	movhi	r7,5
   44c7c:	61000450 	cmplti	r4,r12,17
   44c80:	d8801b17 	ldw	r2,108(sp)
   44c84:	39cd4704 	addi	r7,r7,13596
   44c88:	2000281e 	bne	r4,zero,44d2c <___svfprintf_internal_r+0xd1c>
   44c8c:	dc400e15 	stw	r17,56(sp)
   44c90:	dc000f15 	stw	r16,60(sp)
   44c94:	b009883a 	mov	r4,r22
   44c98:	03400404 	movi	r13,16
   44c9c:	a02d883a 	mov	r22,r20
   44ca0:	6021883a 	mov	r16,r12
   44ca4:	4029883a 	mov	r20,r8
   44ca8:	3823883a 	mov	r17,r7
   44cac:	00000406 	br	44cc0 <___svfprintf_internal_r+0xcb0>
   44cb0:	843ffc04 	addi	r16,r16,-16
   44cb4:	81400448 	cmpgei	r5,r16,17
   44cb8:	21000204 	addi	r4,r4,8
   44cbc:	28001426 	beq	r5,zero,44d10 <___svfprintf_internal_r+0xd00>
   44cc0:	10800044 	addi	r2,r2,1
   44cc4:	18c00404 	addi	r3,r3,16
   44cc8:	24400015 	stw	r17,0(r4)
   44ccc:	23400115 	stw	r13,4(r4)
   44cd0:	d8c01c15 	stw	r3,112(sp)
   44cd4:	d8801b15 	stw	r2,108(sp)
   44cd8:	11400208 	cmpgei	r5,r2,8
   44cdc:	283ff426 	beq	r5,zero,44cb0 <___svfprintf_internal_r+0xca0>
   44ce0:	d9801a04 	addi	r6,sp,104
   44ce4:	900b883a 	mov	r5,r18
   44ce8:	9809883a 	mov	r4,r19
   44cec:	00490a00 	call	490a0 <__ssprint_r>
   44cf0:	103dc61e 	bne	r2,zero,4440c <___svfprintf_internal_r+0x3fc>
   44cf4:	843ffc04 	addi	r16,r16,-16
   44cf8:	81400448 	cmpgei	r5,r16,17
   44cfc:	d8c01c17 	ldw	r3,112(sp)
   44d00:	d8801b17 	ldw	r2,108(sp)
   44d04:	d9002704 	addi	r4,sp,156
   44d08:	03400404 	movi	r13,16
   44d0c:	283fec1e 	bne	r5,zero,44cc0 <___svfprintf_internal_r+0xcb0>
   44d10:	8019883a 	mov	r12,r16
   44d14:	880f883a 	mov	r7,r17
   44d18:	dc000f17 	ldw	r16,60(sp)
   44d1c:	dc400e17 	ldw	r17,56(sp)
   44d20:	a011883a 	mov	r8,r20
   44d24:	b029883a 	mov	r20,r22
   44d28:	202d883a 	mov	r22,r4
   44d2c:	10800044 	addi	r2,r2,1
   44d30:	1b07883a 	add	r3,r3,r12
   44d34:	d8801b15 	stw	r2,108(sp)
   44d38:	b1c00015 	stw	r7,0(r22)
   44d3c:	b3000115 	stw	r12,4(r22)
   44d40:	d8c01c15 	stw	r3,112(sp)
   44d44:	10800208 	cmpgei	r2,r2,8
   44d48:	1002d91e 	bne	r2,zero,458b0 <___svfprintf_internal_r+0x18a0>
   44d4c:	4551c83a 	sub	r8,r8,r21
   44d50:	b5800204 	addi	r22,r22,8
   44d54:	023d8f0e 	bge	zero,r8,44394 <___svfprintf_internal_r+0x384>
   44d58:	01c00174 	movhi	r7,5
   44d5c:	41000450 	cmplti	r4,r8,17
   44d60:	d8801b17 	ldw	r2,108(sp)
   44d64:	39cd4704 	addi	r7,r7,13596
   44d68:	2000221e 	bne	r4,zero,44df4 <___svfprintf_internal_r+0xde4>
   44d6c:	dc400e15 	stw	r17,56(sp)
   44d70:	dc000f15 	stw	r16,60(sp)
   44d74:	03000404 	movi	r12,16
   44d78:	4021883a 	mov	r16,r8
   44d7c:	3823883a 	mov	r17,r7
   44d80:	00000406 	br	44d94 <___svfprintf_internal_r+0xd84>
   44d84:	843ffc04 	addi	r16,r16,-16
   44d88:	81000448 	cmpgei	r4,r16,17
   44d8c:	b5800204 	addi	r22,r22,8
   44d90:	20001426 	beq	r4,zero,44de4 <___svfprintf_internal_r+0xdd4>
   44d94:	10800044 	addi	r2,r2,1
   44d98:	18c00404 	addi	r3,r3,16
   44d9c:	b4400015 	stw	r17,0(r22)
   44da0:	b3000115 	stw	r12,4(r22)
   44da4:	d8c01c15 	stw	r3,112(sp)
   44da8:	d8801b15 	stw	r2,108(sp)
   44dac:	11000208 	cmpgei	r4,r2,8
   44db0:	203ff426 	beq	r4,zero,44d84 <___svfprintf_internal_r+0xd74>
   44db4:	d9801a04 	addi	r6,sp,104
   44db8:	900b883a 	mov	r5,r18
   44dbc:	9809883a 	mov	r4,r19
   44dc0:	00490a00 	call	490a0 <__ssprint_r>
   44dc4:	103d911e 	bne	r2,zero,4440c <___svfprintf_internal_r+0x3fc>
   44dc8:	843ffc04 	addi	r16,r16,-16
   44dcc:	81000448 	cmpgei	r4,r16,17
   44dd0:	d8c01c17 	ldw	r3,112(sp)
   44dd4:	d8801b17 	ldw	r2,108(sp)
   44dd8:	dd802704 	addi	r22,sp,156
   44ddc:	03000404 	movi	r12,16
   44de0:	203fec1e 	bne	r4,zero,44d94 <___svfprintf_internal_r+0xd84>
   44de4:	8011883a 	mov	r8,r16
   44de8:	880f883a 	mov	r7,r17
   44dec:	dc000f17 	ldw	r16,60(sp)
   44df0:	dc400e17 	ldw	r17,56(sp)
   44df4:	10800044 	addi	r2,r2,1
   44df8:	1a07883a 	add	r3,r3,r8
   44dfc:	d8801b15 	stw	r2,108(sp)
   44e00:	b1c00015 	stw	r7,0(r22)
   44e04:	b2000115 	stw	r8,4(r22)
   44e08:	d8c01c15 	stw	r3,112(sp)
   44e0c:	10800208 	cmpgei	r2,r2,8
   44e10:	10014f1e 	bne	r2,zero,45350 <___svfprintf_internal_r+0x1340>
   44e14:	b5800204 	addi	r22,r22,8
   44e18:	003d5e06 	br	44394 <___svfprintf_internal_r+0x384>
   44e1c:	10c00060 	cmpeqi	r3,r2,1
   44e20:	1803dc1e 	bne	r3,zero,45d94 <___svfprintf_internal_r+0x1d84>
   44e24:	108000a0 	cmpeqi	r2,r2,2
   44e28:	db000417 	ldw	r12,16(sp)
   44e2c:	103ea926 	beq	r2,zero,448d4 <___svfprintf_internal_r+0x8c4>
   44e30:	d9000b17 	ldw	r4,44(sp)
   44e34:	dc402704 	addi	r17,sp,156
   44e38:	a08003cc 	andi	r2,r20,15
   44e3c:	a806973a 	slli	r3,r21,28
   44e40:	a028d13a 	srli	r20,r20,4
   44e44:	2085883a 	add	r2,r4,r2
   44e48:	10800003 	ldbu	r2,0(r2)
   44e4c:	a82ad13a 	srli	r21,r21,4
   44e50:	1d28b03a 	or	r20,r3,r20
   44e54:	88bfffc5 	stb	r2,-1(r17)
   44e58:	a544b03a 	or	r2,r20,r21
   44e5c:	8c7fffc4 	addi	r17,r17,-1
   44e60:	103ff51e 	bne	r2,zero,44e38 <___svfprintf_internal_r+0xe28>
   44e64:	d8802704 	addi	r2,sp,156
   44e68:	146bc83a 	sub	r21,r2,r17
   44e6c:	db000415 	stw	r12,16(sp)
   44e70:	003eb206 	br	4493c <___svfprintf_internal_r+0x92c>
   44e74:	d9801a04 	addi	r6,sp,104
   44e78:	900b883a 	mov	r5,r18
   44e7c:	9809883a 	mov	r4,r19
   44e80:	00490a00 	call	490a0 <__ssprint_r>
   44e84:	103d5b26 	beq	r2,zero,443f4 <___svfprintf_internal_r+0x3e4>
   44e88:	003d6006 	br	4440c <___svfprintf_internal_r+0x3fc>
   44e8c:	d8800817 	ldw	r2,32(sp)
   44e90:	da001b17 	ldw	r8,108(sp)
   44e94:	18c00044 	addi	r3,r3,1
   44e98:	10800088 	cmpgei	r2,r2,2
   44e9c:	45400044 	addi	r21,r8,1
   44ea0:	b7000204 	addi	fp,r22,8
   44ea4:	1000fd26 	beq	r2,zero,4529c <___svfprintf_internal_r+0x128c>
   44ea8:	00800044 	movi	r2,1
   44eac:	b0800115 	stw	r2,4(r22)
   44eb0:	b4400015 	stw	r17,0(r22)
   44eb4:	d8c01c15 	stw	r3,112(sp)
   44eb8:	dd401b15 	stw	r21,108(sp)
   44ebc:	a8800210 	cmplti	r2,r21,8
   44ec0:	10012b26 	beq	r2,zero,45370 <___svfprintf_internal_r+0x1360>
   44ec4:	d8800c17 	ldw	r2,48(sp)
   44ec8:	d9000d17 	ldw	r4,52(sp)
   44ecc:	ad400044 	addi	r21,r21,1
   44ed0:	1887883a 	add	r3,r3,r2
   44ed4:	e0800115 	stw	r2,4(fp)
   44ed8:	e1000015 	stw	r4,0(fp)
   44edc:	d8c01c15 	stw	r3,112(sp)
   44ee0:	dd401b15 	stw	r21,108(sp)
   44ee4:	a8800208 	cmpgei	r2,r21,8
   44ee8:	10012a1e 	bne	r2,zero,45394 <___svfprintf_internal_r+0x1384>
   44eec:	e7000204 	addi	fp,fp,8
   44ef0:	d9000917 	ldw	r4,36(sp)
   44ef4:	d9400a17 	ldw	r5,40(sp)
   44ef8:	aa000044 	addi	r8,r21,1
   44efc:	000d883a 	mov	r6,zero
   44f00:	000f883a 	mov	r7,zero
   44f04:	d8c00e15 	stw	r3,56(sp)
   44f08:	da000715 	stw	r8,28(sp)
   44f0c:	004f6040 	call	4f604 <__eqdf2>
   44f10:	d8c00817 	ldw	r3,32(sp)
   44f14:	da000717 	ldw	r8,28(sp)
   44f18:	e5800204 	addi	r22,fp,8
   44f1c:	1affffc4 	addi	r11,r3,-1
   44f20:	d8c00e17 	ldw	r3,56(sp)
   44f24:	1000ea26 	beq	r2,zero,452d0 <___svfprintf_internal_r+0x12c0>
   44f28:	8a400044 	addi	r9,r17,1
   44f2c:	1ac7883a 	add	r3,r3,r11
   44f30:	da001b15 	stw	r8,108(sp)
   44f34:	e2400015 	stw	r9,0(fp)
   44f38:	e2c00115 	stw	r11,4(fp)
   44f3c:	d8c01c15 	stw	r3,112(sp)
   44f40:	42000208 	cmpgei	r8,r8,8
   44f44:	4001b41e 	bne	r8,zero,45618 <___svfprintf_internal_r+0x1608>
   44f48:	e0800404 	addi	r2,fp,16
   44f4c:	aa000084 	addi	r8,r21,2
   44f50:	b039883a 	mov	fp,r22
   44f54:	102d883a 	mov	r22,r2
   44f58:	d9001017 	ldw	r4,64(sp)
   44f5c:	d8801644 	addi	r2,sp,89
   44f60:	da001b15 	stw	r8,108(sp)
   44f64:	20c7883a 	add	r3,r4,r3
   44f68:	e0800015 	stw	r2,0(fp)
   44f6c:	e1000115 	stw	r4,4(fp)
   44f70:	d8c01c15 	stw	r3,112(sp)
   44f74:	42000210 	cmplti	r8,r8,8
   44f78:	403d131e 	bne	r8,zero,443c8 <___svfprintf_internal_r+0x3b8>
   44f7c:	d9801a04 	addi	r6,sp,104
   44f80:	900b883a 	mov	r5,r18
   44f84:	9809883a 	mov	r4,r19
   44f88:	00490a00 	call	490a0 <__ssprint_r>
   44f8c:	103d1f1e 	bne	r2,zero,4440c <___svfprintf_internal_r+0x3fc>
   44f90:	d8c01c17 	ldw	r3,112(sp)
   44f94:	dd802704 	addi	r22,sp,156
   44f98:	003d0b06 	br	443c8 <___svfprintf_internal_r+0x3b8>
   44f9c:	10c00060 	cmpeqi	r3,r2,1
   44fa0:	db000417 	ldw	r12,16(sp)
   44fa4:	183e4926 	beq	r3,zero,448cc <___svfprintf_internal_r+0x8bc>
   44fa8:	a8013c1e 	bne	r21,zero,4549c <___svfprintf_internal_r+0x148c>
   44fac:	a08002a8 	cmpgeui	r2,r20,10
   44fb0:	10013a1e 	bne	r2,zero,4549c <___svfprintf_internal_r+0x148c>
   44fb4:	a5000c04 	addi	r20,r20,48
   44fb8:	dd0026c5 	stb	r20,155(sp)
   44fbc:	db000415 	stw	r12,16(sp)
   44fc0:	05400044 	movi	r21,1
   44fc4:	dc4026c4 	addi	r17,sp,155
   44fc8:	003e5c06 	br	4493c <___svfprintf_internal_r+0x92c>
   44fcc:	03000174 	movhi	r12,5
   44fd0:	39000450 	cmplti	r4,r7,17
   44fd4:	d8801b17 	ldw	r2,108(sp)
   44fd8:	630d4b04 	addi	r12,r12,13612
   44fdc:	2000321e 	bne	r4,zero,450a8 <___svfprintf_internal_r+0x1098>
   44fe0:	dc401115 	stw	r17,68(sp)
   44fe4:	b009883a 	mov	r4,r22
   44fe8:	9023883a 	mov	r17,r18
   44fec:	a82d883a 	mov	r22,r21
   44ff0:	ddc01215 	stw	r23,72(sp)
   44ff4:	03c00404 	movi	r15,16
   44ff8:	a02f883a 	mov	r23,r20
   44ffc:	db800e15 	stw	r14,56(sp)
   45000:	8029883a 	mov	r20,r16
   45004:	db400f15 	stw	r13,60(sp)
   45008:	402b883a 	mov	r21,r8
   4500c:	3821883a 	mov	r16,r7
   45010:	6025883a 	mov	r18,r12
   45014:	00000406 	br	45028 <___svfprintf_internal_r+0x1018>
   45018:	843ffc04 	addi	r16,r16,-16
   4501c:	81800448 	cmpgei	r6,r16,17
   45020:	21000204 	addi	r4,r4,8
   45024:	30001426 	beq	r6,zero,45078 <___svfprintf_internal_r+0x1068>
   45028:	10800044 	addi	r2,r2,1
   4502c:	18c00404 	addi	r3,r3,16
   45030:	24800015 	stw	r18,0(r4)
   45034:	23c00115 	stw	r15,4(r4)
   45038:	d8c01c15 	stw	r3,112(sp)
   4503c:	d8801b15 	stw	r2,108(sp)
   45040:	11800208 	cmpgei	r6,r2,8
   45044:	303ff426 	beq	r6,zero,45018 <___svfprintf_internal_r+0x1008>
   45048:	d9801a04 	addi	r6,sp,104
   4504c:	880b883a 	mov	r5,r17
   45050:	9809883a 	mov	r4,r19
   45054:	00490a00 	call	490a0 <__ssprint_r>
   45058:	1001b11e 	bne	r2,zero,45720 <___svfprintf_internal_r+0x1710>
   4505c:	843ffc04 	addi	r16,r16,-16
   45060:	81800448 	cmpgei	r6,r16,17
   45064:	d8c01c17 	ldw	r3,112(sp)
   45068:	d8801b17 	ldw	r2,108(sp)
   4506c:	d9002704 	addi	r4,sp,156
   45070:	03c00404 	movi	r15,16
   45074:	303fec1e 	bne	r6,zero,45028 <___svfprintf_internal_r+0x1018>
   45078:	800f883a 	mov	r7,r16
   4507c:	9019883a 	mov	r12,r18
   45080:	a021883a 	mov	r16,r20
   45084:	8825883a 	mov	r18,r17
   45088:	b829883a 	mov	r20,r23
   4508c:	db800e17 	ldw	r14,56(sp)
   45090:	db400f17 	ldw	r13,60(sp)
   45094:	ddc01217 	ldw	r23,72(sp)
   45098:	dc401117 	ldw	r17,68(sp)
   4509c:	a811883a 	mov	r8,r21
   450a0:	b02b883a 	mov	r21,r22
   450a4:	202d883a 	mov	r22,r4
   450a8:	10800044 	addi	r2,r2,1
   450ac:	19c7883a 	add	r3,r3,r7
   450b0:	d8801b15 	stw	r2,108(sp)
   450b4:	b3000015 	stw	r12,0(r22)
   450b8:	b1c00115 	stw	r7,4(r22)
   450bc:	d8c01c15 	stw	r3,112(sp)
   450c0:	10800208 	cmpgei	r2,r2,8
   450c4:	10015f1e 	bne	r2,zero,45644 <___svfprintf_internal_r+0x1634>
   450c8:	b5800204 	addi	r22,r22,8
   450cc:	003c9206 	br	44318 <___svfprintf_internal_r+0x308>
   450d0:	d9801a04 	addi	r6,sp,104
   450d4:	900b883a 	mov	r5,r18
   450d8:	9809883a 	mov	r4,r19
   450dc:	da001115 	stw	r8,68(sp)
   450e0:	db400f15 	stw	r13,60(sp)
   450e4:	db800e15 	stw	r14,56(sp)
   450e8:	00490a00 	call	490a0 <__ssprint_r>
   450ec:	103cc71e 	bne	r2,zero,4440c <___svfprintf_internal_r+0x3fc>
   450f0:	d8c01c17 	ldw	r3,112(sp)
   450f4:	da001117 	ldw	r8,68(sp)
   450f8:	db400f17 	ldw	r13,60(sp)
   450fc:	db800e17 	ldw	r14,56(sp)
   45100:	dd802704 	addi	r22,sp,156
   45104:	003c9206 	br	44350 <___svfprintf_internal_r+0x340>
   45108:	d9801a04 	addi	r6,sp,104
   4510c:	900b883a 	mov	r5,r18
   45110:	9809883a 	mov	r4,r19
   45114:	da000f15 	stw	r8,60(sp)
   45118:	db400e15 	stw	r13,56(sp)
   4511c:	00490a00 	call	490a0 <__ssprint_r>
   45120:	103cba1e 	bne	r2,zero,4440c <___svfprintf_internal_r+0x3fc>
   45124:	d8c01c17 	ldw	r3,112(sp)
   45128:	da000f17 	ldw	r8,60(sp)
   4512c:	db400e17 	ldw	r13,56(sp)
   45130:	dd802704 	addi	r22,sp,156
   45134:	003c9306 	br	44384 <___svfprintf_internal_r+0x374>
   45138:	d9401417 	ldw	r5,80(sp)
   4513c:	01414f0e 	bge	zero,r5,4567c <___svfprintf_internal_r+0x166c>
   45140:	d8800717 	ldw	r2,28(sp)
   45144:	d9000817 	ldw	r4,32(sp)
   45148:	102b883a 	mov	r21,r2
   4514c:	2080c316 	blt	r4,r2,4545c <___svfprintf_internal_r+0x144c>
   45150:	05400a0e 	bge	zero,r21,4517c <___svfprintf_internal_r+0x116c>
   45154:	d8801b17 	ldw	r2,108(sp)
   45158:	1d47883a 	add	r3,r3,r21
   4515c:	b4400015 	stw	r17,0(r22)
   45160:	10800044 	addi	r2,r2,1
   45164:	d8801b15 	stw	r2,108(sp)
   45168:	b5400115 	stw	r21,4(r22)
   4516c:	d8c01c15 	stw	r3,112(sp)
   45170:	10800208 	cmpgei	r2,r2,8
   45174:	10032f1e 	bne	r2,zero,45e34 <___svfprintf_internal_r+0x1e24>
   45178:	b5800204 	addi	r22,r22,8
   4517c:	a800ef16 	blt	r21,zero,4553c <___svfprintf_internal_r+0x152c>
   45180:	d8800717 	ldw	r2,28(sp)
   45184:	156bc83a 	sub	r21,r2,r21
   45188:	0540f916 	blt	zero,r21,45570 <___svfprintf_internal_r+0x1560>
   4518c:	dd401417 	ldw	r21,80(sp)
   45190:	d8800817 	ldw	r2,32(sp)
   45194:	a880b40e 	bge	r21,r2,45468 <___svfprintf_internal_r+0x1458>
   45198:	d8800d17 	ldw	r2,52(sp)
   4519c:	d9000c17 	ldw	r4,48(sp)
   451a0:	b0800015 	stw	r2,0(r22)
   451a4:	d8801b17 	ldw	r2,108(sp)
   451a8:	1907883a 	add	r3,r3,r4
   451ac:	b1000115 	stw	r4,4(r22)
   451b0:	10800044 	addi	r2,r2,1
   451b4:	d8801b15 	stw	r2,108(sp)
   451b8:	d8c01c15 	stw	r3,112(sp)
   451bc:	10800208 	cmpgei	r2,r2,8
   451c0:	1002cd1e 	bne	r2,zero,45cf8 <___svfprintf_internal_r+0x1ce8>
   451c4:	b5800204 	addi	r22,r22,8
   451c8:	d9000817 	ldw	r4,32(sp)
   451cc:	d9400717 	ldw	r5,28(sp)
   451d0:	2545c83a 	sub	r2,r4,r21
   451d4:	2149c83a 	sub	r4,r4,r5
   451d8:	102b883a 	mov	r21,r2
   451dc:	2080010e 	bge	r4,r2,451e4 <___svfprintf_internal_r+0x11d4>
   451e0:	202b883a 	mov	r21,r4
   451e4:	05400c0e 	bge	zero,r21,45218 <___svfprintf_internal_r+0x1208>
   451e8:	d9000717 	ldw	r4,28(sp)
   451ec:	1d47883a 	add	r3,r3,r21
   451f0:	b5400115 	stw	r21,4(r22)
   451f4:	8913883a 	add	r9,r17,r4
   451f8:	d9001b17 	ldw	r4,108(sp)
   451fc:	b2400015 	stw	r9,0(r22)
   45200:	d8c01c15 	stw	r3,112(sp)
   45204:	21000044 	addi	r4,r4,1
   45208:	d9001b15 	stw	r4,108(sp)
   4520c:	21000208 	cmpgei	r4,r4,8
   45210:	2003111e 	bne	r4,zero,45e58 <___svfprintf_internal_r+0x1e48>
   45214:	b5800204 	addi	r22,r22,8
   45218:	a800010e 	bge	r21,zero,45220 <___svfprintf_internal_r+0x1210>
   4521c:	002b883a 	mov	r21,zero
   45220:	156bc83a 	sub	r21,r2,r21
   45224:	057c680e 	bge	zero,r21,443c8 <___svfprintf_internal_r+0x3b8>
   45228:	01c00174 	movhi	r7,5
   4522c:	a9000450 	cmplti	r4,r21,17
   45230:	d8801b17 	ldw	r2,108(sp)
   45234:	39cd4704 	addi	r7,r7,13596
   45238:	2001911e 	bne	r4,zero,45880 <___svfprintf_internal_r+0x1870>
   4523c:	07000404 	movi	fp,16
   45240:	3823883a 	mov	r17,r7
   45244:	00000406 	br	45258 <___svfprintf_internal_r+0x1248>
   45248:	b5800204 	addi	r22,r22,8
   4524c:	ad7ffc04 	addi	r21,r21,-16
   45250:	a9000448 	cmpgei	r4,r21,17
   45254:	20018926 	beq	r4,zero,4587c <___svfprintf_internal_r+0x186c>
   45258:	10800044 	addi	r2,r2,1
   4525c:	18c00404 	addi	r3,r3,16
   45260:	b4400015 	stw	r17,0(r22)
   45264:	b7000115 	stw	fp,4(r22)
   45268:	d8c01c15 	stw	r3,112(sp)
   4526c:	d8801b15 	stw	r2,108(sp)
   45270:	11000208 	cmpgei	r4,r2,8
   45274:	203ff426 	beq	r4,zero,45248 <___svfprintf_internal_r+0x1238>
   45278:	d9801a04 	addi	r6,sp,104
   4527c:	900b883a 	mov	r5,r18
   45280:	9809883a 	mov	r4,r19
   45284:	00490a00 	call	490a0 <__ssprint_r>
   45288:	103c601e 	bne	r2,zero,4440c <___svfprintf_internal_r+0x3fc>
   4528c:	d8c01c17 	ldw	r3,112(sp)
   45290:	d8801b17 	ldw	r2,108(sp)
   45294:	dd802704 	addi	r22,sp,156
   45298:	003fec06 	br	4524c <___svfprintf_internal_r+0x123c>
   4529c:	d8800417 	ldw	r2,16(sp)
   452a0:	1080004c 	andi	r2,r2,1
   452a4:	103f001e 	bne	r2,zero,44ea8 <___svfprintf_internal_r+0xe98>
   452a8:	00800044 	movi	r2,1
   452ac:	dd401b15 	stw	r21,108(sp)
   452b0:	b4400015 	stw	r17,0(r22)
   452b4:	b0800115 	stw	r2,4(r22)
   452b8:	d8c01c15 	stw	r3,112(sp)
   452bc:	ad400208 	cmpgei	r21,r21,8
   452c0:	a800d51e 	bne	r21,zero,45618 <___svfprintf_internal_r+0x1608>
   452c4:	42000084 	addi	r8,r8,2
   452c8:	b5800404 	addi	r22,r22,16
   452cc:	003f2206 	br	44f58 <___svfprintf_internal_r+0xf48>
   452d0:	02ff210e 	bge	zero,r11,44f58 <___svfprintf_internal_r+0xf48>
   452d4:	58800450 	cmplti	r2,r11,17
   452d8:	01c00174 	movhi	r7,5
   452dc:	10035c1e 	bne	r2,zero,46050 <___svfprintf_internal_r+0x2040>
   452e0:	39cd4704 	addi	r7,r7,13596
   452e4:	dc000715 	stw	r16,28(sp)
   452e8:	05800404 	movi	r22,16
   452ec:	5823883a 	mov	r17,r11
   452f0:	3821883a 	mov	r16,r7
   452f4:	402b883a 	mov	r21,r8
   452f8:	00000506 	br	45310 <___svfprintf_internal_r+0x1300>
   452fc:	e7000204 	addi	fp,fp,8
   45300:	8c7ffc04 	addi	r17,r17,-16
   45304:	88800448 	cmpgei	r2,r17,17
   45308:	1001b626 	beq	r2,zero,459e4 <___svfprintf_internal_r+0x19d4>
   4530c:	ad400044 	addi	r21,r21,1
   45310:	18c00404 	addi	r3,r3,16
   45314:	e4000015 	stw	r16,0(fp)
   45318:	e5800115 	stw	r22,4(fp)
   4531c:	d8c01c15 	stw	r3,112(sp)
   45320:	dd401b15 	stw	r21,108(sp)
   45324:	a8800208 	cmpgei	r2,r21,8
   45328:	103ff426 	beq	r2,zero,452fc <___svfprintf_internal_r+0x12ec>
   4532c:	d9801a04 	addi	r6,sp,104
   45330:	900b883a 	mov	r5,r18
   45334:	9809883a 	mov	r4,r19
   45338:	00490a00 	call	490a0 <__ssprint_r>
   4533c:	103c331e 	bne	r2,zero,4440c <___svfprintf_internal_r+0x3fc>
   45340:	dd401b17 	ldw	r21,108(sp)
   45344:	d8c01c17 	ldw	r3,112(sp)
   45348:	df002704 	addi	fp,sp,156
   4534c:	003fec06 	br	45300 <___svfprintf_internal_r+0x12f0>
   45350:	d9801a04 	addi	r6,sp,104
   45354:	900b883a 	mov	r5,r18
   45358:	9809883a 	mov	r4,r19
   4535c:	00490a00 	call	490a0 <__ssprint_r>
   45360:	103c2a1e 	bne	r2,zero,4440c <___svfprintf_internal_r+0x3fc>
   45364:	d8c01c17 	ldw	r3,112(sp)
   45368:	dd802704 	addi	r22,sp,156
   4536c:	003c0906 	br	44394 <___svfprintf_internal_r+0x384>
   45370:	d9801a04 	addi	r6,sp,104
   45374:	900b883a 	mov	r5,r18
   45378:	9809883a 	mov	r4,r19
   4537c:	00490a00 	call	490a0 <__ssprint_r>
   45380:	103c221e 	bne	r2,zero,4440c <___svfprintf_internal_r+0x3fc>
   45384:	d8c01c17 	ldw	r3,112(sp)
   45388:	dd401b17 	ldw	r21,108(sp)
   4538c:	df002704 	addi	fp,sp,156
   45390:	003ecc06 	br	44ec4 <___svfprintf_internal_r+0xeb4>
   45394:	d9801a04 	addi	r6,sp,104
   45398:	900b883a 	mov	r5,r18
   4539c:	9809883a 	mov	r4,r19
   453a0:	00490a00 	call	490a0 <__ssprint_r>
   453a4:	103c191e 	bne	r2,zero,4440c <___svfprintf_internal_r+0x3fc>
   453a8:	d8c01c17 	ldw	r3,112(sp)
   453ac:	dd401b17 	ldw	r21,108(sp)
   453b0:	df002704 	addi	fp,sp,156
   453b4:	003ece06 	br	44ef0 <___svfprintf_internal_r+0xee0>
   453b8:	dc402704 	addi	r17,sp,156
   453bc:	003d5f06 	br	4493c <___svfprintf_internal_r+0x92c>
   453c0:	25000017 	ldw	r20,0(r4)
   453c4:	002b883a 	mov	r21,zero
   453c8:	d8c00615 	stw	r3,24(sp)
   453cc:	00800044 	movi	r2,1
   453d0:	003c3106 	br	44498 <___svfprintf_internal_r+0x488>
   453d4:	25000017 	ldw	r20,0(r4)
   453d8:	002b883a 	mov	r21,zero
   453dc:	d8c00615 	stw	r3,24(sp)
   453e0:	0005883a 	mov	r2,zero
   453e4:	003c2c06 	br	44498 <___svfprintf_internal_r+0x488>
   453e8:	d8800617 	ldw	r2,24(sp)
   453ec:	10c00017 	ldw	r3,0(r2)
   453f0:	10800117 	ldw	r2,4(r2)
   453f4:	d8c00915 	stw	r3,36(sp)
   453f8:	d8800a15 	stw	r2,40(sp)
   453fc:	003c5b06 	br	4456c <___svfprintf_internal_r+0x55c>
   45400:	d9000517 	ldw	r4,20(sp)
   45404:	2005d7fa 	srai	r2,r4,31
   45408:	19000015 	stw	r4,0(r3)
   4540c:	18800115 	stw	r2,4(r3)
   45410:	003b2506 	br	440a8 <___svfprintf_internal_r+0x98>
   45414:	00800c04 	movi	r2,48
   45418:	d8801385 	stb	r2,78(sp)
   4541c:	df0013c5 	stb	fp,79(sp)
   45420:	63000094 	ori	r12,r12,2
   45424:	00800084 	movi	r2,2
   45428:	003c1b06 	br	44498 <___svfprintf_internal_r+0x488>
   4542c:	25000017 	ldw	r20,0(r4)
   45430:	002b883a 	mov	r21,zero
   45434:	d8c00615 	stw	r3,24(sp)
   45438:	003d8c06 	br	44a6c <___svfprintf_internal_r+0xa5c>
   4543c:	25000017 	ldw	r20,0(r4)
   45440:	d8c00615 	stw	r3,24(sp)
   45444:	a02bd7fa 	srai	r21,r20,31
   45448:	a805883a 	mov	r2,r21
   4544c:	003cc706 	br	4476c <___svfprintf_internal_r+0x75c>
   45450:	0421c83a 	sub	r16,zero,r16
   45454:	d8800615 	stw	r2,24(sp)
   45458:	003d5706 	br	449b8 <___svfprintf_internal_r+0x9a8>
   4545c:	202b883a 	mov	r21,r4
   45460:	057f3c16 	blt	zero,r21,45154 <___svfprintf_internal_r+0x1144>
   45464:	003f4506 	br	4517c <___svfprintf_internal_r+0x116c>
   45468:	d8800417 	ldw	r2,16(sp)
   4546c:	1080004c 	andi	r2,r2,1
   45470:	103f491e 	bne	r2,zero,45198 <___svfprintf_internal_r+0x1188>
   45474:	d9000817 	ldw	r4,32(sp)
   45478:	d9400717 	ldw	r5,28(sp)
   4547c:	2545c83a 	sub	r2,r4,r21
   45480:	2179c83a 	sub	fp,r4,r5
   45484:	102b883a 	mov	r21,r2
   45488:	e0bf630e 	bge	fp,r2,45218 <___svfprintf_internal_r+0x1208>
   4548c:	e02b883a 	mov	r21,fp
   45490:	003f6106 	br	45218 <___svfprintf_internal_r+0x1208>
   45494:	db000417 	ldw	r12,16(sp)
   45498:	a83ec426 	beq	r21,zero,44fac <___svfprintf_internal_r+0xf9c>
   4549c:	dc402704 	addi	r17,sp,156
   454a0:	a805883a 	mov	r2,r21
   454a4:	dc000715 	stw	r16,28(sp)
   454a8:	902b883a 	mov	r21,r18
   454ac:	8821883a 	mov	r16,r17
   454b0:	db000415 	stw	r12,16(sp)
   454b4:	a023883a 	mov	r17,r20
   454b8:	da000e15 	stw	r8,56(sp)
   454bc:	9829883a 	mov	r20,r19
   454c0:	1025883a 	mov	r18,r2
   454c4:	6827883a 	mov	r19,r13
   454c8:	8809883a 	mov	r4,r17
   454cc:	900b883a 	mov	r5,r18
   454d0:	01800284 	movi	r6,10
   454d4:	000f883a 	mov	r7,zero
   454d8:	004def80 	call	4def8 <__umoddi3>
   454dc:	10800c04 	addi	r2,r2,48
   454e0:	8809883a 	mov	r4,r17
   454e4:	900b883a 	mov	r5,r18
   454e8:	01800284 	movi	r6,10
   454ec:	000f883a 	mov	r7,zero
   454f0:	80bfffc5 	stb	r2,-1(r16)
   454f4:	004d9680 	call	4d968 <__udivdi3>
   454f8:	900d883a 	mov	r6,r18
   454fc:	880f883a 	mov	r7,r17
   45500:	843fffc4 	addi	r16,r16,-1
   45504:	1023883a 	mov	r17,r2
   45508:	1825883a 	mov	r18,r3
   4550c:	303fee1e 	bne	r6,zero,454c8 <___svfprintf_internal_r+0x14b8>
   45510:	39c002a8 	cmpgeui	r7,r7,10
   45514:	383fec1e 	bne	r7,zero,454c8 <___svfprintf_internal_r+0x14b8>
   45518:	8023883a 	mov	r17,r16
   4551c:	d8802704 	addi	r2,sp,156
   45520:	981b883a 	mov	r13,r19
   45524:	a825883a 	mov	r18,r21
   45528:	dc000717 	ldw	r16,28(sp)
   4552c:	da000e17 	ldw	r8,56(sp)
   45530:	a027883a 	mov	r19,r20
   45534:	146bc83a 	sub	r21,r2,r17
   45538:	003d0006 	br	4493c <___svfprintf_internal_r+0x92c>
   4553c:	d8800717 	ldw	r2,28(sp)
   45540:	002b883a 	mov	r21,zero
   45544:	156bc83a 	sub	r21,r2,r21
   45548:	057f100e 	bge	zero,r21,4518c <___svfprintf_internal_r+0x117c>
   4554c:	00000806 	br	45570 <___svfprintf_internal_r+0x1560>
   45550:	8809883a 	mov	r4,r17
   45554:	db000415 	stw	r12,16(sp)
   45558:	d8c00615 	stw	r3,24(sp)
   4555c:	0043f780 	call	43f78 <strlen>
   45560:	db000417 	ldw	r12,16(sp)
   45564:	102b883a 	mov	r21,r2
   45568:	1029883a 	mov	r20,r2
   4556c:	003b5d06 	br	442e4 <___svfprintf_internal_r+0x2d4>
   45570:	01c00174 	movhi	r7,5
   45574:	a9000450 	cmplti	r4,r21,17
   45578:	d8801b17 	ldw	r2,108(sp)
   4557c:	39cd4704 	addi	r7,r7,13596
   45580:	2001c21e 	bne	r4,zero,45c8c <___svfprintf_internal_r+0x1c7c>
   45584:	dc000e15 	stw	r16,56(sp)
   45588:	07000404 	movi	fp,16
   4558c:	3821883a 	mov	r16,r7
   45590:	00000406 	br	455a4 <___svfprintf_internal_r+0x1594>
   45594:	b5800204 	addi	r22,r22,8
   45598:	ad7ffc04 	addi	r21,r21,-16
   4559c:	a9000448 	cmpgei	r4,r21,17
   455a0:	2001b826 	beq	r4,zero,45c84 <___svfprintf_internal_r+0x1c74>
   455a4:	10800044 	addi	r2,r2,1
   455a8:	18c00404 	addi	r3,r3,16
   455ac:	b4000015 	stw	r16,0(r22)
   455b0:	b7000115 	stw	fp,4(r22)
   455b4:	d8c01c15 	stw	r3,112(sp)
   455b8:	d8801b15 	stw	r2,108(sp)
   455bc:	11000208 	cmpgei	r4,r2,8
   455c0:	203ff426 	beq	r4,zero,45594 <___svfprintf_internal_r+0x1584>
   455c4:	d9801a04 	addi	r6,sp,104
   455c8:	900b883a 	mov	r5,r18
   455cc:	9809883a 	mov	r4,r19
   455d0:	00490a00 	call	490a0 <__ssprint_r>
   455d4:	103b8d1e 	bne	r2,zero,4440c <___svfprintf_internal_r+0x3fc>
   455d8:	d8c01c17 	ldw	r3,112(sp)
   455dc:	d8801b17 	ldw	r2,108(sp)
   455e0:	dd802704 	addi	r22,sp,156
   455e4:	003fec06 	br	45598 <___svfprintf_internal_r+0x1588>
   455e8:	01401004 	movi	r5,64
   455ec:	9809883a 	mov	r4,r19
   455f0:	00430f00 	call	430f0 <_malloc_r>
   455f4:	90800015 	stw	r2,0(r18)
   455f8:	90800415 	stw	r2,16(r18)
   455fc:	1002a626 	beq	r2,zero,46098 <___svfprintf_internal_r+0x2088>
   45600:	00801004 	movi	r2,64
   45604:	90800515 	stw	r2,20(r18)
   45608:	003a9b06 	br	44078 <___svfprintf_internal_r+0x68>
   4560c:	d8800517 	ldw	r2,20(sp)
   45610:	18800015 	stw	r2,0(r3)
   45614:	003aa406 	br	440a8 <___svfprintf_internal_r+0x98>
   45618:	d9801a04 	addi	r6,sp,104
   4561c:	900b883a 	mov	r5,r18
   45620:	9809883a 	mov	r4,r19
   45624:	00490a00 	call	490a0 <__ssprint_r>
   45628:	103b781e 	bne	r2,zero,4440c <___svfprintf_internal_r+0x3fc>
   4562c:	da001b17 	ldw	r8,108(sp)
   45630:	d8c01c17 	ldw	r3,112(sp)
   45634:	dd802904 	addi	r22,sp,164
   45638:	42000044 	addi	r8,r8,1
   4563c:	df002704 	addi	fp,sp,156
   45640:	003e4506 	br	44f58 <___svfprintf_internal_r+0xf48>
   45644:	d9801a04 	addi	r6,sp,104
   45648:	900b883a 	mov	r5,r18
   4564c:	9809883a 	mov	r4,r19
   45650:	da001115 	stw	r8,68(sp)
   45654:	db400f15 	stw	r13,60(sp)
   45658:	db800e15 	stw	r14,56(sp)
   4565c:	00490a00 	call	490a0 <__ssprint_r>
   45660:	103b6a1e 	bne	r2,zero,4440c <___svfprintf_internal_r+0x3fc>
   45664:	d8c01c17 	ldw	r3,112(sp)
   45668:	da001117 	ldw	r8,68(sp)
   4566c:	db400f17 	ldw	r13,60(sp)
   45670:	db800e17 	ldw	r14,56(sp)
   45674:	dd802704 	addi	r22,sp,156
   45678:	003b2706 	br	44318 <___svfprintf_internal_r+0x308>
   4567c:	d8801b17 	ldw	r2,108(sp)
   45680:	01000174 	movhi	r4,5
   45684:	210d4604 	addi	r4,r4,13592
   45688:	10800044 	addi	r2,r2,1
   4568c:	18c00044 	addi	r3,r3,1
   45690:	b1000015 	stw	r4,0(r22)
   45694:	01000044 	movi	r4,1
   45698:	d8801b15 	stw	r2,108(sp)
   4569c:	b1000115 	stw	r4,4(r22)
   456a0:	d8c01c15 	stw	r3,112(sp)
   456a4:	10800208 	cmpgei	r2,r2,8
   456a8:	10018a1e 	bne	r2,zero,45cd4 <___svfprintf_internal_r+0x1cc4>
   456ac:	b5800204 	addi	r22,r22,8
   456b0:	2800a01e 	bne	r5,zero,45934 <___svfprintf_internal_r+0x1924>
   456b4:	d8800417 	ldw	r2,16(sp)
   456b8:	d9000817 	ldw	r4,32(sp)
   456bc:	1080004c 	andi	r2,r2,1
   456c0:	1104b03a 	or	r2,r2,r4
   456c4:	103b4026 	beq	r2,zero,443c8 <___svfprintf_internal_r+0x3b8>
   456c8:	d8800d17 	ldw	r2,52(sp)
   456cc:	d9000c17 	ldw	r4,48(sp)
   456d0:	b0800015 	stw	r2,0(r22)
   456d4:	d8801b17 	ldw	r2,108(sp)
   456d8:	20c7883a 	add	r3,r4,r3
   456dc:	b1000115 	stw	r4,4(r22)
   456e0:	10800044 	addi	r2,r2,1
   456e4:	d8c01c15 	stw	r3,112(sp)
   456e8:	d8801b15 	stw	r2,108(sp)
   456ec:	11000208 	cmpgei	r4,r2,8
   456f0:	2001951e 	bne	r4,zero,45d48 <___svfprintf_internal_r+0x1d38>
   456f4:	b5800204 	addi	r22,r22,8
   456f8:	d9000817 	ldw	r4,32(sp)
   456fc:	10800044 	addi	r2,r2,1
   45700:	d8801b15 	stw	r2,108(sp)
   45704:	20c7883a 	add	r3,r4,r3
   45708:	b4400015 	stw	r17,0(r22)
   4570c:	b1000115 	stw	r4,4(r22)
   45710:	d8c01c15 	stw	r3,112(sp)
   45714:	10800208 	cmpgei	r2,r2,8
   45718:	103b2a26 	beq	r2,zero,443c4 <___svfprintf_internal_r+0x3b4>
   4571c:	003e1706 	br	44f7c <___svfprintf_internal_r+0xf6c>
   45720:	8825883a 	mov	r18,r17
   45724:	003b3906 	br	4440c <___svfprintf_internal_r+0x3fc>
   45728:	d9000917 	ldw	r4,36(sp)
   4572c:	d9400a17 	ldw	r5,40(sp)
   45730:	da000615 	stw	r8,24(sp)
   45734:	200d883a 	mov	r6,r4
   45738:	280f883a 	mov	r7,r5
   4573c:	db000415 	stw	r12,16(sp)
   45740:	00508080 	call	50808 <__unorddf2>
   45744:	db000417 	ldw	r12,16(sp)
   45748:	da000617 	ldw	r8,24(sp)
   4574c:	1002271e 	bne	r2,zero,45fec <___svfprintf_internal_r+0x1fdc>
   45750:	057ff7c4 	movi	r21,-33
   45754:	40bfffe0 	cmpeqi	r2,r8,-1
   45758:	e56a703a 	and	r21,fp,r21
   4575c:	1001c91e 	bne	r2,zero,45e84 <___svfprintf_internal_r+0x1e74>
   45760:	a88011d8 	cmpnei	r2,r21,71
   45764:	10004026 	beq	r2,zero,45868 <___svfprintf_internal_r+0x1858>
   45768:	60804014 	ori	r2,r12,256
   4576c:	d8800415 	stw	r2,16(sp)
   45770:	d8800a17 	ldw	r2,40(sp)
   45774:	10015316 	blt	r2,zero,45cc4 <___svfprintf_internal_r+0x1cb4>
   45778:	dd000a17 	ldw	r20,40(sp)
   4577c:	d8000605 	stb	zero,24(sp)
   45780:	e08019a0 	cmpeqi	r2,fp,102
   45784:	d8800f15 	stw	r2,60(sp)
   45788:	1000b21e 	bne	r2,zero,45a54 <___svfprintf_internal_r+0x1a44>
   4578c:	e08011a0 	cmpeqi	r2,fp,70
   45790:	1000b01e 	bne	r2,zero,45a54 <___svfprintf_internal_r+0x1a44>
   45794:	a8801158 	cmpnei	r2,r21,69
   45798:	10018526 	beq	r2,zero,45db0 <___svfprintf_internal_r+0x1da0>
   4579c:	d8801804 	addi	r2,sp,96
   457a0:	d8800315 	stw	r2,12(sp)
   457a4:	d9400917 	ldw	r5,36(sp)
   457a8:	d8801504 	addi	r2,sp,84
   457ac:	d8800215 	stw	r2,8(sp)
   457b0:	d8801404 	addi	r2,sp,80
   457b4:	da000015 	stw	r8,0(sp)
   457b8:	9809883a 	mov	r4,r19
   457bc:	d8800115 	stw	r2,4(sp)
   457c0:	01c00084 	movi	r7,2
   457c4:	a00d883a 	mov	r6,r20
   457c8:	db000815 	stw	r12,32(sp)
   457cc:	da000715 	stw	r8,28(sp)
   457d0:	00462a80 	call	462a8 <_dtoa_r>
   457d4:	da000717 	ldw	r8,28(sp)
   457d8:	e10019d8 	cmpnei	r4,fp,103
   457dc:	db000817 	ldw	r12,32(sp)
   457e0:	1023883a 	mov	r17,r2
   457e4:	4007883a 	mov	r3,r8
   457e8:	2001851e 	bne	r4,zero,45e00 <___svfprintf_internal_r+0x1df0>
   457ec:	6080004c 	andi	r2,r12,1
   457f0:	1001851e 	bne	r2,zero,45e08 <___svfprintf_internal_r+0x1df8>
   457f4:	d8801417 	ldw	r2,80(sp)
   457f8:	ad4011e0 	cmpeqi	r21,r21,71
   457fc:	d8800715 	stw	r2,28(sp)
   45800:	d8801817 	ldw	r2,96(sp)
   45804:	1445c83a 	sub	r2,r2,r17
   45808:	d8800815 	stw	r2,32(sp)
   4580c:	a800db26 	beq	r21,zero,45b7c <___svfprintf_internal_r+0x1b6c>
   45810:	d8c00717 	ldw	r3,28(sp)
   45814:	18bfff50 	cmplti	r2,r3,-3
   45818:	1000d71e 	bne	r2,zero,45b78 <___svfprintf_internal_r+0x1b68>
   4581c:	40c0d616 	blt	r8,r3,45b78 <___svfprintf_internal_r+0x1b68>
   45820:	d8800717 	ldw	r2,28(sp)
   45824:	d8c00817 	ldw	r3,32(sp)
   45828:	10c19c16 	blt	r2,r3,45e9c <___svfprintf_internal_r+0x1e8c>
   4582c:	6300004c 	andi	r12,r12,1
   45830:	6001dd1e 	bne	r12,zero,45fa8 <___svfprintf_internal_r+0x1f98>
   45834:	1029883a 	mov	r20,r2
   45838:	1000010e 	bge	r2,zero,45840 <___svfprintf_internal_r+0x1830>
   4583c:	0029883a 	mov	r20,zero
   45840:	dd400717 	ldw	r21,28(sp)
   45844:	070019c4 	movi	fp,103
   45848:	d8800607 	ldb	r2,24(sp)
   4584c:	10017426 	beq	r2,zero,45e20 <___svfprintf_internal_r+0x1e10>
   45850:	00800b44 	movi	r2,45
   45854:	d8801345 	stb	r2,77(sp)
   45858:	d8800e17 	ldw	r2,56(sp)
   4585c:	0011883a 	mov	r8,zero
   45860:	d8800615 	stw	r2,24(sp)
   45864:	003c3d06 	br	4495c <___svfprintf_internal_r+0x94c>
   45868:	403fbf1e 	bne	r8,zero,45768 <___svfprintf_internal_r+0x1758>
   4586c:	02000044 	movi	r8,1
   45870:	003fbd06 	br	45768 <___svfprintf_internal_r+0x1758>
   45874:	db401343 	ldbu	r13,77(sp)
   45878:	003dcb06 	br	44fa8 <___svfprintf_internal_r+0xf98>
   4587c:	880f883a 	mov	r7,r17
   45880:	10800044 	addi	r2,r2,1
   45884:	1d47883a 	add	r3,r3,r21
   45888:	b1c00015 	stw	r7,0(r22)
   4588c:	003ac806 	br	443b0 <___svfprintf_internal_r+0x3a0>
   45890:	d9801a04 	addi	r6,sp,104
   45894:	900b883a 	mov	r5,r18
   45898:	9809883a 	mov	r4,r19
   4589c:	00490a00 	call	490a0 <__ssprint_r>
   458a0:	103ada1e 	bne	r2,zero,4440c <___svfprintf_internal_r+0x3fc>
   458a4:	d8c01c17 	ldw	r3,112(sp)
   458a8:	dd802704 	addi	r22,sp,156
   458ac:	003cbe06 	br	44ba8 <___svfprintf_internal_r+0xb98>
   458b0:	d9801a04 	addi	r6,sp,104
   458b4:	900b883a 	mov	r5,r18
   458b8:	9809883a 	mov	r4,r19
   458bc:	da000e15 	stw	r8,56(sp)
   458c0:	00490a00 	call	490a0 <__ssprint_r>
   458c4:	103ad11e 	bne	r2,zero,4440c <___svfprintf_internal_r+0x3fc>
   458c8:	d8c01c17 	ldw	r3,112(sp)
   458cc:	da000e17 	ldw	r8,56(sp)
   458d0:	dd802704 	addi	r22,sp,156
   458d4:	003aad06 	br	4438c <___svfprintf_internal_r+0x37c>
   458d8:	d9801a04 	addi	r6,sp,104
   458dc:	900b883a 	mov	r5,r18
   458e0:	9809883a 	mov	r4,r19
   458e4:	00490a00 	call	490a0 <__ssprint_r>
   458e8:	103ac81e 	bne	r2,zero,4440c <___svfprintf_internal_r+0x3fc>
   458ec:	d8c01c17 	ldw	r3,112(sp)
   458f0:	dd802704 	addi	r22,sp,156
   458f4:	003cbe06 	br	44bf0 <___svfprintf_internal_r+0xbe0>
   458f8:	bf000043 	ldbu	fp,1(r23)
   458fc:	63000814 	ori	r12,r12,32
   45900:	bdc00044 	addi	r23,r23,1
   45904:	e2c03fcc 	andi	r11,fp,255
   45908:	5ac0201c 	xori	r11,r11,128
   4590c:	5affe004 	addi	r11,r11,-128
   45910:	0039fd06 	br	44108 <___svfprintf_internal_r+0xf8>
   45914:	408001f0 	cmpltui	r2,r8,7
   45918:	402b883a 	mov	r21,r8
   4591c:	10010126 	beq	r2,zero,45d24 <___svfprintf_internal_r+0x1d14>
   45920:	04400174 	movhi	r17,5
   45924:	a829883a 	mov	r20,r21
   45928:	d8c00615 	stw	r3,24(sp)
   4592c:	8c4d4404 	addi	r17,r17,13584
   45930:	003a6c06 	br	442e4 <___svfprintf_internal_r+0x2d4>
   45934:	d8800d17 	ldw	r2,52(sp)
   45938:	d9000c17 	ldw	r4,48(sp)
   4593c:	b0800015 	stw	r2,0(r22)
   45940:	d8801b17 	ldw	r2,108(sp)
   45944:	20c7883a 	add	r3,r4,r3
   45948:	b1000115 	stw	r4,4(r22)
   4594c:	10800044 	addi	r2,r2,1
   45950:	d8c01c15 	stw	r3,112(sp)
   45954:	d8801b15 	stw	r2,108(sp)
   45958:	11000208 	cmpgei	r4,r2,8
   4595c:	2000fa1e 	bne	r4,zero,45d48 <___svfprintf_internal_r+0x1d38>
   45960:	b5800204 	addi	r22,r22,8
   45964:	283f640e 	bge	r5,zero,456f8 <___svfprintf_internal_r+0x16e8>
   45968:	01c00174 	movhi	r7,5
   4596c:	293ffc08 	cmpgei	r4,r5,-16
   45970:	39cd4704 	addi	r7,r7,13596
   45974:	0179c83a 	sub	fp,zero,r5
   45978:	2001631e 	bne	r4,zero,45f08 <___svfprintf_internal_r+0x1ef8>
   4597c:	dc000715 	stw	r16,28(sp)
   45980:	05400404 	movi	r21,16
   45984:	9021883a 	mov	r16,r18
   45988:	3825883a 	mov	r18,r7
   4598c:	00000406 	br	459a0 <___svfprintf_internal_r+0x1990>
   45990:	b5800204 	addi	r22,r22,8
   45994:	e73ffc04 	addi	fp,fp,-16
   45998:	e1800448 	cmpgei	r6,fp,17
   4599c:	30015726 	beq	r6,zero,45efc <___svfprintf_internal_r+0x1eec>
   459a0:	10800044 	addi	r2,r2,1
   459a4:	18c00404 	addi	r3,r3,16
   459a8:	b4800015 	stw	r18,0(r22)
   459ac:	b5400115 	stw	r21,4(r22)
   459b0:	d8c01c15 	stw	r3,112(sp)
   459b4:	d8801b15 	stw	r2,108(sp)
   459b8:	11800208 	cmpgei	r6,r2,8
   459bc:	303ff426 	beq	r6,zero,45990 <___svfprintf_internal_r+0x1980>
   459c0:	d9801a04 	addi	r6,sp,104
   459c4:	800b883a 	mov	r5,r16
   459c8:	9809883a 	mov	r4,r19
   459cc:	00490a00 	call	490a0 <__ssprint_r>
   459d0:	1001961e 	bne	r2,zero,4602c <___svfprintf_internal_r+0x201c>
   459d4:	d8c01c17 	ldw	r3,112(sp)
   459d8:	d8801b17 	ldw	r2,108(sp)
   459dc:	dd802704 	addi	r22,sp,156
   459e0:	003fec06 	br	45994 <___svfprintf_internal_r+0x1984>
   459e4:	800f883a 	mov	r7,r16
   459e8:	dc000717 	ldw	r16,28(sp)
   459ec:	8817883a 	mov	r11,r17
   459f0:	aa000044 	addi	r8,r21,1
   459f4:	e0800204 	addi	r2,fp,8
   459f8:	1ac7883a 	add	r3,r3,r11
   459fc:	e1c00015 	stw	r7,0(fp)
   45a00:	e2c00115 	stw	r11,4(fp)
   45a04:	d8c01c15 	stw	r3,112(sp)
   45a08:	da001b15 	stw	r8,108(sp)
   45a0c:	41000208 	cmpgei	r4,r8,8
   45a10:	203f011e 	bne	r4,zero,45618 <___svfprintf_internal_r+0x1608>
   45a14:	42000044 	addi	r8,r8,1
   45a18:	15800204 	addi	r22,r2,8
   45a1c:	1039883a 	mov	fp,r2
   45a20:	003d4d06 	br	44f58 <___svfprintf_internal_r+0xf48>
   45a24:	d8800617 	ldw	r2,24(sp)
   45a28:	d8c00615 	stw	r3,24(sp)
   45a2c:	15000017 	ldw	r20,0(r2)
   45a30:	a02bd7fa 	srai	r21,r20,31
   45a34:	a805883a 	mov	r2,r21
   45a38:	003b4c06 	br	4476c <___svfprintf_internal_r+0x75c>
   45a3c:	d8800617 	ldw	r2,24(sp)
   45a40:	002b883a 	mov	r21,zero
   45a44:	d8c00615 	stw	r3,24(sp)
   45a48:	15000017 	ldw	r20,0(r2)
   45a4c:	00800044 	movi	r2,1
   45a50:	003a9106 	br	44498 <___svfprintf_internal_r+0x488>
   45a54:	d8801804 	addi	r2,sp,96
   45a58:	d8800315 	stw	r2,12(sp)
   45a5c:	d9400917 	ldw	r5,36(sp)
   45a60:	d8801504 	addi	r2,sp,84
   45a64:	d8800215 	stw	r2,8(sp)
   45a68:	d8801404 	addi	r2,sp,80
   45a6c:	da000015 	stw	r8,0(sp)
   45a70:	d8800115 	stw	r2,4(sp)
   45a74:	01c000c4 	movi	r7,3
   45a78:	a00d883a 	mov	r6,r20
   45a7c:	9809883a 	mov	r4,r19
   45a80:	db000815 	stw	r12,32(sp)
   45a84:	da000715 	stw	r8,28(sp)
   45a88:	00462a80 	call	462a8 <_dtoa_r>
   45a8c:	da000717 	ldw	r8,28(sp)
   45a90:	1023883a 	mov	r17,r2
   45a94:	db000817 	ldw	r12,32(sp)
   45a98:	1207883a 	add	r3,r2,r8
   45a9c:	88800007 	ldb	r2,0(r17)
   45aa0:	10800c20 	cmpeqi	r2,r2,48
   45aa4:	1001291e 	bne	r2,zero,45f4c <___svfprintf_internal_r+0x1f3c>
   45aa8:	d8801417 	ldw	r2,80(sp)
   45aac:	1893883a 	add	r9,r3,r2
   45ab0:	d9000917 	ldw	r4,36(sp)
   45ab4:	000d883a 	mov	r6,zero
   45ab8:	000f883a 	mov	r7,zero
   45abc:	a00b883a 	mov	r5,r20
   45ac0:	da401115 	stw	r9,68(sp)
   45ac4:	da000815 	stw	r8,32(sp)
   45ac8:	db000715 	stw	r12,28(sp)
   45acc:	004f6040 	call	4f604 <__eqdf2>
   45ad0:	db000717 	ldw	r12,28(sp)
   45ad4:	da000817 	ldw	r8,32(sp)
   45ad8:	da401117 	ldw	r9,68(sp)
   45adc:	10008f26 	beq	r2,zero,45d1c <___svfprintf_internal_r+0x1d0c>
   45ae0:	d8801817 	ldw	r2,96(sp)
   45ae4:	1240062e 	bgeu	r2,r9,45b00 <___svfprintf_internal_r+0x1af0>
   45ae8:	01000c04 	movi	r4,48
   45aec:	10c00044 	addi	r3,r2,1
   45af0:	d8c01815 	stw	r3,96(sp)
   45af4:	11000005 	stb	r4,0(r2)
   45af8:	d8801817 	ldw	r2,96(sp)
   45afc:	127ffb36 	bltu	r2,r9,45aec <___svfprintf_internal_r+0x1adc>
   45b00:	d8c01417 	ldw	r3,80(sp)
   45b04:	1445c83a 	sub	r2,r2,r17
   45b08:	ad4011d8 	cmpnei	r21,r21,71
   45b0c:	d8c00715 	stw	r3,28(sp)
   45b10:	d8800815 	stw	r2,32(sp)
   45b14:	a83f3e26 	beq	r21,zero,45810 <___svfprintf_internal_r+0x1800>
   45b18:	d8800f17 	ldw	r2,60(sp)
   45b1c:	10001726 	beq	r2,zero,45b7c <___svfprintf_internal_r+0x1b6c>
   45b20:	d8c00717 	ldw	r3,28(sp)
   45b24:	6080004c 	andi	r2,r12,1
   45b28:	1204b03a 	or	r2,r2,r8
   45b2c:	00c0b80e 	bge	zero,r3,45e10 <___svfprintf_internal_r+0x1e00>
   45b30:	1001361e 	bne	r2,zero,4600c <___svfprintf_internal_r+0x1ffc>
   45b34:	dd400717 	ldw	r21,28(sp)
   45b38:	a829883a 	mov	r20,r21
   45b3c:	003f4206 	br	45848 <___svfprintf_internal_r+0x1838>
   45b40:	d8800617 	ldw	r2,24(sp)
   45b44:	002b883a 	mov	r21,zero
   45b48:	d8c00615 	stw	r3,24(sp)
   45b4c:	15000017 	ldw	r20,0(r2)
   45b50:	003bc606 	br	44a6c <___svfprintf_internal_r+0xa5c>
   45b54:	d8800617 	ldw	r2,24(sp)
   45b58:	002b883a 	mov	r21,zero
   45b5c:	d8c00615 	stw	r3,24(sp)
   45b60:	15000017 	ldw	r20,0(r2)
   45b64:	0005883a 	mov	r2,zero
   45b68:	003a4b06 	br	44498 <___svfprintf_internal_r+0x488>
   45b6c:	04400174 	movhi	r17,5
   45b70:	8c4d3604 	addi	r17,r17,13528
   45b74:	003aa206 	br	44600 <___svfprintf_internal_r+0x5f0>
   45b78:	e73fff84 	addi	fp,fp,-2
   45b7c:	d8800717 	ldw	r2,28(sp)
   45b80:	df001645 	stb	fp,89(sp)
   45b84:	157fffc4 	addi	r21,r2,-1
   45b88:	dd401415 	stw	r21,80(sp)
   45b8c:	a8008316 	blt	r21,zero,45d9c <___svfprintf_internal_r+0x1d8c>
   45b90:	00800ac4 	movi	r2,43
   45b94:	d8801685 	stb	r2,90(sp)
   45b98:	a8800290 	cmplti	r2,r21,10
   45b9c:	1000fb1e 	bne	r2,zero,45f8c <___svfprintf_internal_r+0x1f7c>
   45ba0:	d98019c4 	addi	r6,sp,103
   45ba4:	9029883a 	mov	r20,r18
   45ba8:	dc400715 	stw	r17,28(sp)
   45bac:	8025883a 	mov	r18,r16
   45bb0:	db000f15 	stw	r12,60(sp)
   45bb4:	3021883a 	mov	r16,r6
   45bb8:	a809883a 	mov	r4,r21
   45bbc:	01400284 	movi	r5,10
   45bc0:	00427e00 	call	427e0 <__modsi3>
   45bc4:	10800c04 	addi	r2,r2,48
   45bc8:	a809883a 	mov	r4,r21
   45bcc:	80bfffc5 	stb	r2,-1(r16)
   45bd0:	01400284 	movi	r5,10
   45bd4:	00427600 	call	42760 <__divsi3>
   45bd8:	a9001908 	cmpgei	r4,r21,100
   45bdc:	8023883a 	mov	r17,r16
   45be0:	102b883a 	mov	r21,r2
   45be4:	843fffc4 	addi	r16,r16,-1
   45be8:	203ff31e 	bne	r4,zero,45bb8 <___svfprintf_internal_r+0x1ba8>
   45bec:	800d883a 	mov	r6,r16
   45bf0:	11000c04 	addi	r4,r2,48
   45bf4:	9021883a 	mov	r16,r18
   45bf8:	a025883a 	mov	r18,r20
   45bfc:	8829883a 	mov	r20,r17
   45c00:	a0bfff84 	addi	r2,r20,-2
   45c04:	313fffc5 	stb	r4,-1(r6)
   45c08:	d8c019c4 	addi	r3,sp,103
   45c0c:	db000f17 	ldw	r12,60(sp)
   45c10:	dc400717 	ldw	r17,28(sp)
   45c14:	10c11d2e 	bgeu	r2,r3,4608c <___svfprintf_internal_r+0x207c>
   45c18:	d8c016c4 	addi	r3,sp,91
   45c1c:	00000106 	br	45c24 <___svfprintf_internal_r+0x1c14>
   45c20:	11000003 	ldbu	r4,0(r2)
   45c24:	19000005 	stb	r4,0(r3)
   45c28:	10800044 	addi	r2,r2,1
   45c2c:	d90019c4 	addi	r4,sp,103
   45c30:	18c00044 	addi	r3,r3,1
   45c34:	113ffa1e 	bne	r2,r4,45c20 <___svfprintf_internal_r+0x1c10>
   45c38:	d8801a44 	addi	r2,sp,105
   45c3c:	d8c016c4 	addi	r3,sp,91
   45c40:	1505c83a 	sub	r2,r2,r20
   45c44:	1885883a 	add	r2,r3,r2
   45c48:	d8c01644 	addi	r3,sp,89
   45c4c:	10c5c83a 	sub	r2,r2,r3
   45c50:	d8801015 	stw	r2,64(sp)
   45c54:	d8c00817 	ldw	r3,32(sp)
   45c58:	d9001017 	ldw	r4,64(sp)
   45c5c:	18800088 	cmpgei	r2,r3,2
   45c60:	20eb883a 	add	r21,r4,r3
   45c64:	1000da26 	beq	r2,zero,45fd0 <___svfprintf_internal_r+0x1fc0>
   45c68:	d8800c17 	ldw	r2,48(sp)
   45c6c:	a8ab883a 	add	r21,r21,r2
   45c70:	a829883a 	mov	r20,r21
   45c74:	a800010e 	bge	r21,zero,45c7c <___svfprintf_internal_r+0x1c6c>
   45c78:	0029883a 	mov	r20,zero
   45c7c:	d8000715 	stw	zero,28(sp)
   45c80:	003ef106 	br	45848 <___svfprintf_internal_r+0x1838>
   45c84:	800f883a 	mov	r7,r16
   45c88:	dc000e17 	ldw	r16,56(sp)
   45c8c:	10800044 	addi	r2,r2,1
   45c90:	1d47883a 	add	r3,r3,r21
   45c94:	d8801b15 	stw	r2,108(sp)
   45c98:	b1c00015 	stw	r7,0(r22)
   45c9c:	b5400115 	stw	r21,4(r22)
   45ca0:	d8c01c15 	stw	r3,112(sp)
   45ca4:	10800208 	cmpgei	r2,r2,8
   45ca8:	1000321e 	bne	r2,zero,45d74 <___svfprintf_internal_r+0x1d64>
   45cac:	b5800204 	addi	r22,r22,8
   45cb0:	003d3606 	br	4518c <___svfprintf_internal_r+0x117c>
   45cb4:	00800b44 	movi	r2,45
   45cb8:	d8801345 	stb	r2,77(sp)
   45cbc:	03400b44 	movi	r13,45
   45cc0:	003a4b06 	br	445f0 <___svfprintf_internal_r+0x5e0>
   45cc4:	1520003c 	xorhi	r20,r2,32768
   45cc8:	00800b44 	movi	r2,45
   45ccc:	d8800605 	stb	r2,24(sp)
   45cd0:	003eab06 	br	45780 <___svfprintf_internal_r+0x1770>
   45cd4:	d9801a04 	addi	r6,sp,104
   45cd8:	900b883a 	mov	r5,r18
   45cdc:	9809883a 	mov	r4,r19
   45ce0:	00490a00 	call	490a0 <__ssprint_r>
   45ce4:	1039c91e 	bne	r2,zero,4440c <___svfprintf_internal_r+0x3fc>
   45ce8:	d9401417 	ldw	r5,80(sp)
   45cec:	d8c01c17 	ldw	r3,112(sp)
   45cf0:	dd802704 	addi	r22,sp,156
   45cf4:	003e6e06 	br	456b0 <___svfprintf_internal_r+0x16a0>
   45cf8:	d9801a04 	addi	r6,sp,104
   45cfc:	900b883a 	mov	r5,r18
   45d00:	9809883a 	mov	r4,r19
   45d04:	00490a00 	call	490a0 <__ssprint_r>
   45d08:	1039c01e 	bne	r2,zero,4440c <___svfprintf_internal_r+0x3fc>
   45d0c:	dd401417 	ldw	r21,80(sp)
   45d10:	d8c01c17 	ldw	r3,112(sp)
   45d14:	dd802704 	addi	r22,sp,156
   45d18:	003d2b06 	br	451c8 <___svfprintf_internal_r+0x11b8>
   45d1c:	4805883a 	mov	r2,r9
   45d20:	003f7706 	br	45b00 <___svfprintf_internal_r+0x1af0>
   45d24:	05400184 	movi	r21,6
   45d28:	003efd06 	br	45920 <___svfprintf_internal_r+0x1910>
   45d2c:	d9401345 	stb	r5,77(sp)
   45d30:	00396606 	br	442cc <___svfprintf_internal_r+0x2bc>
   45d34:	d9801a04 	addi	r6,sp,104
   45d38:	900b883a 	mov	r5,r18
   45d3c:	9809883a 	mov	r4,r19
   45d40:	00490a00 	call	490a0 <__ssprint_r>
   45d44:	0039b106 	br	4440c <___svfprintf_internal_r+0x3fc>
   45d48:	d9801a04 	addi	r6,sp,104
   45d4c:	900b883a 	mov	r5,r18
   45d50:	9809883a 	mov	r4,r19
   45d54:	00490a00 	call	490a0 <__ssprint_r>
   45d58:	1039ac1e 	bne	r2,zero,4440c <___svfprintf_internal_r+0x3fc>
   45d5c:	d9401417 	ldw	r5,80(sp)
   45d60:	d8c01c17 	ldw	r3,112(sp)
   45d64:	d8801b17 	ldw	r2,108(sp)
   45d68:	dd802704 	addi	r22,sp,156
   45d6c:	283e620e 	bge	r5,zero,456f8 <___svfprintf_internal_r+0x16e8>
   45d70:	003efd06 	br	45968 <___svfprintf_internal_r+0x1958>
   45d74:	d9801a04 	addi	r6,sp,104
   45d78:	900b883a 	mov	r5,r18
   45d7c:	9809883a 	mov	r4,r19
   45d80:	00490a00 	call	490a0 <__ssprint_r>
   45d84:	1039a11e 	bne	r2,zero,4440c <___svfprintf_internal_r+0x3fc>
   45d88:	d8c01c17 	ldw	r3,112(sp)
   45d8c:	dd802704 	addi	r22,sp,156
   45d90:	003cfe06 	br	4518c <___svfprintf_internal_r+0x117c>
   45d94:	db000417 	ldw	r12,16(sp)
   45d98:	003c8606 	br	44fb4 <___svfprintf_internal_r+0xfa4>
   45d9c:	05400044 	movi	r21,1
   45da0:	a8abc83a 	sub	r21,r21,r2
   45da4:	00800b44 	movi	r2,45
   45da8:	d8801685 	stb	r2,90(sp)
   45dac:	003f7a06 	br	45b98 <___svfprintf_internal_r+0x1b88>
   45db0:	d8801804 	addi	r2,sp,96
   45db4:	d8800315 	stw	r2,12(sp)
   45db8:	d9400917 	ldw	r5,36(sp)
   45dbc:	d8801504 	addi	r2,sp,84
   45dc0:	40c00044 	addi	r3,r8,1
   45dc4:	d8800215 	stw	r2,8(sp)
   45dc8:	d8801404 	addi	r2,sp,80
   45dcc:	d8c00015 	stw	r3,0(sp)
   45dd0:	d8800115 	stw	r2,4(sp)
   45dd4:	01c00084 	movi	r7,2
   45dd8:	a00d883a 	mov	r6,r20
   45ddc:	9809883a 	mov	r4,r19
   45de0:	db001115 	stw	r12,68(sp)
   45de4:	da000815 	stw	r8,32(sp)
   45de8:	d8c00715 	stw	r3,28(sp)
   45dec:	00462a80 	call	462a8 <_dtoa_r>
   45df0:	d8c00717 	ldw	r3,28(sp)
   45df4:	da000817 	ldw	r8,32(sp)
   45df8:	db001117 	ldw	r12,68(sp)
   45dfc:	1023883a 	mov	r17,r2
   45e00:	e08011d8 	cmpnei	r2,fp,71
   45e04:	103e7926 	beq	r2,zero,457ec <___svfprintf_internal_r+0x17dc>
   45e08:	88d3883a 	add	r9,r17,r3
   45e0c:	003f2806 	br	45ab0 <___svfprintf_internal_r+0x1aa0>
   45e10:	1000821e 	bne	r2,zero,4601c <___svfprintf_internal_r+0x200c>
   45e14:	05000044 	movi	r20,1
   45e18:	05400044 	movi	r21,1
   45e1c:	003e8a06 	br	45848 <___svfprintf_internal_r+0x1838>
   45e20:	d8800e17 	ldw	r2,56(sp)
   45e24:	db401343 	ldbu	r13,77(sp)
   45e28:	0011883a 	mov	r8,zero
   45e2c:	d8800615 	stw	r2,24(sp)
   45e30:	003ac606 	br	4494c <___svfprintf_internal_r+0x93c>
   45e34:	d9801a04 	addi	r6,sp,104
   45e38:	900b883a 	mov	r5,r18
   45e3c:	9809883a 	mov	r4,r19
   45e40:	00490a00 	call	490a0 <__ssprint_r>
   45e44:	1039711e 	bne	r2,zero,4440c <___svfprintf_internal_r+0x3fc>
   45e48:	d8c01c17 	ldw	r3,112(sp)
   45e4c:	dd802704 	addi	r22,sp,156
   45e50:	a83ccb0e 	bge	r21,zero,45180 <___svfprintf_internal_r+0x1170>
   45e54:	003db906 	br	4553c <___svfprintf_internal_r+0x152c>
   45e58:	d9801a04 	addi	r6,sp,104
   45e5c:	900b883a 	mov	r5,r18
   45e60:	9809883a 	mov	r4,r19
   45e64:	00490a00 	call	490a0 <__ssprint_r>
   45e68:	1039681e 	bne	r2,zero,4440c <___svfprintf_internal_r+0x3fc>
   45e6c:	d8801417 	ldw	r2,80(sp)
   45e70:	d9000817 	ldw	r4,32(sp)
   45e74:	d8c01c17 	ldw	r3,112(sp)
   45e78:	dd802704 	addi	r22,sp,156
   45e7c:	2085c83a 	sub	r2,r4,r2
   45e80:	003ce506 	br	45218 <___svfprintf_internal_r+0x1208>
   45e84:	02000184 	movi	r8,6
   45e88:	003e3706 	br	45768 <___svfprintf_internal_r+0x1758>
   45e8c:	4029883a 	mov	r20,r8
   45e90:	d8c00615 	stw	r3,24(sp)
   45e94:	402b883a 	mov	r21,r8
   45e98:	00391206 	br	442e4 <___svfprintf_internal_r+0x2d4>
   45e9c:	d8800817 	ldw	r2,32(sp)
   45ea0:	d8c00c17 	ldw	r3,48(sp)
   45ea4:	10eb883a 	add	r21,r2,r3
   45ea8:	d8800717 	ldw	r2,28(sp)
   45eac:	00800316 	blt	zero,r2,45ebc <___svfprintf_internal_r+0x1eac>
   45eb0:	d8800717 	ldw	r2,28(sp)
   45eb4:	a8abc83a 	sub	r21,r21,r2
   45eb8:	ad400044 	addi	r21,r21,1
   45ebc:	a829883a 	mov	r20,r21
   45ec0:	a8003e16 	blt	r21,zero,45fbc <___svfprintf_internal_r+0x1fac>
   45ec4:	070019c4 	movi	fp,103
   45ec8:	003e5f06 	br	45848 <___svfprintf_internal_r+0x1838>
   45ecc:	d9401345 	stb	r5,77(sp)
   45ed0:	00399d06 	br	44548 <___svfprintf_internal_r+0x538>
   45ed4:	d9401345 	stb	r5,77(sp)
   45ed8:	003a4a06 	br	44804 <___svfprintf_internal_r+0x7f4>
   45edc:	d9401345 	stb	r5,77(sp)
   45ee0:	003b0a06 	br	44b0c <___svfprintf_internal_r+0xafc>
   45ee4:	d9401345 	stb	r5,77(sp)
   45ee8:	003ad606 	br	44a44 <___svfprintf_internal_r+0xa34>
   45eec:	d9401345 	stb	r5,77(sp)
   45ef0:	003a5b06 	br	44860 <___svfprintf_internal_r+0x850>
   45ef4:	d9401345 	stb	r5,77(sp)
   45ef8:	003a1406 	br	4474c <___svfprintf_internal_r+0x73c>
   45efc:	900f883a 	mov	r7,r18
   45f00:	8025883a 	mov	r18,r16
   45f04:	dc000717 	ldw	r16,28(sp)
   45f08:	10800044 	addi	r2,r2,1
   45f0c:	1f07883a 	add	r3,r3,fp
   45f10:	b1c00015 	stw	r7,0(r22)
   45f14:	b7000115 	stw	fp,4(r22)
   45f18:	d8c01c15 	stw	r3,112(sp)
   45f1c:	d8801b15 	stw	r2,108(sp)
   45f20:	11000208 	cmpgei	r4,r2,8
   45f24:	203df326 	beq	r4,zero,456f4 <___svfprintf_internal_r+0x16e4>
   45f28:	d9801a04 	addi	r6,sp,104
   45f2c:	900b883a 	mov	r5,r18
   45f30:	9809883a 	mov	r4,r19
   45f34:	00490a00 	call	490a0 <__ssprint_r>
   45f38:	1039341e 	bne	r2,zero,4440c <___svfprintf_internal_r+0x3fc>
   45f3c:	d8c01c17 	ldw	r3,112(sp)
   45f40:	d8801b17 	ldw	r2,108(sp)
   45f44:	dd802704 	addi	r22,sp,156
   45f48:	003deb06 	br	456f8 <___svfprintf_internal_r+0x16e8>
   45f4c:	d9000917 	ldw	r4,36(sp)
   45f50:	000d883a 	mov	r6,zero
   45f54:	000f883a 	mov	r7,zero
   45f58:	a00b883a 	mov	r5,r20
   45f5c:	d8c01115 	stw	r3,68(sp)
   45f60:	da000815 	stw	r8,32(sp)
   45f64:	db000715 	stw	r12,28(sp)
   45f68:	004f6040 	call	4f604 <__eqdf2>
   45f6c:	db000717 	ldw	r12,28(sp)
   45f70:	da000817 	ldw	r8,32(sp)
   45f74:	d8c01117 	ldw	r3,68(sp)
   45f78:	103ecb26 	beq	r2,zero,45aa8 <___svfprintf_internal_r+0x1a98>
   45f7c:	00800044 	movi	r2,1
   45f80:	1205c83a 	sub	r2,r2,r8
   45f84:	d8801415 	stw	r2,80(sp)
   45f88:	003ec806 	br	45aac <___svfprintf_internal_r+0x1a9c>
   45f8c:	00800c04 	movi	r2,48
   45f90:	ad400c04 	addi	r21,r21,48
   45f94:	d88016c5 	stb	r2,91(sp)
   45f98:	00800104 	movi	r2,4
   45f9c:	dd401705 	stb	r21,92(sp)
   45fa0:	d8801015 	stw	r2,64(sp)
   45fa4:	003f2b06 	br	45c54 <___svfprintf_internal_r+0x1c44>
   45fa8:	d8800717 	ldw	r2,28(sp)
   45fac:	d8c00c17 	ldw	r3,48(sp)
   45fb0:	10eb883a 	add	r21,r2,r3
   45fb4:	a829883a 	mov	r20,r21
   45fb8:	a83fc20e 	bge	r21,zero,45ec4 <___svfprintf_internal_r+0x1eb4>
   45fbc:	0029883a 	mov	r20,zero
   45fc0:	003fc006 	br	45ec4 <___svfprintf_internal_r+0x1eb4>
   45fc4:	00bfffc4 	movi	r2,-1
   45fc8:	d8800515 	stw	r2,20(sp)
   45fcc:	00391206 	br	44418 <___svfprintf_internal_r+0x408>
   45fd0:	6080004c 	andi	r2,r12,1
   45fd4:	d8800715 	stw	r2,28(sp)
   45fd8:	103f231e 	bne	r2,zero,45c68 <___svfprintf_internal_r+0x1c58>
   45fdc:	a829883a 	mov	r20,r21
   45fe0:	a83e190e 	bge	r21,zero,45848 <___svfprintf_internal_r+0x1838>
   45fe4:	0029883a 	mov	r20,zero
   45fe8:	003e1706 	br	45848 <___svfprintf_internal_r+0x1838>
   45fec:	d8800a17 	ldw	r2,40(sp)
   45ff0:	10001316 	blt	r2,zero,46040 <___svfprintf_internal_r+0x2030>
   45ff4:	db401343 	ldbu	r13,77(sp)
   45ff8:	e0801210 	cmplti	r2,fp,72
   45ffc:	10000d1e 	bne	r2,zero,46034 <___svfprintf_internal_r+0x2024>
   46000:	04400174 	movhi	r17,5
   46004:	8c4d3904 	addi	r17,r17,13540
   46008:	00397d06 	br	44600 <___svfprintf_internal_r+0x5f0>
   4600c:	d8800c17 	ldw	r2,48(sp)
   46010:	18ab883a 	add	r21,r3,r2
   46014:	aa2b883a 	add	r21,r21,r8
   46018:	003ff006 	br	45fdc <___svfprintf_internal_r+0x1fcc>
   4601c:	d8800c17 	ldw	r2,48(sp)
   46020:	15400044 	addi	r21,r2,1
   46024:	aa2b883a 	add	r21,r21,r8
   46028:	003fec06 	br	45fdc <___svfprintf_internal_r+0x1fcc>
   4602c:	8025883a 	mov	r18,r16
   46030:	0038f606 	br	4440c <___svfprintf_internal_r+0x3fc>
   46034:	04400174 	movhi	r17,5
   46038:	8c4d3804 	addi	r17,r17,13536
   4603c:	00397006 	br	44600 <___svfprintf_internal_r+0x5f0>
   46040:	00800b44 	movi	r2,45
   46044:	d8801345 	stb	r2,77(sp)
   46048:	03400b44 	movi	r13,45
   4604c:	003fea06 	br	45ff8 <___svfprintf_internal_r+0x1fe8>
   46050:	b005883a 	mov	r2,r22
   46054:	39cd4704 	addi	r7,r7,13596
   46058:	003e6706 	br	459f8 <___svfprintf_internal_r+0x19e8>
   4605c:	d8800617 	ldw	r2,24(sp)
   46060:	12000017 	ldw	r8,0(r2)
   46064:	10800104 	addi	r2,r2,4
   46068:	4000010e 	bge	r8,zero,46070 <___svfprintf_internal_r+0x2060>
   4606c:	023fffc4 	movi	r8,-1
   46070:	bf000043 	ldbu	fp,1(r23)
   46074:	d8800615 	stw	r2,24(sp)
   46078:	182f883a 	mov	r23,r3
   4607c:	e2c03fcc 	andi	r11,fp,255
   46080:	5ac0201c 	xori	r11,r11,128
   46084:	5affe004 	addi	r11,r11,-128
   46088:	00381f06 	br	44108 <___svfprintf_internal_r+0xf8>
   4608c:	00800084 	movi	r2,2
   46090:	d8801015 	stw	r2,64(sp)
   46094:	003eef06 	br	45c54 <___svfprintf_internal_r+0x1c44>
   46098:	00800304 	movi	r2,12
   4609c:	98800015 	stw	r2,0(r19)
   460a0:	00bfffc4 	movi	r2,-1
   460a4:	d8800515 	stw	r2,20(sp)
   460a8:	0038db06 	br	44418 <___svfprintf_internal_r+0x408>

000460ac <quorem>:
   460ac:	defff504 	addi	sp,sp,-44
   460b0:	dc800315 	stw	r18,12(sp)
   460b4:	20800417 	ldw	r2,16(r4)
   460b8:	2c800417 	ldw	r18,16(r5)
   460bc:	dfc00a15 	stw	ra,40(sp)
   460c0:	df000915 	stw	fp,36(sp)
   460c4:	ddc00815 	stw	r23,32(sp)
   460c8:	dd800715 	stw	r22,28(sp)
   460cc:	dd400615 	stw	r21,24(sp)
   460d0:	dd000515 	stw	r20,20(sp)
   460d4:	dcc00415 	stw	r19,16(sp)
   460d8:	dc400215 	stw	r17,8(sp)
   460dc:	dc000115 	stw	r16,4(sp)
   460e0:	14806f16 	blt	r2,r18,462a0 <quorem+0x1f4>
   460e4:	94bfffc4 	addi	r18,r18,-1
   460e8:	902c90ba 	slli	r22,r18,2
   460ec:	2c000504 	addi	r16,r5,20
   460f0:	25000504 	addi	r20,r4,20
   460f4:	85a7883a 	add	r19,r16,r22
   460f8:	9f000017 	ldw	fp,0(r19)
   460fc:	a5ad883a 	add	r22,r20,r22
   46100:	202b883a 	mov	r21,r4
   46104:	b1000017 	ldw	r4,0(r22)
   46108:	e7000044 	addi	fp,fp,1
   4610c:	282f883a 	mov	r23,r5
   46110:	e00b883a 	mov	r5,fp
   46114:	d9000015 	stw	r4,0(sp)
   46118:	00428540 	call	42854 <__udivsi3>
   4611c:	d9000017 	ldw	r4,0(sp)
   46120:	1023883a 	mov	r17,r2
   46124:	27002a36 	bltu	r4,fp,461d0 <quorem+0x124>
   46128:	800b883a 	mov	r5,r16
   4612c:	a009883a 	mov	r4,r20
   46130:	0013883a 	mov	r9,zero
   46134:	0007883a 	mov	r3,zero
   46138:	2a000017 	ldw	r8,0(r5)
   4613c:	21800017 	ldw	r6,0(r4)
   46140:	21000104 	addi	r4,r4,4
   46144:	40bfffcc 	andi	r2,r8,65535
   46148:	1445383a 	mul	r2,r2,r17
   4614c:	400ed43a 	srli	r7,r8,16
   46150:	32bfffcc 	andi	r10,r6,65535
   46154:	1245883a 	add	r2,r2,r9
   46158:	1012d43a 	srli	r9,r2,16
   4615c:	123fffcc 	andi	r8,r2,65535
   46160:	3c4f383a 	mul	r7,r7,r17
   46164:	1a07c83a 	sub	r3,r3,r8
   46168:	1a91883a 	add	r8,r3,r10
   4616c:	3006d43a 	srli	r3,r6,16
   46170:	4005d43a 	srai	r2,r8,16
   46174:	3a4f883a 	add	r7,r7,r9
   46178:	39bfffcc 	andi	r6,r7,65535
   4617c:	1987c83a 	sub	r3,r3,r6
   46180:	1887883a 	add	r3,r3,r2
   46184:	1804943a 	slli	r2,r3,16
   46188:	423fffcc 	andi	r8,r8,65535
   4618c:	29400104 	addi	r5,r5,4
   46190:	1210b03a 	or	r8,r2,r8
   46194:	223fff15 	stw	r8,-4(r4)
   46198:	3812d43a 	srli	r9,r7,16
   4619c:	1807d43a 	srai	r3,r3,16
   461a0:	997fe52e 	bgeu	r19,r5,46138 <quorem+0x8c>
   461a4:	b0800017 	ldw	r2,0(r22)
   461a8:	1000091e 	bne	r2,zero,461d0 <quorem+0x124>
   461ac:	b5bfff04 	addi	r22,r22,-4
   461b0:	a5800336 	bltu	r20,r22,461c0 <quorem+0x114>
   461b4:	00000506 	br	461cc <quorem+0x120>
   461b8:	94bfffc4 	addi	r18,r18,-1
   461bc:	a580032e 	bgeu	r20,r22,461cc <quorem+0x120>
   461c0:	b0800017 	ldw	r2,0(r22)
   461c4:	b5bfff04 	addi	r22,r22,-4
   461c8:	103ffb26 	beq	r2,zero,461b8 <quorem+0x10c>
   461cc:	ac800415 	stw	r18,16(r21)
   461d0:	b80b883a 	mov	r5,r23
   461d4:	a809883a 	mov	r4,r21
   461d8:	00489740 	call	48974 <__mcmp>
   461dc:	10002316 	blt	r2,zero,4626c <quorem+0x1c0>
   461e0:	8c400044 	addi	r17,r17,1
   461e4:	a00d883a 	mov	r6,r20
   461e8:	0007883a 	mov	r3,zero
   461ec:	81000017 	ldw	r4,0(r16)
   461f0:	31400017 	ldw	r5,0(r6)
   461f4:	31800104 	addi	r6,r6,4
   461f8:	20bfffcc 	andi	r2,r4,65535
   461fc:	1887c83a 	sub	r3,r3,r2
   46200:	28bfffcc 	andi	r2,r5,65535
   46204:	1885883a 	add	r2,r3,r2
   46208:	2008d43a 	srli	r4,r4,16
   4620c:	2806d43a 	srli	r3,r5,16
   46210:	100fd43a 	srai	r7,r2,16
   46214:	117fffcc 	andi	r5,r2,65535
   46218:	1907c83a 	sub	r3,r3,r4
   4621c:	19c7883a 	add	r3,r3,r7
   46220:	1804943a 	slli	r2,r3,16
   46224:	84000104 	addi	r16,r16,4
   46228:	1807d43a 	srai	r3,r3,16
   4622c:	1144b03a 	or	r2,r2,r5
   46230:	30bfff15 	stw	r2,-4(r6)
   46234:	9c3fed2e 	bgeu	r19,r16,461ec <quorem+0x140>
   46238:	900490ba 	slli	r2,r18,2
   4623c:	a085883a 	add	r2,r20,r2
   46240:	10c00017 	ldw	r3,0(r2)
   46244:	1800091e 	bne	r3,zero,4626c <quorem+0x1c0>
   46248:	10bfff04 	addi	r2,r2,-4
   4624c:	a0800336 	bltu	r20,r2,4625c <quorem+0x1b0>
   46250:	00000506 	br	46268 <quorem+0x1bc>
   46254:	94bfffc4 	addi	r18,r18,-1
   46258:	a080032e 	bgeu	r20,r2,46268 <quorem+0x1bc>
   4625c:	10c00017 	ldw	r3,0(r2)
   46260:	10bfff04 	addi	r2,r2,-4
   46264:	183ffb26 	beq	r3,zero,46254 <quorem+0x1a8>
   46268:	ac800415 	stw	r18,16(r21)
   4626c:	8805883a 	mov	r2,r17
   46270:	dfc00a17 	ldw	ra,40(sp)
   46274:	df000917 	ldw	fp,36(sp)
   46278:	ddc00817 	ldw	r23,32(sp)
   4627c:	dd800717 	ldw	r22,28(sp)
   46280:	dd400617 	ldw	r21,24(sp)
   46284:	dd000517 	ldw	r20,20(sp)
   46288:	dcc00417 	ldw	r19,16(sp)
   4628c:	dc800317 	ldw	r18,12(sp)
   46290:	dc400217 	ldw	r17,8(sp)
   46294:	dc000117 	ldw	r16,4(sp)
   46298:	dec00b04 	addi	sp,sp,44
   4629c:	f800283a 	ret
   462a0:	0005883a 	mov	r2,zero
   462a4:	003ff206 	br	46270 <quorem+0x1c4>

000462a8 <_dtoa_r>:
   462a8:	20801017 	ldw	r2,64(r4)
   462ac:	deffe204 	addi	sp,sp,-120
   462b0:	ddc01b15 	stw	r23,108(sp)
   462b4:	dd001815 	stw	r20,96(sp)
   462b8:	dc801615 	stw	r18,88(sp)
   462bc:	dc401515 	stw	r17,84(sp)
   462c0:	dc001415 	stw	r16,80(sp)
   462c4:	dfc01d15 	stw	ra,116(sp)
   462c8:	df001c15 	stw	fp,112(sp)
   462cc:	dd801a15 	stw	r22,104(sp)
   462d0:	dd401915 	stw	r21,100(sp)
   462d4:	dcc01715 	stw	r19,92(sp)
   462d8:	d9c00115 	stw	r7,4(sp)
   462dc:	dc002017 	ldw	r16,128(sp)
   462e0:	202f883a 	mov	r23,r4
   462e4:	3025883a 	mov	r18,r6
   462e8:	2829883a 	mov	r20,r5
   462ec:	3023883a 	mov	r17,r6
   462f0:	10000826 	beq	r2,zero,46314 <_dtoa_r+0x6c>
   462f4:	21801117 	ldw	r6,68(r4)
   462f8:	00c00044 	movi	r3,1
   462fc:	100b883a 	mov	r5,r2
   46300:	1986983a 	sll	r3,r3,r6
   46304:	11800115 	stw	r6,4(r2)
   46308:	10c00215 	stw	r3,8(r2)
   4630c:	00480a80 	call	480a8 <_Bfree>
   46310:	b8001015 	stw	zero,64(r23)
   46314:	90018616 	blt	r18,zero,46930 <_dtoa_r+0x688>
   46318:	80000015 	stw	zero,0(r16)
   4631c:	909ffc2c 	andhi	r2,r18,32752
   46320:	00dffc34 	movhi	r3,32752
   46324:	10c18b26 	beq	r2,r3,46954 <_dtoa_r+0x6ac>
   46328:	000d883a 	mov	r6,zero
   4632c:	000f883a 	mov	r7,zero
   46330:	a009883a 	mov	r4,r20
   46334:	880b883a 	mov	r5,r17
   46338:	004f6040 	call	4f604 <__eqdf2>
   4633c:	1000181e 	bne	r2,zero,463a0 <_dtoa_r+0xf8>
   46340:	d8c01f17 	ldw	r3,124(sp)
   46344:	00800044 	movi	r2,1
   46348:	18800015 	stw	r2,0(r3)
   4634c:	d8802117 	ldw	r2,132(sp)
   46350:	10030b26 	beq	r2,zero,46f80 <_dtoa_r+0xcd8>
   46354:	d8c02117 	ldw	r3,132(sp)
   46358:	00800174 	movhi	r2,5
   4635c:	108d4644 	addi	r2,r2,13593
   46360:	07000174 	movhi	fp,5
   46364:	18800015 	stw	r2,0(r3)
   46368:	e70d4604 	addi	fp,fp,13592
   4636c:	e005883a 	mov	r2,fp
   46370:	dfc01d17 	ldw	ra,116(sp)
   46374:	df001c17 	ldw	fp,112(sp)
   46378:	ddc01b17 	ldw	r23,108(sp)
   4637c:	dd801a17 	ldw	r22,104(sp)
   46380:	dd401917 	ldw	r21,100(sp)
   46384:	dd001817 	ldw	r20,96(sp)
   46388:	dcc01717 	ldw	r19,92(sp)
   4638c:	dc801617 	ldw	r18,88(sp)
   46390:	dc401517 	ldw	r17,84(sp)
   46394:	dc001417 	ldw	r16,80(sp)
   46398:	dec01e04 	addi	sp,sp,120
   4639c:	f800283a 	ret
   463a0:	d8801204 	addi	r2,sp,72
   463a4:	9020d53a 	srli	r16,r18,20
   463a8:	d8800015 	stw	r2,0(sp)
   463ac:	d9c01304 	addi	r7,sp,76
   463b0:	a00b883a 	mov	r5,r20
   463b4:	880d883a 	mov	r6,r17
   463b8:	b809883a 	mov	r4,r23
   463bc:	0048d580 	call	48d58 <__d2b>
   463c0:	102d883a 	mov	r22,r2
   463c4:	8001741e 	bne	r16,zero,46998 <_dtoa_r+0x6f0>
   463c8:	df001217 	ldw	fp,72(sp)
   463cc:	dc001317 	ldw	r16,76(sp)
   463d0:	e421883a 	add	r16,fp,r16
   463d4:	80810c84 	addi	r2,r16,1074
   463d8:	10c00850 	cmplti	r3,r2,33
   463dc:	1802f81e 	bne	r3,zero,46fc0 <_dtoa_r+0xd18>
   463e0:	01001004 	movi	r4,64
   463e4:	2085c83a 	sub	r2,r4,r2
   463e8:	81010484 	addi	r4,r16,1042
   463ec:	90a4983a 	sll	r18,r18,r2
   463f0:	a108d83a 	srl	r4,r20,r4
   463f4:	9108b03a 	or	r4,r18,r4
   463f8:	00509980 	call	50998 <__floatunsidf>
   463fc:	1009883a 	mov	r4,r2
   46400:	017f8434 	movhi	r5,65040
   46404:	00800044 	movi	r2,1
   46408:	194b883a 	add	r5,r3,r5
   4640c:	843fffc4 	addi	r16,r16,-1
   46410:	d8800915 	stw	r2,36(sp)
   46414:	000d883a 	mov	r6,zero
   46418:	01cffe34 	movhi	r7,16376
   4641c:	004fed40 	call	4fed4 <__subdf3>
   46420:	0198dbf4 	movhi	r6,25455
   46424:	01cff4f4 	movhi	r7,16339
   46428:	3190d844 	addi	r6,r6,17249
   4642c:	39e1e9c4 	addi	r7,r7,-30809
   46430:	1009883a 	mov	r4,r2
   46434:	180b883a 	mov	r5,r3
   46438:	004f8640 	call	4f864 <__muldf3>
   4643c:	01a2d874 	movhi	r6,35681
   46440:	01cff1f4 	movhi	r7,16327
   46444:	31b22cc4 	addi	r6,r6,-14157
   46448:	39e28a04 	addi	r7,r7,-30168
   4644c:	180b883a 	mov	r5,r3
   46450:	1009883a 	mov	r4,r2
   46454:	004e42c0 	call	4e42c <__adddf3>
   46458:	8009883a 	mov	r4,r16
   4645c:	1027883a 	mov	r19,r2
   46460:	1825883a 	mov	r18,r3
   46464:	00508dc0 	call	508dc <__floatsidf>
   46468:	019427f4 	movhi	r6,20639
   4646c:	01cff4f4 	movhi	r7,16339
   46470:	319e7ec4 	addi	r6,r6,31227
   46474:	39d104c4 	addi	r7,r7,17427
   46478:	1009883a 	mov	r4,r2
   4647c:	180b883a 	mov	r5,r3
   46480:	004f8640 	call	4f864 <__muldf3>
   46484:	100d883a 	mov	r6,r2
   46488:	180f883a 	mov	r7,r3
   4648c:	9809883a 	mov	r4,r19
   46490:	900b883a 	mov	r5,r18
   46494:	004e42c0 	call	4e42c <__adddf3>
   46498:	1009883a 	mov	r4,r2
   4649c:	180b883a 	mov	r5,r3
   464a0:	1025883a 	mov	r18,r2
   464a4:	182b883a 	mov	r21,r3
   464a8:	005085c0 	call	5085c <__fixdfsi>
   464ac:	000d883a 	mov	r6,zero
   464b0:	000f883a 	mov	r7,zero
   464b4:	9009883a 	mov	r4,r18
   464b8:	a80b883a 	mov	r5,r21
   464bc:	1027883a 	mov	r19,r2
   464c0:	004f7740 	call	4f774 <__ledf2>
   464c4:	1002a416 	blt	r2,zero,46f58 <_dtoa_r+0xcb0>
   464c8:	e439c83a 	sub	fp,fp,r16
   464cc:	e0ffffc4 	addi	r3,fp,-1
   464d0:	988005e8 	cmpgeui	r2,r19,23
   464d4:	d8c00215 	stw	r3,8(sp)
   464d8:	1002961e 	bne	r2,zero,46f34 <_dtoa_r+0xc8c>
   464dc:	980690fa 	slli	r3,r19,3
   464e0:	00800174 	movhi	r2,5
   464e4:	108d8d04 	addi	r2,r2,13876
   464e8:	10c5883a 	add	r2,r2,r3
   464ec:	11800017 	ldw	r6,0(r2)
   464f0:	11c00117 	ldw	r7,4(r2)
   464f4:	a009883a 	mov	r4,r20
   464f8:	880b883a 	mov	r5,r17
   464fc:	004f7740 	call	4f774 <__ledf2>
   46500:	1002670e 	bge	r2,zero,46ea0 <_dtoa_r+0xbf8>
   46504:	d8000815 	stw	zero,32(sp)
   46508:	e0bfffc4 	addi	r2,fp,-1
   4650c:	9cffffc4 	addi	r19,r19,-1
   46510:	10028c16 	blt	r2,zero,46f44 <_dtoa_r+0xc9c>
   46514:	d8000515 	stw	zero,20(sp)
   46518:	9802650e 	bge	r19,zero,46eb0 <_dtoa_r+0xc08>
   4651c:	d8800517 	ldw	r2,20(sp)
   46520:	d8c00117 	ldw	r3,4(sp)
   46524:	dcc00315 	stw	r19,12(sp)
   46528:	14c5c83a 	sub	r2,r2,r19
   4652c:	d8800515 	stw	r2,20(sp)
   46530:	04c5c83a 	sub	r2,zero,r19
   46534:	d8800715 	stw	r2,28(sp)
   46538:	188002a8 	cmpgeui	r2,r3,10
   4653c:	0027883a 	mov	r19,zero
   46540:	1002631e 	bne	r2,zero,46ed0 <_dtoa_r+0xc28>
   46544:	18800190 	cmplti	r2,r3,6
   46548:	1002a11e 	bne	r2,zero,46fd0 <_dtoa_r+0xd28>
   4654c:	18bfff04 	addi	r2,r3,-4
   46550:	d8800115 	stw	r2,4(sp)
   46554:	0021883a 	mov	r16,zero
   46558:	d8c00117 	ldw	r3,4(sp)
   4655c:	18800120 	cmpeqi	r2,r3,4
   46560:	1003721e 	bne	r2,zero,4732c <_dtoa_r+0x1084>
   46564:	18800160 	cmpeqi	r2,r3,5
   46568:	10032f1e 	bne	r2,zero,47228 <_dtoa_r+0xf80>
   4656c:	188000a0 	cmpeqi	r2,r3,2
   46570:	10026326 	beq	r2,zero,46f00 <_dtoa_r+0xc58>
   46574:	d8000615 	stw	zero,24(sp)
   46578:	d8801e17 	ldw	r2,120(sp)
   4657c:	00833c0e 	bge	zero,r2,47270 <_dtoa_r+0xfc8>
   46580:	d8800b15 	stw	r2,44(sp)
   46584:	d8800415 	stw	r2,16(sp)
   46588:	100d883a 	mov	r6,r2
   4658c:	b8001115 	stw	zero,68(r23)
   46590:	30800610 	cmplti	r2,r6,24
   46594:	1005161e 	bne	r2,zero,479f0 <_dtoa_r+0x1748>
   46598:	00c00044 	movi	r3,1
   4659c:	00800104 	movi	r2,4
   465a0:	1085883a 	add	r2,r2,r2
   465a4:	11000504 	addi	r4,r2,20
   465a8:	180b883a 	mov	r5,r3
   465ac:	18c00044 	addi	r3,r3,1
   465b0:	313ffb2e 	bgeu	r6,r4,465a0 <_dtoa_r+0x2f8>
   465b4:	b9401115 	stw	r5,68(r23)
   465b8:	b809883a 	mov	r4,r23
   465bc:	00480040 	call	48004 <_Balloc>
   465c0:	1039883a 	mov	fp,r2
   465c4:	1004f526 	beq	r2,zero,4799c <_dtoa_r+0x16f4>
   465c8:	b8801015 	stw	r2,64(r23)
   465cc:	d8800417 	ldw	r2,16(sp)
   465d0:	108003e8 	cmpgeui	r2,r2,15
   465d4:	10010b1e 	bne	r2,zero,46a04 <_dtoa_r+0x75c>
   465d8:	80010a26 	beq	r16,zero,46a04 <_dtoa_r+0x75c>
   465dc:	d9000317 	ldw	r4,12(sp)
   465e0:	0103a30e 	bge	zero,r4,47470 <_dtoa_r+0x11c8>
   465e4:	208003cc 	andi	r2,r4,15
   465e8:	100690fa 	slli	r3,r2,3
   465ec:	202bd13a 	srai	r21,r4,4
   465f0:	00800174 	movhi	r2,5
   465f4:	108d8d04 	addi	r2,r2,13876
   465f8:	10c5883a 	add	r2,r2,r3
   465fc:	a8c0040c 	andi	r3,r21,16
   46600:	12800017 	ldw	r10,0(r2)
   46604:	12400117 	ldw	r9,4(r2)
   46608:	18034226 	beq	r3,zero,47314 <_dtoa_r+0x106c>
   4660c:	00800174 	movhi	r2,5
   46610:	108d8304 	addi	r2,r2,13836
   46614:	11800817 	ldw	r6,32(r2)
   46618:	11c00917 	ldw	r7,36(r2)
   4661c:	a009883a 	mov	r4,r20
   46620:	880b883a 	mov	r5,r17
   46624:	da400e15 	stw	r9,56(sp)
   46628:	da800d15 	stw	r10,52(sp)
   4662c:	004eda40 	call	4eda4 <__divdf3>
   46630:	da800d17 	ldw	r10,52(sp)
   46634:	da400e17 	ldw	r9,56(sp)
   46638:	ad4003cc 	andi	r21,r21,15
   4663c:	d8800a15 	stw	r2,40(sp)
   46640:	d8c00c15 	stw	r3,48(sp)
   46644:	040000c4 	movi	r16,3
   46648:	a8001126 	beq	r21,zero,46690 <_dtoa_r+0x3e8>
   4664c:	04800174 	movhi	r18,5
   46650:	948d8304 	addi	r18,r18,13836
   46654:	5009883a 	mov	r4,r10
   46658:	480b883a 	mov	r5,r9
   4665c:	a980004c 	andi	r6,r21,1
   46660:	30000626 	beq	r6,zero,4667c <_dtoa_r+0x3d4>
   46664:	91800017 	ldw	r6,0(r18)
   46668:	91c00117 	ldw	r7,4(r18)
   4666c:	84000044 	addi	r16,r16,1
   46670:	004f8640 	call	4f864 <__muldf3>
   46674:	1009883a 	mov	r4,r2
   46678:	180b883a 	mov	r5,r3
   4667c:	a82bd07a 	srai	r21,r21,1
   46680:	94800204 	addi	r18,r18,8
   46684:	a83ff51e 	bne	r21,zero,4665c <_dtoa_r+0x3b4>
   46688:	2015883a 	mov	r10,r4
   4668c:	2813883a 	mov	r9,r5
   46690:	d9000a17 	ldw	r4,40(sp)
   46694:	d9400c17 	ldw	r5,48(sp)
   46698:	500d883a 	mov	r6,r10
   4669c:	480f883a 	mov	r7,r9
   466a0:	004eda40 	call	4eda4 <__divdf3>
   466a4:	1025883a 	mov	r18,r2
   466a8:	d8c00a15 	stw	r3,40(sp)
   466ac:	d8800817 	ldw	r2,32(sp)
   466b0:	10000726 	beq	r2,zero,466d0 <_dtoa_r+0x428>
   466b4:	dd400a17 	ldw	r21,40(sp)
   466b8:	000d883a 	mov	r6,zero
   466bc:	01cffc34 	movhi	r7,16368
   466c0:	9009883a 	mov	r4,r18
   466c4:	a80b883a 	mov	r5,r21
   466c8:	004f7740 	call	4f774 <__ledf2>
   466cc:	10045516 	blt	r2,zero,47824 <_dtoa_r+0x157c>
   466d0:	8009883a 	mov	r4,r16
   466d4:	00508dc0 	call	508dc <__floatsidf>
   466d8:	d9c00a17 	ldw	r7,40(sp)
   466dc:	900d883a 	mov	r6,r18
   466e0:	1009883a 	mov	r4,r2
   466e4:	180b883a 	mov	r5,r3
   466e8:	004f8640 	call	4f864 <__muldf3>
   466ec:	000d883a 	mov	r6,zero
   466f0:	01d00734 	movhi	r7,16412
   466f4:	1009883a 	mov	r4,r2
   466f8:	180b883a 	mov	r5,r3
   466fc:	004e42c0 	call	4e42c <__adddf3>
   46700:	d8800c15 	stw	r2,48(sp)
   46704:	00bf3034 	movhi	r2,64704
   46708:	1885883a 	add	r2,r3,r2
   4670c:	d8800d15 	stw	r2,52(sp)
   46710:	d8800417 	ldw	r2,16(sp)
   46714:	10033926 	beq	r2,zero,473fc <_dtoa_r+0x1154>
   46718:	d8800317 	ldw	r2,12(sp)
   4671c:	d8801115 	stw	r2,68(sp)
   46720:	d8800417 	ldw	r2,16(sp)
   46724:	d8800e15 	stw	r2,56(sp)
   46728:	dc000a17 	ldw	r16,40(sp)
   4672c:	9009883a 	mov	r4,r18
   46730:	800b883a 	mov	r5,r16
   46734:	005085c0 	call	5085c <__fixdfsi>
   46738:	d8c00e17 	ldw	r3,56(sp)
   4673c:	d8801015 	stw	r2,64(sp)
   46740:	18ffffc4 	addi	r3,r3,-1
   46744:	180890fa 	slli	r4,r3,3
   46748:	00c00174 	movhi	r3,5
   4674c:	18cd8d04 	addi	r3,r3,13876
   46750:	1907883a 	add	r3,r3,r4
   46754:	1b000017 	ldw	r12,0(r3)
   46758:	1b400117 	ldw	r13,4(r3)
   4675c:	1009883a 	mov	r4,r2
   46760:	db000f15 	stw	r12,60(sp)
   46764:	db400a15 	stw	r13,40(sp)
   46768:	00508dc0 	call	508dc <__floatsidf>
   4676c:	9009883a 	mov	r4,r18
   46770:	800b883a 	mov	r5,r16
   46774:	100d883a 	mov	r6,r2
   46778:	180f883a 	mov	r7,r3
   4677c:	004fed40 	call	4fed4 <__subdf3>
   46780:	dac01017 	ldw	r11,64(sp)
   46784:	102b883a 	mov	r21,r2
   46788:	d8800617 	ldw	r2,24(sp)
   4678c:	db400a17 	ldw	r13,40(sp)
   46790:	db000f17 	ldw	r12,60(sp)
   46794:	e4000044 	addi	r16,fp,1
   46798:	1825883a 	mov	r18,r3
   4679c:	5ac00c04 	addi	r11,r11,48
   467a0:	1003c626 	beq	r2,zero,476bc <_dtoa_r+0x1414>
   467a4:	600d883a 	mov	r6,r12
   467a8:	680f883a 	mov	r7,r13
   467ac:	0009883a 	mov	r4,zero
   467b0:	014ff834 	movhi	r5,16352
   467b4:	dac00f15 	stw	r11,60(sp)
   467b8:	004eda40 	call	4eda4 <__divdf3>
   467bc:	d9800c17 	ldw	r6,48(sp)
   467c0:	d9c00d17 	ldw	r7,52(sp)
   467c4:	1009883a 	mov	r4,r2
   467c8:	180b883a 	mov	r5,r3
   467cc:	004fed40 	call	4fed4 <__subdf3>
   467d0:	dac00f17 	ldw	r11,60(sp)
   467d4:	a80d883a 	mov	r6,r21
   467d8:	900f883a 	mov	r7,r18
   467dc:	e2c00005 	stb	r11,0(fp)
   467e0:	1009883a 	mov	r4,r2
   467e4:	180b883a 	mov	r5,r3
   467e8:	d8800a15 	stw	r2,40(sp)
   467ec:	d8c00c15 	stw	r3,48(sp)
   467f0:	004f6840 	call	4f684 <__gedf2>
   467f4:	00844116 	blt	zero,r2,478fc <_dtoa_r+0x1654>
   467f8:	0005883a 	mov	r2,zero
   467fc:	dcc00f15 	stw	r19,60(sp)
   46800:	dd800d15 	stw	r22,52(sp)
   46804:	dcc00c17 	ldw	r19,48(sp)
   46808:	dd800e17 	ldw	r22,56(sp)
   4680c:	dc400c15 	stw	r17,48(sp)
   46810:	ddc00e15 	stw	r23,56(sp)
   46814:	dc400a17 	ldw	r17,40(sp)
   46818:	dd000a15 	stw	r20,40(sp)
   4681c:	1029883a 	mov	r20,r2
   46820:	00002606 	br	468bc <_dtoa_r+0x614>
   46824:	a5000044 	addi	r20,r20,1
   46828:	a5843d0e 	bge	r20,r22,47920 <_dtoa_r+0x1678>
   4682c:	8809883a 	mov	r4,r17
   46830:	980b883a 	mov	r5,r19
   46834:	000d883a 	mov	r6,zero
   46838:	01d00934 	movhi	r7,16420
   4683c:	004f8640 	call	4f864 <__muldf3>
   46840:	000d883a 	mov	r6,zero
   46844:	01d00934 	movhi	r7,16420
   46848:	a809883a 	mov	r4,r21
   4684c:	900b883a 	mov	r5,r18
   46850:	1023883a 	mov	r17,r2
   46854:	1827883a 	mov	r19,r3
   46858:	004f8640 	call	4f864 <__muldf3>
   4685c:	180b883a 	mov	r5,r3
   46860:	1009883a 	mov	r4,r2
   46864:	1825883a 	mov	r18,r3
   46868:	102b883a 	mov	r21,r2
   4686c:	005085c0 	call	5085c <__fixdfsi>
   46870:	1009883a 	mov	r4,r2
   46874:	102f883a 	mov	r23,r2
   46878:	00508dc0 	call	508dc <__floatsidf>
   4687c:	a809883a 	mov	r4,r21
   46880:	900b883a 	mov	r5,r18
   46884:	100d883a 	mov	r6,r2
   46888:	180f883a 	mov	r7,r3
   4688c:	004fed40 	call	4fed4 <__subdf3>
   46890:	84000044 	addi	r16,r16,1
   46894:	ba000c04 	addi	r8,r23,48
   46898:	823fffc5 	stb	r8,-1(r16)
   4689c:	880d883a 	mov	r6,r17
   468a0:	980f883a 	mov	r7,r19
   468a4:	1009883a 	mov	r4,r2
   468a8:	180b883a 	mov	r5,r3
   468ac:	102b883a 	mov	r21,r2
   468b0:	1825883a 	mov	r18,r3
   468b4:	004f7740 	call	4f774 <__ledf2>
   468b8:	10040e16 	blt	r2,zero,478f4 <_dtoa_r+0x164c>
   468bc:	a80d883a 	mov	r6,r21
   468c0:	900f883a 	mov	r7,r18
   468c4:	0009883a 	mov	r4,zero
   468c8:	014ffc34 	movhi	r5,16368
   468cc:	004fed40 	call	4fed4 <__subdf3>
   468d0:	880d883a 	mov	r6,r17
   468d4:	980f883a 	mov	r7,r19
   468d8:	1009883a 	mov	r4,r2
   468dc:	180b883a 	mov	r5,r3
   468e0:	004f7740 	call	4f774 <__ledf2>
   468e4:	103fcf0e 	bge	r2,zero,46824 <_dtoa_r+0x57c>
   468e8:	dd800d17 	ldw	r22,52(sp)
   468ec:	ddc00e17 	ldw	r23,56(sp)
   468f0:	d8801117 	ldw	r2,68(sp)
   468f4:	10800044 	addi	r2,r2,1
   468f8:	d8800315 	stw	r2,12(sp)
   468fc:	00000106 	br	46904 <_dtoa_r+0x65c>
   46900:	e403ee26 	beq	fp,r16,478bc <_dtoa_r+0x1614>
   46904:	80ffffc3 	ldbu	r3,-1(r16)
   46908:	8025883a 	mov	r18,r16
   4690c:	843fffc4 	addi	r16,r16,-1
   46910:	18803fcc 	andi	r2,r3,255
   46914:	1080201c 	xori	r2,r2,128
   46918:	10bfe004 	addi	r2,r2,-128
   4691c:	10800e60 	cmpeqi	r2,r2,57
   46920:	103ff71e 	bne	r2,zero,46900 <_dtoa_r+0x658>
   46924:	18c00044 	addi	r3,r3,1
   46928:	80c00005 	stb	r3,0(r16)
   4692c:	00015106 	br	46e74 <_dtoa_r+0xbcc>
   46930:	04600034 	movhi	r17,32768
   46934:	8c7fffc4 	addi	r17,r17,-1
   46938:	9462703a 	and	r17,r18,r17
   4693c:	00800044 	movi	r2,1
   46940:	8825883a 	mov	r18,r17
   46944:	80800015 	stw	r2,0(r16)
   46948:	00dffc34 	movhi	r3,32752
   4694c:	909ffc2c 	andhi	r2,r18,32752
   46950:	10fe751e 	bne	r2,r3,46328 <_dtoa_r+0x80>
   46954:	d8c01f17 	ldw	r3,124(sp)
   46958:	00800434 	movhi	r2,16
   4695c:	10bfffc4 	addi	r2,r2,-1
   46960:	90a4703a 	and	r18,r18,r2
   46964:	0089c3c4 	movi	r2,9999
   46968:	18800015 	stw	r2,0(r3)
   4696c:	9528b03a 	or	r20,r18,r20
   46970:	a000121e 	bne	r20,zero,469bc <_dtoa_r+0x714>
   46974:	d8802117 	ldw	r2,132(sp)
   46978:	07000174 	movhi	fp,5
   4697c:	10041526 	beq	r2,zero,479d4 <_dtoa_r+0x172c>
   46980:	00800174 	movhi	r2,5
   46984:	e70d5004 	addi	fp,fp,13632
   46988:	108d5204 	addi	r2,r2,13640
   4698c:	d8c02117 	ldw	r3,132(sp)
   46990:	18800015 	stw	r2,0(r3)
   46994:	003e7506 	br	4636c <_dtoa_r+0xc4>
   46998:	01400434 	movhi	r5,16
   4699c:	297fffc4 	addi	r5,r5,-1
   469a0:	894a703a 	and	r5,r17,r5
   469a4:	df001217 	ldw	fp,72(sp)
   469a8:	a009883a 	mov	r4,r20
   469ac:	294ffc34 	orhi	r5,r5,16368
   469b0:	843f0044 	addi	r16,r16,-1023
   469b4:	d8000915 	stw	zero,36(sp)
   469b8:	003e9606 	br	46414 <_dtoa_r+0x16c>
   469bc:	d8802117 	ldw	r2,132(sp)
   469c0:	07000174 	movhi	fp,5
   469c4:	1002141e 	bne	r2,zero,47218 <_dtoa_r+0xf70>
   469c8:	e70d4f04 	addi	fp,fp,13628
   469cc:	003e6706 	br	4636c <_dtoa_r+0xc4>
   469d0:	b8001115 	stw	zero,68(r23)
   469d4:	000b883a 	mov	r5,zero
   469d8:	b809883a 	mov	r4,r23
   469dc:	00480040 	call	48004 <_Balloc>
   469e0:	1039883a 	mov	fp,r2
   469e4:	1003ed26 	beq	r2,zero,4799c <_dtoa_r+0x16f4>
   469e8:	b8801015 	stw	r2,64(r23)
   469ec:	00bfffc4 	movi	r2,-1
   469f0:	d8800415 	stw	r2,16(sp)
   469f4:	d8800b15 	stw	r2,44(sp)
   469f8:	00800044 	movi	r2,1
   469fc:	d8001e15 	stw	zero,120(sp)
   46a00:	d8800615 	stw	r2,24(sp)
   46a04:	d8801317 	ldw	r2,76(sp)
   46a08:	10007216 	blt	r2,zero,46bd4 <_dtoa_r+0x92c>
   46a0c:	d9000317 	ldw	r4,12(sp)
   46a10:	20c003c8 	cmpgei	r3,r4,15
   46a14:	18006f1e 	bne	r3,zero,46bd4 <_dtoa_r+0x92c>
   46a18:	200690fa 	slli	r3,r4,3
   46a1c:	00800174 	movhi	r2,5
   46a20:	108d8d04 	addi	r2,r2,13876
   46a24:	10c5883a 	add	r2,r2,r3
   46a28:	10c00017 	ldw	r3,0(r2)
   46a2c:	14800117 	ldw	r18,4(r2)
   46a30:	d8801e17 	ldw	r2,120(sp)
   46a34:	d8c00115 	stw	r3,4(sp)
   46a38:	1000150e 	bge	r2,zero,46a90 <_dtoa_r+0x7e8>
   46a3c:	d8800417 	ldw	r2,16(sp)
   46a40:	00801316 	blt	zero,r2,46a90 <_dtoa_r+0x7e8>
   46a44:	d8800417 	ldw	r2,16(sp)
   46a48:	1002801e 	bne	r2,zero,4744c <_dtoa_r+0x11a4>
   46a4c:	d9000117 	ldw	r4,4(sp)
   46a50:	000d883a 	mov	r6,zero
   46a54:	01d00534 	movhi	r7,16404
   46a58:	900b883a 	mov	r5,r18
   46a5c:	004f8640 	call	4f864 <__muldf3>
   46a60:	100d883a 	mov	r6,r2
   46a64:	180f883a 	mov	r7,r3
   46a68:	a009883a 	mov	r4,r20
   46a6c:	880b883a 	mov	r5,r17
   46a70:	004f7740 	call	4f774 <__ledf2>
   46a74:	002b883a 	mov	r21,zero
   46a78:	0021883a 	mov	r16,zero
   46a7c:	00820f16 	blt	zero,r2,472bc <_dtoa_r+0x1014>
   46a80:	d8801e17 	ldw	r2,120(sp)
   46a84:	e025883a 	mov	r18,fp
   46a88:	00a2303a 	nor	r17,zero,r2
   46a8c:	00021006 	br	472d0 <_dtoa_r+0x1028>
   46a90:	dd400117 	ldw	r21,4(sp)
   46a94:	900f883a 	mov	r7,r18
   46a98:	a009883a 	mov	r4,r20
   46a9c:	a80d883a 	mov	r6,r21
   46aa0:	880b883a 	mov	r5,r17
   46aa4:	004eda40 	call	4eda4 <__divdf3>
   46aa8:	180b883a 	mov	r5,r3
   46aac:	1009883a 	mov	r4,r2
   46ab0:	005085c0 	call	5085c <__fixdfsi>
   46ab4:	1009883a 	mov	r4,r2
   46ab8:	1027883a 	mov	r19,r2
   46abc:	00508dc0 	call	508dc <__floatsidf>
   46ac0:	a80d883a 	mov	r6,r21
   46ac4:	900f883a 	mov	r7,r18
   46ac8:	1009883a 	mov	r4,r2
   46acc:	180b883a 	mov	r5,r3
   46ad0:	004f8640 	call	4f864 <__muldf3>
   46ad4:	100d883a 	mov	r6,r2
   46ad8:	a009883a 	mov	r4,r20
   46adc:	880b883a 	mov	r5,r17
   46ae0:	180f883a 	mov	r7,r3
   46ae4:	004fed40 	call	4fed4 <__subdf3>
   46ae8:	d9800417 	ldw	r6,16(sp)
   46aec:	1009883a 	mov	r4,r2
   46af0:	98800c04 	addi	r2,r19,48
   46af4:	e0800005 	stb	r2,0(fp)
   46af8:	30800060 	cmpeqi	r2,r6,1
   46afc:	180b883a 	mov	r5,r3
   46b00:	e4000044 	addi	r16,fp,1
   46b04:	1002a91e 	bne	r2,zero,475ac <_dtoa_r+0x1304>
   46b08:	04400044 	movi	r17,1
   46b0c:	3027883a 	mov	r19,r6
   46b10:	dd800215 	stw	r22,8(sp)
   46b14:	ddc00415 	stw	r23,16(sp)
   46b18:	00001c06 	br	46b8c <_dtoa_r+0x8e4>
   46b1c:	a80d883a 	mov	r6,r21
   46b20:	900f883a 	mov	r7,r18
   46b24:	b809883a 	mov	r4,r23
   46b28:	a00b883a 	mov	r5,r20
   46b2c:	004eda40 	call	4eda4 <__divdf3>
   46b30:	180b883a 	mov	r5,r3
   46b34:	1009883a 	mov	r4,r2
   46b38:	005085c0 	call	5085c <__fixdfsi>
   46b3c:	1009883a 	mov	r4,r2
   46b40:	102d883a 	mov	r22,r2
   46b44:	00508dc0 	call	508dc <__floatsidf>
   46b48:	a80d883a 	mov	r6,r21
   46b4c:	900f883a 	mov	r7,r18
   46b50:	1009883a 	mov	r4,r2
   46b54:	180b883a 	mov	r5,r3
   46b58:	004f8640 	call	4f864 <__muldf3>
   46b5c:	b809883a 	mov	r4,r23
   46b60:	a00b883a 	mov	r5,r20
   46b64:	100d883a 	mov	r6,r2
   46b68:	180f883a 	mov	r7,r3
   46b6c:	004fed40 	call	4fed4 <__subdf3>
   46b70:	b1000c04 	addi	r4,r22,48
   46b74:	81000005 	stb	r4,0(r16)
   46b78:	8c400044 	addi	r17,r17,1
   46b7c:	84000044 	addi	r16,r16,1
   46b80:	1009883a 	mov	r4,r2
   46b84:	180b883a 	mov	r5,r3
   46b88:	9c428526 	beq	r19,r17,475a0 <_dtoa_r+0x12f8>
   46b8c:	000d883a 	mov	r6,zero
   46b90:	01d00934 	movhi	r7,16420
   46b94:	004f8640 	call	4f864 <__muldf3>
   46b98:	000d883a 	mov	r6,zero
   46b9c:	000f883a 	mov	r7,zero
   46ba0:	1009883a 	mov	r4,r2
   46ba4:	180b883a 	mov	r5,r3
   46ba8:	102f883a 	mov	r23,r2
   46bac:	1829883a 	mov	r20,r3
   46bb0:	004f6040 	call	4f604 <__eqdf2>
   46bb4:	103fd91e 	bne	r2,zero,46b1c <_dtoa_r+0x874>
   46bb8:	d8800317 	ldw	r2,12(sp)
   46bbc:	dd800217 	ldw	r22,8(sp)
   46bc0:	ddc00417 	ldw	r23,16(sp)
   46bc4:	10800044 	addi	r2,r2,1
   46bc8:	d8800315 	stw	r2,12(sp)
   46bcc:	8025883a 	mov	r18,r16
   46bd0:	0000a806 	br	46e74 <_dtoa_r+0xbcc>
   46bd4:	d8c00617 	ldw	r3,24(sp)
   46bd8:	1800ec26 	beq	r3,zero,46f8c <_dtoa_r+0xce4>
   46bdc:	d8c00117 	ldw	r3,4(sp)
   46be0:	18c00088 	cmpgei	r3,r3,2
   46be4:	1801e926 	beq	r3,zero,4738c <_dtoa_r+0x10e4>
   46be8:	d8800417 	ldw	r2,16(sp)
   46bec:	157fffc4 	addi	r21,r2,-1
   46bf0:	d8800717 	ldw	r2,28(sp)
   46bf4:	1541c50e 	bge	r2,r21,4730c <_dtoa_r+0x1064>
   46bf8:	d8800717 	ldw	r2,28(sp)
   46bfc:	dd400715 	stw	r21,28(sp)
   46c00:	a885c83a 	sub	r2,r21,r2
   46c04:	98a7883a 	add	r19,r19,r2
   46c08:	002b883a 	mov	r21,zero
   46c0c:	d8800417 	ldw	r2,16(sp)
   46c10:	10029516 	blt	r2,zero,47668 <_dtoa_r+0x13c0>
   46c14:	d8c00517 	ldw	r3,20(sp)
   46c18:	d9000217 	ldw	r4,8(sp)
   46c1c:	1825883a 	mov	r18,r3
   46c20:	2089883a 	add	r4,r4,r2
   46c24:	10c5883a 	add	r2,r2,r3
   46c28:	d9000215 	stw	r4,8(sp)
   46c2c:	d8800515 	stw	r2,20(sp)
   46c30:	01400044 	movi	r5,1
   46c34:	b809883a 	mov	r4,r23
   46c38:	00484500 	call	48450 <__i2b>
   46c3c:	1021883a 	mov	r16,r2
   46c40:	04800b0e 	bge	zero,r18,46c70 <_dtoa_r+0x9c8>
   46c44:	d8c00217 	ldw	r3,8(sp)
   46c48:	00c0090e 	bge	zero,r3,46c70 <_dtoa_r+0x9c8>
   46c4c:	9005883a 	mov	r2,r18
   46c50:	1c81a616 	blt	r3,r18,472ec <_dtoa_r+0x1044>
   46c54:	d8c00517 	ldw	r3,20(sp)
   46c58:	90a5c83a 	sub	r18,r18,r2
   46c5c:	1887c83a 	sub	r3,r3,r2
   46c60:	d8c00515 	stw	r3,20(sp)
   46c64:	d8c00217 	ldw	r3,8(sp)
   46c68:	1885c83a 	sub	r2,r3,r2
   46c6c:	d8800215 	stw	r2,8(sp)
   46c70:	d8800717 	ldw	r2,28(sp)
   46c74:	10001526 	beq	r2,zero,46ccc <_dtoa_r+0xa24>
   46c78:	d8800617 	ldw	r2,24(sp)
   46c7c:	1001f626 	beq	r2,zero,47458 <_dtoa_r+0x11b0>
   46c80:	05400f0e 	bge	zero,r21,46cc0 <_dtoa_r+0xa18>
   46c84:	800b883a 	mov	r5,r16
   46c88:	a80d883a 	mov	r6,r21
   46c8c:	b809883a 	mov	r4,r23
   46c90:	00486d40 	call	486d4 <__pow5mult>
   46c94:	b00d883a 	mov	r6,r22
   46c98:	100b883a 	mov	r5,r2
   46c9c:	b809883a 	mov	r4,r23
   46ca0:	1021883a 	mov	r16,r2
   46ca4:	00484a40 	call	484a4 <__multiply>
   46ca8:	b00b883a 	mov	r5,r22
   46cac:	b809883a 	mov	r4,r23
   46cb0:	d8800915 	stw	r2,36(sp)
   46cb4:	00480a80 	call	480a8 <_Bfree>
   46cb8:	d8800917 	ldw	r2,36(sp)
   46cbc:	102d883a 	mov	r22,r2
   46cc0:	d8800717 	ldw	r2,28(sp)
   46cc4:	154dc83a 	sub	r6,r2,r21
   46cc8:	1542621e 	bne	r2,r21,47654 <_dtoa_r+0x13ac>
   46ccc:	01400044 	movi	r5,1
   46cd0:	b809883a 	mov	r4,r23
   46cd4:	00484500 	call	48450 <__i2b>
   46cd8:	102b883a 	mov	r21,r2
   46cdc:	04c0be16 	blt	zero,r19,46fd8 <_dtoa_r+0xd30>
   46ce0:	d8800117 	ldw	r2,4(sp)
   46ce4:	10800088 	cmpgei	r2,r2,2
   46ce8:	10015226 	beq	r2,zero,47234 <_dtoa_r+0xf8c>
   46cec:	0023883a 	mov	r17,zero
   46cf0:	00800044 	movi	r2,1
   46cf4:	9800c11e 	bne	r19,zero,46ffc <_dtoa_r+0xd54>
   46cf8:	d9400217 	ldw	r5,8(sp)
   46cfc:	1145883a 	add	r2,r2,r5
   46d00:	108007cc 	andi	r2,r2,31
   46d04:	1000a526 	beq	r2,zero,46f9c <_dtoa_r+0xcf4>
   46d08:	00c00804 	movi	r3,32
   46d0c:	1887c83a 	sub	r3,r3,r2
   46d10:	19000150 	cmplti	r4,r3,5
   46d14:	2003311e 	bne	r4,zero,479dc <_dtoa_r+0x1734>
   46d18:	00c00704 	movi	r3,28
   46d1c:	1885c83a 	sub	r2,r3,r2
   46d20:	d8c00517 	ldw	r3,20(sp)
   46d24:	90a5883a 	add	r18,r18,r2
   46d28:	1887883a 	add	r3,r3,r2
   46d2c:	2885883a 	add	r2,r5,r2
   46d30:	d8c00515 	stw	r3,20(sp)
   46d34:	d8800215 	stw	r2,8(sp)
   46d38:	d8800517 	ldw	r2,20(sp)
   46d3c:	0080050e 	bge	zero,r2,46d54 <_dtoa_r+0xaac>
   46d40:	b00b883a 	mov	r5,r22
   46d44:	100d883a 	mov	r6,r2
   46d48:	b809883a 	mov	r4,r23
   46d4c:	00487ec0 	call	487ec <__lshift>
   46d50:	102d883a 	mov	r22,r2
   46d54:	d8800217 	ldw	r2,8(sp)
   46d58:	0080050e 	bge	zero,r2,46d70 <_dtoa_r+0xac8>
   46d5c:	a80b883a 	mov	r5,r21
   46d60:	100d883a 	mov	r6,r2
   46d64:	b809883a 	mov	r4,r23
   46d68:	00487ec0 	call	487ec <__lshift>
   46d6c:	102b883a 	mov	r21,r2
   46d70:	d8800817 	ldw	r2,32(sp)
   46d74:	1001161e 	bne	r2,zero,471d0 <_dtoa_r+0xf28>
   46d78:	d8800417 	ldw	r2,16(sp)
   46d7c:	0081040e 	bge	zero,r2,47190 <_dtoa_r+0xee8>
   46d80:	d8800617 	ldw	r2,24(sp)
   46d84:	1000b01e 	bne	r2,zero,47048 <_dtoa_r+0xda0>
   46d88:	d8800317 	ldw	r2,12(sp)
   46d8c:	10800044 	addi	r2,r2,1
   46d90:	d8800315 	stw	r2,12(sp)
   46d94:	dc800417 	ldw	r18,16(sp)
   46d98:	04400044 	movi	r17,1
   46d9c:	00000706 	br	46dbc <_dtoa_r+0xb14>
   46da0:	b00b883a 	mov	r5,r22
   46da4:	000f883a 	mov	r7,zero
   46da8:	01800284 	movi	r6,10
   46dac:	b809883a 	mov	r4,r23
   46db0:	00480cc0 	call	480cc <__multadd>
   46db4:	102d883a 	mov	r22,r2
   46db8:	8c400044 	addi	r17,r17,1
   46dbc:	a80b883a 	mov	r5,r21
   46dc0:	b009883a 	mov	r4,r22
   46dc4:	00460ac0 	call	460ac <quorem>
   46dc8:	10c00c04 	addi	r3,r2,48
   46dcc:	e445883a 	add	r2,fp,r17
   46dd0:	10ffffc5 	stb	r3,-1(r2)
   46dd4:	8cbff216 	blt	r17,r18,46da0 <_dtoa_r+0xaf8>
   46dd8:	d8800417 	ldw	r2,16(sp)
   46ddc:	0081510e 	bge	zero,r2,47324 <_dtoa_r+0x107c>
   46de0:	e0a5883a 	add	r18,fp,r2
   46de4:	0023883a 	mov	r17,zero
   46de8:	b00b883a 	mov	r5,r22
   46dec:	01800044 	movi	r6,1
   46df0:	b809883a 	mov	r4,r23
   46df4:	d8c00115 	stw	r3,4(sp)
   46df8:	00487ec0 	call	487ec <__lshift>
   46dfc:	1009883a 	mov	r4,r2
   46e00:	a80b883a 	mov	r5,r21
   46e04:	102d883a 	mov	r22,r2
   46e08:	00489740 	call	48974 <__mcmp>
   46e0c:	913fffc3 	ldbu	r4,-1(r18)
   46e10:	00800416 	blt	zero,r2,46e24 <_dtoa_r+0xb7c>
   46e14:	00014806 	br	47338 <_dtoa_r+0x1090>
   46e18:	e0c15626 	beq	fp,r3,47374 <_dtoa_r+0x10cc>
   46e1c:	193fffc3 	ldbu	r4,-1(r3)
   46e20:	1825883a 	mov	r18,r3
   46e24:	20803fcc 	andi	r2,r4,255
   46e28:	1080201c 	xori	r2,r2,128
   46e2c:	10bfe004 	addi	r2,r2,-128
   46e30:	10800e60 	cmpeqi	r2,r2,57
   46e34:	90ffffc4 	addi	r3,r18,-1
   46e38:	103ff71e 	bne	r2,zero,46e18 <_dtoa_r+0xb70>
   46e3c:	21000044 	addi	r4,r4,1
   46e40:	19000005 	stb	r4,0(r3)
   46e44:	a80b883a 	mov	r5,r21
   46e48:	b809883a 	mov	r4,r23
   46e4c:	00480a80 	call	480a8 <_Bfree>
   46e50:	80000826 	beq	r16,zero,46e74 <_dtoa_r+0xbcc>
   46e54:	88000426 	beq	r17,zero,46e68 <_dtoa_r+0xbc0>
   46e58:	8c000326 	beq	r17,r16,46e68 <_dtoa_r+0xbc0>
   46e5c:	880b883a 	mov	r5,r17
   46e60:	b809883a 	mov	r4,r23
   46e64:	00480a80 	call	480a8 <_Bfree>
   46e68:	800b883a 	mov	r5,r16
   46e6c:	b809883a 	mov	r4,r23
   46e70:	00480a80 	call	480a8 <_Bfree>
   46e74:	b00b883a 	mov	r5,r22
   46e78:	b809883a 	mov	r4,r23
   46e7c:	00480a80 	call	480a8 <_Bfree>
   46e80:	d8801f17 	ldw	r2,124(sp)
   46e84:	d8c00317 	ldw	r3,12(sp)
   46e88:	90000005 	stb	zero,0(r18)
   46e8c:	10c00015 	stw	r3,0(r2)
   46e90:	d8802117 	ldw	r2,132(sp)
   46e94:	103d3526 	beq	r2,zero,4636c <_dtoa_r+0xc4>
   46e98:	14800015 	stw	r18,0(r2)
   46e9c:	003d3306 	br	4636c <_dtoa_r+0xc4>
   46ea0:	e0bfffc4 	addi	r2,fp,-1
   46ea4:	d8000815 	stw	zero,32(sp)
   46ea8:	10002616 	blt	r2,zero,46f44 <_dtoa_r+0xc9c>
   46eac:	d8000515 	stw	zero,20(sp)
   46eb0:	d8800217 	ldw	r2,8(sp)
   46eb4:	d8c00117 	ldw	r3,4(sp)
   46eb8:	dcc00315 	stw	r19,12(sp)
   46ebc:	14c5883a 	add	r2,r2,r19
   46ec0:	d8800215 	stw	r2,8(sp)
   46ec4:	d8000715 	stw	zero,28(sp)
   46ec8:	188002a8 	cmpgeui	r2,r3,10
   46ecc:	103d9d26 	beq	r2,zero,46544 <_dtoa_r+0x29c>
   46ed0:	00800044 	movi	r2,1
   46ed4:	d8800615 	stw	r2,24(sp)
   46ed8:	00bfffc4 	movi	r2,-1
   46edc:	04000044 	movi	r16,1
   46ee0:	d8000115 	stw	zero,4(sp)
   46ee4:	d8800415 	stw	r2,16(sp)
   46ee8:	d8001e15 	stw	zero,120(sp)
   46eec:	d8800417 	ldw	r2,16(sp)
   46ef0:	b8001115 	stw	zero,68(r23)
   46ef4:	000b883a 	mov	r5,zero
   46ef8:	d8800b15 	stw	r2,44(sp)
   46efc:	003dae06 	br	465b8 <_dtoa_r+0x310>
   46f00:	188000e0 	cmpeqi	r2,r3,3
   46f04:	d8000615 	stw	zero,24(sp)
   46f08:	103eb126 	beq	r2,zero,469d0 <_dtoa_r+0x728>
   46f0c:	d8801e17 	ldw	r2,120(sp)
   46f10:	d8c00317 	ldw	r3,12(sp)
   46f14:	10c5883a 	add	r2,r2,r3
   46f18:	d8800b15 	stw	r2,44(sp)
   46f1c:	10800044 	addi	r2,r2,1
   46f20:	d8800415 	stw	r2,16(sp)
   46f24:	100d883a 	mov	r6,r2
   46f28:	00bd9816 	blt	zero,r2,4658c <_dtoa_r+0x2e4>
   46f2c:	01800044 	movi	r6,1
   46f30:	003d9606 	br	4658c <_dtoa_r+0x2e4>
   46f34:	00800044 	movi	r2,1
   46f38:	d8800815 	stw	r2,32(sp)
   46f3c:	e0bfffc4 	addi	r2,fp,-1
   46f40:	103d740e 	bge	r2,zero,46514 <_dtoa_r+0x26c>
   46f44:	00800044 	movi	r2,1
   46f48:	1705c83a 	sub	r2,r2,fp
   46f4c:	d8800515 	stw	r2,20(sp)
   46f50:	d8000215 	stw	zero,8(sp)
   46f54:	003d7006 	br	46518 <_dtoa_r+0x270>
   46f58:	9809883a 	mov	r4,r19
   46f5c:	00508dc0 	call	508dc <__floatsidf>
   46f60:	900d883a 	mov	r6,r18
   46f64:	a80f883a 	mov	r7,r21
   46f68:	1009883a 	mov	r4,r2
   46f6c:	180b883a 	mov	r5,r3
   46f70:	004f6040 	call	4f604 <__eqdf2>
   46f74:	103d5426 	beq	r2,zero,464c8 <_dtoa_r+0x220>
   46f78:	9cffffc4 	addi	r19,r19,-1
   46f7c:	003d5206 	br	464c8 <_dtoa_r+0x220>
   46f80:	07000174 	movhi	fp,5
   46f84:	e70d4604 	addi	fp,fp,13592
   46f88:	003cf806 	br	4636c <_dtoa_r+0xc4>
   46f8c:	dd400717 	ldw	r21,28(sp)
   46f90:	dc800517 	ldw	r18,20(sp)
   46f94:	0021883a 	mov	r16,zero
   46f98:	003f2906 	br	46c40 <_dtoa_r+0x998>
   46f9c:	00800704 	movi	r2,28
   46fa0:	d8c00517 	ldw	r3,20(sp)
   46fa4:	90a5883a 	add	r18,r18,r2
   46fa8:	1887883a 	add	r3,r3,r2
   46fac:	d8c00515 	stw	r3,20(sp)
   46fb0:	d8c00217 	ldw	r3,8(sp)
   46fb4:	1885883a 	add	r2,r3,r2
   46fb8:	d8800215 	stw	r2,8(sp)
   46fbc:	003f5e06 	br	46d38 <_dtoa_r+0xa90>
   46fc0:	01000804 	movi	r4,32
   46fc4:	2089c83a 	sub	r4,r4,r2
   46fc8:	a108983a 	sll	r4,r20,r4
   46fcc:	003d0a06 	br	463f8 <_dtoa_r+0x150>
   46fd0:	04000044 	movi	r16,1
   46fd4:	003d6006 	br	46558 <_dtoa_r+0x2b0>
   46fd8:	100b883a 	mov	r5,r2
   46fdc:	980d883a 	mov	r6,r19
   46fe0:	b809883a 	mov	r4,r23
   46fe4:	00486d40 	call	486d4 <__pow5mult>
   46fe8:	d8c00117 	ldw	r3,4(sp)
   46fec:	102b883a 	mov	r21,r2
   46ff0:	18c00090 	cmplti	r3,r3,2
   46ff4:	18014b1e 	bne	r3,zero,47524 <_dtoa_r+0x127c>
   46ff8:	0023883a 	mov	r17,zero
   46ffc:	a8800417 	ldw	r2,16(r21)
   47000:	10800104 	addi	r2,r2,4
   47004:	100490ba 	slli	r2,r2,2
   47008:	a885883a 	add	r2,r21,r2
   4700c:	11000017 	ldw	r4,0(r2)
   47010:	004833c0 	call	4833c <__hi0bits>
   47014:	00c00804 	movi	r3,32
   47018:	1885c83a 	sub	r2,r3,r2
   4701c:	003f3606 	br	46cf8 <_dtoa_r+0xa50>
   47020:	800b883a 	mov	r5,r16
   47024:	000f883a 	mov	r7,zero
   47028:	01800284 	movi	r6,10
   4702c:	b809883a 	mov	r4,r23
   47030:	00480cc0 	call	480cc <__multadd>
   47034:	1021883a 	mov	r16,r2
   47038:	d8800b17 	ldw	r2,44(sp)
   4703c:	00824d0e 	bge	zero,r2,47974 <_dtoa_r+0x16cc>
   47040:	dcc00315 	stw	r19,12(sp)
   47044:	d8800415 	stw	r2,16(sp)
   47048:	0480aa16 	blt	zero,r18,472f4 <_dtoa_r+0x104c>
   4704c:	8801701e 	bne	r17,zero,47610 <_dtoa_r+0x1368>
   47050:	8027883a 	mov	r19,r16
   47054:	d9000417 	ldw	r4,16(sp)
   47058:	e0bfffc4 	addi	r2,fp,-1
   4705c:	a0c0004c 	andi	r3,r20,1
   47060:	1105883a 	add	r2,r2,r4
   47064:	d8800415 	stw	r2,16(sp)
   47068:	d8800117 	ldw	r2,4(sp)
   4706c:	d8c00715 	stw	r3,28(sp)
   47070:	e029883a 	mov	r20,fp
   47074:	1884b03a 	or	r2,r3,r2
   47078:	d8800615 	stw	r2,24(sp)
   4707c:	df000815 	stw	fp,32(sp)
   47080:	00002906 	br	47128 <_dtoa_r+0xe80>
   47084:	b009883a 	mov	r4,r22
   47088:	00489740 	call	48974 <__mcmp>
   4708c:	900b883a 	mov	r5,r18
   47090:	b809883a 	mov	r4,r23
   47094:	d8800215 	stw	r2,8(sp)
   47098:	00480a80 	call	480a8 <_Bfree>
   4709c:	d8800217 	ldw	r2,8(sp)
   470a0:	1000021e 	bne	r2,zero,470ac <_dtoa_r+0xe04>
   470a4:	d8c00617 	ldw	r3,24(sp)
   470a8:	18022326 	beq	r3,zero,47938 <_dtoa_r+0x1690>
   470ac:	a4800044 	addi	r18,r20,1
   470b0:	88012216 	blt	r17,zero,4753c <_dtoa_r+0x1294>
   470b4:	d8c00117 	ldw	r3,4(sp)
   470b8:	1c62b03a 	or	r17,r3,r17
   470bc:	d8c00717 	ldw	r3,28(sp)
   470c0:	1c62b03a 	or	r17,r3,r17
   470c4:	88011d26 	beq	r17,zero,4753c <_dtoa_r+0x1294>
   470c8:	00816b16 	blt	zero,r2,47678 <_dtoa_r+0x13d0>
   470cc:	d8800417 	ldw	r2,16(sp)
   470d0:	a7000005 	stb	fp,0(r20)
   470d4:	15017126 	beq	r2,r20,4769c <_dtoa_r+0x13f4>
   470d8:	b00b883a 	mov	r5,r22
   470dc:	000f883a 	mov	r7,zero
   470e0:	01800284 	movi	r6,10
   470e4:	b809883a 	mov	r4,r23
   470e8:	00480cc0 	call	480cc <__multadd>
   470ec:	102d883a 	mov	r22,r2
   470f0:	800b883a 	mov	r5,r16
   470f4:	000f883a 	mov	r7,zero
   470f8:	01800284 	movi	r6,10
   470fc:	b809883a 	mov	r4,r23
   47100:	84c01f26 	beq	r16,r19,47180 <_dtoa_r+0xed8>
   47104:	00480cc0 	call	480cc <__multadd>
   47108:	980b883a 	mov	r5,r19
   4710c:	000f883a 	mov	r7,zero
   47110:	01800284 	movi	r6,10
   47114:	b809883a 	mov	r4,r23
   47118:	1021883a 	mov	r16,r2
   4711c:	00480cc0 	call	480cc <__multadd>
   47120:	1027883a 	mov	r19,r2
   47124:	9029883a 	mov	r20,r18
   47128:	a80b883a 	mov	r5,r21
   4712c:	b009883a 	mov	r4,r22
   47130:	00460ac0 	call	460ac <quorem>
   47134:	800b883a 	mov	r5,r16
   47138:	b009883a 	mov	r4,r22
   4713c:	1039883a 	mov	fp,r2
   47140:	d8800515 	stw	r2,20(sp)
   47144:	00489740 	call	48974 <__mcmp>
   47148:	a80b883a 	mov	r5,r21
   4714c:	980d883a 	mov	r6,r19
   47150:	b809883a 	mov	r4,r23
   47154:	1023883a 	mov	r17,r2
   47158:	00489cc0 	call	489cc <__mdiff>
   4715c:	1025883a 	mov	r18,r2
   47160:	10800317 	ldw	r2,12(r2)
   47164:	e7000c04 	addi	fp,fp,48
   47168:	900b883a 	mov	r5,r18
   4716c:	103fc526 	beq	r2,zero,47084 <_dtoa_r+0xddc>
   47170:	b809883a 	mov	r4,r23
   47174:	00480a80 	call	480a8 <_Bfree>
   47178:	00800044 	movi	r2,1
   4717c:	003fcb06 	br	470ac <_dtoa_r+0xe04>
   47180:	00480cc0 	call	480cc <__multadd>
   47184:	1021883a 	mov	r16,r2
   47188:	1027883a 	mov	r19,r2
   4718c:	003fe506 	br	47124 <_dtoa_r+0xe7c>
   47190:	d8800117 	ldw	r2,4(sp)
   47194:	108000d0 	cmplti	r2,r2,3
   47198:	10003c26 	beq	r2,zero,4728c <_dtoa_r+0xfe4>
   4719c:	d8800617 	ldw	r2,24(sp)
   471a0:	103fa91e 	bne	r2,zero,47048 <_dtoa_r+0xda0>
   471a4:	a80b883a 	mov	r5,r21
   471a8:	b009883a 	mov	r4,r22
   471ac:	00460ac0 	call	460ac <quorem>
   471b0:	10c00c04 	addi	r3,r2,48
   471b4:	d8800317 	ldw	r2,12(sp)
   471b8:	e4800044 	addi	r18,fp,1
   471bc:	e0c00005 	stb	r3,0(fp)
   471c0:	10800044 	addi	r2,r2,1
   471c4:	d8800315 	stw	r2,12(sp)
   471c8:	0023883a 	mov	r17,zero
   471cc:	003f0606 	br	46de8 <_dtoa_r+0xb40>
   471d0:	a80b883a 	mov	r5,r21
   471d4:	b009883a 	mov	r4,r22
   471d8:	00489740 	call	48974 <__mcmp>
   471dc:	103ee60e 	bge	r2,zero,46d78 <_dtoa_r+0xad0>
   471e0:	b00b883a 	mov	r5,r22
   471e4:	000f883a 	mov	r7,zero
   471e8:	01800284 	movi	r6,10
   471ec:	b809883a 	mov	r4,r23
   471f0:	00480cc0 	call	480cc <__multadd>
   471f4:	d8c00317 	ldw	r3,12(sp)
   471f8:	102d883a 	mov	r22,r2
   471fc:	d8800617 	ldw	r2,24(sp)
   47200:	1cffffc4 	addi	r19,r3,-1
   47204:	103f861e 	bne	r2,zero,47020 <_dtoa_r+0xd78>
   47208:	d8800b17 	ldw	r2,44(sp)
   4720c:	0081d40e 	bge	zero,r2,47960 <_dtoa_r+0x16b8>
   47210:	d8800415 	stw	r2,16(sp)
   47214:	003edf06 	br	46d94 <_dtoa_r+0xaec>
   47218:	00800174 	movhi	r2,5
   4721c:	e70d4f04 	addi	fp,fp,13628
   47220:	108d4fc4 	addi	r2,r2,13631
   47224:	003dd906 	br	4698c <_dtoa_r+0x6e4>
   47228:	00800044 	movi	r2,1
   4722c:	d8800615 	stw	r2,24(sp)
   47230:	003f3606 	br	46f0c <_dtoa_r+0xc64>
   47234:	a03ead1e 	bne	r20,zero,46cec <_dtoa_r+0xa44>
   47238:	00800434 	movhi	r2,16
   4723c:	10bfffc4 	addi	r2,r2,-1
   47240:	8884703a 	and	r2,r17,r2
   47244:	103ea91e 	bne	r2,zero,46cec <_dtoa_r+0xa44>
   47248:	8c5ffc2c 	andhi	r17,r17,32752
   4724c:	883ea726 	beq	r17,zero,46cec <_dtoa_r+0xa44>
   47250:	d8800517 	ldw	r2,20(sp)
   47254:	04400044 	movi	r17,1
   47258:	10800044 	addi	r2,r2,1
   4725c:	d8800515 	stw	r2,20(sp)
   47260:	d8800217 	ldw	r2,8(sp)
   47264:	10800044 	addi	r2,r2,1
   47268:	d8800215 	stw	r2,8(sp)
   4726c:	003ea006 	br	46cf0 <_dtoa_r+0xa48>
   47270:	00800044 	movi	r2,1
   47274:	d8800415 	stw	r2,16(sp)
   47278:	d8801e15 	stw	r2,120(sp)
   4727c:	003f1b06 	br	46eec <_dtoa_r+0xc44>
   47280:	d8800b17 	ldw	r2,44(sp)
   47284:	dcc00315 	stw	r19,12(sp)
   47288:	d8800415 	stw	r2,16(sp)
   4728c:	d8800417 	ldw	r2,16(sp)
   47290:	103dfb1e 	bne	r2,zero,46a80 <_dtoa_r+0x7d8>
   47294:	a80b883a 	mov	r5,r21
   47298:	b809883a 	mov	r4,r23
   4729c:	000f883a 	mov	r7,zero
   472a0:	01800144 	movi	r6,5
   472a4:	00480cc0 	call	480cc <__multadd>
   472a8:	100b883a 	mov	r5,r2
   472ac:	b009883a 	mov	r4,r22
   472b0:	102b883a 	mov	r21,r2
   472b4:	00489740 	call	48974 <__mcmp>
   472b8:	00bdf10e 	bge	zero,r2,46a80 <_dtoa_r+0x7d8>
   472bc:	00800c44 	movi	r2,49
   472c0:	e0800005 	stb	r2,0(fp)
   472c4:	d8800317 	ldw	r2,12(sp)
   472c8:	e4800044 	addi	r18,fp,1
   472cc:	14400044 	addi	r17,r2,1
   472d0:	a80b883a 	mov	r5,r21
   472d4:	b809883a 	mov	r4,r23
   472d8:	00480a80 	call	480a8 <_Bfree>
   472dc:	88800044 	addi	r2,r17,1
   472e0:	d8800315 	stw	r2,12(sp)
   472e4:	803ee01e 	bne	r16,zero,46e68 <_dtoa_r+0xbc0>
   472e8:	003ee206 	br	46e74 <_dtoa_r+0xbcc>
   472ec:	1805883a 	mov	r2,r3
   472f0:	003e5806 	br	46c54 <_dtoa_r+0x9ac>
   472f4:	800b883a 	mov	r5,r16
   472f8:	900d883a 	mov	r6,r18
   472fc:	b809883a 	mov	r4,r23
   47300:	00487ec0 	call	487ec <__lshift>
   47304:	1021883a 	mov	r16,r2
   47308:	003f5006 	br	4704c <_dtoa_r+0xda4>
   4730c:	156bc83a 	sub	r21,r2,r21
   47310:	003e3e06 	br	46c0c <_dtoa_r+0x964>
   47314:	dd000a15 	stw	r20,40(sp)
   47318:	dc400c15 	stw	r17,48(sp)
   4731c:	04000084 	movi	r16,2
   47320:	003cc906 	br	46648 <_dtoa_r+0x3a0>
   47324:	00800044 	movi	r2,1
   47328:	003ead06 	br	46de0 <_dtoa_r+0xb38>
   4732c:	00800044 	movi	r2,1
   47330:	d8800615 	stw	r2,24(sp)
   47334:	003c9006 	br	46578 <_dtoa_r+0x2d0>
   47338:	1000031e 	bne	r2,zero,47348 <_dtoa_r+0x10a0>
   4733c:	d8c00117 	ldw	r3,4(sp)
   47340:	18c0004c 	andi	r3,r3,1
   47344:	183eb71e 	bne	r3,zero,46e24 <_dtoa_r+0xb7c>
   47348:	2005883a 	mov	r2,r4
   4734c:	00000206 	br	47358 <_dtoa_r+0x10b0>
   47350:	90bfff83 	ldbu	r2,-2(r18)
   47354:	1825883a 	mov	r18,r3
   47358:	10803fcc 	andi	r2,r2,255
   4735c:	1080201c 	xori	r2,r2,128
   47360:	10bfe004 	addi	r2,r2,-128
   47364:	10800c18 	cmpnei	r2,r2,48
   47368:	90ffffc4 	addi	r3,r18,-1
   4736c:	103ff826 	beq	r2,zero,47350 <_dtoa_r+0x10a8>
   47370:	003eb406 	br	46e44 <_dtoa_r+0xb9c>
   47374:	00800c44 	movi	r2,49
   47378:	e0800005 	stb	r2,0(fp)
   4737c:	d8800317 	ldw	r2,12(sp)
   47380:	10800044 	addi	r2,r2,1
   47384:	d8800315 	stw	r2,12(sp)
   47388:	003eae06 	br	46e44 <_dtoa_r+0xb9c>
   4738c:	d8c00917 	ldw	r3,36(sp)
   47390:	18011826 	beq	r3,zero,477f4 <_dtoa_r+0x154c>
   47394:	d8c00517 	ldw	r3,20(sp)
   47398:	d9000217 	ldw	r4,8(sp)
   4739c:	10810cc4 	addi	r2,r2,1075
   473a0:	dd400717 	ldw	r21,28(sp)
   473a4:	2089883a 	add	r4,r4,r2
   473a8:	1885883a 	add	r2,r3,r2
   473ac:	1825883a 	mov	r18,r3
   473b0:	d9000215 	stw	r4,8(sp)
   473b4:	d8800515 	stw	r2,20(sp)
   473b8:	003e1d06 	br	46c30 <_dtoa_r+0x988>
   473bc:	8009883a 	mov	r4,r16
   473c0:	00508dc0 	call	508dc <__floatsidf>
   473c4:	d9c00a17 	ldw	r7,40(sp)
   473c8:	900d883a 	mov	r6,r18
   473cc:	1009883a 	mov	r4,r2
   473d0:	180b883a 	mov	r5,r3
   473d4:	004f8640 	call	4f864 <__muldf3>
   473d8:	000d883a 	mov	r6,zero
   473dc:	01d00734 	movhi	r7,16412
   473e0:	1009883a 	mov	r4,r2
   473e4:	180b883a 	mov	r5,r3
   473e8:	004e42c0 	call	4e42c <__adddf3>
   473ec:	d8800c15 	stw	r2,48(sp)
   473f0:	00bf3034 	movhi	r2,64704
   473f4:	1885883a 	add	r2,r3,r2
   473f8:	d8800d15 	stw	r2,52(sp)
   473fc:	d9400a17 	ldw	r5,40(sp)
   47400:	9009883a 	mov	r4,r18
   47404:	000d883a 	mov	r6,zero
   47408:	01d00534 	movhi	r7,16404
   4740c:	004fed40 	call	4fed4 <__subdf3>
   47410:	dd400d17 	ldw	r21,52(sp)
   47414:	d9800c17 	ldw	r6,48(sp)
   47418:	1009883a 	mov	r4,r2
   4741c:	a80f883a 	mov	r7,r21
   47420:	180b883a 	mov	r5,r3
   47424:	1025883a 	mov	r18,r2
   47428:	1821883a 	mov	r16,r3
   4742c:	004f6840 	call	4f684 <__gedf2>
   47430:	00812d16 	blt	zero,r2,478e8 <_dtoa_r+0x1640>
   47434:	d9800c17 	ldw	r6,48(sp)
   47438:	a9e0003c 	xorhi	r7,r21,32768
   4743c:	9009883a 	mov	r4,r18
   47440:	800b883a 	mov	r5,r16
   47444:	004f7740 	call	4f774 <__ledf2>
   47448:	103d6e0e 	bge	r2,zero,46a04 <_dtoa_r+0x75c>
   4744c:	002b883a 	mov	r21,zero
   47450:	0021883a 	mov	r16,zero
   47454:	003d8a06 	br	46a80 <_dtoa_r+0x7d8>
   47458:	d9800717 	ldw	r6,28(sp)
   4745c:	b00b883a 	mov	r5,r22
   47460:	b809883a 	mov	r4,r23
   47464:	00486d40 	call	486d4 <__pow5mult>
   47468:	102d883a 	mov	r22,r2
   4746c:	003e1706 	br	46ccc <_dtoa_r+0xa24>
   47470:	d8800317 	ldw	r2,12(sp)
   47474:	10010d26 	beq	r2,zero,478ac <_dtoa_r+0x1604>
   47478:	00abc83a 	sub	r21,zero,r2
   4747c:	a88003cc 	andi	r2,r21,15
   47480:	100690fa 	slli	r3,r2,3
   47484:	00800174 	movhi	r2,5
   47488:	108d8d04 	addi	r2,r2,13876
   4748c:	10c5883a 	add	r2,r2,r3
   47490:	11800017 	ldw	r6,0(r2)
   47494:	11c00117 	ldw	r7,4(r2)
   47498:	a009883a 	mov	r4,r20
   4749c:	880b883a 	mov	r5,r17
   474a0:	a82bd13a 	srai	r21,r21,4
   474a4:	004f8640 	call	4f864 <__muldf3>
   474a8:	d8c00a15 	stw	r3,40(sp)
   474ac:	1025883a 	mov	r18,r2
   474b0:	a8013826 	beq	r21,zero,47994 <_dtoa_r+0x16ec>
   474b4:	02000174 	movhi	r8,5
   474b8:	04000084 	movi	r16,2
   474bc:	420d8304 	addi	r8,r8,13836
   474c0:	180b883a 	mov	r5,r3
   474c4:	dc400c15 	stw	r17,48(sp)
   474c8:	1009883a 	mov	r4,r2
   474cc:	8023883a 	mov	r17,r16
   474d0:	0007883a 	mov	r3,zero
   474d4:	4021883a 	mov	r16,r8
   474d8:	a980004c 	andi	r6,r21,1
   474dc:	30000726 	beq	r6,zero,474fc <_dtoa_r+0x1254>
   474e0:	81800017 	ldw	r6,0(r16)
   474e4:	81c00117 	ldw	r7,4(r16)
   474e8:	8c400044 	addi	r17,r17,1
   474ec:	004f8640 	call	4f864 <__muldf3>
   474f0:	180b883a 	mov	r5,r3
   474f4:	1009883a 	mov	r4,r2
   474f8:	00c00044 	movi	r3,1
   474fc:	a82bd07a 	srai	r21,r21,1
   47500:	84000204 	addi	r16,r16,8
   47504:	a83ff41e 	bne	r21,zero,474d8 <_dtoa_r+0x1230>
   47508:	18c03fcc 	andi	r3,r3,255
   4750c:	8821883a 	mov	r16,r17
   47510:	dc400c17 	ldw	r17,48(sp)
   47514:	183c6526 	beq	r3,zero,466ac <_dtoa_r+0x404>
   47518:	2025883a 	mov	r18,r4
   4751c:	d9400a15 	stw	r5,40(sp)
   47520:	003c6206 	br	466ac <_dtoa_r+0x404>
   47524:	a03eb41e 	bne	r20,zero,46ff8 <_dtoa_r+0xd50>
   47528:	00800434 	movhi	r2,16
   4752c:	10bfffc4 	addi	r2,r2,-1
   47530:	8884703a 	and	r2,r17,r2
   47534:	103f4426 	beq	r2,zero,47248 <_dtoa_r+0xfa0>
   47538:	003eaf06 	br	46ff8 <_dtoa_r+0xd50>
   4753c:	d9000317 	ldw	r4,12(sp)
   47540:	e007883a 	mov	r3,fp
   47544:	df000817 	ldw	fp,32(sp)
   47548:	21000044 	addi	r4,r4,1
   4754c:	d9000315 	stw	r4,12(sp)
   47550:	00800f0e 	bge	zero,r2,47590 <_dtoa_r+0x12e8>
   47554:	b00b883a 	mov	r5,r22
   47558:	01800044 	movi	r6,1
   4755c:	b809883a 	mov	r4,r23
   47560:	d8c00115 	stw	r3,4(sp)
   47564:	00487ec0 	call	487ec <__lshift>
   47568:	a80b883a 	mov	r5,r21
   4756c:	1009883a 	mov	r4,r2
   47570:	102d883a 	mov	r22,r2
   47574:	00489740 	call	48974 <__mcmp>
   47578:	d8c00117 	ldw	r3,4(sp)
   4757c:	0080e40e 	bge	zero,r2,47910 <_dtoa_r+0x1668>
   47580:	18c00e60 	cmpeqi	r3,r3,57
   47584:	1800d21e 	bne	r3,zero,478d0 <_dtoa_r+0x1628>
   47588:	d8800517 	ldw	r2,20(sp)
   4758c:	10c00c44 	addi	r3,r2,49
   47590:	8023883a 	mov	r17,r16
   47594:	a0c00005 	stb	r3,0(r20)
   47598:	9821883a 	mov	r16,r19
   4759c:	003e2906 	br	46e44 <_dtoa_r+0xb9c>
   475a0:	b027883a 	mov	r19,r22
   475a4:	ddc00417 	ldw	r23,16(sp)
   475a8:	dd800217 	ldw	r22,8(sp)
   475ac:	200d883a 	mov	r6,r4
   475b0:	280f883a 	mov	r7,r5
   475b4:	004e42c0 	call	4e42c <__adddf3>
   475b8:	dd400117 	ldw	r21,4(sp)
   475bc:	180b883a 	mov	r5,r3
   475c0:	900f883a 	mov	r7,r18
   475c4:	a80d883a 	mov	r6,r21
   475c8:	1009883a 	mov	r4,r2
   475cc:	1823883a 	mov	r17,r3
   475d0:	1029883a 	mov	r20,r2
   475d4:	004f6840 	call	4f684 <__gedf2>
   475d8:	d8c00317 	ldw	r3,12(sp)
   475dc:	18c00044 	addi	r3,r3,1
   475e0:	d8c00315 	stw	r3,12(sp)
   475e4:	00bcc716 	blt	zero,r2,46904 <_dtoa_r+0x65c>
   475e8:	a80d883a 	mov	r6,r21
   475ec:	900f883a 	mov	r7,r18
   475f0:	a009883a 	mov	r4,r20
   475f4:	880b883a 	mov	r5,r17
   475f8:	004f6040 	call	4f604 <__eqdf2>
   475fc:	1000021e 	bne	r2,zero,47608 <_dtoa_r+0x1360>
   47600:	9cc0004c 	andi	r19,r19,1
   47604:	983cbf1e 	bne	r19,zero,46904 <_dtoa_r+0x65c>
   47608:	8025883a 	mov	r18,r16
   4760c:	003e1906 	br	46e74 <_dtoa_r+0xbcc>
   47610:	81400117 	ldw	r5,4(r16)
   47614:	b809883a 	mov	r4,r23
   47618:	00480040 	call	48004 <_Balloc>
   4761c:	1023883a 	mov	r17,r2
   47620:	1000e526 	beq	r2,zero,479b8 <_dtoa_r+0x1710>
   47624:	81800417 	ldw	r6,16(r16)
   47628:	81400304 	addi	r5,r16,12
   4762c:	11000304 	addi	r4,r2,12
   47630:	31800084 	addi	r6,r6,2
   47634:	300c90ba 	slli	r6,r6,2
   47638:	0047f040 	call	47f04 <memcpy>
   4763c:	01800044 	movi	r6,1
   47640:	880b883a 	mov	r5,r17
   47644:	b809883a 	mov	r4,r23
   47648:	00487ec0 	call	487ec <__lshift>
   4764c:	1027883a 	mov	r19,r2
   47650:	003e8006 	br	47054 <_dtoa_r+0xdac>
   47654:	b00b883a 	mov	r5,r22
   47658:	b809883a 	mov	r4,r23
   4765c:	00486d40 	call	486d4 <__pow5mult>
   47660:	102d883a 	mov	r22,r2
   47664:	003d9906 	br	46ccc <_dtoa_r+0xa24>
   47668:	d8800517 	ldw	r2,20(sp)
   4766c:	d8c00417 	ldw	r3,16(sp)
   47670:	10e5c83a 	sub	r18,r2,r3
   47674:	003d6e06 	br	46c30 <_dtoa_r+0x988>
   47678:	d9000317 	ldw	r4,12(sp)
   4767c:	e007883a 	mov	r3,fp
   47680:	18800e58 	cmpnei	r2,r3,57
   47684:	21000044 	addi	r4,r4,1
   47688:	d9000315 	stw	r4,12(sp)
   4768c:	df000817 	ldw	fp,32(sp)
   47690:	10008f26 	beq	r2,zero,478d0 <_dtoa_r+0x1628>
   47694:	18c00044 	addi	r3,r3,1
   47698:	003fbd06 	br	47590 <_dtoa_r+0x12e8>
   4769c:	d8800317 	ldw	r2,12(sp)
   476a0:	e007883a 	mov	r3,fp
   476a4:	8023883a 	mov	r17,r16
   476a8:	10800044 	addi	r2,r2,1
   476ac:	df000817 	ldw	fp,32(sp)
   476b0:	d8800315 	stw	r2,12(sp)
   476b4:	9821883a 	mov	r16,r19
   476b8:	003dcb06 	br	46de8 <_dtoa_r+0xb40>
   476bc:	d9000c17 	ldw	r4,48(sp)
   476c0:	d9400d17 	ldw	r5,52(sp)
   476c4:	600d883a 	mov	r6,r12
   476c8:	680f883a 	mov	r7,r13
   476cc:	dac00a15 	stw	r11,40(sp)
   476d0:	004f8640 	call	4f864 <__muldf3>
   476d4:	dac00a17 	ldw	r11,40(sp)
   476d8:	d9400e17 	ldw	r5,56(sp)
   476dc:	d8800a15 	stw	r2,40(sp)
   476e0:	e2c00005 	stb	r11,0(fp)
   476e4:	29000058 	cmpnei	r4,r5,1
   476e8:	d8c00c15 	stw	r3,48(sp)
   476ec:	e145883a 	add	r2,fp,r5
   476f0:	20002126 	beq	r4,zero,47778 <_dtoa_r+0x14d0>
   476f4:	dc400e15 	stw	r17,56(sp)
   476f8:	dcc00d15 	stw	r19,52(sp)
   476fc:	8023883a 	mov	r17,r16
   47700:	a809883a 	mov	r4,r21
   47704:	900b883a 	mov	r5,r18
   47708:	1021883a 	mov	r16,r2
   4770c:	000d883a 	mov	r6,zero
   47710:	01d00934 	movhi	r7,16420
   47714:	004f8640 	call	4f864 <__muldf3>
   47718:	180b883a 	mov	r5,r3
   4771c:	1009883a 	mov	r4,r2
   47720:	182b883a 	mov	r21,r3
   47724:	1027883a 	mov	r19,r2
   47728:	005085c0 	call	5085c <__fixdfsi>
   4772c:	1009883a 	mov	r4,r2
   47730:	1025883a 	mov	r18,r2
   47734:	00508dc0 	call	508dc <__floatsidf>
   47738:	9809883a 	mov	r4,r19
   4773c:	a80b883a 	mov	r5,r21
   47740:	100d883a 	mov	r6,r2
   47744:	180f883a 	mov	r7,r3
   47748:	8c400044 	addi	r17,r17,1
   4774c:	94800c04 	addi	r18,r18,48
   47750:	004fed40 	call	4fed4 <__subdf3>
   47754:	8cbfffc5 	stb	r18,-1(r17)
   47758:	1009883a 	mov	r4,r2
   4775c:	180b883a 	mov	r5,r3
   47760:	847fea1e 	bne	r16,r17,4770c <_dtoa_r+0x1464>
   47764:	8821883a 	mov	r16,r17
   47768:	dcc00d17 	ldw	r19,52(sp)
   4776c:	dc400e17 	ldw	r17,56(sp)
   47770:	102b883a 	mov	r21,r2
   47774:	1825883a 	mov	r18,r3
   47778:	d9000a17 	ldw	r4,40(sp)
   4777c:	d9400c17 	ldw	r5,48(sp)
   47780:	000d883a 	mov	r6,zero
   47784:	01cff834 	movhi	r7,16352
   47788:	004e42c0 	call	4e42c <__adddf3>
   4778c:	a80d883a 	mov	r6,r21
   47790:	900f883a 	mov	r7,r18
   47794:	1009883a 	mov	r4,r2
   47798:	180b883a 	mov	r5,r3
   4779c:	004f7740 	call	4f774 <__ledf2>
   477a0:	103c5316 	blt	r2,zero,468f0 <_dtoa_r+0x648>
   477a4:	d9800a17 	ldw	r6,40(sp)
   477a8:	d9c00c17 	ldw	r7,48(sp)
   477ac:	0009883a 	mov	r4,zero
   477b0:	014ff834 	movhi	r5,16352
   477b4:	004fed40 	call	4fed4 <__subdf3>
   477b8:	a80d883a 	mov	r6,r21
   477bc:	900f883a 	mov	r7,r18
   477c0:	1009883a 	mov	r4,r2
   477c4:	180b883a 	mov	r5,r3
   477c8:	004f6840 	call	4f684 <__gedf2>
   477cc:	00bc8d0e 	bge	zero,r2,46a04 <_dtoa_r+0x75c>
   477d0:	80bfffc7 	ldb	r2,-1(r16)
   477d4:	8025883a 	mov	r18,r16
   477d8:	843fffc4 	addi	r16,r16,-1
   477dc:	10800c20 	cmpeqi	r2,r2,48
   477e0:	103ffb1e 	bne	r2,zero,477d0 <_dtoa_r+0x1528>
   477e4:	d8801117 	ldw	r2,68(sp)
   477e8:	10800044 	addi	r2,r2,1
   477ec:	d8800315 	stw	r2,12(sp)
   477f0:	003da006 	br	46e74 <_dtoa_r+0xbcc>
   477f4:	d8c01217 	ldw	r3,72(sp)
   477f8:	00800d84 	movi	r2,54
   477fc:	d9000517 	ldw	r4,20(sp)
   47800:	10c5c83a 	sub	r2,r2,r3
   47804:	d8c00217 	ldw	r3,8(sp)
   47808:	dd400717 	ldw	r21,28(sp)
   4780c:	2025883a 	mov	r18,r4
   47810:	1887883a 	add	r3,r3,r2
   47814:	2085883a 	add	r2,r4,r2
   47818:	d8c00215 	stw	r3,8(sp)
   4781c:	d8800515 	stw	r2,20(sp)
   47820:	003d0306 	br	46c30 <_dtoa_r+0x988>
   47824:	d8800417 	ldw	r2,16(sp)
   47828:	103ee426 	beq	r2,zero,473bc <_dtoa_r+0x1114>
   4782c:	d8800b17 	ldw	r2,44(sp)
   47830:	00bc740e 	bge	zero,r2,46a04 <_dtoa_r+0x75c>
   47834:	a80b883a 	mov	r5,r21
   47838:	9009883a 	mov	r4,r18
   4783c:	000d883a 	mov	r6,zero
   47840:	01d00934 	movhi	r7,16420
   47844:	004f8640 	call	4f864 <__muldf3>
   47848:	81000044 	addi	r4,r16,1
   4784c:	1025883a 	mov	r18,r2
   47850:	182b883a 	mov	r21,r3
   47854:	d8c00a15 	stw	r3,40(sp)
   47858:	00508dc0 	call	508dc <__floatsidf>
   4785c:	900d883a 	mov	r6,r18
   47860:	a80f883a 	mov	r7,r21
   47864:	1009883a 	mov	r4,r2
   47868:	180b883a 	mov	r5,r3
   4786c:	004f8640 	call	4f864 <__muldf3>
   47870:	1009883a 	mov	r4,r2
   47874:	000d883a 	mov	r6,zero
   47878:	01d00734 	movhi	r7,16412
   4787c:	180b883a 	mov	r5,r3
   47880:	004e42c0 	call	4e42c <__adddf3>
   47884:	d9000317 	ldw	r4,12(sp)
   47888:	d8800c15 	stw	r2,48(sp)
   4788c:	00bf3034 	movhi	r2,64704
   47890:	1887883a 	add	r3,r3,r2
   47894:	d8800b17 	ldw	r2,44(sp)
   47898:	213fffc4 	addi	r4,r4,-1
   4789c:	d9001115 	stw	r4,68(sp)
   478a0:	d8c00d15 	stw	r3,52(sp)
   478a4:	d8800e15 	stw	r2,56(sp)
   478a8:	003b9f06 	br	46728 <_dtoa_r+0x480>
   478ac:	a025883a 	mov	r18,r20
   478b0:	dc400a15 	stw	r17,40(sp)
   478b4:	04000084 	movi	r16,2
   478b8:	003b7c06 	br	466ac <_dtoa_r+0x404>
   478bc:	d8800317 	ldw	r2,12(sp)
   478c0:	00c00c44 	movi	r3,49
   478c4:	10800044 	addi	r2,r2,1
   478c8:	d8800315 	stw	r2,12(sp)
   478cc:	003c1606 	br	46928 <_dtoa_r+0x680>
   478d0:	00800e44 	movi	r2,57
   478d4:	8023883a 	mov	r17,r16
   478d8:	a0800005 	stb	r2,0(r20)
   478dc:	9821883a 	mov	r16,r19
   478e0:	01000e44 	movi	r4,57
   478e4:	003d4f06 	br	46e24 <_dtoa_r+0xb7c>
   478e8:	002b883a 	mov	r21,zero
   478ec:	0021883a 	mov	r16,zero
   478f0:	003e7206 	br	472bc <_dtoa_r+0x1014>
   478f4:	dd800d17 	ldw	r22,52(sp)
   478f8:	ddc00e17 	ldw	r23,56(sp)
   478fc:	d8801117 	ldw	r2,68(sp)
   47900:	8025883a 	mov	r18,r16
   47904:	10800044 	addi	r2,r2,1
   47908:	d8800315 	stw	r2,12(sp)
   4790c:	003d5906 	br	46e74 <_dtoa_r+0xbcc>
   47910:	103f1f1e 	bne	r2,zero,47590 <_dtoa_r+0x12e8>
   47914:	1880004c 	andi	r2,r3,1
   47918:	103f191e 	bne	r2,zero,47580 <_dtoa_r+0x12d8>
   4791c:	003f1c06 	br	47590 <_dtoa_r+0x12e8>
   47920:	dcc00f17 	ldw	r19,60(sp)
   47924:	dd800d17 	ldw	r22,52(sp)
   47928:	ddc00e17 	ldw	r23,56(sp)
   4792c:	dc400c17 	ldw	r17,48(sp)
   47930:	dd000a17 	ldw	r20,40(sp)
   47934:	003c3306 	br	46a04 <_dtoa_r+0x75c>
   47938:	d9000317 	ldw	r4,12(sp)
   4793c:	e007883a 	mov	r3,fp
   47940:	18800e60 	cmpeqi	r2,r3,57
   47944:	21000044 	addi	r4,r4,1
   47948:	d9000315 	stw	r4,12(sp)
   4794c:	df000817 	ldw	fp,32(sp)
   47950:	a4800044 	addi	r18,r20,1
   47954:	103fde1e 	bne	r2,zero,478d0 <_dtoa_r+0x1628>
   47958:	047f0b16 	blt	zero,r17,47588 <_dtoa_r+0x12e0>
   4795c:	003f0c06 	br	47590 <_dtoa_r+0x12e8>
   47960:	d8800117 	ldw	r2,4(sp)
   47964:	108000c8 	cmpgei	r2,r2,3
   47968:	103e451e 	bne	r2,zero,47280 <_dtoa_r+0xfd8>
   4796c:	dcc00315 	stw	r19,12(sp)
   47970:	003e0c06 	br	471a4 <_dtoa_r+0xefc>
   47974:	d8800117 	ldw	r2,4(sp)
   47978:	108000c8 	cmpgei	r2,r2,3
   4797c:	103e401e 	bne	r2,zero,47280 <_dtoa_r+0xfd8>
   47980:	d8800b17 	ldw	r2,44(sp)
   47984:	dcc00315 	stw	r19,12(sp)
   47988:	d8800415 	stw	r2,16(sp)
   4798c:	04bdaf0e 	bge	zero,r18,4704c <_dtoa_r+0xda4>
   47990:	003e5806 	br	472f4 <_dtoa_r+0x104c>
   47994:	04000084 	movi	r16,2
   47998:	003b4406 	br	466ac <_dtoa_r+0x404>
   4799c:	01c00174 	movhi	r7,5
   479a0:	01000174 	movhi	r4,5
   479a4:	39cd5304 	addi	r7,r7,13644
   479a8:	000d883a 	mov	r6,zero
   479ac:	01406a84 	movi	r5,426
   479b0:	210d5804 	addi	r4,r4,13664
   479b4:	004a3440 	call	4a344 <__assert_func>
   479b8:	01c00174 	movhi	r7,5
   479bc:	01000174 	movhi	r4,5
   479c0:	39cd5304 	addi	r7,r7,13644
   479c4:	000d883a 	mov	r6,zero
   479c8:	0140ba84 	movi	r5,746
   479cc:	210d5804 	addi	r4,r4,13664
   479d0:	004a3440 	call	4a344 <__assert_func>
   479d4:	e70d5004 	addi	fp,fp,13632
   479d8:	003a6406 	br	4636c <_dtoa_r+0xc4>
   479dc:	18c00120 	cmpeqi	r3,r3,4
   479e0:	183cd51e 	bne	r3,zero,46d38 <_dtoa_r+0xa90>
   479e4:	00c00f04 	movi	r3,60
   479e8:	1885c83a 	sub	r2,r3,r2
   479ec:	003d6c06 	br	46fa0 <_dtoa_r+0xcf8>
   479f0:	000b883a 	mov	r5,zero
   479f4:	003af006 	br	465b8 <_dtoa_r+0x310>

000479f8 <_malloc_trim_r>:
   479f8:	defffb04 	addi	sp,sp,-20
   479fc:	dcc00315 	stw	r19,12(sp)
   47a00:	04c00174 	movhi	r19,5
   47a04:	dc800215 	stw	r18,8(sp)
   47a08:	dc400115 	stw	r17,4(sp)
   47a0c:	dc000015 	stw	r16,0(sp)
   47a10:	dfc00415 	stw	ra,16(sp)
   47a14:	2821883a 	mov	r16,r5
   47a18:	9cce8d04 	addi	r19,r19,14900
   47a1c:	2025883a 	mov	r18,r4
   47a20:	00511640 	call	51164 <__malloc_lock>
   47a24:	98800217 	ldw	r2,8(r19)
   47a28:	14400117 	ldw	r17,4(r2)
   47a2c:	00bfff04 	movi	r2,-4
   47a30:	88a2703a 	and	r17,r17,r2
   47a34:	8c21c83a 	sub	r16,r17,r16
   47a38:	8403fbc4 	addi	r16,r16,4079
   47a3c:	8020d33a 	srli	r16,r16,12
   47a40:	843fffc4 	addi	r16,r16,-1
   47a44:	8020933a 	slli	r16,r16,12
   47a48:	80840008 	cmpgei	r2,r16,4096
   47a4c:	10000626 	beq	r2,zero,47a68 <_malloc_trim_r+0x70>
   47a50:	000b883a 	mov	r5,zero
   47a54:	9009883a 	mov	r4,r18
   47a58:	00439c00 	call	439c0 <_sbrk_r>
   47a5c:	98c00217 	ldw	r3,8(r19)
   47a60:	1c47883a 	add	r3,r3,r17
   47a64:	10c00a26 	beq	r2,r3,47a90 <_malloc_trim_r+0x98>
   47a68:	9009883a 	mov	r4,r18
   47a6c:	00511880 	call	51188 <__malloc_unlock>
   47a70:	0005883a 	mov	r2,zero
   47a74:	dfc00417 	ldw	ra,16(sp)
   47a78:	dcc00317 	ldw	r19,12(sp)
   47a7c:	dc800217 	ldw	r18,8(sp)
   47a80:	dc400117 	ldw	r17,4(sp)
   47a84:	dc000017 	ldw	r16,0(sp)
   47a88:	dec00504 	addi	sp,sp,20
   47a8c:	f800283a 	ret
   47a90:	040bc83a 	sub	r5,zero,r16
   47a94:	9009883a 	mov	r4,r18
   47a98:	00439c00 	call	439c0 <_sbrk_r>
   47a9c:	10bfffd8 	cmpnei	r2,r2,-1
   47aa0:	10000d26 	beq	r2,zero,47ad8 <_malloc_trim_r+0xe0>
   47aa4:	00800174 	movhi	r2,5
   47aa8:	109ca417 	ldw	r2,29328(r2)
   47aac:	98c00217 	ldw	r3,8(r19)
   47ab0:	8c23c83a 	sub	r17,r17,r16
   47ab4:	8c400054 	ori	r17,r17,1
   47ab8:	1421c83a 	sub	r16,r2,r16
   47abc:	1c400115 	stw	r17,4(r3)
   47ac0:	00800174 	movhi	r2,5
   47ac4:	9009883a 	mov	r4,r18
   47ac8:	141ca415 	stw	r16,29328(r2)
   47acc:	00511880 	call	51188 <__malloc_unlock>
   47ad0:	00800044 	movi	r2,1
   47ad4:	003fe706 	br	47a74 <_malloc_trim_r+0x7c>
   47ad8:	000b883a 	mov	r5,zero
   47adc:	9009883a 	mov	r4,r18
   47ae0:	00439c00 	call	439c0 <_sbrk_r>
   47ae4:	99000217 	ldw	r4,8(r19)
   47ae8:	1107c83a 	sub	r3,r2,r4
   47aec:	19400410 	cmplti	r5,r3,16
   47af0:	283fdd1e 	bne	r5,zero,47a68 <_malloc_trim_r+0x70>
   47af4:	01400174 	movhi	r5,5
   47af8:	29558017 	ldw	r5,22016(r5)
   47afc:	18c00054 	ori	r3,r3,1
   47b00:	20c00115 	stw	r3,4(r4)
   47b04:	1145c83a 	sub	r2,r2,r5
   47b08:	01400174 	movhi	r5,5
   47b0c:	289ca415 	stw	r2,29328(r5)
   47b10:	003fd506 	br	47a68 <_malloc_trim_r+0x70>

00047b14 <_free_r>:
   47b14:	28004f26 	beq	r5,zero,47c54 <_free_r+0x140>
   47b18:	defffd04 	addi	sp,sp,-12
   47b1c:	dc400115 	stw	r17,4(sp)
   47b20:	dc000015 	stw	r16,0(sp)
   47b24:	2023883a 	mov	r17,r4
   47b28:	2821883a 	mov	r16,r5
   47b2c:	dfc00215 	stw	ra,8(sp)
   47b30:	00511640 	call	51164 <__malloc_lock>
   47b34:	81ffff17 	ldw	r7,-4(r16)
   47b38:	00bfff84 	movi	r2,-2
   47b3c:	80fffe04 	addi	r3,r16,-8
   47b40:	3884703a 	and	r2,r7,r2
   47b44:	01000174 	movhi	r4,5
   47b48:	188d883a 	add	r6,r3,r2
   47b4c:	210e8d04 	addi	r4,r4,14900
   47b50:	31400117 	ldw	r5,4(r6)
   47b54:	22000217 	ldw	r8,8(r4)
   47b58:	027fff04 	movi	r9,-4
   47b5c:	2a4a703a 	and	r5,r5,r9
   47b60:	41806426 	beq	r8,r6,47cf4 <_free_r+0x1e0>
   47b64:	31400115 	stw	r5,4(r6)
   47b68:	39c0004c 	andi	r7,r7,1
   47b6c:	3151883a 	add	r8,r6,r5
   47b70:	3800281e 	bne	r7,zero,47c14 <_free_r+0x100>
   47b74:	82bffe17 	ldw	r10,-8(r16)
   47b78:	42000117 	ldw	r8,4(r8)
   47b7c:	01c00174 	movhi	r7,5
   47b80:	1a87c83a 	sub	r3,r3,r10
   47b84:	1a400217 	ldw	r9,8(r3)
   47b88:	39ce8f04 	addi	r7,r7,14908
   47b8c:	1285883a 	add	r2,r2,r10
   47b90:	4200004c 	andi	r8,r8,1
   47b94:	49c04c26 	beq	r9,r7,47cc8 <_free_r+0x1b4>
   47b98:	1a800317 	ldw	r10,12(r3)
   47b9c:	4a800315 	stw	r10,12(r9)
   47ba0:	52400215 	stw	r9,8(r10)
   47ba4:	40007126 	beq	r8,zero,47d6c <_free_r+0x258>
   47ba8:	11400054 	ori	r5,r2,1
   47bac:	19400115 	stw	r5,4(r3)
   47bb0:	30800015 	stw	r2,0(r6)
   47bb4:	11408028 	cmpgeui	r5,r2,512
   47bb8:	28002c1e 	bne	r5,zero,47c6c <_free_r+0x158>
   47bbc:	100ad0fa 	srli	r5,r2,3
   47bc0:	100cd17a 	srli	r6,r2,5
   47bc4:	00800044 	movi	r2,1
   47bc8:	29400044 	addi	r5,r5,1
   47bcc:	280a90fa 	slli	r5,r5,3
   47bd0:	21c00117 	ldw	r7,4(r4)
   47bd4:	1184983a 	sll	r2,r2,r6
   47bd8:	214b883a 	add	r5,r4,r5
   47bdc:	29800017 	ldw	r6,0(r5)
   47be0:	11c4b03a 	or	r2,r2,r7
   47be4:	29fffe04 	addi	r7,r5,-8
   47be8:	19c00315 	stw	r7,12(r3)
   47bec:	19800215 	stw	r6,8(r3)
   47bf0:	20800115 	stw	r2,4(r4)
   47bf4:	28c00015 	stw	r3,0(r5)
   47bf8:	30c00315 	stw	r3,12(r6)
   47bfc:	8809883a 	mov	r4,r17
   47c00:	dfc00217 	ldw	ra,8(sp)
   47c04:	dc400117 	ldw	r17,4(sp)
   47c08:	dc000017 	ldw	r16,0(sp)
   47c0c:	dec00304 	addi	sp,sp,12
   47c10:	00511881 	jmpi	51188 <__malloc_unlock>
   47c14:	41c00117 	ldw	r7,4(r8)
   47c18:	39c0004c 	andi	r7,r7,1
   47c1c:	38000e1e 	bne	r7,zero,47c58 <_free_r+0x144>
   47c20:	01c00174 	movhi	r7,5
   47c24:	1145883a 	add	r2,r2,r5
   47c28:	39ce8f04 	addi	r7,r7,14908
   47c2c:	31400217 	ldw	r5,8(r6)
   47c30:	12400054 	ori	r9,r2,1
   47c34:	1891883a 	add	r8,r3,r2
   47c38:	29c05226 	beq	r5,r7,47d84 <_free_r+0x270>
   47c3c:	31800317 	ldw	r6,12(r6)
   47c40:	29800315 	stw	r6,12(r5)
   47c44:	31400215 	stw	r5,8(r6)
   47c48:	1a400115 	stw	r9,4(r3)
   47c4c:	40800015 	stw	r2,0(r8)
   47c50:	003fd806 	br	47bb4 <_free_r+0xa0>
   47c54:	f800283a 	ret
   47c58:	11400054 	ori	r5,r2,1
   47c5c:	817fff15 	stw	r5,-4(r16)
   47c60:	30800015 	stw	r2,0(r6)
   47c64:	11408028 	cmpgeui	r5,r2,512
   47c68:	283fd426 	beq	r5,zero,47bbc <_free_r+0xa8>
   47c6c:	100ad27a 	srli	r5,r2,9
   47c70:	29800168 	cmpgeui	r6,r5,5
   47c74:	3000341e 	bne	r6,zero,47d48 <_free_r+0x234>
   47c78:	100ad1ba 	srli	r5,r2,6
   47c7c:	29800e44 	addi	r6,r5,57
   47c80:	300c90fa 	slli	r6,r6,3
   47c84:	29c00e04 	addi	r7,r5,56
   47c88:	218d883a 	add	r6,r4,r6
   47c8c:	31400017 	ldw	r5,0(r6)
   47c90:	31bffe04 	addi	r6,r6,-8
   47c94:	31404226 	beq	r6,r5,47da0 <_free_r+0x28c>
   47c98:	01ffff04 	movi	r7,-4
   47c9c:	29000117 	ldw	r4,4(r5)
   47ca0:	21c8703a 	and	r4,r4,r7
   47ca4:	1100022e 	bgeu	r2,r4,47cb0 <_free_r+0x19c>
   47ca8:	29400217 	ldw	r5,8(r5)
   47cac:	317ffb1e 	bne	r6,r5,47c9c <_free_r+0x188>
   47cb0:	29800317 	ldw	r6,12(r5)
   47cb4:	19800315 	stw	r6,12(r3)
   47cb8:	19400215 	stw	r5,8(r3)
   47cbc:	30c00215 	stw	r3,8(r6)
   47cc0:	28c00315 	stw	r3,12(r5)
   47cc4:	003fcd06 	br	47bfc <_free_r+0xe8>
   47cc8:	40004d1e 	bne	r8,zero,47e00 <_free_r+0x2ec>
   47ccc:	31000317 	ldw	r4,12(r6)
   47cd0:	31800217 	ldw	r6,8(r6)
   47cd4:	2885883a 	add	r2,r5,r2
   47cd8:	11400054 	ori	r5,r2,1
   47cdc:	31000315 	stw	r4,12(r6)
   47ce0:	21800215 	stw	r6,8(r4)
   47ce4:	19400115 	stw	r5,4(r3)
   47ce8:	1887883a 	add	r3,r3,r2
   47cec:	18800015 	stw	r2,0(r3)
   47cf0:	003fc206 	br	47bfc <_free_r+0xe8>
   47cf4:	39c0004c 	andi	r7,r7,1
   47cf8:	1145883a 	add	r2,r2,r5
   47cfc:	3800071e 	bne	r7,zero,47d1c <_free_r+0x208>
   47d00:	81fffe17 	ldw	r7,-8(r16)
   47d04:	19c7c83a 	sub	r3,r3,r7
   47d08:	19400317 	ldw	r5,12(r3)
   47d0c:	19800217 	ldw	r6,8(r3)
   47d10:	11c5883a 	add	r2,r2,r7
   47d14:	31400315 	stw	r5,12(r6)
   47d18:	29800215 	stw	r6,8(r5)
   47d1c:	01400174 	movhi	r5,5
   47d20:	11800054 	ori	r6,r2,1
   47d24:	29558117 	ldw	r5,22020(r5)
   47d28:	19800115 	stw	r6,4(r3)
   47d2c:	20c00215 	stw	r3,8(r4)
   47d30:	117fb236 	bltu	r2,r5,47bfc <_free_r+0xe8>
   47d34:	00800174 	movhi	r2,5
   47d38:	115c9617 	ldw	r5,29272(r2)
   47d3c:	8809883a 	mov	r4,r17
   47d40:	00479f80 	call	479f8 <_malloc_trim_r>
   47d44:	003fad06 	br	47bfc <_free_r+0xe8>
   47d48:	29800568 	cmpgeui	r6,r5,21
   47d4c:	30000926 	beq	r6,zero,47d74 <_free_r+0x260>
   47d50:	29801568 	cmpgeui	r6,r5,85
   47d54:	3000191e 	bne	r6,zero,47dbc <_free_r+0x2a8>
   47d58:	100ad33a 	srli	r5,r2,12
   47d5c:	29801bc4 	addi	r6,r5,111
   47d60:	300c90fa 	slli	r6,r6,3
   47d64:	29c01b84 	addi	r7,r5,110
   47d68:	003fc706 	br	47c88 <_free_r+0x174>
   47d6c:	1145883a 	add	r2,r2,r5
   47d70:	003fae06 	br	47c2c <_free_r+0x118>
   47d74:	29801704 	addi	r6,r5,92
   47d78:	300c90fa 	slli	r6,r6,3
   47d7c:	29c016c4 	addi	r7,r5,91
   47d80:	003fc106 	br	47c88 <_free_r+0x174>
   47d84:	20c00515 	stw	r3,20(r4)
   47d88:	20c00415 	stw	r3,16(r4)
   47d8c:	19c00315 	stw	r7,12(r3)
   47d90:	19c00215 	stw	r7,8(r3)
   47d94:	1a400115 	stw	r9,4(r3)
   47d98:	40800015 	stw	r2,0(r8)
   47d9c:	003f9706 	br	47bfc <_free_r+0xe8>
   47da0:	380fd0ba 	srai	r7,r7,2
   47da4:	00800044 	movi	r2,1
   47da8:	22000117 	ldw	r8,4(r4)
   47dac:	11ce983a 	sll	r7,r2,r7
   47db0:	3a0eb03a 	or	r7,r7,r8
   47db4:	21c00115 	stw	r7,4(r4)
   47db8:	003fbe06 	br	47cb4 <_free_r+0x1a0>
   47dbc:	29805568 	cmpgeui	r6,r5,341
   47dc0:	3000051e 	bne	r6,zero,47dd8 <_free_r+0x2c4>
   47dc4:	100ad3fa 	srli	r5,r2,15
   47dc8:	29801e04 	addi	r6,r5,120
   47dcc:	300c90fa 	slli	r6,r6,3
   47dd0:	29c01dc4 	addi	r7,r5,119
   47dd4:	003fac06 	br	47c88 <_free_r+0x174>
   47dd8:	29415568 	cmpgeui	r5,r5,1365
   47ddc:	2800051e 	bne	r5,zero,47df4 <_free_r+0x2e0>
   47de0:	100ad4ba 	srli	r5,r2,18
   47de4:	29801f44 	addi	r6,r5,125
   47de8:	300c90fa 	slli	r6,r6,3
   47dec:	29c01f04 	addi	r7,r5,124
   47df0:	003fa506 	br	47c88 <_free_r+0x174>
   47df4:	0180fe04 	movi	r6,1016
   47df8:	01c01f84 	movi	r7,126
   47dfc:	003fa206 	br	47c88 <_free_r+0x174>
   47e00:	11000054 	ori	r4,r2,1
   47e04:	19000115 	stw	r4,4(r3)
   47e08:	30800015 	stw	r2,0(r6)
   47e0c:	003f7b06 	br	47bfc <_free_r+0xe8>

00047e10 <__localeconv_l>:
   47e10:	20803c04 	addi	r2,r4,240
   47e14:	f800283a 	ret

00047e18 <_localeconv_r>:
   47e18:	00800174 	movhi	r2,5
   47e1c:	1090d404 	addi	r2,r2,17232
   47e20:	f800283a 	ret

00047e24 <localeconv>:
   47e24:	00800174 	movhi	r2,5
   47e28:	1090d404 	addi	r2,r2,17232
   47e2c:	f800283a 	ret

00047e30 <memchr>:
   47e30:	208000cc 	andi	r2,r4,3
   47e34:	280f883a 	mov	r7,r5
   47e38:	10000e26 	beq	r2,zero,47e74 <memchr+0x44>
   47e3c:	30bfffc4 	addi	r2,r6,-1
   47e40:	30001726 	beq	r6,zero,47ea0 <memchr+0x70>
   47e44:	29803fcc 	andi	r6,r5,255
   47e48:	00000606 	br	47e64 <memchr+0x34>
   47e4c:	21000044 	addi	r4,r4,1
   47e50:	20c000cc 	andi	r3,r4,3
   47e54:	18000826 	beq	r3,zero,47e78 <memchr+0x48>
   47e58:	10bfffc4 	addi	r2,r2,-1
   47e5c:	10ffffe0 	cmpeqi	r3,r2,-1
   47e60:	18000f1e 	bne	r3,zero,47ea0 <memchr+0x70>
   47e64:	20c00003 	ldbu	r3,0(r4)
   47e68:	19bff81e 	bne	r3,r6,47e4c <memchr+0x1c>
   47e6c:	2005883a 	mov	r2,r4
   47e70:	f800283a 	ret
   47e74:	3005883a 	mov	r2,r6
   47e78:	10c00128 	cmpgeui	r3,r2,4
   47e7c:	18000a1e 	bne	r3,zero,47ea8 <memchr+0x78>
   47e80:	10001f26 	beq	r2,zero,47f00 <memchr+0xd0>
   47e84:	2087883a 	add	r3,r4,r2
   47e88:	39803fcc 	andi	r6,r7,255
   47e8c:	2005883a 	mov	r2,r4
   47e90:	11000003 	ldbu	r4,0(r2)
   47e94:	21bff626 	beq	r4,r6,47e70 <memchr+0x40>
   47e98:	10800044 	addi	r2,r2,1
   47e9c:	18bffc1e 	bne	r3,r2,47e90 <memchr+0x60>
   47ea0:	0005883a 	mov	r2,zero
   47ea4:	f800283a 	ret
   47ea8:	2810923a 	slli	r8,r5,8
   47eac:	29403fcc 	andi	r5,r5,255
   47eb0:	027fbff4 	movhi	r9,65279
   47eb4:	423fffcc 	andi	r8,r8,65535
   47eb8:	414ab03a 	or	r5,r8,r5
   47ebc:	2810943a 	slli	r8,r5,16
   47ec0:	01a02074 	movhi	r6,32897
   47ec4:	4a7fbfc4 	addi	r9,r9,-257
   47ec8:	4150b03a 	or	r8,r8,r5
   47ecc:	31a02004 	addi	r6,r6,-32640
   47ed0:	20c00017 	ldw	r3,0(r4)
   47ed4:	40c6f03a 	xor	r3,r8,r3
   47ed8:	1a4b883a 	add	r5,r3,r9
   47edc:	00c6303a 	nor	r3,zero,r3
   47ee0:	28c6703a 	and	r3,r5,r3
   47ee4:	1986703a 	and	r3,r3,r6
   47ee8:	183fe61e 	bne	r3,zero,47e84 <memchr+0x54>
   47eec:	10bfff04 	addi	r2,r2,-4
   47ef0:	10c00128 	cmpgeui	r3,r2,4
   47ef4:	21000104 	addi	r4,r4,4
   47ef8:	183ff51e 	bne	r3,zero,47ed0 <memchr+0xa0>
   47efc:	003fe006 	br	47e80 <memchr+0x50>
   47f00:	f800283a 	ret

00047f04 <memcpy>:
   47f04:	30c00430 	cmpltui	r3,r6,16
   47f08:	2005883a 	mov	r2,r4
   47f0c:	18002d1e 	bne	r3,zero,47fc4 <memcpy+0xc0>
   47f10:	2906b03a 	or	r3,r5,r4
   47f14:	18c000cc 	andi	r3,r3,3
   47f18:	1800351e 	bne	r3,zero,47ff0 <memcpy+0xec>
   47f1c:	32fffc04 	addi	r11,r6,-16
   47f20:	5816d13a 	srli	r11,r11,4
   47f24:	280f883a 	mov	r7,r5
   47f28:	2007883a 	mov	r3,r4
   47f2c:	5ac00044 	addi	r11,r11,1
   47f30:	5816913a 	slli	r11,r11,4
   47f34:	22d5883a 	add	r10,r4,r11
   47f38:	39000117 	ldw	r4,4(r7)
   47f3c:	3a400017 	ldw	r9,0(r7)
   47f40:	3a000217 	ldw	r8,8(r7)
   47f44:	19000115 	stw	r4,4(r3)
   47f48:	39000317 	ldw	r4,12(r7)
   47f4c:	1a400015 	stw	r9,0(r3)
   47f50:	1a000215 	stw	r8,8(r3)
   47f54:	19000315 	stw	r4,12(r3)
   47f58:	18c00404 	addi	r3,r3,16
   47f5c:	39c00404 	addi	r7,r7,16
   47f60:	50fff51e 	bne	r10,r3,47f38 <memcpy+0x34>
   47f64:	3100030c 	andi	r4,r6,12
   47f68:	2acb883a 	add	r5,r5,r11
   47f6c:	320003cc 	andi	r8,r6,15
   47f70:	20002226 	beq	r4,zero,47ffc <memcpy+0xf8>
   47f74:	280f883a 	mov	r7,r5
   47f78:	1813883a 	mov	r9,r3
   47f7c:	39c00104 	addi	r7,r7,4
   47f80:	3abfff17 	ldw	r10,-4(r7)
   47f84:	41c9c83a 	sub	r4,r8,r7
   47f88:	2909883a 	add	r4,r5,r4
   47f8c:	4a800015 	stw	r10,0(r9)
   47f90:	21000128 	cmpgeui	r4,r4,4
   47f94:	4a400104 	addi	r9,r9,4
   47f98:	203ff81e 	bne	r4,zero,47f7c <memcpy+0x78>
   47f9c:	413fff04 	addi	r4,r8,-4
   47fa0:	2008d0ba 	srli	r4,r4,2
   47fa4:	318000cc 	andi	r6,r6,3
   47fa8:	31ffffc4 	addi	r7,r6,-1
   47fac:	21000044 	addi	r4,r4,1
   47fb0:	200890ba 	slli	r4,r4,2
   47fb4:	1907883a 	add	r3,r3,r4
   47fb8:	290b883a 	add	r5,r5,r4
   47fbc:	3000041e 	bne	r6,zero,47fd0 <memcpy+0xcc>
   47fc0:	f800283a 	ret
   47fc4:	2007883a 	mov	r3,r4
   47fc8:	31ffffc4 	addi	r7,r6,-1
   47fcc:	303ffc26 	beq	r6,zero,47fc0 <memcpy+0xbc>
   47fd0:	39c00044 	addi	r7,r7,1
   47fd4:	19cf883a 	add	r7,r3,r7
   47fd8:	29800003 	ldbu	r6,0(r5)
   47fdc:	18c00044 	addi	r3,r3,1
   47fe0:	29400044 	addi	r5,r5,1
   47fe4:	19bfffc5 	stb	r6,-1(r3)
   47fe8:	38fffb1e 	bne	r7,r3,47fd8 <memcpy+0xd4>
   47fec:	f800283a 	ret
   47ff0:	31ffffc4 	addi	r7,r6,-1
   47ff4:	2007883a 	mov	r3,r4
   47ff8:	003ff506 	br	47fd0 <memcpy+0xcc>
   47ffc:	400d883a 	mov	r6,r8
   48000:	003ff106 	br	47fc8 <memcpy+0xc4>

00048004 <_Balloc>:
   48004:	20801317 	ldw	r2,76(r4)
   48008:	defffc04 	addi	sp,sp,-16
   4800c:	dc400115 	stw	r17,4(sp)
   48010:	dc000015 	stw	r16,0(sp)
   48014:	dfc00315 	stw	ra,12(sp)
   48018:	dc800215 	stw	r18,8(sp)
   4801c:	2021883a 	mov	r16,r4
   48020:	2823883a 	mov	r17,r5
   48024:	10000e26 	beq	r2,zero,48060 <_Balloc+0x5c>
   48028:	880690ba 	slli	r3,r17,2
   4802c:	10c7883a 	add	r3,r2,r3
   48030:	18800017 	ldw	r2,0(r3)
   48034:	10001126 	beq	r2,zero,4807c <_Balloc+0x78>
   48038:	11000017 	ldw	r4,0(r2)
   4803c:	19000015 	stw	r4,0(r3)
   48040:	10000415 	stw	zero,16(r2)
   48044:	10000315 	stw	zero,12(r2)
   48048:	dfc00317 	ldw	ra,12(sp)
   4804c:	dc800217 	ldw	r18,8(sp)
   48050:	dc400117 	ldw	r17,4(sp)
   48054:	dc000017 	ldw	r16,0(sp)
   48058:	dec00404 	addi	sp,sp,16
   4805c:	f800283a 	ret
   48060:	01800844 	movi	r6,33
   48064:	01400104 	movi	r5,4
   48068:	004a3bc0 	call	4a3bc <_calloc_r>
   4806c:	80801315 	stw	r2,76(r16)
   48070:	103fed1e 	bne	r2,zero,48028 <_Balloc+0x24>
   48074:	0005883a 	mov	r2,zero
   48078:	003ff306 	br	48048 <_Balloc+0x44>
   4807c:	04800044 	movi	r18,1
   48080:	9464983a 	sll	r18,r18,r17
   48084:	01400044 	movi	r5,1
   48088:	8009883a 	mov	r4,r16
   4808c:	91800144 	addi	r6,r18,5
   48090:	300c90ba 	slli	r6,r6,2
   48094:	004a3bc0 	call	4a3bc <_calloc_r>
   48098:	103ff626 	beq	r2,zero,48074 <_Balloc+0x70>
   4809c:	14400115 	stw	r17,4(r2)
   480a0:	14800215 	stw	r18,8(r2)
   480a4:	003fe606 	br	48040 <_Balloc+0x3c>

000480a8 <_Bfree>:
   480a8:	28000726 	beq	r5,zero,480c8 <_Bfree+0x20>
   480ac:	28c00117 	ldw	r3,4(r5)
   480b0:	20801317 	ldw	r2,76(r4)
   480b4:	180690ba 	slli	r3,r3,2
   480b8:	10c5883a 	add	r2,r2,r3
   480bc:	10c00017 	ldw	r3,0(r2)
   480c0:	28c00015 	stw	r3,0(r5)
   480c4:	11400015 	stw	r5,0(r2)
   480c8:	f800283a 	ret

000480cc <__multadd>:
   480cc:	defffa04 	addi	sp,sp,-24
   480d0:	dc400115 	stw	r17,4(sp)
   480d4:	2c400417 	ldw	r17,16(r5)
   480d8:	dcc00315 	stw	r19,12(sp)
   480dc:	dc800215 	stw	r18,8(sp)
   480e0:	dc000015 	stw	r16,0(sp)
   480e4:	dfc00515 	stw	ra,20(sp)
   480e8:	dd000415 	stw	r20,16(sp)
   480ec:	2825883a 	mov	r18,r5
   480f0:	2027883a 	mov	r19,r4
   480f4:	3821883a 	mov	r16,r7
   480f8:	2a000504 	addi	r8,r5,20
   480fc:	0013883a 	mov	r9,zero
   48100:	40800017 	ldw	r2,0(r8)
   48104:	42000104 	addi	r8,r8,4
   48108:	4a400044 	addi	r9,r9,1
   4810c:	10ffffcc 	andi	r3,r2,65535
   48110:	1987383a 	mul	r3,r3,r6
   48114:	100ed43a 	srli	r7,r2,16
   48118:	1c05883a 	add	r2,r3,r16
   4811c:	1006d43a 	srli	r3,r2,16
   48120:	398f383a 	mul	r7,r7,r6
   48124:	10bfffcc 	andi	r2,r2,65535
   48128:	38cf883a 	add	r7,r7,r3
   4812c:	3806943a 	slli	r3,r7,16
   48130:	3820d43a 	srli	r16,r7,16
   48134:	1885883a 	add	r2,r3,r2
   48138:	40bfff15 	stw	r2,-4(r8)
   4813c:	4c7ff016 	blt	r9,r17,48100 <__multadd+0x34>
   48140:	80000826 	beq	r16,zero,48164 <__multadd+0x98>
   48144:	90800217 	ldw	r2,8(r18)
   48148:	88800f0e 	bge	r17,r2,48188 <__multadd+0xbc>
   4814c:	88800144 	addi	r2,r17,5
   48150:	100490ba 	slli	r2,r2,2
   48154:	8c400044 	addi	r17,r17,1
   48158:	9085883a 	add	r2,r18,r2
   4815c:	14000015 	stw	r16,0(r2)
   48160:	94400415 	stw	r17,16(r18)
   48164:	9005883a 	mov	r2,r18
   48168:	dfc00517 	ldw	ra,20(sp)
   4816c:	dd000417 	ldw	r20,16(sp)
   48170:	dcc00317 	ldw	r19,12(sp)
   48174:	dc800217 	ldw	r18,8(sp)
   48178:	dc400117 	ldw	r17,4(sp)
   4817c:	dc000017 	ldw	r16,0(sp)
   48180:	dec00604 	addi	sp,sp,24
   48184:	f800283a 	ret
   48188:	91400117 	ldw	r5,4(r18)
   4818c:	9809883a 	mov	r4,r19
   48190:	29400044 	addi	r5,r5,1
   48194:	00480040 	call	48004 <_Balloc>
   48198:	1029883a 	mov	r20,r2
   4819c:	10001226 	beq	r2,zero,481e8 <__multadd+0x11c>
   481a0:	91800417 	ldw	r6,16(r18)
   481a4:	91400304 	addi	r5,r18,12
   481a8:	11000304 	addi	r4,r2,12
   481ac:	31800084 	addi	r6,r6,2
   481b0:	300c90ba 	slli	r6,r6,2
   481b4:	0047f040 	call	47f04 <memcpy>
   481b8:	90000926 	beq	r18,zero,481e0 <__multadd+0x114>
   481bc:	90c00117 	ldw	r3,4(r18)
   481c0:	98801317 	ldw	r2,76(r19)
   481c4:	180690ba 	slli	r3,r3,2
   481c8:	10c5883a 	add	r2,r2,r3
   481cc:	10c00017 	ldw	r3,0(r2)
   481d0:	90c00015 	stw	r3,0(r18)
   481d4:	14800015 	stw	r18,0(r2)
   481d8:	a025883a 	mov	r18,r20
   481dc:	003fdb06 	br	4814c <__multadd+0x80>
   481e0:	a025883a 	mov	r18,r20
   481e4:	003fd906 	br	4814c <__multadd+0x80>
   481e8:	01c00174 	movhi	r7,5
   481ec:	01000174 	movhi	r4,5
   481f0:	39cd5304 	addi	r7,r7,13644
   481f4:	000d883a 	mov	r6,zero
   481f8:	01402d44 	movi	r5,181
   481fc:	210d6704 	addi	r4,r4,13724
   48200:	004a3440 	call	4a344 <__assert_func>

00048204 <__s2b>:
   48204:	defff904 	addi	sp,sp,-28
   48208:	dc800215 	stw	r18,8(sp)
   4820c:	dc000015 	stw	r16,0(sp)
   48210:	2025883a 	mov	r18,r4
   48214:	2821883a 	mov	r16,r5
   48218:	39000204 	addi	r4,r7,8
   4821c:	01400244 	movi	r5,9
   48220:	dcc00315 	stw	r19,12(sp)
   48224:	dc400115 	stw	r17,4(sp)
   48228:	dfc00615 	stw	ra,24(sp)
   4822c:	3823883a 	mov	r17,r7
   48230:	dd400515 	stw	r21,20(sp)
   48234:	dd000415 	stw	r20,16(sp)
   48238:	3027883a 	mov	r19,r6
   4823c:	00427600 	call	42760 <__divsi3>
   48240:	88c00290 	cmplti	r3,r17,10
   48244:	1800341e 	bne	r3,zero,48318 <__s2b+0x114>
   48248:	00c00044 	movi	r3,1
   4824c:	000b883a 	mov	r5,zero
   48250:	18c7883a 	add	r3,r3,r3
   48254:	29400044 	addi	r5,r5,1
   48258:	18bffd16 	blt	r3,r2,48250 <__s2b+0x4c>
   4825c:	9009883a 	mov	r4,r18
   48260:	00480040 	call	48004 <_Balloc>
   48264:	100b883a 	mov	r5,r2
   48268:	10002d26 	beq	r2,zero,48320 <__s2b+0x11c>
   4826c:	d8800717 	ldw	r2,28(sp)
   48270:	28800515 	stw	r2,20(r5)
   48274:	00800044 	movi	r2,1
   48278:	28800415 	stw	r2,16(r5)
   4827c:	98800290 	cmplti	r2,r19,10
   48280:	1000221e 	bne	r2,zero,4830c <__s2b+0x108>
   48284:	85400244 	addi	r21,r16,9
   48288:	a829883a 	mov	r20,r21
   4828c:	84e1883a 	add	r16,r16,r19
   48290:	a1c00007 	ldb	r7,0(r20)
   48294:	01800284 	movi	r6,10
   48298:	9009883a 	mov	r4,r18
   4829c:	39fff404 	addi	r7,r7,-48
   482a0:	00480cc0 	call	480cc <__multadd>
   482a4:	a5000044 	addi	r20,r20,1
   482a8:	100b883a 	mov	r5,r2
   482ac:	a43ff81e 	bne	r20,r16,48290 <__s2b+0x8c>
   482b0:	9c3ffe04 	addi	r16,r19,-8
   482b4:	ac21883a 	add	r16,r21,r16
   482b8:	9c400a0e 	bge	r19,r17,482e4 <__s2b+0xe0>
   482bc:	8ce3c83a 	sub	r17,r17,r19
   482c0:	8463883a 	add	r17,r16,r17
   482c4:	81c00007 	ldb	r7,0(r16)
   482c8:	01800284 	movi	r6,10
   482cc:	9009883a 	mov	r4,r18
   482d0:	39fff404 	addi	r7,r7,-48
   482d4:	00480cc0 	call	480cc <__multadd>
   482d8:	84000044 	addi	r16,r16,1
   482dc:	100b883a 	mov	r5,r2
   482e0:	8c3ff81e 	bne	r17,r16,482c4 <__s2b+0xc0>
   482e4:	2805883a 	mov	r2,r5
   482e8:	dfc00617 	ldw	ra,24(sp)
   482ec:	dd400517 	ldw	r21,20(sp)
   482f0:	dd000417 	ldw	r20,16(sp)
   482f4:	dcc00317 	ldw	r19,12(sp)
   482f8:	dc800217 	ldw	r18,8(sp)
   482fc:	dc400117 	ldw	r17,4(sp)
   48300:	dc000017 	ldw	r16,0(sp)
   48304:	dec00704 	addi	sp,sp,28
   48308:	f800283a 	ret
   4830c:	84000284 	addi	r16,r16,10
   48310:	04c00244 	movi	r19,9
   48314:	003fe806 	br	482b8 <__s2b+0xb4>
   48318:	000b883a 	mov	r5,zero
   4831c:	003fcf06 	br	4825c <__s2b+0x58>
   48320:	01c00174 	movhi	r7,5
   48324:	01000174 	movhi	r4,5
   48328:	39cd5304 	addi	r7,r7,13644
   4832c:	000d883a 	mov	r6,zero
   48330:	01403384 	movi	r5,206
   48334:	210d6704 	addi	r4,r4,13724
   48338:	004a3440 	call	4a344 <__assert_func>

0004833c <__hi0bits>:
   4833c:	20bfffec 	andhi	r2,r4,65535
   48340:	1000131e 	bne	r2,zero,48390 <__hi0bits+0x54>
   48344:	2008943a 	slli	r4,r4,16
   48348:	00800404 	movi	r2,16
   4834c:	20ffc02c 	andhi	r3,r4,65280
   48350:	1800021e 	bne	r3,zero,4835c <__hi0bits+0x20>
   48354:	2008923a 	slli	r4,r4,8
   48358:	10800204 	addi	r2,r2,8
   4835c:	20fc002c 	andhi	r3,r4,61440
   48360:	1800021e 	bne	r3,zero,4836c <__hi0bits+0x30>
   48364:	2008913a 	slli	r4,r4,4
   48368:	10800104 	addi	r2,r2,4
   4836c:	20f0002c 	andhi	r3,r4,49152
   48370:	1800021e 	bne	r3,zero,4837c <__hi0bits+0x40>
   48374:	200890ba 	slli	r4,r4,2
   48378:	10800084 	addi	r2,r2,2
   4837c:	20000316 	blt	r4,zero,4838c <__hi0bits+0x50>
   48380:	2110002c 	andhi	r4,r4,16384
   48384:	10800044 	addi	r2,r2,1
   48388:	20000326 	beq	r4,zero,48398 <__hi0bits+0x5c>
   4838c:	f800283a 	ret
   48390:	0005883a 	mov	r2,zero
   48394:	003fed06 	br	4834c <__hi0bits+0x10>
   48398:	00800804 	movi	r2,32
   4839c:	f800283a 	ret

000483a0 <__lo0bits>:
   483a0:	20c00017 	ldw	r3,0(r4)
   483a4:	188001cc 	andi	r2,r3,7
   483a8:	10000826 	beq	r2,zero,483cc <__lo0bits+0x2c>
   483ac:	1880004c 	andi	r2,r3,1
   483b0:	10001f1e 	bne	r2,zero,48430 <__lo0bits+0x90>
   483b4:	1880008c 	andi	r2,r3,2
   483b8:	10002126 	beq	r2,zero,48440 <__lo0bits+0xa0>
   483bc:	1806d07a 	srli	r3,r3,1
   483c0:	00800044 	movi	r2,1
   483c4:	20c00015 	stw	r3,0(r4)
   483c8:	f800283a 	ret
   483cc:	18bfffcc 	andi	r2,r3,65535
   483d0:	10001426 	beq	r2,zero,48424 <__lo0bits+0x84>
   483d4:	0005883a 	mov	r2,zero
   483d8:	19403fcc 	andi	r5,r3,255
   483dc:	2800021e 	bne	r5,zero,483e8 <__lo0bits+0x48>
   483e0:	1806d23a 	srli	r3,r3,8
   483e4:	10800204 	addi	r2,r2,8
   483e8:	194003cc 	andi	r5,r3,15
   483ec:	2800021e 	bne	r5,zero,483f8 <__lo0bits+0x58>
   483f0:	1806d13a 	srli	r3,r3,4
   483f4:	10800104 	addi	r2,r2,4
   483f8:	194000cc 	andi	r5,r3,3
   483fc:	2800021e 	bne	r5,zero,48408 <__lo0bits+0x68>
   48400:	1806d0ba 	srli	r3,r3,2
   48404:	10800084 	addi	r2,r2,2
   48408:	1940004c 	andi	r5,r3,1
   4840c:	2800031e 	bne	r5,zero,4841c <__lo0bits+0x7c>
   48410:	1806d07a 	srli	r3,r3,1
   48414:	10800044 	addi	r2,r2,1
   48418:	18000726 	beq	r3,zero,48438 <__lo0bits+0x98>
   4841c:	20c00015 	stw	r3,0(r4)
   48420:	f800283a 	ret
   48424:	1806d43a 	srli	r3,r3,16
   48428:	00800404 	movi	r2,16
   4842c:	003fea06 	br	483d8 <__lo0bits+0x38>
   48430:	0005883a 	mov	r2,zero
   48434:	f800283a 	ret
   48438:	00800804 	movi	r2,32
   4843c:	f800283a 	ret
   48440:	1806d0ba 	srli	r3,r3,2
   48444:	00800084 	movi	r2,2
   48448:	20c00015 	stw	r3,0(r4)
   4844c:	f800283a 	ret

00048450 <__i2b>:
   48450:	defffe04 	addi	sp,sp,-8
   48454:	dc000015 	stw	r16,0(sp)
   48458:	2821883a 	mov	r16,r5
   4845c:	01400044 	movi	r5,1
   48460:	dfc00115 	stw	ra,4(sp)
   48464:	00480040 	call	48004 <_Balloc>
   48468:	10000726 	beq	r2,zero,48488 <__i2b+0x38>
   4846c:	01000044 	movi	r4,1
   48470:	14000515 	stw	r16,20(r2)
   48474:	11000415 	stw	r4,16(r2)
   48478:	dfc00117 	ldw	ra,4(sp)
   4847c:	dc000017 	ldw	r16,0(sp)
   48480:	dec00204 	addi	sp,sp,8
   48484:	f800283a 	ret
   48488:	01c00174 	movhi	r7,5
   4848c:	01000174 	movhi	r4,5
   48490:	39cd5304 	addi	r7,r7,13644
   48494:	000d883a 	mov	r6,zero
   48498:	01405004 	movi	r5,320
   4849c:	210d6704 	addi	r4,r4,13724
   484a0:	004a3440 	call	4a344 <__assert_func>

000484a4 <__multiply>:
   484a4:	defffa04 	addi	sp,sp,-24
   484a8:	dcc00315 	stw	r19,12(sp)
   484ac:	dc800215 	stw	r18,8(sp)
   484b0:	34c00417 	ldw	r19,16(r6)
   484b4:	2c800417 	ldw	r18,16(r5)
   484b8:	dd000415 	stw	r20,16(sp)
   484bc:	dc400115 	stw	r17,4(sp)
   484c0:	dfc00515 	stw	ra,20(sp)
   484c4:	dc000015 	stw	r16,0(sp)
   484c8:	2829883a 	mov	r20,r5
   484cc:	3023883a 	mov	r17,r6
   484d0:	94c00516 	blt	r18,r19,484e8 <__multiply+0x44>
   484d4:	9807883a 	mov	r3,r19
   484d8:	2823883a 	mov	r17,r5
   484dc:	9027883a 	mov	r19,r18
   484e0:	3029883a 	mov	r20,r6
   484e4:	1825883a 	mov	r18,r3
   484e8:	88800217 	ldw	r2,8(r17)
   484ec:	9ca1883a 	add	r16,r19,r18
   484f0:	89400117 	ldw	r5,4(r17)
   484f4:	1400010e 	bge	r2,r16,484fc <__multiply+0x58>
   484f8:	29400044 	addi	r5,r5,1
   484fc:	00480040 	call	48004 <_Balloc>
   48500:	10006d26 	beq	r2,zero,486b8 <__multiply+0x214>
   48504:	801290ba 	slli	r9,r16,2
   48508:	12800504 	addi	r10,r2,20
   4850c:	5007883a 	mov	r3,r10
   48510:	5253883a 	add	r9,r10,r9
   48514:	5240032e 	bgeu	r10,r9,48524 <__multiply+0x80>
   48518:	18000015 	stw	zero,0(r3)
   4851c:	18c00104 	addi	r3,r3,4
   48520:	1a7ffd36 	bltu	r3,r9,48518 <__multiply+0x74>
   48524:	901690ba 	slli	r11,r18,2
   48528:	980e90ba 	slli	r7,r19,2
   4852c:	a2000504 	addi	r8,r20,20
   48530:	8b000504 	addi	r12,r17,20
   48534:	42d7883a 	add	r11,r8,r11
   48538:	61cf883a 	add	r7,r12,r7
   4853c:	42c02e2e 	bgeu	r8,r11,485f8 <__multiply+0x154>
   48540:	88c00544 	addi	r3,r17,21
   48544:	38c03c36 	bltu	r7,r3,48638 <__multiply+0x194>
   48548:	3c4dc83a 	sub	r6,r7,r17
   4854c:	31bffac4 	addi	r6,r6,-21
   48550:	300cd0ba 	srli	r6,r6,2
   48554:	31800044 	addi	r6,r6,1
   48558:	300c90ba 	slli	r6,r6,2
   4855c:	00000306 	br	4856c <__multiply+0xc8>
   48560:	42000104 	addi	r8,r8,4
   48564:	52800104 	addi	r10,r10,4
   48568:	42c0232e 	bgeu	r8,r11,485f8 <__multiply+0x154>
   4856c:	43800017 	ldw	r14,0(r8)
   48570:	77ffffcc 	andi	ra,r14,65535
   48574:	f800341e 	bne	ra,zero,48648 <__multiply+0x1a4>
   48578:	701cd43a 	srli	r14,r14,16
   4857c:	703ff826 	beq	r14,zero,48560 <__multiply+0xbc>
   48580:	50c00017 	ldw	r3,0(r10)
   48584:	501f883a 	mov	r15,r10
   48588:	601b883a 	mov	r13,r12
   4858c:	183f883a 	mov	ra,r3
   48590:	0023883a 	mov	r17,zero
   48594:	6940000b 	ldhu	r5,0(r13)
   48598:	f824d43a 	srli	r18,ra,16
   4859c:	193fffcc 	andi	r4,r3,65535
   485a0:	2b8b383a 	mul	r5,r5,r14
   485a4:	6b400104 	addi	r13,r13,4
   485a8:	7fc00117 	ldw	ra,4(r15)
   485ac:	2c8b883a 	add	r5,r5,r18
   485b0:	2c4b883a 	add	r5,r5,r17
   485b4:	2806943a 	slli	r3,r5,16
   485b8:	280ad43a 	srli	r5,r5,16
   485bc:	fc7fffcc 	andi	r17,ra,65535
   485c0:	1908b03a 	or	r4,r3,r4
   485c4:	79000015 	stw	r4,0(r15)
   485c8:	68ffff8b 	ldhu	r3,-2(r13)
   485cc:	7bc00104 	addi	r15,r15,4
   485d0:	1b87383a 	mul	r3,r3,r14
   485d4:	1c47883a 	add	r3,r3,r17
   485d8:	1947883a 	add	r3,r3,r5
   485dc:	1822d43a 	srli	r17,r3,16
   485e0:	69ffec36 	bltu	r13,r7,48594 <__multiply+0xf0>
   485e4:	5189883a 	add	r4,r10,r6
   485e8:	20c00015 	stw	r3,0(r4)
   485ec:	42000104 	addi	r8,r8,4
   485f0:	52800104 	addi	r10,r10,4
   485f4:	42ffdd36 	bltu	r8,r11,4856c <__multiply+0xc8>
   485f8:	04000316 	blt	zero,r16,48608 <__multiply+0x164>
   485fc:	00000506 	br	48614 <__multiply+0x170>
   48600:	843fffc4 	addi	r16,r16,-1
   48604:	80000326 	beq	r16,zero,48614 <__multiply+0x170>
   48608:	48ffff17 	ldw	r3,-4(r9)
   4860c:	4a7fff04 	addi	r9,r9,-4
   48610:	183ffb26 	beq	r3,zero,48600 <__multiply+0x15c>
   48614:	14000415 	stw	r16,16(r2)
   48618:	dfc00517 	ldw	ra,20(sp)
   4861c:	dd000417 	ldw	r20,16(sp)
   48620:	dcc00317 	ldw	r19,12(sp)
   48624:	dc800217 	ldw	r18,8(sp)
   48628:	dc400117 	ldw	r17,4(sp)
   4862c:	dc000017 	ldw	r16,0(sp)
   48630:	dec00604 	addi	sp,sp,24
   48634:	f800283a 	ret
   48638:	43800017 	ldw	r14,0(r8)
   4863c:	01800104 	movi	r6,4
   48640:	77ffffcc 	andi	ra,r14,65535
   48644:	f83fcc26 	beq	ra,zero,48578 <__multiply+0xd4>
   48648:	501f883a 	mov	r15,r10
   4864c:	601d883a 	mov	r14,r12
   48650:	0023883a 	mov	r17,zero
   48654:	71000017 	ldw	r4,0(r14)
   48658:	7b400017 	ldw	r13,0(r15)
   4865c:	7bc00104 	addi	r15,r15,4
   48660:	217fffcc 	andi	r5,r4,65535
   48664:	2fcb383a 	mul	r5,r5,ra
   48668:	2006d43a 	srli	r3,r4,16
   4866c:	693fffcc 	andi	r4,r13,65535
   48670:	290b883a 	add	r5,r5,r4
   48674:	2c4b883a 	add	r5,r5,r17
   48678:	1fc7383a 	mul	r3,r3,ra
   4867c:	681ad43a 	srli	r13,r13,16
   48680:	2808d43a 	srli	r4,r5,16
   48684:	297fffcc 	andi	r5,r5,65535
   48688:	1b47883a 	add	r3,r3,r13
   4868c:	1907883a 	add	r3,r3,r4
   48690:	1808943a 	slli	r4,r3,16
   48694:	73800104 	addi	r14,r14,4
   48698:	1822d43a 	srli	r17,r3,16
   4869c:	214ab03a 	or	r5,r4,r5
   486a0:	797fff15 	stw	r5,-4(r15)
   486a4:	71ffeb36 	bltu	r14,r7,48654 <__multiply+0x1b0>
   486a8:	5187883a 	add	r3,r10,r6
   486ac:	1c400015 	stw	r17,0(r3)
   486b0:	43800017 	ldw	r14,0(r8)
   486b4:	003fb006 	br	48578 <__multiply+0xd4>
   486b8:	01c00174 	movhi	r7,5
   486bc:	01000174 	movhi	r4,5
   486c0:	39cd5304 	addi	r7,r7,13644
   486c4:	000d883a 	mov	r6,zero
   486c8:	01405744 	movi	r5,349
   486cc:	210d6704 	addi	r4,r4,13724
   486d0:	004a3440 	call	4a344 <__assert_func>

000486d4 <__pow5mult>:
   486d4:	defffb04 	addi	sp,sp,-20
   486d8:	dcc00315 	stw	r19,12(sp)
   486dc:	dc000015 	stw	r16,0(sp)
   486e0:	dfc00415 	stw	ra,16(sp)
   486e4:	dc800215 	stw	r18,8(sp)
   486e8:	dc400115 	stw	r17,4(sp)
   486ec:	308000cc 	andi	r2,r6,3
   486f0:	3021883a 	mov	r16,r6
   486f4:	2027883a 	mov	r19,r4
   486f8:	10002d1e 	bne	r2,zero,487b0 <__pow5mult+0xdc>
   486fc:	2825883a 	mov	r18,r5
   48700:	8021d0ba 	srai	r16,r16,2
   48704:	80001926 	beq	r16,zero,4876c <__pow5mult+0x98>
   48708:	9c401217 	ldw	r17,72(r19)
   4870c:	8800061e 	bne	r17,zero,48728 <__pow5mult+0x54>
   48710:	00002f06 	br	487d0 <__pow5mult+0xfc>
   48714:	8021d07a 	srai	r16,r16,1
   48718:	80001426 	beq	r16,zero,4876c <__pow5mult+0x98>
   4871c:	88800017 	ldw	r2,0(r17)
   48720:	10001a26 	beq	r2,zero,4878c <__pow5mult+0xb8>
   48724:	1023883a 	mov	r17,r2
   48728:	8080004c 	andi	r2,r16,1
   4872c:	103ff926 	beq	r2,zero,48714 <__pow5mult+0x40>
   48730:	880d883a 	mov	r6,r17
   48734:	900b883a 	mov	r5,r18
   48738:	9809883a 	mov	r4,r19
   4873c:	00484a40 	call	484a4 <__multiply>
   48740:	90001926 	beq	r18,zero,487a8 <__pow5mult+0xd4>
   48744:	91000117 	ldw	r4,4(r18)
   48748:	98c01317 	ldw	r3,76(r19)
   4874c:	8021d07a 	srai	r16,r16,1
   48750:	200890ba 	slli	r4,r4,2
   48754:	1907883a 	add	r3,r3,r4
   48758:	19000017 	ldw	r4,0(r3)
   4875c:	91000015 	stw	r4,0(r18)
   48760:	1c800015 	stw	r18,0(r3)
   48764:	1025883a 	mov	r18,r2
   48768:	803fec1e 	bne	r16,zero,4871c <__pow5mult+0x48>
   4876c:	9005883a 	mov	r2,r18
   48770:	dfc00417 	ldw	ra,16(sp)
   48774:	dcc00317 	ldw	r19,12(sp)
   48778:	dc800217 	ldw	r18,8(sp)
   4877c:	dc400117 	ldw	r17,4(sp)
   48780:	dc000017 	ldw	r16,0(sp)
   48784:	dec00504 	addi	sp,sp,20
   48788:	f800283a 	ret
   4878c:	880d883a 	mov	r6,r17
   48790:	880b883a 	mov	r5,r17
   48794:	9809883a 	mov	r4,r19
   48798:	00484a40 	call	484a4 <__multiply>
   4879c:	88800015 	stw	r2,0(r17)
   487a0:	10000015 	stw	zero,0(r2)
   487a4:	003fdf06 	br	48724 <__pow5mult+0x50>
   487a8:	1025883a 	mov	r18,r2
   487ac:	003fd906 	br	48714 <__pow5mult+0x40>
   487b0:	100490ba 	slli	r2,r2,2
   487b4:	00c00174 	movhi	r3,5
   487b8:	000f883a 	mov	r7,zero
   487bc:	10c7883a 	add	r3,r2,r3
   487c0:	198d7517 	ldw	r6,13780(r3)
   487c4:	00480cc0 	call	480cc <__multadd>
   487c8:	1025883a 	mov	r18,r2
   487cc:	003fcc06 	br	48700 <__pow5mult+0x2c>
   487d0:	01409c44 	movi	r5,625
   487d4:	9809883a 	mov	r4,r19
   487d8:	00484500 	call	48450 <__i2b>
   487dc:	98801215 	stw	r2,72(r19)
   487e0:	1023883a 	mov	r17,r2
   487e4:	10000015 	stw	zero,0(r2)
   487e8:	003fcf06 	br	48728 <__pow5mult+0x54>

000487ec <__lshift>:
   487ec:	defff904 	addi	sp,sp,-28
   487f0:	dd400515 	stw	r21,20(sp)
   487f4:	dc800215 	stw	r18,8(sp)
   487f8:	302bd17a 	srai	r21,r6,5
   487fc:	2c800417 	ldw	r18,16(r5)
   48800:	28800217 	ldw	r2,8(r5)
   48804:	dd000415 	stw	r20,16(sp)
   48808:	aca5883a 	add	r18,r21,r18
   4880c:	dcc00315 	stw	r19,12(sp)
   48810:	dc400115 	stw	r17,4(sp)
   48814:	dc000015 	stw	r16,0(sp)
   48818:	dfc00615 	stw	ra,24(sp)
   4881c:	94400044 	addi	r17,r18,1
   48820:	2821883a 	mov	r16,r5
   48824:	3029883a 	mov	r20,r6
   48828:	29400117 	ldw	r5,4(r5)
   4882c:	2027883a 	mov	r19,r4
   48830:	1440030e 	bge	r2,r17,48840 <__lshift+0x54>
   48834:	1085883a 	add	r2,r2,r2
   48838:	29400044 	addi	r5,r5,1
   4883c:	147ffd16 	blt	r2,r17,48834 <__lshift+0x48>
   48840:	9809883a 	mov	r4,r19
   48844:	00480040 	call	48004 <_Balloc>
   48848:	10004326 	beq	r2,zero,48958 <__lshift+0x16c>
   4884c:	12000504 	addi	r8,r2,20
   48850:	0540090e 	bge	zero,r21,48878 <__lshift+0x8c>
   48854:	ad400144 	addi	r21,r21,5
   48858:	a82a90ba 	slli	r21,r21,2
   4885c:	4007883a 	mov	r3,r8
   48860:	1549883a 	add	r4,r2,r21
   48864:	18c00104 	addi	r3,r3,4
   48868:	183fff15 	stw	zero,-4(r3)
   4886c:	193ffd1e 	bne	r3,r4,48864 <__lshift+0x78>
   48870:	ad7ffb04 	addi	r21,r21,-20
   48874:	4551883a 	add	r8,r8,r21
   48878:	82400417 	ldw	r9,16(r16)
   4887c:	80c00504 	addi	r3,r16,20
   48880:	a14007cc 	andi	r5,r20,31
   48884:	481290ba 	slli	r9,r9,2
   48888:	1a53883a 	add	r9,r3,r9
   4888c:	28002a26 	beq	r5,zero,48938 <__lshift+0x14c>
   48890:	02800804 	movi	r10,32
   48894:	5155c83a 	sub	r10,r10,r5
   48898:	4009883a 	mov	r4,r8
   4889c:	000f883a 	mov	r7,zero
   488a0:	19800017 	ldw	r6,0(r3)
   488a4:	21000104 	addi	r4,r4,4
   488a8:	18c00104 	addi	r3,r3,4
   488ac:	314c983a 	sll	r6,r6,r5
   488b0:	31ccb03a 	or	r6,r6,r7
   488b4:	21bfff15 	stw	r6,-4(r4)
   488b8:	19bfff17 	ldw	r6,-4(r3)
   488bc:	328ed83a 	srl	r7,r6,r10
   488c0:	1a7ff736 	bltu	r3,r9,488a0 <__lshift+0xb4>
   488c4:	80c00544 	addi	r3,r16,21
   488c8:	48c02136 	bltu	r9,r3,48950 <__lshift+0x164>
   488cc:	4c07c83a 	sub	r3,r9,r16
   488d0:	18fffac4 	addi	r3,r3,-21
   488d4:	1806d0ba 	srli	r3,r3,2
   488d8:	18c00044 	addi	r3,r3,1
   488dc:	180690ba 	slli	r3,r3,2
   488e0:	40d1883a 	add	r8,r8,r3
   488e4:	41c00015 	stw	r7,0(r8)
   488e8:	38000126 	beq	r7,zero,488f0 <__lshift+0x104>
   488ec:	8825883a 	mov	r18,r17
   488f0:	14800415 	stw	r18,16(r2)
   488f4:	80000726 	beq	r16,zero,48914 <__lshift+0x128>
   488f8:	81000117 	ldw	r4,4(r16)
   488fc:	98c01317 	ldw	r3,76(r19)
   48900:	200890ba 	slli	r4,r4,2
   48904:	1907883a 	add	r3,r3,r4
   48908:	19000017 	ldw	r4,0(r3)
   4890c:	81000015 	stw	r4,0(r16)
   48910:	1c000015 	stw	r16,0(r3)
   48914:	dfc00617 	ldw	ra,24(sp)
   48918:	dd400517 	ldw	r21,20(sp)
   4891c:	dd000417 	ldw	r20,16(sp)
   48920:	dcc00317 	ldw	r19,12(sp)
   48924:	dc800217 	ldw	r18,8(sp)
   48928:	dc400117 	ldw	r17,4(sp)
   4892c:	dc000017 	ldw	r16,0(sp)
   48930:	dec00704 	addi	sp,sp,28
   48934:	f800283a 	ret
   48938:	19000017 	ldw	r4,0(r3)
   4893c:	18c00104 	addi	r3,r3,4
   48940:	42000104 	addi	r8,r8,4
   48944:	413fff15 	stw	r4,-4(r8)
   48948:	1a7ffb36 	bltu	r3,r9,48938 <__lshift+0x14c>
   4894c:	003fe806 	br	488f0 <__lshift+0x104>
   48950:	00c00104 	movi	r3,4
   48954:	003fe206 	br	488e0 <__lshift+0xf4>
   48958:	01c00174 	movhi	r7,5
   4895c:	01000174 	movhi	r4,5
   48960:	39cd5304 	addi	r7,r7,13644
   48964:	000d883a 	mov	r6,zero
   48968:	01407644 	movi	r5,473
   4896c:	210d6704 	addi	r4,r4,13724
   48970:	004a3440 	call	4a344 <__assert_func>

00048974 <__mcmp>:
   48974:	21800417 	ldw	r6,16(r4)
   48978:	28c00417 	ldw	r3,16(r5)
   4897c:	30c5c83a 	sub	r2,r6,r3
   48980:	30c00e1e 	bne	r6,r3,489bc <__mcmp+0x48>
   48984:	180690ba 	slli	r3,r3,2
   48988:	21c00504 	addi	r7,r4,20
   4898c:	29400504 	addi	r5,r5,20
   48990:	38c9883a 	add	r4,r7,r3
   48994:	28c7883a 	add	r3,r5,r3
   48998:	00000106 	br	489a0 <__mcmp+0x2c>
   4899c:	3900082e 	bgeu	r7,r4,489c0 <__mcmp+0x4c>
   489a0:	21bfff17 	ldw	r6,-4(r4)
   489a4:	197fff17 	ldw	r5,-4(r3)
   489a8:	213fff04 	addi	r4,r4,-4
   489ac:	18ffff04 	addi	r3,r3,-4
   489b0:	317ffa26 	beq	r6,r5,4899c <__mcmp+0x28>
   489b4:	3140032e 	bgeu	r6,r5,489c4 <__mcmp+0x50>
   489b8:	00bfffc4 	movi	r2,-1
   489bc:	f800283a 	ret
   489c0:	f800283a 	ret
   489c4:	00800044 	movi	r2,1
   489c8:	f800283a 	ret

000489cc <__mdiff>:
   489cc:	28800417 	ldw	r2,16(r5)
   489d0:	30c00417 	ldw	r3,16(r6)
   489d4:	defffc04 	addi	sp,sp,-16
   489d8:	dc800215 	stw	r18,8(sp)
   489dc:	dc400115 	stw	r17,4(sp)
   489e0:	dc000015 	stw	r16,0(sp)
   489e4:	dfc00315 	stw	ra,12(sp)
   489e8:	2823883a 	mov	r17,r5
   489ec:	3021883a 	mov	r16,r6
   489f0:	10e5c83a 	sub	r18,r2,r3
   489f4:	10c0641e 	bne	r2,r3,48b88 <__mdiff+0x1bc>
   489f8:	180c90ba 	slli	r6,r3,2
   489fc:	29400504 	addi	r5,r5,20
   48a00:	80c00504 	addi	r3,r16,20
   48a04:	2985883a 	add	r2,r5,r6
   48a08:	1987883a 	add	r3,r3,r6
   48a0c:	00000106 	br	48a14 <__mdiff+0x48>
   48a10:	2880642e 	bgeu	r5,r2,48ba4 <__mdiff+0x1d8>
   48a14:	11ffff17 	ldw	r7,-4(r2)
   48a18:	19bfff17 	ldw	r6,-4(r3)
   48a1c:	10bfff04 	addi	r2,r2,-4
   48a20:	18ffff04 	addi	r3,r3,-4
   48a24:	39bffa26 	beq	r7,r6,48a10 <__mdiff+0x44>
   48a28:	39805236 	bltu	r7,r6,48b74 <__mdiff+0x1a8>
   48a2c:	89400117 	ldw	r5,4(r17)
   48a30:	00480040 	call	48004 <_Balloc>
   48a34:	10006226 	beq	r2,zero,48bc0 <__mdiff+0x1f4>
   48a38:	8a400417 	ldw	r9,16(r17)
   48a3c:	83000417 	ldw	r12,16(r16)
   48a40:	8ac00504 	addi	r11,r17,20
   48a44:	481090ba 	slli	r8,r9,2
   48a48:	601890ba 	slli	r12,r12,2
   48a4c:	81800504 	addi	r6,r16,20
   48a50:	13400504 	addi	r13,r2,20
   48a54:	14800315 	stw	r18,12(r2)
   48a58:	5a11883a 	add	r8,r11,r8
   48a5c:	3319883a 	add	r12,r6,r12
   48a60:	681d883a 	mov	r14,r13
   48a64:	5815883a 	mov	r10,r11
   48a68:	0007883a 	mov	r3,zero
   48a6c:	51000017 	ldw	r4,0(r10)
   48a70:	31c00017 	ldw	r7,0(r6)
   48a74:	73800104 	addi	r14,r14,4
   48a78:	217fffcc 	andi	r5,r4,65535
   48a7c:	28cb883a 	add	r5,r5,r3
   48a80:	38ffffcc 	andi	r3,r7,65535
   48a84:	28cbc83a 	sub	r5,r5,r3
   48a88:	380ed43a 	srli	r7,r7,16
   48a8c:	2006d43a 	srli	r3,r4,16
   48a90:	2809d43a 	srai	r4,r5,16
   48a94:	297fffcc 	andi	r5,r5,65535
   48a98:	19c7c83a 	sub	r3,r3,r7
   48a9c:	1907883a 	add	r3,r3,r4
   48aa0:	1808943a 	slli	r4,r3,16
   48aa4:	31800104 	addi	r6,r6,4
   48aa8:	1807d43a 	srai	r3,r3,16
   48aac:	214ab03a 	or	r5,r4,r5
   48ab0:	717fff15 	stw	r5,-4(r14)
   48ab4:	52800104 	addi	r10,r10,4
   48ab8:	333fec36 	bltu	r6,r12,48a6c <__mdiff+0xa0>
   48abc:	640fc83a 	sub	r7,r12,r16
   48ac0:	39fffac4 	addi	r7,r7,-21
   48ac4:	84000544 	addi	r16,r16,21
   48ac8:	380ed0ba 	srli	r7,r7,2
   48acc:	64003336 	bltu	r12,r16,48b9c <__mdiff+0x1d0>
   48ad0:	380890ba 	slli	r4,r7,2
   48ad4:	6909883a 	add	r4,r13,r4
   48ad8:	64002e36 	bltu	r12,r16,48b94 <__mdiff+0x1c8>
   48adc:	39800044 	addi	r6,r7,1
   48ae0:	300c90ba 	slli	r6,r6,2
   48ae4:	5997883a 	add	r11,r11,r6
   48ae8:	699b883a 	add	r13,r13,r6
   48aec:	5a00152e 	bgeu	r11,r8,48b44 <__mdiff+0x178>
   48af0:	680f883a 	mov	r7,r13
   48af4:	580d883a 	mov	r6,r11
   48af8:	31000017 	ldw	r4,0(r6)
   48afc:	39c00104 	addi	r7,r7,4
   48b00:	31800104 	addi	r6,r6,4
   48b04:	217fffcc 	andi	r5,r4,65535
   48b08:	28cb883a 	add	r5,r5,r3
   48b0c:	2815d43a 	srai	r10,r5,16
   48b10:	2006d43a 	srli	r3,r4,16
   48b14:	297fffcc 	andi	r5,r5,65535
   48b18:	1a87883a 	add	r3,r3,r10
   48b1c:	1814943a 	slli	r10,r3,16
   48b20:	1807d43a 	srai	r3,r3,16
   48b24:	514ab03a 	or	r5,r10,r5
   48b28:	397fff15 	stw	r5,-4(r7)
   48b2c:	323ff236 	bltu	r6,r8,48af8 <__mdiff+0x12c>
   48b30:	413fffc4 	addi	r4,r8,-1
   48b34:	22c9c83a 	sub	r4,r4,r11
   48b38:	2008d0ba 	srli	r4,r4,2
   48b3c:	200890ba 	slli	r4,r4,2
   48b40:	6909883a 	add	r4,r13,r4
   48b44:	2800041e 	bne	r5,zero,48b58 <__mdiff+0x18c>
   48b48:	20ffff17 	ldw	r3,-4(r4)
   48b4c:	4a7fffc4 	addi	r9,r9,-1
   48b50:	213fff04 	addi	r4,r4,-4
   48b54:	183ffc26 	beq	r3,zero,48b48 <__mdiff+0x17c>
   48b58:	12400415 	stw	r9,16(r2)
   48b5c:	dfc00317 	ldw	ra,12(sp)
   48b60:	dc800217 	ldw	r18,8(sp)
   48b64:	dc400117 	ldw	r17,4(sp)
   48b68:	dc000017 	ldw	r16,0(sp)
   48b6c:	dec00404 	addi	sp,sp,16
   48b70:	f800283a 	ret
   48b74:	8805883a 	mov	r2,r17
   48b78:	04800044 	movi	r18,1
   48b7c:	8023883a 	mov	r17,r16
   48b80:	1021883a 	mov	r16,r2
   48b84:	003fa906 	br	48a2c <__mdiff+0x60>
   48b88:	903ffa16 	blt	r18,zero,48b74 <__mdiff+0x1a8>
   48b8c:	0025883a 	mov	r18,zero
   48b90:	003fa606 	br	48a2c <__mdiff+0x60>
   48b94:	01800104 	movi	r6,4
   48b98:	003fd206 	br	48ae4 <__mdiff+0x118>
   48b9c:	0009883a 	mov	r4,zero
   48ba0:	003fcc06 	br	48ad4 <__mdiff+0x108>
   48ba4:	000b883a 	mov	r5,zero
   48ba8:	00480040 	call	48004 <_Balloc>
   48bac:	10000b26 	beq	r2,zero,48bdc <__mdiff+0x210>
   48bb0:	00c00044 	movi	r3,1
   48bb4:	10c00415 	stw	r3,16(r2)
   48bb8:	10000515 	stw	zero,20(r2)
   48bbc:	003fe706 	br	48b5c <__mdiff+0x190>
   48bc0:	01c00174 	movhi	r7,5
   48bc4:	01000174 	movhi	r4,5
   48bc8:	39cd5304 	addi	r7,r7,13644
   48bcc:	000d883a 	mov	r6,zero
   48bd0:	01409004 	movi	r5,576
   48bd4:	210d6704 	addi	r4,r4,13724
   48bd8:	004a3440 	call	4a344 <__assert_func>
   48bdc:	01c00174 	movhi	r7,5
   48be0:	01000174 	movhi	r4,5
   48be4:	39cd5304 	addi	r7,r7,13644
   48be8:	000d883a 	mov	r6,zero
   48bec:	01408c84 	movi	r5,562
   48bf0:	210d6704 	addi	r4,r4,13724
   48bf4:	004a3440 	call	4a344 <__assert_func>

00048bf8 <__ulp>:
   48bf8:	28dffc2c 	andhi	r3,r5,32752
   48bfc:	017f3034 	movhi	r5,64704
   48c00:	1947883a 	add	r3,r3,r5
   48c04:	00c0020e 	bge	zero,r3,48c10 <__ulp+0x18>
   48c08:	0005883a 	mov	r2,zero
   48c0c:	f800283a 	ret
   48c10:	00c7c83a 	sub	r3,zero,r3
   48c14:	1807d53a 	srai	r3,r3,20
   48c18:	18800508 	cmpgei	r2,r3,20
   48c1c:	1000041e 	bne	r2,zero,48c30 <__ulp+0x38>
   48c20:	00800234 	movhi	r2,8
   48c24:	10c7d83a 	sra	r3,r2,r3
   48c28:	0005883a 	mov	r2,zero
   48c2c:	f800283a 	ret
   48c30:	193ffb04 	addi	r4,r3,-20
   48c34:	208007c8 	cmpgei	r2,r4,31
   48c38:	0007883a 	mov	r3,zero
   48c3c:	1000031e 	bne	r2,zero,48c4c <__ulp+0x54>
   48c40:	00a00034 	movhi	r2,32768
   48c44:	1104d83a 	srl	r2,r2,r4
   48c48:	f800283a 	ret
   48c4c:	00800044 	movi	r2,1
   48c50:	f800283a 	ret

00048c54 <__b2d>:
   48c54:	defffa04 	addi	sp,sp,-24
   48c58:	dc400115 	stw	r17,4(sp)
   48c5c:	24400417 	ldw	r17,16(r4)
   48c60:	dc000015 	stw	r16,0(sp)
   48c64:	24000504 	addi	r16,r4,20
   48c68:	882290ba 	slli	r17,r17,2
   48c6c:	dc800215 	stw	r18,8(sp)
   48c70:	dd000415 	stw	r20,16(sp)
   48c74:	8463883a 	add	r17,r16,r17
   48c78:	8cbfff17 	ldw	r18,-4(r17)
   48c7c:	dcc00315 	stw	r19,12(sp)
   48c80:	dfc00515 	stw	ra,20(sp)
   48c84:	9009883a 	mov	r4,r18
   48c88:	2827883a 	mov	r19,r5
   48c8c:	004833c0 	call	4833c <__hi0bits>
   48c90:	01000804 	movi	r4,32
   48c94:	2087c83a 	sub	r3,r4,r2
   48c98:	98c00015 	stw	r3,0(r19)
   48c9c:	10c002c8 	cmpgei	r3,r2,11
   48ca0:	8d3fff04 	addi	r20,r17,-4
   48ca4:	18001f26 	beq	r3,zero,48d24 <__b2d+0xd0>
   48ca8:	10fffd44 	addi	r3,r2,-11
   48cac:	85000e2e 	bgeu	r16,r20,48ce8 <__b2d+0x94>
   48cb0:	88bffe17 	ldw	r2,-8(r17)
   48cb4:	18001226 	beq	r3,zero,48d00 <__b2d+0xac>
   48cb8:	20c9c83a 	sub	r4,r4,r3
   48cbc:	110cd83a 	srl	r6,r2,r4
   48cc0:	90e4983a 	sll	r18,r18,r3
   48cc4:	10c4983a 	sll	r2,r2,r3
   48cc8:	897ffe04 	addi	r5,r17,-8
   48ccc:	9186b03a 	or	r3,r18,r6
   48cd0:	18cffc34 	orhi	r3,r3,16368
   48cd4:	81400b2e 	bgeu	r16,r5,48d04 <__b2d+0xb0>
   48cd8:	897ffd17 	ldw	r5,-12(r17)
   48cdc:	2908d83a 	srl	r4,r5,r4
   48ce0:	1104b03a 	or	r2,r2,r4
   48ce4:	00000706 	br	48d04 <__b2d+0xb0>
   48ce8:	18000426 	beq	r3,zero,48cfc <__b2d+0xa8>
   48cec:	90c6983a 	sll	r3,r18,r3
   48cf0:	0005883a 	mov	r2,zero
   48cf4:	18cffc34 	orhi	r3,r3,16368
   48cf8:	00000206 	br	48d04 <__b2d+0xb0>
   48cfc:	0005883a 	mov	r2,zero
   48d00:	90cffc34 	orhi	r3,r18,16368
   48d04:	dfc00517 	ldw	ra,20(sp)
   48d08:	dd000417 	ldw	r20,16(sp)
   48d0c:	dcc00317 	ldw	r19,12(sp)
   48d10:	dc800217 	ldw	r18,8(sp)
   48d14:	dc400117 	ldw	r17,4(sp)
   48d18:	dc000017 	ldw	r16,0(sp)
   48d1c:	dec00604 	addi	sp,sp,24
   48d20:	f800283a 	ret
   48d24:	014002c4 	movi	r5,11
   48d28:	2889c83a 	sub	r4,r5,r2
   48d2c:	9106d83a 	srl	r3,r18,r4
   48d30:	18cffc34 	orhi	r3,r3,16368
   48d34:	85000536 	bltu	r16,r20,48d4c <__b2d+0xf8>
   48d38:	000b883a 	mov	r5,zero
   48d3c:	10800544 	addi	r2,r2,21
   48d40:	9084983a 	sll	r2,r18,r2
   48d44:	1144b03a 	or	r2,r2,r5
   48d48:	003fee06 	br	48d04 <__b2d+0xb0>
   48d4c:	897ffe17 	ldw	r5,-8(r17)
   48d50:	290ad83a 	srl	r5,r5,r4
   48d54:	003ff906 	br	48d3c <__b2d+0xe8>

00048d58 <__d2b>:
   48d58:	defff804 	addi	sp,sp,-32
   48d5c:	dd000615 	stw	r20,24(sp)
   48d60:	2829883a 	mov	r20,r5
   48d64:	01400044 	movi	r5,1
   48d68:	dcc00515 	stw	r19,20(sp)
   48d6c:	dc000215 	stw	r16,8(sp)
   48d70:	dfc00715 	stw	ra,28(sp)
   48d74:	dc800415 	stw	r18,16(sp)
   48d78:	dc400315 	stw	r17,12(sp)
   48d7c:	3021883a 	mov	r16,r6
   48d80:	3827883a 	mov	r19,r7
   48d84:	00480040 	call	48004 <_Balloc>
   48d88:	10004526 	beq	r2,zero,48ea0 <__d2b+0x148>
   48d8c:	8024d53a 	srli	r18,r16,20
   48d90:	01800434 	movhi	r6,16
   48d94:	31bfffc4 	addi	r6,r6,-1
   48d98:	9481ffcc 	andi	r18,r18,2047
   48d9c:	1023883a 	mov	r17,r2
   48da0:	81a0703a 	and	r16,r16,r6
   48da4:	90000126 	beq	r18,zero,48dac <__d2b+0x54>
   48da8:	84000434 	orhi	r16,r16,16
   48dac:	dc000115 	stw	r16,4(sp)
   48db0:	a0002226 	beq	r20,zero,48e3c <__d2b+0xe4>
   48db4:	d809883a 	mov	r4,sp
   48db8:	dd000015 	stw	r20,0(sp)
   48dbc:	00483a00 	call	483a0 <__lo0bits>
   48dc0:	d8c00117 	ldw	r3,4(sp)
   48dc4:	10003326 	beq	r2,zero,48e94 <__d2b+0x13c>
   48dc8:	01000804 	movi	r4,32
   48dcc:	2089c83a 	sub	r4,r4,r2
   48dd0:	1908983a 	sll	r4,r3,r4
   48dd4:	d9400017 	ldw	r5,0(sp)
   48dd8:	1886d83a 	srl	r3,r3,r2
   48ddc:	2148b03a 	or	r4,r4,r5
   48de0:	89000515 	stw	r4,20(r17)
   48de4:	d8c00115 	stw	r3,4(sp)
   48de8:	88c00615 	stw	r3,24(r17)
   48dec:	1800271e 	bne	r3,zero,48e8c <__d2b+0x134>
   48df0:	04000044 	movi	r16,1
   48df4:	8c000415 	stw	r16,16(r17)
   48df8:	90001926 	beq	r18,zero,48e60 <__d2b+0x108>
   48dfc:	00c00d44 	movi	r3,53
   48e00:	94bef344 	addi	r18,r18,-1075
   48e04:	90a5883a 	add	r18,r18,r2
   48e08:	1885c83a 	sub	r2,r3,r2
   48e0c:	d8c00817 	ldw	r3,32(sp)
   48e10:	9c800015 	stw	r18,0(r19)
   48e14:	18800015 	stw	r2,0(r3)
   48e18:	8805883a 	mov	r2,r17
   48e1c:	dfc00717 	ldw	ra,28(sp)
   48e20:	dd000617 	ldw	r20,24(sp)
   48e24:	dcc00517 	ldw	r19,20(sp)
   48e28:	dc800417 	ldw	r18,16(sp)
   48e2c:	dc400317 	ldw	r17,12(sp)
   48e30:	dc000217 	ldw	r16,8(sp)
   48e34:	dec00804 	addi	sp,sp,32
   48e38:	f800283a 	ret
   48e3c:	d9000104 	addi	r4,sp,4
   48e40:	00483a00 	call	483a0 <__lo0bits>
   48e44:	00c00044 	movi	r3,1
   48e48:	88c00415 	stw	r3,16(r17)
   48e4c:	d8c00117 	ldw	r3,4(sp)
   48e50:	10800804 	addi	r2,r2,32
   48e54:	04000044 	movi	r16,1
   48e58:	88c00515 	stw	r3,20(r17)
   48e5c:	903fe71e 	bne	r18,zero,48dfc <__d2b+0xa4>
   48e60:	800690ba 	slli	r3,r16,2
   48e64:	10bef384 	addi	r2,r2,-1074
   48e68:	98800015 	stw	r2,0(r19)
   48e6c:	88c5883a 	add	r2,r17,r3
   48e70:	11000417 	ldw	r4,16(r2)
   48e74:	8020917a 	slli	r16,r16,5
   48e78:	004833c0 	call	4833c <__hi0bits>
   48e7c:	80a1c83a 	sub	r16,r16,r2
   48e80:	d8800817 	ldw	r2,32(sp)
   48e84:	14000015 	stw	r16,0(r2)
   48e88:	003fe306 	br	48e18 <__d2b+0xc0>
   48e8c:	04000084 	movi	r16,2
   48e90:	003fd806 	br	48df4 <__d2b+0x9c>
   48e94:	d9000017 	ldw	r4,0(sp)
   48e98:	89000515 	stw	r4,20(r17)
   48e9c:	003fd206 	br	48de8 <__d2b+0x90>
   48ea0:	01c00174 	movhi	r7,5
   48ea4:	01000174 	movhi	r4,5
   48ea8:	39cd5304 	addi	r7,r7,13644
   48eac:	000d883a 	mov	r6,zero
   48eb0:	0140c284 	movi	r5,778
   48eb4:	210d6704 	addi	r4,r4,13724
   48eb8:	004a3440 	call	4a344 <__assert_func>

00048ebc <__ratio>:
   48ebc:	defff904 	addi	sp,sp,-28
   48ec0:	dc400315 	stw	r17,12(sp)
   48ec4:	2823883a 	mov	r17,r5
   48ec8:	d80b883a 	mov	r5,sp
   48ecc:	dfc00615 	stw	ra,24(sp)
   48ed0:	dcc00515 	stw	r19,20(sp)
   48ed4:	dc800415 	stw	r18,16(sp)
   48ed8:	2027883a 	mov	r19,r4
   48edc:	dc000215 	stw	r16,8(sp)
   48ee0:	0048c540 	call	48c54 <__b2d>
   48ee4:	d9400104 	addi	r5,sp,4
   48ee8:	8809883a 	mov	r4,r17
   48eec:	1025883a 	mov	r18,r2
   48ef0:	1821883a 	mov	r16,r3
   48ef4:	0048c540 	call	48c54 <__b2d>
   48ef8:	89400417 	ldw	r5,16(r17)
   48efc:	99000417 	ldw	r4,16(r19)
   48f00:	d9800117 	ldw	r6,4(sp)
   48f04:	180f883a 	mov	r7,r3
   48f08:	2149c83a 	sub	r4,r4,r5
   48f0c:	d9400017 	ldw	r5,0(sp)
   48f10:	2008917a 	slli	r4,r4,5
   48f14:	298bc83a 	sub	r5,r5,r6
   48f18:	2149883a 	add	r4,r4,r5
   48f1c:	100d883a 	mov	r6,r2
   48f20:	01000c0e 	bge	zero,r4,48f54 <__ratio+0x98>
   48f24:	2008953a 	slli	r4,r4,20
   48f28:	2421883a 	add	r16,r4,r16
   48f2c:	9009883a 	mov	r4,r18
   48f30:	800b883a 	mov	r5,r16
   48f34:	004eda40 	call	4eda4 <__divdf3>
   48f38:	dfc00617 	ldw	ra,24(sp)
   48f3c:	dcc00517 	ldw	r19,20(sp)
   48f40:	dc800417 	ldw	r18,16(sp)
   48f44:	dc400317 	ldw	r17,12(sp)
   48f48:	dc000217 	ldw	r16,8(sp)
   48f4c:	dec00704 	addi	sp,sp,28
   48f50:	f800283a 	ret
   48f54:	00bffc34 	movhi	r2,65520
   48f58:	2089383a 	mul	r4,r4,r2
   48f5c:	20cf883a 	add	r7,r4,r3
   48f60:	003ff206 	br	48f2c <__ratio+0x70>

00048f64 <_mprec_log10>:
   48f64:	defffe04 	addi	sp,sp,-8
   48f68:	dc000015 	stw	r16,0(sp)
   48f6c:	dfc00115 	stw	ra,4(sp)
   48f70:	20800608 	cmpgei	r2,r4,24
   48f74:	2021883a 	mov	r16,r4
   48f78:	10000f26 	beq	r2,zero,48fb8 <_mprec_log10+0x54>
   48f7c:	0009883a 	mov	r4,zero
   48f80:	014ffc34 	movhi	r5,16368
   48f84:	000d883a 	mov	r6,zero
   48f88:	01d00934 	movhi	r7,16420
   48f8c:	004f8640 	call	4f864 <__muldf3>
   48f90:	843fffc4 	addi	r16,r16,-1
   48f94:	1009883a 	mov	r4,r2
   48f98:	180b883a 	mov	r5,r3
   48f9c:	803ff91e 	bne	r16,zero,48f84 <_mprec_log10+0x20>
   48fa0:	2005883a 	mov	r2,r4
   48fa4:	2807883a 	mov	r3,r5
   48fa8:	dfc00117 	ldw	ra,4(sp)
   48fac:	dc000017 	ldw	r16,0(sp)
   48fb0:	dec00204 	addi	sp,sp,8
   48fb4:	f800283a 	ret
   48fb8:	202090fa 	slli	r16,r4,3
   48fbc:	00800174 	movhi	r2,5
   48fc0:	108d8d04 	addi	r2,r2,13876
   48fc4:	1421883a 	add	r16,r2,r16
   48fc8:	81000017 	ldw	r4,0(r16)
   48fcc:	81400117 	ldw	r5,4(r16)
   48fd0:	003ff306 	br	48fa0 <_mprec_log10+0x3c>

00048fd4 <__copybits>:
   48fd4:	297fffc4 	addi	r5,r5,-1
   48fd8:	280fd17a 	srai	r7,r5,5
   48fdc:	31400417 	ldw	r5,16(r6)
   48fe0:	30800504 	addi	r2,r6,20
   48fe4:	39c00044 	addi	r7,r7,1
   48fe8:	280a90ba 	slli	r5,r5,2
   48fec:	380e90ba 	slli	r7,r7,2
   48ff0:	114b883a 	add	r5,r2,r5
   48ff4:	21cf883a 	add	r7,r4,r7
   48ff8:	11400c2e 	bgeu	r2,r5,4902c <__copybits+0x58>
   48ffc:	2007883a 	mov	r3,r4
   49000:	12000017 	ldw	r8,0(r2)
   49004:	10800104 	addi	r2,r2,4
   49008:	18c00104 	addi	r3,r3,4
   4900c:	1a3fff15 	stw	r8,-4(r3)
   49010:	117ffb36 	bltu	r2,r5,49000 <__copybits+0x2c>
   49014:	2985c83a 	sub	r2,r5,r6
   49018:	10bffac4 	addi	r2,r2,-21
   4901c:	1004d0ba 	srli	r2,r2,2
   49020:	10800044 	addi	r2,r2,1
   49024:	100490ba 	slli	r2,r2,2
   49028:	2089883a 	add	r4,r4,r2
   4902c:	21c0032e 	bgeu	r4,r7,4903c <__copybits+0x68>
   49030:	21000104 	addi	r4,r4,4
   49034:	203fff15 	stw	zero,-4(r4)
   49038:	21fffd36 	bltu	r4,r7,49030 <__copybits+0x5c>
   4903c:	f800283a 	ret

00049040 <__any_on>:
   49040:	20c00417 	ldw	r3,16(r4)
   49044:	280dd17a 	srai	r6,r5,5
   49048:	21000504 	addi	r4,r4,20
   4904c:	1980080e 	bge	r3,r6,49070 <__any_on+0x30>
   49050:	180490ba 	slli	r2,r3,2
   49054:	2085883a 	add	r2,r4,r2
   49058:	20800f2e 	bgeu	r4,r2,49098 <__any_on+0x58>
   4905c:	10ffff17 	ldw	r3,-4(r2)
   49060:	10bfff04 	addi	r2,r2,-4
   49064:	183ffc26 	beq	r3,zero,49058 <__any_on+0x18>
   49068:	00800044 	movi	r2,1
   4906c:	f800283a 	ret
   49070:	300490ba 	slli	r2,r6,2
   49074:	2085883a 	add	r2,r4,r2
   49078:	30fff70e 	bge	r6,r3,49058 <__any_on+0x18>
   4907c:	294007cc 	andi	r5,r5,31
   49080:	283ff526 	beq	r5,zero,49058 <__any_on+0x18>
   49084:	11800017 	ldw	r6,0(r2)
   49088:	3146d83a 	srl	r3,r6,r5
   4908c:	194a983a 	sll	r5,r3,r5
   49090:	317ff51e 	bne	r6,r5,49068 <__any_on+0x28>
   49094:	003ff006 	br	49058 <__any_on+0x18>
   49098:	0005883a 	mov	r2,zero
   4909c:	f800283a 	ret

000490a0 <__ssprint_r>:
   490a0:	30800217 	ldw	r2,8(r6)
   490a4:	defff604 	addi	sp,sp,-40
   490a8:	dcc00315 	stw	r19,12(sp)
   490ac:	dfc00915 	stw	ra,36(sp)
   490b0:	df000815 	stw	fp,32(sp)
   490b4:	ddc00715 	stw	r23,28(sp)
   490b8:	dd800615 	stw	r22,24(sp)
   490bc:	dd400515 	stw	r21,20(sp)
   490c0:	dd000415 	stw	r20,16(sp)
   490c4:	dc800215 	stw	r18,8(sp)
   490c8:	dc400115 	stw	r17,4(sp)
   490cc:	dc000015 	stw	r16,0(sp)
   490d0:	3027883a 	mov	r19,r6
   490d4:	10005426 	beq	r2,zero,49228 <__ssprint_r+0x188>
   490d8:	2029883a 	mov	r20,r4
   490dc:	35800017 	ldw	r22,0(r6)
   490e0:	29000017 	ldw	r4,0(r5)
   490e4:	2c400217 	ldw	r17,8(r5)
   490e8:	2821883a 	mov	r16,r5
   490ec:	057edfc4 	movi	r21,-1153
   490f0:	00003406 	br	491c4 <__ssprint_r+0x124>
   490f4:	8080030b 	ldhu	r2,12(r16)
   490f8:	10c1200c 	andi	r3,r2,1152
   490fc:	18002426 	beq	r3,zero,49190 <__ssprint_r+0xf0>
   49100:	81800517 	ldw	r6,20(r16)
   49104:	81400417 	ldw	r5,16(r16)
   49108:	90c00044 	addi	r3,r18,1
   4910c:	318000e4 	muli	r6,r6,3
   49110:	216fc83a 	sub	r23,r4,r5
   49114:	1dc7883a 	add	r3,r3,r23
   49118:	3022d7fa 	srli	r17,r6,31
   4911c:	89a3883a 	add	r17,r17,r6
   49120:	8823d07a 	srai	r17,r17,1
   49124:	880d883a 	mov	r6,r17
   49128:	88c0022e 	bgeu	r17,r3,49134 <__ssprint_r+0x94>
   4912c:	1823883a 	mov	r17,r3
   49130:	180d883a 	mov	r6,r3
   49134:	1081000c 	andi	r2,r2,1024
   49138:	10002b26 	beq	r2,zero,491e8 <__ssprint_r+0x148>
   4913c:	300b883a 	mov	r5,r6
   49140:	a009883a 	mov	r4,r20
   49144:	00430f00 	call	430f0 <_malloc_r>
   49148:	10002e26 	beq	r2,zero,49204 <__ssprint_r+0x164>
   4914c:	81400417 	ldw	r5,16(r16)
   49150:	b80d883a 	mov	r6,r23
   49154:	1009883a 	mov	r4,r2
   49158:	0047f040 	call	47f04 <memcpy>
   4915c:	1007883a 	mov	r3,r2
   49160:	8080030b 	ldhu	r2,12(r16)
   49164:	1544703a 	and	r2,r2,r21
   49168:	10802014 	ori	r2,r2,128
   4916c:	8080030d 	sth	r2,12(r16)
   49170:	1dc9883a 	add	r4,r3,r23
   49174:	8defc83a 	sub	r23,r17,r23
   49178:	84400515 	stw	r17,20(r16)
   4917c:	85c00215 	stw	r23,8(r16)
   49180:	80c00415 	stw	r3,16(r16)
   49184:	81000015 	stw	r4,0(r16)
   49188:	9023883a 	mov	r17,r18
   4918c:	902f883a 	mov	r23,r18
   49190:	b80d883a 	mov	r6,r23
   49194:	e00b883a 	mov	r5,fp
   49198:	004a5b00 	call	4a5b0 <memmove>
   4919c:	80c00217 	ldw	r3,8(r16)
   491a0:	81000017 	ldw	r4,0(r16)
   491a4:	98800217 	ldw	r2,8(r19)
   491a8:	1c63c83a 	sub	r17,r3,r17
   491ac:	25c9883a 	add	r4,r4,r23
   491b0:	84400215 	stw	r17,8(r16)
   491b4:	81000015 	stw	r4,0(r16)
   491b8:	14a5c83a 	sub	r18,r2,r18
   491bc:	9c800215 	stw	r18,8(r19)
   491c0:	90001926 	beq	r18,zero,49228 <__ssprint_r+0x188>
   491c4:	b4800117 	ldw	r18,4(r22)
   491c8:	b7000017 	ldw	fp,0(r22)
   491cc:	882f883a 	mov	r23,r17
   491d0:	b5800204 	addi	r22,r22,8
   491d4:	903ffb26 	beq	r18,zero,491c4 <__ssprint_r+0x124>
   491d8:	947fc62e 	bgeu	r18,r17,490f4 <__ssprint_r+0x54>
   491dc:	9023883a 	mov	r17,r18
   491e0:	902f883a 	mov	r23,r18
   491e4:	003fea06 	br	49190 <__ssprint_r+0xf0>
   491e8:	a009883a 	mov	r4,r20
   491ec:	004a6dc0 	call	4a6dc <_realloc_r>
   491f0:	1007883a 	mov	r3,r2
   491f4:	103fde1e 	bne	r2,zero,49170 <__ssprint_r+0xd0>
   491f8:	81400417 	ldw	r5,16(r16)
   491fc:	a009883a 	mov	r4,r20
   49200:	0047b140 	call	47b14 <_free_r>
   49204:	80c0030b 	ldhu	r3,12(r16)
   49208:	00800304 	movi	r2,12
   4920c:	a0800015 	stw	r2,0(r20)
   49210:	18c01014 	ori	r3,r3,64
   49214:	80c0030d 	sth	r3,12(r16)
   49218:	00bfffc4 	movi	r2,-1
   4921c:	98000215 	stw	zero,8(r19)
   49220:	98000115 	stw	zero,4(r19)
   49224:	00000206 	br	49230 <__ssprint_r+0x190>
   49228:	98000115 	stw	zero,4(r19)
   4922c:	0005883a 	mov	r2,zero
   49230:	dfc00917 	ldw	ra,36(sp)
   49234:	df000817 	ldw	fp,32(sp)
   49238:	ddc00717 	ldw	r23,28(sp)
   4923c:	dd800617 	ldw	r22,24(sp)
   49240:	dd400517 	ldw	r21,20(sp)
   49244:	dd000417 	ldw	r20,16(sp)
   49248:	dcc00317 	ldw	r19,12(sp)
   4924c:	dc800217 	ldw	r18,8(sp)
   49250:	dc400117 	ldw	r17,4(sp)
   49254:	dc000017 	ldw	r16,0(sp)
   49258:	dec00a04 	addi	sp,sp,40
   4925c:	f800283a 	ret

00049260 <___svfiprintf_internal_r>:
   49260:	2880030b 	ldhu	r2,12(r5)
   49264:	deffd004 	addi	sp,sp,-192
   49268:	df002e15 	stw	fp,184(sp)
   4926c:	dd402b15 	stw	r21,172(sp)
   49270:	dd002a15 	stw	r20,168(sp)
   49274:	dfc02f15 	stw	ra,188(sp)
   49278:	ddc02d15 	stw	r23,180(sp)
   4927c:	dd802c15 	stw	r22,176(sp)
   49280:	dcc02915 	stw	r19,164(sp)
   49284:	dc802815 	stw	r18,160(sp)
   49288:	dc402715 	stw	r17,156(sp)
   4928c:	dc002615 	stw	r16,152(sp)
   49290:	1080200c 	andi	r2,r2,128
   49294:	d9c00315 	stw	r7,12(sp)
   49298:	2829883a 	mov	r20,r5
   4929c:	202b883a 	mov	r21,r4
   492a0:	3039883a 	mov	fp,r6
   492a4:	10000226 	beq	r2,zero,492b0 <___svfiprintf_internal_r+0x50>
   492a8:	28800417 	ldw	r2,16(r5)
   492ac:	10039f26 	beq	r2,zero,4a12c <___svfiprintf_internal_r+0xecc>
   492b0:	dc801604 	addi	r18,sp,88
   492b4:	dc800915 	stw	r18,36(sp)
   492b8:	d8000b15 	stw	zero,44(sp)
   492bc:	d8000a15 	stw	zero,40(sp)
   492c0:	9011883a 	mov	r8,r18
   492c4:	d8000415 	stw	zero,16(sp)
   492c8:	d8000015 	stw	zero,0(sp)
   492cc:	e0800007 	ldb	r2,0(fp)
   492d0:	1000f226 	beq	r2,zero,4969c <___svfiprintf_internal_r+0x43c>
   492d4:	e021883a 	mov	r16,fp
   492d8:	00000306 	br	492e8 <___svfiprintf_internal_r+0x88>
   492dc:	80800047 	ldb	r2,1(r16)
   492e0:	84000044 	addi	r16,r16,1
   492e4:	10010926 	beq	r2,zero,4970c <___svfiprintf_internal_r+0x4ac>
   492e8:	10800958 	cmpnei	r2,r2,37
   492ec:	103ffb1e 	bne	r2,zero,492dc <___svfiprintf_internal_r+0x7c>
   492f0:	8723c83a 	sub	r17,r16,fp
   492f4:	8701071e 	bne	r16,fp,49714 <___svfiprintf_internal_r+0x4b4>
   492f8:	80800003 	ldbu	r2,0(r16)
   492fc:	10803fcc 	andi	r2,r2,255
   49300:	1080201c 	xori	r2,r2,128
   49304:	10bfe004 	addi	r2,r2,-128
   49308:	1000e426 	beq	r2,zero,4969c <___svfiprintf_internal_r+0x43c>
   4930c:	80800047 	ldb	r2,1(r16)
   49310:	87000044 	addi	fp,r16,1
   49314:	d8000845 	stb	zero,33(sp)
   49318:	000b883a 	mov	r5,zero
   4931c:	000d883a 	mov	r6,zero
   49320:	027fffc4 	movi	r9,-1
   49324:	0021883a 	mov	r16,zero
   49328:	0019883a 	mov	r12,zero
   4932c:	e7000044 	addi	fp,fp,1
   49330:	10fff804 	addi	r3,r2,-32
   49334:	19001668 	cmpgeui	r4,r3,89
   49338:	20006a1e 	bne	r4,zero,494e4 <___svfiprintf_internal_r+0x284>
   4933c:	180690ba 	slli	r3,r3,2
   49340:	01000174 	movhi	r4,5
   49344:	1909883a 	add	r4,r3,r4
   49348:	20e4d417 	ldw	r3,-27824(r4)
   4934c:	1800683a 	jmp	r3
   49350:	00049b6c 	andhi	zero,zero,4717
   49354:	000494e4 	muli	zero,zero,4691
   49358:	000494e4 	muli	zero,zero,4691
   4935c:	00049b60 	cmpeqi	zero,zero,4717
   49360:	000494e4 	muli	zero,zero,4691
   49364:	000494e4 	muli	zero,zero,4691
   49368:	000494e4 	muli	zero,zero,4691
   4936c:	000494e4 	muli	zero,zero,4691
   49370:	000494e4 	muli	zero,zero,4691
   49374:	000494e4 	muli	zero,zero,4691
   49378:	00049b38 	rdprs	zero,zero,4716
   4937c:	00049b28 	cmpgeui	zero,zero,4716
   49380:	000494e4 	muli	zero,zero,4691
   49384:	00049b10 	cmplti	zero,zero,4716
   49388:	00049acc 	andi	zero,zero,4715
   4938c:	000494e4 	muli	zero,zero,4691
   49390:	00049ac0 	call	49ac <__alt_mem_Memory-0x3b654>
   49394:	000494b4 	movhi	zero,4690
   49398:	000494b4 	movhi	zero,4690
   4939c:	000494b4 	movhi	zero,4690
   493a0:	000494b4 	movhi	zero,4690
   493a4:	000494b4 	movhi	zero,4690
   493a8:	000494b4 	movhi	zero,4690
   493ac:	000494b4 	movhi	zero,4690
   493b0:	000494b4 	movhi	zero,4690
   493b4:	000494b4 	movhi	zero,4690
   493b8:	000494e4 	muli	zero,zero,4691
   493bc:	000494e4 	muli	zero,zero,4691
   493c0:	000494e4 	muli	zero,zero,4691
   493c4:	000494e4 	muli	zero,zero,4691
   493c8:	000494e4 	muli	zero,zero,4691
   493cc:	000494e4 	muli	zero,zero,4691
   493d0:	000494e4 	muli	zero,zero,4691
   493d4:	000494e4 	muli	zero,zero,4691
   493d8:	000494e4 	muli	zero,zero,4691
   493dc:	000494e4 	muli	zero,zero,4691
   493e0:	000499dc 	xori	zero,zero,4711
   493e4:	000494e4 	muli	zero,zero,4691
   493e8:	000494e4 	muli	zero,zero,4691
   493ec:	000494e4 	muli	zero,zero,4691
   493f0:	000494e4 	muli	zero,zero,4691
   493f4:	000494e4 	muli	zero,zero,4691
   493f8:	000494e4 	muli	zero,zero,4691
   493fc:	000494e4 	muli	zero,zero,4691
   49400:	000494e4 	muli	zero,zero,4691
   49404:	000494e4 	muli	zero,zero,4691
   49408:	000494e4 	muli	zero,zero,4691
   4940c:	000496e4 	muli	zero,zero,4699
   49410:	000494e4 	muli	zero,zero,4691
   49414:	000494e4 	muli	zero,zero,4691
   49418:	000494e4 	muli	zero,zero,4691
   4941c:	000494e4 	muli	zero,zero,4691
   49420:	000494e4 	muli	zero,zero,4691
   49424:	00049510 	cmplti	zero,zero,4692
   49428:	000494e4 	muli	zero,zero,4691
   4942c:	000494e4 	muli	zero,zero,4691
   49430:	00049994 	movui	zero,4710
   49434:	000494e4 	muli	zero,zero,4691
   49438:	000494e4 	muli	zero,zero,4691
   4943c:	000494e4 	muli	zero,zero,4691
   49440:	000494e4 	muli	zero,zero,4691
   49444:	000494e4 	muli	zero,zero,4691
   49448:	000494e4 	muli	zero,zero,4691
   4944c:	000494e4 	muli	zero,zero,4691
   49450:	000494e4 	muli	zero,zero,4691
   49454:	000494e4 	muli	zero,zero,4691
   49458:	000494e4 	muli	zero,zero,4691
   4945c:	0004996c 	andhi	zero,zero,4709
   49460:	0004988c 	andi	zero,zero,4706
   49464:	000494e4 	muli	zero,zero,4691
   49468:	000494e4 	muli	zero,zero,4691
   4946c:	000494e4 	muli	zero,zero,4691
   49470:	00049910 	cmplti	zero,zero,4708
   49474:	0004988c 	andi	zero,zero,4706
   49478:	000494e4 	muli	zero,zero,4691
   4947c:	000494e4 	muli	zero,zero,4691
   49480:	00049958 	cmpnei	zero,zero,4709
   49484:	000494e4 	muli	zero,zero,4691
   49488:	0004991c 	xori	zero,zero,4708
   4948c:	000496e8 	cmpgeui	zero,zero,4699
   49490:	00049c44 	movi	zero,4721
   49494:	00049c38 	rdprs	zero,zero,4720
   49498:	000494e4 	muli	zero,zero,4691
   4949c:	00049be0 	cmpeqi	zero,zero,4719
   494a0:	000494e4 	muli	zero,zero,4691
   494a4:	00049514 	movui	zero,4692
   494a8:	000494e4 	muli	zero,zero,4691
   494ac:	000494e4 	muli	zero,zero,4691
   494b0:	00049b98 	cmpnei	zero,zero,4718
   494b4:	0021883a 	mov	r16,zero
   494b8:	10fff404 	addi	r3,r2,-48
   494bc:	e0800007 	ldb	r2,0(fp)
   494c0:	840002a4 	muli	r16,r16,10
   494c4:	e7000044 	addi	fp,fp,1
   494c8:	1c21883a 	add	r16,r3,r16
   494cc:	10fff404 	addi	r3,r2,-48
   494d0:	190002b0 	cmpltui	r4,r3,10
   494d4:	203ff91e 	bne	r4,zero,494bc <___svfiprintf_internal_r+0x25c>
   494d8:	10fff804 	addi	r3,r2,-32
   494dc:	19001668 	cmpgeui	r4,r3,89
   494e0:	203f9626 	beq	r4,zero,4933c <___svfiprintf_internal_r+0xdc>
   494e4:	29403fcc 	andi	r5,r5,255
   494e8:	2803691e 	bne	r5,zero,4a290 <___svfiprintf_internal_r+0x1030>
   494ec:	10006b26 	beq	r2,zero,4969c <___svfiprintf_internal_r+0x43c>
   494f0:	d8800c05 	stb	r2,48(sp)
   494f4:	d8000845 	stb	zero,33(sp)
   494f8:	04c00044 	movi	r19,1
   494fc:	05800044 	movi	r22,1
   49500:	ddc00c04 	addi	r23,sp,48
   49504:	6023883a 	mov	r17,r12
   49508:	0013883a 	mov	r9,zero
   4950c:	00002006 	br	49590 <___svfiprintf_internal_r+0x330>
   49510:	63000414 	ori	r12,r12,16
   49514:	6080080c 	andi	r2,r12,32
   49518:	1000a126 	beq	r2,zero,497a0 <___svfiprintf_internal_r+0x540>
   4951c:	d8c00317 	ldw	r3,12(sp)
   49520:	00800044 	movi	r2,1
   49524:	1cc00017 	ldw	r19,0(r3)
   49528:	1d800117 	ldw	r22,4(r3)
   4952c:	18c00204 	addi	r3,r3,8
   49530:	d8c00315 	stw	r3,12(sp)
   49534:	d8000845 	stb	zero,33(sp)
   49538:	48ffffe0 	cmpeqi	r3,r9,-1
   4953c:	001b883a 	mov	r13,zero
   49540:	1801411e 	bne	r3,zero,49a48 <___svfiprintf_internal_r+0x7e8>
   49544:	047fdfc4 	movi	r17,-129
   49548:	9d86b03a 	or	r3,r19,r22
   4954c:	6462703a 	and	r17,r12,r17
   49550:	1802691e 	bne	r3,zero,49ef8 <___svfiprintf_internal_r+0xc98>
   49554:	4803131e 	bne	r9,zero,4a1a4 <___svfiprintf_internal_r+0xf44>
   49558:	1002c61e 	bne	r2,zero,4a074 <___svfiprintf_internal_r+0xe14>
   4955c:	6580004c 	andi	r22,r12,1
   49560:	b002c726 	beq	r22,zero,4a080 <___svfiprintf_internal_r+0xe20>
   49564:	00800c04 	movi	r2,48
   49568:	d88015c5 	stb	r2,87(sp)
   4956c:	ddc015c4 	addi	r23,sp,87
   49570:	4827883a 	mov	r19,r9
   49574:	4d80010e 	bge	r9,r22,4957c <___svfiprintf_internal_r+0x31c>
   49578:	b027883a 	mov	r19,r22
   4957c:	6b403fcc 	andi	r13,r13,255
   49580:	6b40201c 	xori	r13,r13,128
   49584:	6b7fe004 	addi	r13,r13,-128
   49588:	68000126 	beq	r13,zero,49590 <___svfiprintf_internal_r+0x330>
   4958c:	9cc00044 	addi	r19,r19,1
   49590:	8b40008c 	andi	r13,r17,2
   49594:	68000126 	beq	r13,zero,4959c <___svfiprintf_internal_r+0x33c>
   49598:	9cc00084 	addi	r19,r19,2
   4959c:	8b00210c 	andi	r12,r17,132
   495a0:	d8800b17 	ldw	r2,44(sp)
   495a4:	d9000a17 	ldw	r4,40(sp)
   495a8:	6000021e 	bne	r12,zero,495b4 <___svfiprintf_internal_r+0x354>
   495ac:	84c7c83a 	sub	r3,r16,r19
   495b0:	00c25316 	blt	zero,r3,49f00 <___svfiprintf_internal_r+0xca0>
   495b4:	d9800847 	ldb	r6,33(sp)
   495b8:	21400044 	addi	r5,r4,1
   495bc:	40c00204 	addi	r3,r8,8
   495c0:	30000f26 	beq	r6,zero,49600 <___svfiprintf_internal_r+0x3a0>
   495c4:	d9800844 	addi	r6,sp,33
   495c8:	10800044 	addi	r2,r2,1
   495cc:	41800015 	stw	r6,0(r8)
   495d0:	01800044 	movi	r6,1
   495d4:	41800115 	stw	r6,4(r8)
   495d8:	d8800b15 	stw	r2,44(sp)
   495dc:	d9400a15 	stw	r5,40(sp)
   495e0:	29800208 	cmpgei	r6,r5,8
   495e4:	3002781e 	bne	r6,zero,49fc8 <___svfiprintf_internal_r+0xd68>
   495e8:	21c00084 	addi	r7,r4,2
   495ec:	41800404 	addi	r6,r8,16
   495f0:	2809883a 	mov	r4,r5
   495f4:	1811883a 	mov	r8,r3
   495f8:	380b883a 	mov	r5,r7
   495fc:	3007883a 	mov	r3,r6
   49600:	68000d26 	beq	r13,zero,49638 <___svfiprintf_internal_r+0x3d8>
   49604:	d9000884 	addi	r4,sp,34
   49608:	10800084 	addi	r2,r2,2
   4960c:	41000015 	stw	r4,0(r8)
   49610:	01000084 	movi	r4,2
   49614:	41000115 	stw	r4,4(r8)
   49618:	d8800b15 	stw	r2,44(sp)
   4961c:	d9400a15 	stw	r5,40(sp)
   49620:	29000208 	cmpgei	r4,r5,8
   49624:	2002791e 	bne	r4,zero,4a00c <___svfiprintf_internal_r+0xdac>
   49628:	2809883a 	mov	r4,r5
   4962c:	1811883a 	mov	r8,r3
   49630:	29400044 	addi	r5,r5,1
   49634:	18c00204 	addi	r3,r3,8
   49638:	63002018 	cmpnei	r12,r12,128
   4963c:	6001bd26 	beq	r12,zero,49d34 <___svfiprintf_internal_r+0xad4>
   49640:	4d93c83a 	sub	r9,r9,r22
   49644:	0241ef16 	blt	zero,r9,49e04 <___svfiprintf_internal_r+0xba4>
   49648:	b085883a 	add	r2,r22,r2
   4964c:	45c00015 	stw	r23,0(r8)
   49650:	45800115 	stw	r22,4(r8)
   49654:	d8800b15 	stw	r2,44(sp)
   49658:	d9400a15 	stw	r5,40(sp)
   4965c:	29000210 	cmplti	r4,r5,8
   49660:	20021726 	beq	r4,zero,49ec0 <___svfiprintf_internal_r+0xc60>
   49664:	8c40010c 	andi	r17,r17,4
   49668:	88000226 	beq	r17,zero,49674 <___svfiprintf_internal_r+0x414>
   4966c:	84e3c83a 	sub	r17,r16,r19
   49670:	04405716 	blt	zero,r17,497d0 <___svfiprintf_internal_r+0x570>
   49674:	84c0010e 	bge	r16,r19,4967c <___svfiprintf_internal_r+0x41c>
   49678:	9821883a 	mov	r16,r19
   4967c:	d8c00017 	ldw	r3,0(sp)
   49680:	1c07883a 	add	r3,r3,r16
   49684:	d8c00015 	stw	r3,0(sp)
   49688:	1002151e 	bne	r2,zero,49ee0 <___svfiprintf_internal_r+0xc80>
   4968c:	e0800007 	ldb	r2,0(fp)
   49690:	d8000a15 	stw	zero,40(sp)
   49694:	9011883a 	mov	r8,r18
   49698:	103f0e1e 	bne	r2,zero,492d4 <___svfiprintf_internal_r+0x74>
   4969c:	d8800b17 	ldw	r2,44(sp)
   496a0:	1002fd1e 	bne	r2,zero,4a298 <___svfiprintf_internal_r+0x1038>
   496a4:	a080030b 	ldhu	r2,12(r20)
   496a8:	1080100c 	andi	r2,r2,64
   496ac:	1003111e 	bne	r2,zero,4a2f4 <___svfiprintf_internal_r+0x1094>
   496b0:	d8800017 	ldw	r2,0(sp)
   496b4:	dfc02f17 	ldw	ra,188(sp)
   496b8:	df002e17 	ldw	fp,184(sp)
   496bc:	ddc02d17 	ldw	r23,180(sp)
   496c0:	dd802c17 	ldw	r22,176(sp)
   496c4:	dd402b17 	ldw	r21,172(sp)
   496c8:	dd002a17 	ldw	r20,168(sp)
   496cc:	dcc02917 	ldw	r19,164(sp)
   496d0:	dc802817 	ldw	r18,160(sp)
   496d4:	dc402717 	ldw	r17,156(sp)
   496d8:	dc002617 	ldw	r16,152(sp)
   496dc:	dec03004 	addi	sp,sp,192
   496e0:	f800283a 	ret
   496e4:	63000414 	ori	r12,r12,16
   496e8:	6080080c 	andi	r2,r12,32
   496ec:	10002026 	beq	r2,zero,49770 <___svfiprintf_internal_r+0x510>
   496f0:	d8c00317 	ldw	r3,12(sp)
   496f4:	0005883a 	mov	r2,zero
   496f8:	1cc00017 	ldw	r19,0(r3)
   496fc:	1d800117 	ldw	r22,4(r3)
   49700:	18c00204 	addi	r3,r3,8
   49704:	d8c00315 	stw	r3,12(sp)
   49708:	003f8a06 	br	49534 <___svfiprintf_internal_r+0x2d4>
   4970c:	8723c83a 	sub	r17,r16,fp
   49710:	873fe226 	beq	r16,fp,4969c <___svfiprintf_internal_r+0x43c>
   49714:	d8c00b17 	ldw	r3,44(sp)
   49718:	d8800a17 	ldw	r2,40(sp)
   4971c:	47000015 	stw	fp,0(r8)
   49720:	1c47883a 	add	r3,r3,r17
   49724:	10800044 	addi	r2,r2,1
   49728:	d8800a15 	stw	r2,40(sp)
   4972c:	44400115 	stw	r17,4(r8)
   49730:	d8c00b15 	stw	r3,44(sp)
   49734:	10800208 	cmpgei	r2,r2,8
   49738:	1000061e 	bne	r2,zero,49754 <___svfiprintf_internal_r+0x4f4>
   4973c:	42000204 	addi	r8,r8,8
   49740:	d8c00017 	ldw	r3,0(sp)
   49744:	80800003 	ldbu	r2,0(r16)
   49748:	1c47883a 	add	r3,r3,r17
   4974c:	d8c00015 	stw	r3,0(sp)
   49750:	003eea06 	br	492fc <___svfiprintf_internal_r+0x9c>
   49754:	d9800904 	addi	r6,sp,36
   49758:	a00b883a 	mov	r5,r20
   4975c:	a809883a 	mov	r4,r21
   49760:	00490a00 	call	490a0 <__ssprint_r>
   49764:	103fcf1e 	bne	r2,zero,496a4 <___svfiprintf_internal_r+0x444>
   49768:	9011883a 	mov	r8,r18
   4976c:	003ff406 	br	49740 <___svfiprintf_internal_r+0x4e0>
   49770:	d9000317 	ldw	r4,12(sp)
   49774:	6080040c 	andi	r2,r12,16
   49778:	20c00104 	addi	r3,r4,4
   4977c:	1002531e 	bne	r2,zero,4a0cc <___svfiprintf_internal_r+0xe6c>
   49780:	6080100c 	andi	r2,r12,64
   49784:	1002b926 	beq	r2,zero,4a26c <___svfiprintf_internal_r+0x100c>
   49788:	d8800317 	ldw	r2,12(sp)
   4978c:	002d883a 	mov	r22,zero
   49790:	d8c00315 	stw	r3,12(sp)
   49794:	14c0000b 	ldhu	r19,0(r2)
   49798:	0005883a 	mov	r2,zero
   4979c:	003f6506 	br	49534 <___svfiprintf_internal_r+0x2d4>
   497a0:	d9000317 	ldw	r4,12(sp)
   497a4:	6080040c 	andi	r2,r12,16
   497a8:	20c00104 	addi	r3,r4,4
   497ac:	1002421e 	bne	r2,zero,4a0b8 <___svfiprintf_internal_r+0xe58>
   497b0:	6080100c 	andi	r2,r12,64
   497b4:	10029c26 	beq	r2,zero,4a228 <___svfiprintf_internal_r+0xfc8>
   497b8:	d8800317 	ldw	r2,12(sp)
   497bc:	002d883a 	mov	r22,zero
   497c0:	d8c00315 	stw	r3,12(sp)
   497c4:	14c0000b 	ldhu	r19,0(r2)
   497c8:	00800044 	movi	r2,1
   497cc:	003f5906 	br	49534 <___svfiprintf_internal_r+0x2d4>
   497d0:	01c00174 	movhi	r7,5
   497d4:	89400450 	cmplti	r5,r17,17
   497d8:	d9000a17 	ldw	r4,40(sp)
   497dc:	39cdc304 	addi	r7,r7,14092
   497e0:	05800404 	movi	r22,16
   497e4:	28000526 	beq	r5,zero,497fc <___svfiprintf_internal_r+0x59c>
   497e8:	00001906 	br	49850 <___svfiprintf_internal_r+0x5f0>
   497ec:	8c7ffc04 	addi	r17,r17,-16
   497f0:	89400448 	cmpgei	r5,r17,17
   497f4:	18c00204 	addi	r3,r3,8
   497f8:	28001526 	beq	r5,zero,49850 <___svfiprintf_internal_r+0x5f0>
   497fc:	21000044 	addi	r4,r4,1
   49800:	10800404 	addi	r2,r2,16
   49804:	19c00015 	stw	r7,0(r3)
   49808:	1d800115 	stw	r22,4(r3)
   4980c:	d8800b15 	stw	r2,44(sp)
   49810:	d9000a15 	stw	r4,40(sp)
   49814:	21400208 	cmpgei	r5,r4,8
   49818:	283ff426 	beq	r5,zero,497ec <___svfiprintf_internal_r+0x58c>
   4981c:	d9800904 	addi	r6,sp,36
   49820:	a00b883a 	mov	r5,r20
   49824:	a809883a 	mov	r4,r21
   49828:	d9c00115 	stw	r7,4(sp)
   4982c:	00490a00 	call	490a0 <__ssprint_r>
   49830:	103f9c1e 	bne	r2,zero,496a4 <___svfiprintf_internal_r+0x444>
   49834:	8c7ffc04 	addi	r17,r17,-16
   49838:	89400448 	cmpgei	r5,r17,17
   4983c:	d8800b17 	ldw	r2,44(sp)
   49840:	d9000a17 	ldw	r4,40(sp)
   49844:	d9c00117 	ldw	r7,4(sp)
   49848:	9007883a 	mov	r3,r18
   4984c:	283feb1e 	bne	r5,zero,497fc <___svfiprintf_internal_r+0x59c>
   49850:	21000044 	addi	r4,r4,1
   49854:	1445883a 	add	r2,r2,r17
   49858:	d9000a15 	stw	r4,40(sp)
   4985c:	19c00015 	stw	r7,0(r3)
   49860:	1c400115 	stw	r17,4(r3)
   49864:	d8800b15 	stw	r2,44(sp)
   49868:	21000210 	cmplti	r4,r4,8
   4986c:	203f811e 	bne	r4,zero,49674 <___svfiprintf_internal_r+0x414>
   49870:	d9800904 	addi	r6,sp,36
   49874:	a00b883a 	mov	r5,r20
   49878:	a809883a 	mov	r4,r21
   4987c:	00490a00 	call	490a0 <__ssprint_r>
   49880:	103f881e 	bne	r2,zero,496a4 <___svfiprintf_internal_r+0x444>
   49884:	d8800b17 	ldw	r2,44(sp)
   49888:	003f7a06 	br	49674 <___svfiprintf_internal_r+0x414>
   4988c:	29403fcc 	andi	r5,r5,255
   49890:	2802901e 	bne	r5,zero,4a2d4 <___svfiprintf_internal_r+0x1074>
   49894:	6080080c 	andi	r2,r12,32
   49898:	10005526 	beq	r2,zero,499f0 <___svfiprintf_internal_r+0x790>
   4989c:	d8c00317 	ldw	r3,12(sp)
   498a0:	18800117 	ldw	r2,4(r3)
   498a4:	1cc00017 	ldw	r19,0(r3)
   498a8:	18c00204 	addi	r3,r3,8
   498ac:	d8c00315 	stw	r3,12(sp)
   498b0:	102d883a 	mov	r22,r2
   498b4:	10005a16 	blt	r2,zero,49a20 <___svfiprintf_internal_r+0x7c0>
   498b8:	48bfffd8 	cmpnei	r2,r9,-1
   498bc:	10000a26 	beq	r2,zero,498e8 <___svfiprintf_internal_r+0x688>
   498c0:	00ffdfc4 	movi	r3,-129
   498c4:	9d84b03a 	or	r2,r19,r22
   498c8:	db400843 	ldbu	r13,33(sp)
   498cc:	60d8703a 	and	r12,r12,r3
   498d0:	1000061e 	bne	r2,zero,498ec <___svfiprintf_internal_r+0x68c>
   498d4:	4800081e 	bne	r9,zero,498f8 <___svfiprintf_internal_r+0x698>
   498d8:	002d883a 	mov	r22,zero
   498dc:	6023883a 	mov	r17,r12
   498e0:	902f883a 	mov	r23,r18
   498e4:	003f2206 	br	49570 <___svfiprintf_internal_r+0x310>
   498e8:	db400843 	ldbu	r13,33(sp)
   498ec:	b000e41e 	bne	r22,zero,49c80 <___svfiprintf_internal_r+0xa20>
   498f0:	988002a8 	cmpgeui	r2,r19,10
   498f4:	1000e21e 	bne	r2,zero,49c80 <___svfiprintf_internal_r+0xa20>
   498f8:	9cc00c04 	addi	r19,r19,48
   498fc:	dcc015c5 	stb	r19,87(sp)
   49900:	6023883a 	mov	r17,r12
   49904:	05800044 	movi	r22,1
   49908:	ddc015c4 	addi	r23,sp,87
   4990c:	003f1806 	br	49570 <___svfiprintf_internal_r+0x310>
   49910:	e0800007 	ldb	r2,0(fp)
   49914:	63001014 	ori	r12,r12,64
   49918:	003e8406 	br	4932c <___svfiprintf_internal_r+0xcc>
   4991c:	29403fcc 	andi	r5,r5,255
   49920:	2802681e 	bne	r5,zero,4a2c4 <___svfiprintf_internal_r+0x1064>
   49924:	d9000317 	ldw	r4,12(sp)
   49928:	6080080c 	andi	r2,r12,32
   4992c:	20c00017 	ldw	r3,0(r4)
   49930:	25c00104 	addi	r23,r4,4
   49934:	1001da1e 	bne	r2,zero,4a0a0 <___svfiprintf_internal_r+0xe40>
   49938:	6080040c 	andi	r2,r12,16
   4993c:	1002031e 	bne	r2,zero,4a14c <___svfiprintf_internal_r+0xeec>
   49940:	6300100c 	andi	r12,r12,64
   49944:	60020126 	beq	r12,zero,4a14c <___svfiprintf_internal_r+0xeec>
   49948:	d8800017 	ldw	r2,0(sp)
   4994c:	ddc00315 	stw	r23,12(sp)
   49950:	1880000d 	sth	r2,0(r3)
   49954:	003e5d06 	br	492cc <___svfiprintf_internal_r+0x6c>
   49958:	e0800007 	ldb	r2,0(fp)
   4995c:	10c01b18 	cmpnei	r3,r2,108
   49960:	18022126 	beq	r3,zero,4a1e8 <___svfiprintf_internal_r+0xf88>
   49964:	63000414 	ori	r12,r12,16
   49968:	003e7006 	br	4932c <___svfiprintf_internal_r+0xcc>
   4996c:	d8c00317 	ldw	r3,12(sp)
   49970:	d8000845 	stb	zero,33(sp)
   49974:	04c00044 	movi	r19,1
   49978:	18800017 	ldw	r2,0(r3)
   4997c:	18c00104 	addi	r3,r3,4
   49980:	d8c00315 	stw	r3,12(sp)
   49984:	d8800c05 	stb	r2,48(sp)
   49988:	05800044 	movi	r22,1
   4998c:	ddc00c04 	addi	r23,sp,48
   49990:	003edc06 	br	49504 <___svfiprintf_internal_r+0x2a4>
   49994:	29403fcc 	andi	r5,r5,255
   49998:	28024c1e 	bne	r5,zero,4a2cc <___svfiprintf_internal_r+0x106c>
   4999c:	00c00174 	movhi	r3,5
   499a0:	18cd3a04 	addi	r3,r3,13544
   499a4:	d8c00415 	stw	r3,16(sp)
   499a8:	60c0080c 	andi	r3,r12,32
   499ac:	18008126 	beq	r3,zero,49bb4 <___svfiprintf_internal_r+0x954>
   499b0:	d8c00317 	ldw	r3,12(sp)
   499b4:	1cc00017 	ldw	r19,0(r3)
   499b8:	1d800117 	ldw	r22,4(r3)
   499bc:	18c00204 	addi	r3,r3,8
   499c0:	d8c00315 	stw	r3,12(sp)
   499c4:	60c0004c 	andi	r3,r12,1
   499c8:	18000226 	beq	r3,zero,499d4 <___svfiprintf_internal_r+0x774>
   499cc:	9d86b03a 	or	r3,r19,r22
   499d0:	1801ad1e 	bne	r3,zero,4a088 <___svfiprintf_internal_r+0xe28>
   499d4:	00800084 	movi	r2,2
   499d8:	003ed606 	br	49534 <___svfiprintf_internal_r+0x2d4>
   499dc:	29403fcc 	andi	r5,r5,255
   499e0:	28023e1e 	bne	r5,zero,4a2dc <___svfiprintf_internal_r+0x107c>
   499e4:	63000414 	ori	r12,r12,16
   499e8:	6080080c 	andi	r2,r12,32
   499ec:	103fab1e 	bne	r2,zero,4989c <___svfiprintf_internal_r+0x63c>
   499f0:	d9000317 	ldw	r4,12(sp)
   499f4:	6080040c 	andi	r2,r12,16
   499f8:	20c00104 	addi	r3,r4,4
   499fc:	1001bc1e 	bne	r2,zero,4a0f0 <___svfiprintf_internal_r+0xe90>
   49a00:	6080100c 	andi	r2,r12,64
   49a04:	10021326 	beq	r2,zero,4a254 <___svfiprintf_internal_r+0xff4>
   49a08:	d8800317 	ldw	r2,12(sp)
   49a0c:	d8c00315 	stw	r3,12(sp)
   49a10:	14c0000f 	ldh	r19,0(r2)
   49a14:	982dd7fa 	srai	r22,r19,31
   49a18:	b005883a 	mov	r2,r22
   49a1c:	103fa60e 	bge	r2,zero,498b8 <___svfiprintf_internal_r+0x658>
   49a20:	9804c03a 	cmpne	r2,r19,zero
   49a24:	05adc83a 	sub	r22,zero,r22
   49a28:	b0adc83a 	sub	r22,r22,r2
   49a2c:	00800b44 	movi	r2,45
   49a30:	d8800845 	stb	r2,33(sp)
   49a34:	48ffffe0 	cmpeqi	r3,r9,-1
   49a38:	04e7c83a 	sub	r19,zero,r19
   49a3c:	03400b44 	movi	r13,45
   49a40:	00800044 	movi	r2,1
   49a44:	183ebf26 	beq	r3,zero,49544 <___svfiprintf_internal_r+0x2e4>
   49a48:	10c00060 	cmpeqi	r3,r2,1
   49a4c:	183fa71e 	bne	r3,zero,498ec <___svfiprintf_internal_r+0x68c>
   49a50:	108000a0 	cmpeqi	r2,r2,2
   49a54:	902f883a 	mov	r23,r18
   49a58:	1000a91e 	bne	r2,zero,49d00 <___svfiprintf_internal_r+0xaa0>
   49a5c:	b006977a 	slli	r3,r22,29
   49a60:	9804d0fa 	srli	r2,r19,3
   49a64:	b02cd0fa 	srli	r22,r22,3
   49a68:	990001cc 	andi	r4,r19,7
   49a6c:	21000c04 	addi	r4,r4,48
   49a70:	18a6b03a 	or	r19,r3,r2
   49a74:	b93fffc5 	stb	r4,-1(r23)
   49a78:	9d84b03a 	or	r2,r19,r22
   49a7c:	b80b883a 	mov	r5,r23
   49a80:	bdffffc4 	addi	r23,r23,-1
   49a84:	103ff51e 	bne	r2,zero,49a5c <___svfiprintf_internal_r+0x7fc>
   49a88:	6080004c 	andi	r2,r12,1
   49a8c:	10009926 	beq	r2,zero,49cf4 <___svfiprintf_internal_r+0xa94>
   49a90:	21003fcc 	andi	r4,r4,255
   49a94:	2100201c 	xori	r4,r4,128
   49a98:	213fe004 	addi	r4,r4,-128
   49a9c:	20800c18 	cmpnei	r2,r4,48
   49aa0:	10009426 	beq	r2,zero,49cf4 <___svfiprintf_internal_r+0xa94>
   49aa4:	297fff84 	addi	r5,r5,-2
   49aa8:	00800c04 	movi	r2,48
   49aac:	b8bfffc5 	stb	r2,-1(r23)
   49ab0:	916dc83a 	sub	r22,r18,r5
   49ab4:	6023883a 	mov	r17,r12
   49ab8:	282f883a 	mov	r23,r5
   49abc:	003eac06 	br	49570 <___svfiprintf_internal_r+0x310>
   49ac0:	e0800007 	ldb	r2,0(fp)
   49ac4:	63002014 	ori	r12,r12,128
   49ac8:	003e1806 	br	4932c <___svfiprintf_internal_r+0xcc>
   49acc:	e0800007 	ldb	r2,0(fp)
   49ad0:	e1000044 	addi	r4,fp,1
   49ad4:	10c00aa0 	cmpeqi	r3,r2,42
   49ad8:	1802091e 	bne	r3,zero,4a300 <___svfiprintf_internal_r+0x10a0>
   49adc:	10fff404 	addi	r3,r2,-48
   49ae0:	19c002b0 	cmpltui	r7,r3,10
   49ae4:	2039883a 	mov	fp,r4
   49ae8:	0013883a 	mov	r9,zero
   49aec:	383e1026 	beq	r7,zero,49330 <___svfiprintf_internal_r+0xd0>
   49af0:	e0800007 	ldb	r2,0(fp)
   49af4:	4a4002a4 	muli	r9,r9,10
   49af8:	e7000044 	addi	fp,fp,1
   49afc:	48d3883a 	add	r9,r9,r3
   49b00:	10fff404 	addi	r3,r2,-48
   49b04:	190002b0 	cmpltui	r4,r3,10
   49b08:	203ff91e 	bne	r4,zero,49af0 <___svfiprintf_internal_r+0x890>
   49b0c:	003e0806 	br	49330 <___svfiprintf_internal_r+0xd0>
   49b10:	e0800003 	ldbu	r2,0(fp)
   49b14:	10803fcc 	andi	r2,r2,255
   49b18:	1080201c 	xori	r2,r2,128
   49b1c:	63000114 	ori	r12,r12,4
   49b20:	10bfe004 	addi	r2,r2,-128
   49b24:	003e0106 	br	4932c <___svfiprintf_internal_r+0xcc>
   49b28:	e0800007 	ldb	r2,0(fp)
   49b2c:	01400044 	movi	r5,1
   49b30:	01800ac4 	movi	r6,43
   49b34:	003dfd06 	br	4932c <___svfiprintf_internal_r+0xcc>
   49b38:	d8c00317 	ldw	r3,12(sp)
   49b3c:	e0800003 	ldbu	r2,0(fp)
   49b40:	1c000017 	ldw	r16,0(r3)
   49b44:	1dc00104 	addi	r23,r3,4
   49b48:	80019316 	blt	r16,zero,4a198 <___svfiprintf_internal_r+0xf38>
   49b4c:	ddc00315 	stw	r23,12(sp)
   49b50:	10803fcc 	andi	r2,r2,255
   49b54:	1080201c 	xori	r2,r2,128
   49b58:	10bfe004 	addi	r2,r2,-128
   49b5c:	003df306 	br	4932c <___svfiprintf_internal_r+0xcc>
   49b60:	e0800007 	ldb	r2,0(fp)
   49b64:	63000054 	ori	r12,r12,1
   49b68:	003df006 	br	4932c <___svfiprintf_internal_r+0xcc>
   49b6c:	30c03fcc 	andi	r3,r6,255
   49b70:	18c0201c 	xori	r3,r3,128
   49b74:	18ffe004 	addi	r3,r3,-128
   49b78:	e0800003 	ldbu	r2,0(fp)
   49b7c:	183ff41e 	bne	r3,zero,49b50 <___svfiprintf_internal_r+0x8f0>
   49b80:	10803fcc 	andi	r2,r2,255
   49b84:	1080201c 	xori	r2,r2,128
   49b88:	01400044 	movi	r5,1
   49b8c:	01800804 	movi	r6,32
   49b90:	10bfe004 	addi	r2,r2,-128
   49b94:	003de506 	br	4932c <___svfiprintf_internal_r+0xcc>
   49b98:	29403fcc 	andi	r5,r5,255
   49b9c:	2801c71e 	bne	r5,zero,4a2bc <___svfiprintf_internal_r+0x105c>
   49ba0:	00c00174 	movhi	r3,5
   49ba4:	18cd3f04 	addi	r3,r3,13564
   49ba8:	d8c00415 	stw	r3,16(sp)
   49bac:	60c0080c 	andi	r3,r12,32
   49bb0:	183f7f1e 	bne	r3,zero,499b0 <___svfiprintf_internal_r+0x750>
   49bb4:	d9400317 	ldw	r5,12(sp)
   49bb8:	60c0040c 	andi	r3,r12,16
   49bbc:	29000104 	addi	r4,r5,4
   49bc0:	1801471e 	bne	r3,zero,4a0e0 <___svfiprintf_internal_r+0xe80>
   49bc4:	60c0100c 	andi	r3,r12,64
   49bc8:	18019d26 	beq	r3,zero,4a240 <___svfiprintf_internal_r+0xfe0>
   49bcc:	d8c00317 	ldw	r3,12(sp)
   49bd0:	002d883a 	mov	r22,zero
   49bd4:	d9000315 	stw	r4,12(sp)
   49bd8:	1cc0000b 	ldhu	r19,0(r3)
   49bdc:	003f7906 	br	499c4 <___svfiprintf_internal_r+0x764>
   49be0:	d8800317 	ldw	r2,12(sp)
   49be4:	d8000845 	stb	zero,33(sp)
   49be8:	15c00017 	ldw	r23,0(r2)
   49bec:	14400104 	addi	r17,r2,4
   49bf0:	b8018426 	beq	r23,zero,4a204 <___svfiprintf_internal_r+0xfa4>
   49bf4:	48bfffe0 	cmpeqi	r2,r9,-1
   49bf8:	1001421e 	bne	r2,zero,4a104 <___svfiprintf_internal_r+0xea4>
   49bfc:	480d883a 	mov	r6,r9
   49c00:	000b883a 	mov	r5,zero
   49c04:	b809883a 	mov	r4,r23
   49c08:	da000315 	stw	r8,12(sp)
   49c0c:	db000215 	stw	r12,8(sp)
   49c10:	da400115 	stw	r9,4(sp)
   49c14:	0047e300 	call	47e30 <memchr>
   49c18:	da400117 	ldw	r9,4(sp)
   49c1c:	db000217 	ldw	r12,8(sp)
   49c20:	da000317 	ldw	r8,12(sp)
   49c24:	1001a126 	beq	r2,zero,4a2ac <___svfiprintf_internal_r+0x104c>
   49c28:	15edc83a 	sub	r22,r2,r23
   49c2c:	b027883a 	mov	r19,r22
   49c30:	dc400315 	stw	r17,12(sp)
   49c34:	003e3306 	br	49504 <___svfiprintf_internal_r+0x2a4>
   49c38:	e0800007 	ldb	r2,0(fp)
   49c3c:	63000814 	ori	r12,r12,32
   49c40:	003dba06 	br	4932c <___svfiprintf_internal_r+0xcc>
   49c44:	d8c00317 	ldw	r3,12(sp)
   49c48:	00800c04 	movi	r2,48
   49c4c:	d8800885 	stb	r2,34(sp)
   49c50:	00801e04 	movi	r2,120
   49c54:	01000174 	movhi	r4,5
   49c58:	d88008c5 	stb	r2,35(sp)
   49c5c:	18800104 	addi	r2,r3,4
   49c60:	d8800315 	stw	r2,12(sp)
   49c64:	208d3f04 	addi	r2,r4,13564
   49c68:	d8800415 	stw	r2,16(sp)
   49c6c:	1cc00017 	ldw	r19,0(r3)
   49c70:	002d883a 	mov	r22,zero
   49c74:	63000094 	ori	r12,r12,2
   49c78:	00800084 	movi	r2,2
   49c7c:	003e2d06 	br	49534 <___svfiprintf_internal_r+0x2d4>
   49c80:	902f883a 	mov	r23,r18
   49c84:	9809883a 	mov	r4,r19
   49c88:	b00b883a 	mov	r5,r22
   49c8c:	01800284 	movi	r6,10
   49c90:	000f883a 	mov	r7,zero
   49c94:	db400615 	stw	r13,24(sp)
   49c98:	da000515 	stw	r8,20(sp)
   49c9c:	da400215 	stw	r9,8(sp)
   49ca0:	db000115 	stw	r12,4(sp)
   49ca4:	004def80 	call	4def8 <__umoddi3>
   49ca8:	10800c04 	addi	r2,r2,48
   49cac:	9809883a 	mov	r4,r19
   49cb0:	b00b883a 	mov	r5,r22
   49cb4:	b8bfffc5 	stb	r2,-1(r23)
   49cb8:	01800284 	movi	r6,10
   49cbc:	000f883a 	mov	r7,zero
   49cc0:	004d9680 	call	4d968 <__udivdi3>
   49cc4:	b009883a 	mov	r4,r22
   49cc8:	980b883a 	mov	r5,r19
   49ccc:	db000117 	ldw	r12,4(sp)
   49cd0:	da400217 	ldw	r9,8(sp)
   49cd4:	da000517 	ldw	r8,20(sp)
   49cd8:	db400617 	ldw	r13,24(sp)
   49cdc:	bdffffc4 	addi	r23,r23,-1
   49ce0:	1027883a 	mov	r19,r2
   49ce4:	182d883a 	mov	r22,r3
   49ce8:	203fe61e 	bne	r4,zero,49c84 <___svfiprintf_internal_r+0xa24>
   49cec:	294002a8 	cmpgeui	r5,r5,10
   49cf0:	283fe41e 	bne	r5,zero,49c84 <___svfiprintf_internal_r+0xa24>
   49cf4:	95edc83a 	sub	r22,r18,r23
   49cf8:	6023883a 	mov	r17,r12
   49cfc:	003e1c06 	br	49570 <___svfiprintf_internal_r+0x310>
   49d00:	d9000417 	ldw	r4,16(sp)
   49d04:	988003cc 	andi	r2,r19,15
   49d08:	b006973a 	slli	r3,r22,28
   49d0c:	9826d13a 	srli	r19,r19,4
   49d10:	2085883a 	add	r2,r4,r2
   49d14:	10800003 	ldbu	r2,0(r2)
   49d18:	b02cd13a 	srli	r22,r22,4
   49d1c:	1ce6b03a 	or	r19,r3,r19
   49d20:	b8bfffc5 	stb	r2,-1(r23)
   49d24:	9d84b03a 	or	r2,r19,r22
   49d28:	bdffffc4 	addi	r23,r23,-1
   49d2c:	103ff41e 	bne	r2,zero,49d00 <___svfiprintf_internal_r+0xaa0>
   49d30:	003ff006 	br	49cf4 <___svfiprintf_internal_r+0xa94>
   49d34:	84d9c83a 	sub	r12,r16,r19
   49d38:	033e410e 	bge	zero,r12,49640 <___svfiprintf_internal_r+0x3e0>
   49d3c:	61800450 	cmplti	r6,r12,17
   49d40:	01c00174 	movhi	r7,5
   49d44:	3001671e 	bne	r6,zero,4a2e4 <___svfiprintf_internal_r+0x1084>
   49d48:	39cdbf04 	addi	r7,r7,14076
   49d4c:	03400404 	movi	r13,16
   49d50:	00000406 	br	49d64 <___svfiprintf_internal_r+0xb04>
   49d54:	633ffc04 	addi	r12,r12,-16
   49d58:	60c00448 	cmpgei	r3,r12,17
   49d5c:	42000204 	addi	r8,r8,8
   49d60:	18001a26 	beq	r3,zero,49dcc <___svfiprintf_internal_r+0xb6c>
   49d64:	21000044 	addi	r4,r4,1
   49d68:	10800404 	addi	r2,r2,16
   49d6c:	41c00015 	stw	r7,0(r8)
   49d70:	43400115 	stw	r13,4(r8)
   49d74:	d8800b15 	stw	r2,44(sp)
   49d78:	d9000a15 	stw	r4,40(sp)
   49d7c:	20c00208 	cmpgei	r3,r4,8
   49d80:	183ff426 	beq	r3,zero,49d54 <___svfiprintf_internal_r+0xaf4>
   49d84:	d9800904 	addi	r6,sp,36
   49d88:	a00b883a 	mov	r5,r20
   49d8c:	a809883a 	mov	r4,r21
   49d90:	d9c00515 	stw	r7,20(sp)
   49d94:	da400215 	stw	r9,8(sp)
   49d98:	db000115 	stw	r12,4(sp)
   49d9c:	00490a00 	call	490a0 <__ssprint_r>
   49da0:	103e401e 	bne	r2,zero,496a4 <___svfiprintf_internal_r+0x444>
   49da4:	db000117 	ldw	r12,4(sp)
   49da8:	d8800b17 	ldw	r2,44(sp)
   49dac:	d9000a17 	ldw	r4,40(sp)
   49db0:	633ffc04 	addi	r12,r12,-16
   49db4:	60c00448 	cmpgei	r3,r12,17
   49db8:	d9c00517 	ldw	r7,20(sp)
   49dbc:	da400217 	ldw	r9,8(sp)
   49dc0:	9011883a 	mov	r8,r18
   49dc4:	03400404 	movi	r13,16
   49dc8:	183fe61e 	bne	r3,zero,49d64 <___svfiprintf_internal_r+0xb04>
   49dcc:	21000044 	addi	r4,r4,1
   49dd0:	41800204 	addi	r6,r8,8
   49dd4:	1305883a 	add	r2,r2,r12
   49dd8:	41c00015 	stw	r7,0(r8)
   49ddc:	43000115 	stw	r12,4(r8)
   49de0:	d8800b15 	stw	r2,44(sp)
   49de4:	d9000a15 	stw	r4,40(sp)
   49de8:	20c00208 	cmpgei	r3,r4,8
   49dec:	1800f11e 	bne	r3,zero,4a1b4 <___svfiprintf_internal_r+0xf54>
   49df0:	4d93c83a 	sub	r9,r9,r22
   49df4:	21400044 	addi	r5,r4,1
   49df8:	30c00204 	addi	r3,r6,8
   49dfc:	3011883a 	mov	r8,r6
   49e00:	027e110e 	bge	zero,r9,49648 <___svfiprintf_internal_r+0x3e8>
   49e04:	49800450 	cmplti	r6,r9,17
   49e08:	01c00174 	movhi	r7,5
   49e0c:	30011d1e 	bne	r6,zero,4a284 <___svfiprintf_internal_r+0x1024>
   49e10:	39cdbf04 	addi	r7,r7,14076
   49e14:	03000404 	movi	r12,16
   49e18:	00000406 	br	49e2c <___svfiprintf_internal_r+0xbcc>
   49e1c:	4a7ffc04 	addi	r9,r9,-16
   49e20:	48c00448 	cmpgei	r3,r9,17
   49e24:	42000204 	addi	r8,r8,8
   49e28:	18001826 	beq	r3,zero,49e8c <___svfiprintf_internal_r+0xc2c>
   49e2c:	21000044 	addi	r4,r4,1
   49e30:	10800404 	addi	r2,r2,16
   49e34:	41c00015 	stw	r7,0(r8)
   49e38:	43000115 	stw	r12,4(r8)
   49e3c:	d8800b15 	stw	r2,44(sp)
   49e40:	d9000a15 	stw	r4,40(sp)
   49e44:	20c00208 	cmpgei	r3,r4,8
   49e48:	183ff426 	beq	r3,zero,49e1c <___svfiprintf_internal_r+0xbbc>
   49e4c:	d9800904 	addi	r6,sp,36
   49e50:	a00b883a 	mov	r5,r20
   49e54:	a809883a 	mov	r4,r21
   49e58:	d9c00215 	stw	r7,8(sp)
   49e5c:	da400115 	stw	r9,4(sp)
   49e60:	00490a00 	call	490a0 <__ssprint_r>
   49e64:	103e0f1e 	bne	r2,zero,496a4 <___svfiprintf_internal_r+0x444>
   49e68:	da400117 	ldw	r9,4(sp)
   49e6c:	d8800b17 	ldw	r2,44(sp)
   49e70:	d9000a17 	ldw	r4,40(sp)
   49e74:	4a7ffc04 	addi	r9,r9,-16
   49e78:	48c00448 	cmpgei	r3,r9,17
   49e7c:	d9c00217 	ldw	r7,8(sp)
   49e80:	9011883a 	mov	r8,r18
   49e84:	03000404 	movi	r12,16
   49e88:	183fe81e 	bne	r3,zero,49e2c <___svfiprintf_internal_r+0xbcc>
   49e8c:	21400044 	addi	r5,r4,1
   49e90:	41000204 	addi	r4,r8,8
   49e94:	1245883a 	add	r2,r2,r9
   49e98:	41c00015 	stw	r7,0(r8)
   49e9c:	42400115 	stw	r9,4(r8)
   49ea0:	d8800b15 	stw	r2,44(sp)
   49ea4:	d9400a15 	stw	r5,40(sp)
   49ea8:	28c00208 	cmpgei	r3,r5,8
   49eac:	1800661e 	bne	r3,zero,4a048 <___svfiprintf_internal_r+0xde8>
   49eb0:	29400044 	addi	r5,r5,1
   49eb4:	20c00204 	addi	r3,r4,8
   49eb8:	2011883a 	mov	r8,r4
   49ebc:	003de206 	br	49648 <___svfiprintf_internal_r+0x3e8>
   49ec0:	d9800904 	addi	r6,sp,36
   49ec4:	a00b883a 	mov	r5,r20
   49ec8:	a809883a 	mov	r4,r21
   49ecc:	00490a00 	call	490a0 <__ssprint_r>
   49ed0:	103df41e 	bne	r2,zero,496a4 <___svfiprintf_internal_r+0x444>
   49ed4:	d8800b17 	ldw	r2,44(sp)
   49ed8:	9007883a 	mov	r3,r18
   49edc:	003de106 	br	49664 <___svfiprintf_internal_r+0x404>
   49ee0:	d9800904 	addi	r6,sp,36
   49ee4:	a00b883a 	mov	r5,r20
   49ee8:	a809883a 	mov	r4,r21
   49eec:	00490a00 	call	490a0 <__ssprint_r>
   49ef0:	103de626 	beq	r2,zero,4968c <___svfiprintf_internal_r+0x42c>
   49ef4:	003deb06 	br	496a4 <___svfiprintf_internal_r+0x444>
   49ef8:	8819883a 	mov	r12,r17
   49efc:	003ed206 	br	49a48 <___svfiprintf_internal_r+0x7e8>
   49f00:	01c00174 	movhi	r7,5
   49f04:	19400450 	cmplti	r5,r3,17
   49f08:	39cdc304 	addi	r7,r7,14092
   49f0c:	03800404 	movi	r14,16
   49f10:	28000526 	beq	r5,zero,49f28 <___svfiprintf_internal_r+0xcc8>
   49f14:	00002206 	br	49fa0 <___svfiprintf_internal_r+0xd40>
   49f18:	18fffc04 	addi	r3,r3,-16
   49f1c:	19400448 	cmpgei	r5,r3,17
   49f20:	42000204 	addi	r8,r8,8
   49f24:	28001e26 	beq	r5,zero,49fa0 <___svfiprintf_internal_r+0xd40>
   49f28:	21000044 	addi	r4,r4,1
   49f2c:	10800404 	addi	r2,r2,16
   49f30:	41c00015 	stw	r7,0(r8)
   49f34:	43800115 	stw	r14,4(r8)
   49f38:	d8800b15 	stw	r2,44(sp)
   49f3c:	d9000a15 	stw	r4,40(sp)
   49f40:	21400208 	cmpgei	r5,r4,8
   49f44:	283ff426 	beq	r5,zero,49f18 <___svfiprintf_internal_r+0xcb8>
   49f48:	d9800904 	addi	r6,sp,36
   49f4c:	a00b883a 	mov	r5,r20
   49f50:	a809883a 	mov	r4,r21
   49f54:	d9c00715 	stw	r7,28(sp)
   49f58:	d8c00615 	stw	r3,24(sp)
   49f5c:	da400515 	stw	r9,20(sp)
   49f60:	db000215 	stw	r12,8(sp)
   49f64:	db400115 	stw	r13,4(sp)
   49f68:	00490a00 	call	490a0 <__ssprint_r>
   49f6c:	103dcd1e 	bne	r2,zero,496a4 <___svfiprintf_internal_r+0x444>
   49f70:	d8c00617 	ldw	r3,24(sp)
   49f74:	d8800b17 	ldw	r2,44(sp)
   49f78:	d9000a17 	ldw	r4,40(sp)
   49f7c:	18fffc04 	addi	r3,r3,-16
   49f80:	19400448 	cmpgei	r5,r3,17
   49f84:	d9c00717 	ldw	r7,28(sp)
   49f88:	da400517 	ldw	r9,20(sp)
   49f8c:	db000217 	ldw	r12,8(sp)
   49f90:	db400117 	ldw	r13,4(sp)
   49f94:	9011883a 	mov	r8,r18
   49f98:	03800404 	movi	r14,16
   49f9c:	283fe21e 	bne	r5,zero,49f28 <___svfiprintf_internal_r+0xcc8>
   49fa0:	21000044 	addi	r4,r4,1
   49fa4:	10c5883a 	add	r2,r2,r3
   49fa8:	40c00115 	stw	r3,4(r8)
   49fac:	41c00015 	stw	r7,0(r8)
   49fb0:	d8800b15 	stw	r2,44(sp)
   49fb4:	d9000a15 	stw	r4,40(sp)
   49fb8:	20c00208 	cmpgei	r3,r4,8
   49fbc:	1800671e 	bne	r3,zero,4a15c <___svfiprintf_internal_r+0xefc>
   49fc0:	42000204 	addi	r8,r8,8
   49fc4:	003d7b06 	br	495b4 <___svfiprintf_internal_r+0x354>
   49fc8:	d9800904 	addi	r6,sp,36
   49fcc:	a00b883a 	mov	r5,r20
   49fd0:	a809883a 	mov	r4,r21
   49fd4:	da400515 	stw	r9,20(sp)
   49fd8:	db000215 	stw	r12,8(sp)
   49fdc:	db400115 	stw	r13,4(sp)
   49fe0:	00490a00 	call	490a0 <__ssprint_r>
   49fe4:	103daf1e 	bne	r2,zero,496a4 <___svfiprintf_internal_r+0x444>
   49fe8:	d9000a17 	ldw	r4,40(sp)
   49fec:	d8800b17 	ldw	r2,44(sp)
   49ff0:	da400517 	ldw	r9,20(sp)
   49ff4:	db000217 	ldw	r12,8(sp)
   49ff8:	db400117 	ldw	r13,4(sp)
   49ffc:	d8c01804 	addi	r3,sp,96
   4a000:	21400044 	addi	r5,r4,1
   4a004:	9011883a 	mov	r8,r18
   4a008:	003d7d06 	br	49600 <___svfiprintf_internal_r+0x3a0>
   4a00c:	d9800904 	addi	r6,sp,36
   4a010:	a00b883a 	mov	r5,r20
   4a014:	a809883a 	mov	r4,r21
   4a018:	da400215 	stw	r9,8(sp)
   4a01c:	db000115 	stw	r12,4(sp)
   4a020:	00490a00 	call	490a0 <__ssprint_r>
   4a024:	103d9f1e 	bne	r2,zero,496a4 <___svfiprintf_internal_r+0x444>
   4a028:	d9000a17 	ldw	r4,40(sp)
   4a02c:	d8800b17 	ldw	r2,44(sp)
   4a030:	da400217 	ldw	r9,8(sp)
   4a034:	db000117 	ldw	r12,4(sp)
   4a038:	d8c01804 	addi	r3,sp,96
   4a03c:	21400044 	addi	r5,r4,1
   4a040:	9011883a 	mov	r8,r18
   4a044:	003d7c06 	br	49638 <___svfiprintf_internal_r+0x3d8>
   4a048:	d9800904 	addi	r6,sp,36
   4a04c:	a00b883a 	mov	r5,r20
   4a050:	a809883a 	mov	r4,r21
   4a054:	00490a00 	call	490a0 <__ssprint_r>
   4a058:	103d921e 	bne	r2,zero,496a4 <___svfiprintf_internal_r+0x444>
   4a05c:	d9000a17 	ldw	r4,40(sp)
   4a060:	d8800b17 	ldw	r2,44(sp)
   4a064:	d8c01804 	addi	r3,sp,96
   4a068:	21400044 	addi	r5,r4,1
   4a06c:	9011883a 	mov	r8,r18
   4a070:	003d7506 	br	49648 <___svfiprintf_internal_r+0x3e8>
   4a074:	002d883a 	mov	r22,zero
   4a078:	902f883a 	mov	r23,r18
   4a07c:	003d3c06 	br	49570 <___svfiprintf_internal_r+0x310>
   4a080:	902f883a 	mov	r23,r18
   4a084:	003d3a06 	br	49570 <___svfiprintf_internal_r+0x310>
   4a088:	00c00c04 	movi	r3,48
   4a08c:	d88008c5 	stb	r2,35(sp)
   4a090:	d8c00885 	stb	r3,34(sp)
   4a094:	63000094 	ori	r12,r12,2
   4a098:	00800084 	movi	r2,2
   4a09c:	003d2506 	br	49534 <___svfiprintf_internal_r+0x2d4>
   4a0a0:	d9000017 	ldw	r4,0(sp)
   4a0a4:	ddc00315 	stw	r23,12(sp)
   4a0a8:	2005d7fa 	srai	r2,r4,31
   4a0ac:	19000015 	stw	r4,0(r3)
   4a0b0:	18800115 	stw	r2,4(r3)
   4a0b4:	003c8506 	br	492cc <___svfiprintf_internal_r+0x6c>
   4a0b8:	24c00017 	ldw	r19,0(r4)
   4a0bc:	002d883a 	mov	r22,zero
   4a0c0:	d8c00315 	stw	r3,12(sp)
   4a0c4:	00800044 	movi	r2,1
   4a0c8:	003d1a06 	br	49534 <___svfiprintf_internal_r+0x2d4>
   4a0cc:	24c00017 	ldw	r19,0(r4)
   4a0d0:	002d883a 	mov	r22,zero
   4a0d4:	d8c00315 	stw	r3,12(sp)
   4a0d8:	0005883a 	mov	r2,zero
   4a0dc:	003d1506 	br	49534 <___svfiprintf_internal_r+0x2d4>
   4a0e0:	2cc00017 	ldw	r19,0(r5)
   4a0e4:	002d883a 	mov	r22,zero
   4a0e8:	d9000315 	stw	r4,12(sp)
   4a0ec:	003e3506 	br	499c4 <___svfiprintf_internal_r+0x764>
   4a0f0:	24c00017 	ldw	r19,0(r4)
   4a0f4:	d8c00315 	stw	r3,12(sp)
   4a0f8:	982dd7fa 	srai	r22,r19,31
   4a0fc:	b005883a 	mov	r2,r22
   4a100:	003dec06 	br	498b4 <___svfiprintf_internal_r+0x654>
   4a104:	b809883a 	mov	r4,r23
   4a108:	da000215 	stw	r8,8(sp)
   4a10c:	db000115 	stw	r12,4(sp)
   4a110:	0043f780 	call	43f78 <strlen>
   4a114:	db000117 	ldw	r12,4(sp)
   4a118:	da000217 	ldw	r8,8(sp)
   4a11c:	102d883a 	mov	r22,r2
   4a120:	1027883a 	mov	r19,r2
   4a124:	dc400315 	stw	r17,12(sp)
   4a128:	003cf606 	br	49504 <___svfiprintf_internal_r+0x2a4>
   4a12c:	01401004 	movi	r5,64
   4a130:	00430f00 	call	430f0 <_malloc_r>
   4a134:	a0800015 	stw	r2,0(r20)
   4a138:	a0800415 	stw	r2,16(r20)
   4a13c:	10007c26 	beq	r2,zero,4a330 <___svfiprintf_internal_r+0x10d0>
   4a140:	00801004 	movi	r2,64
   4a144:	a0800515 	stw	r2,20(r20)
   4a148:	003c5906 	br	492b0 <___svfiprintf_internal_r+0x50>
   4a14c:	d8800017 	ldw	r2,0(sp)
   4a150:	18800015 	stw	r2,0(r3)
   4a154:	ddc00315 	stw	r23,12(sp)
   4a158:	003c5c06 	br	492cc <___svfiprintf_internal_r+0x6c>
   4a15c:	d9800904 	addi	r6,sp,36
   4a160:	a00b883a 	mov	r5,r20
   4a164:	a809883a 	mov	r4,r21
   4a168:	da400515 	stw	r9,20(sp)
   4a16c:	db000215 	stw	r12,8(sp)
   4a170:	db400115 	stw	r13,4(sp)
   4a174:	00490a00 	call	490a0 <__ssprint_r>
   4a178:	103d4a1e 	bne	r2,zero,496a4 <___svfiprintf_internal_r+0x444>
   4a17c:	d8800b17 	ldw	r2,44(sp)
   4a180:	d9000a17 	ldw	r4,40(sp)
   4a184:	da400517 	ldw	r9,20(sp)
   4a188:	db000217 	ldw	r12,8(sp)
   4a18c:	db400117 	ldw	r13,4(sp)
   4a190:	9011883a 	mov	r8,r18
   4a194:	003d0706 	br	495b4 <___svfiprintf_internal_r+0x354>
   4a198:	0421c83a 	sub	r16,zero,r16
   4a19c:	ddc00315 	stw	r23,12(sp)
   4a1a0:	003e5c06 	br	49b14 <___svfiprintf_internal_r+0x8b4>
   4a1a4:	10c00060 	cmpeqi	r3,r2,1
   4a1a8:	8819883a 	mov	r12,r17
   4a1ac:	183e2826 	beq	r3,zero,49a50 <___svfiprintf_internal_r+0x7f0>
   4a1b0:	003dd106 	br	498f8 <___svfiprintf_internal_r+0x698>
   4a1b4:	d9800904 	addi	r6,sp,36
   4a1b8:	a00b883a 	mov	r5,r20
   4a1bc:	a809883a 	mov	r4,r21
   4a1c0:	da400115 	stw	r9,4(sp)
   4a1c4:	00490a00 	call	490a0 <__ssprint_r>
   4a1c8:	103d361e 	bne	r2,zero,496a4 <___svfiprintf_internal_r+0x444>
   4a1cc:	d9000a17 	ldw	r4,40(sp)
   4a1d0:	d8800b17 	ldw	r2,44(sp)
   4a1d4:	da400117 	ldw	r9,4(sp)
   4a1d8:	d8c01804 	addi	r3,sp,96
   4a1dc:	21400044 	addi	r5,r4,1
   4a1e0:	9011883a 	mov	r8,r18
   4a1e4:	003d1606 	br	49640 <___svfiprintf_internal_r+0x3e0>
   4a1e8:	e0800043 	ldbu	r2,1(fp)
   4a1ec:	63000814 	ori	r12,r12,32
   4a1f0:	e7000044 	addi	fp,fp,1
   4a1f4:	10803fcc 	andi	r2,r2,255
   4a1f8:	1080201c 	xori	r2,r2,128
   4a1fc:	10bfe004 	addi	r2,r2,-128
   4a200:	003c4a06 	br	4932c <___svfiprintf_internal_r+0xcc>
   4a204:	488001f0 	cmpltui	r2,r9,7
   4a208:	482d883a 	mov	r22,r9
   4a20c:	1000011e 	bne	r2,zero,4a214 <___svfiprintf_internal_r+0xfb4>
   4a210:	05800184 	movi	r22,6
   4a214:	05c00174 	movhi	r23,5
   4a218:	b027883a 	mov	r19,r22
   4a21c:	dc400315 	stw	r17,12(sp)
   4a220:	bdcd4404 	addi	r23,r23,13584
   4a224:	003cb706 	br	49504 <___svfiprintf_internal_r+0x2a4>
   4a228:	d8800317 	ldw	r2,12(sp)
   4a22c:	002d883a 	mov	r22,zero
   4a230:	d8c00315 	stw	r3,12(sp)
   4a234:	14c00017 	ldw	r19,0(r2)
   4a238:	00800044 	movi	r2,1
   4a23c:	003cbd06 	br	49534 <___svfiprintf_internal_r+0x2d4>
   4a240:	d8c00317 	ldw	r3,12(sp)
   4a244:	002d883a 	mov	r22,zero
   4a248:	d9000315 	stw	r4,12(sp)
   4a24c:	1cc00017 	ldw	r19,0(r3)
   4a250:	003ddc06 	br	499c4 <___svfiprintf_internal_r+0x764>
   4a254:	d8800317 	ldw	r2,12(sp)
   4a258:	d8c00315 	stw	r3,12(sp)
   4a25c:	14c00017 	ldw	r19,0(r2)
   4a260:	982dd7fa 	srai	r22,r19,31
   4a264:	b005883a 	mov	r2,r22
   4a268:	003d9206 	br	498b4 <___svfiprintf_internal_r+0x654>
   4a26c:	d8800317 	ldw	r2,12(sp)
   4a270:	002d883a 	mov	r22,zero
   4a274:	d8c00315 	stw	r3,12(sp)
   4a278:	14c00017 	ldw	r19,0(r2)
   4a27c:	0005883a 	mov	r2,zero
   4a280:	003cac06 	br	49534 <___svfiprintf_internal_r+0x2d4>
   4a284:	1809883a 	mov	r4,r3
   4a288:	39cdbf04 	addi	r7,r7,14076
   4a28c:	003f0106 	br	49e94 <___svfiprintf_internal_r+0xc34>
   4a290:	d9800845 	stb	r6,33(sp)
   4a294:	003c9506 	br	494ec <___svfiprintf_internal_r+0x28c>
   4a298:	d9800904 	addi	r6,sp,36
   4a29c:	a00b883a 	mov	r5,r20
   4a2a0:	a809883a 	mov	r4,r21
   4a2a4:	00490a00 	call	490a0 <__ssprint_r>
   4a2a8:	003cfe06 	br	496a4 <___svfiprintf_internal_r+0x444>
   4a2ac:	4827883a 	mov	r19,r9
   4a2b0:	dc400315 	stw	r17,12(sp)
   4a2b4:	482d883a 	mov	r22,r9
   4a2b8:	003c9206 	br	49504 <___svfiprintf_internal_r+0x2a4>
   4a2bc:	d9800845 	stb	r6,33(sp)
   4a2c0:	003e3706 	br	49ba0 <___svfiprintf_internal_r+0x940>
   4a2c4:	d9800845 	stb	r6,33(sp)
   4a2c8:	003d9606 	br	49924 <___svfiprintf_internal_r+0x6c4>
   4a2cc:	d9800845 	stb	r6,33(sp)
   4a2d0:	003db206 	br	4999c <___svfiprintf_internal_r+0x73c>
   4a2d4:	d9800845 	stb	r6,33(sp)
   4a2d8:	003d6e06 	br	49894 <___svfiprintf_internal_r+0x634>
   4a2dc:	d9800845 	stb	r6,33(sp)
   4a2e0:	003dc006 	br	499e4 <___svfiprintf_internal_r+0x784>
   4a2e4:	180d883a 	mov	r6,r3
   4a2e8:	2809883a 	mov	r4,r5
   4a2ec:	39cdbf04 	addi	r7,r7,14076
   4a2f0:	003eb806 	br	49dd4 <___svfiprintf_internal_r+0xb74>
   4a2f4:	00bfffc4 	movi	r2,-1
   4a2f8:	d8800015 	stw	r2,0(sp)
   4a2fc:	003cec06 	br	496b0 <___svfiprintf_internal_r+0x450>
   4a300:	d8800317 	ldw	r2,12(sp)
   4a304:	12400017 	ldw	r9,0(r2)
   4a308:	15c00104 	addi	r23,r2,4
   4a30c:	4800010e 	bge	r9,zero,4a314 <___svfiprintf_internal_r+0x10b4>
   4a310:	027fffc4 	movi	r9,-1
   4a314:	e0800043 	ldbu	r2,1(fp)
   4a318:	ddc00315 	stw	r23,12(sp)
   4a31c:	2039883a 	mov	fp,r4
   4a320:	10803fcc 	andi	r2,r2,255
   4a324:	1080201c 	xori	r2,r2,128
   4a328:	10bfe004 	addi	r2,r2,-128
   4a32c:	003bff06 	br	4932c <___svfiprintf_internal_r+0xcc>
   4a330:	00800304 	movi	r2,12
   4a334:	a8800015 	stw	r2,0(r21)
   4a338:	00bfffc4 	movi	r2,-1
   4a33c:	d8800015 	stw	r2,0(sp)
   4a340:	003cdb06 	br	496b0 <___svfiprintf_internal_r+0x450>

0004a344 <__assert_func>:
   4a344:	00800174 	movhi	r2,5
   4a348:	12158317 	ldw	r8,22028(r2)
   4a34c:	defffc04 	addi	sp,sp,-16
   4a350:	3807883a 	mov	r3,r7
   4a354:	3005883a 	mov	r2,r6
   4a358:	dfc00315 	stw	ra,12(sp)
   4a35c:	42400317 	ldw	r9,12(r8)
   4a360:	200f883a 	mov	r7,r4
   4a364:	2811883a 	mov	r8,r5
   4a368:	180d883a 	mov	r6,r3
   4a36c:	10000a26 	beq	r2,zero,4a398 <__assert_func+0x54>
   4a370:	00c00174 	movhi	r3,5
   4a374:	18cdc704 	addi	r3,r3,14108
   4a378:	01400174 	movhi	r5,5
   4a37c:	294dcb04 	addi	r5,r5,14124
   4a380:	4809883a 	mov	r4,r9
   4a384:	d8c00115 	stw	r3,4(sp)
   4a388:	da000015 	stw	r8,0(sp)
   4a38c:	d8800215 	stw	r2,8(sp)
   4a390:	004a4900 	call	4a490 <fiprintf>
   4a394:	00430b80 	call	430b8 <abort>
   4a398:	00c00174 	movhi	r3,5
   4a39c:	18cdca04 	addi	r3,r3,14120
   4a3a0:	1805883a 	mov	r2,r3
   4a3a4:	003ff406 	br	4a378 <__assert_func+0x34>

0004a3a8 <__assert>:
   4a3a8:	deffff04 	addi	sp,sp,-4
   4a3ac:	300f883a 	mov	r7,r6
   4a3b0:	000d883a 	mov	r6,zero
   4a3b4:	dfc00015 	stw	ra,0(sp)
   4a3b8:	004a3440 	call	4a344 <__assert_func>

0004a3bc <_calloc_r>:
   4a3bc:	298b383a 	mul	r5,r5,r6
   4a3c0:	deffff04 	addi	sp,sp,-4
   4a3c4:	dfc00015 	stw	ra,0(sp)
   4a3c8:	00430f00 	call	430f0 <_malloc_r>
   4a3cc:	1009883a 	mov	r4,r2
   4a3d0:	10000c26 	beq	r2,zero,4a404 <_calloc_r+0x48>
   4a3d4:	11bfff17 	ldw	r6,-4(r2)
   4a3d8:	00bfff04 	movi	r2,-4
   4a3dc:	308c703a 	and	r6,r6,r2
   4a3e0:	31bfff04 	addi	r6,r6,-4
   4a3e4:	30800968 	cmpgeui	r2,r6,37
   4a3e8:	1000141e 	bne	r2,zero,4a43c <_calloc_r+0x80>
   4a3ec:	30800530 	cmpltui	r2,r6,20
   4a3f0:	10000826 	beq	r2,zero,4a414 <_calloc_r+0x58>
   4a3f4:	2005883a 	mov	r2,r4
   4a3f8:	10000015 	stw	zero,0(r2)
   4a3fc:	10000115 	stw	zero,4(r2)
   4a400:	10000215 	stw	zero,8(r2)
   4a404:	2005883a 	mov	r2,r4
   4a408:	dfc00017 	ldw	ra,0(sp)
   4a40c:	dec00104 	addi	sp,sp,4
   4a410:	f800283a 	ret
   4a414:	20000015 	stw	zero,0(r4)
   4a418:	20000115 	stw	zero,4(r4)
   4a41c:	30800728 	cmpgeui	r2,r6,28
   4a420:	10000d26 	beq	r2,zero,4a458 <_calloc_r+0x9c>
   4a424:	20000215 	stw	zero,8(r4)
   4a428:	20000315 	stw	zero,12(r4)
   4a42c:	31800920 	cmpeqi	r6,r6,36
   4a430:	30000b1e 	bne	r6,zero,4a460 <_calloc_r+0xa4>
   4a434:	20800404 	addi	r2,r4,16
   4a438:	003fef06 	br	4a3f8 <_calloc_r+0x3c>
   4a43c:	000b883a 	mov	r5,zero
   4a440:	00438d00 	call	438d0 <memset>
   4a444:	1009883a 	mov	r4,r2
   4a448:	2005883a 	mov	r2,r4
   4a44c:	dfc00017 	ldw	ra,0(sp)
   4a450:	dec00104 	addi	sp,sp,4
   4a454:	f800283a 	ret
   4a458:	20800204 	addi	r2,r4,8
   4a45c:	003fe606 	br	4a3f8 <_calloc_r+0x3c>
   4a460:	20000415 	stw	zero,16(r4)
   4a464:	20800604 	addi	r2,r4,24
   4a468:	20000515 	stw	zero,20(r4)
   4a46c:	003fe206 	br	4a3f8 <_calloc_r+0x3c>

0004a470 <_fiprintf_r>:
   4a470:	defffe04 	addi	sp,sp,-8
   4a474:	dfc00015 	stw	ra,0(sp)
   4a478:	d9c00115 	stw	r7,4(sp)
   4a47c:	d9c00104 	addi	r7,sp,4
   4a480:	004ac400 	call	4ac40 <_vfiprintf_r>
   4a484:	dfc00017 	ldw	ra,0(sp)
   4a488:	dec00204 	addi	sp,sp,8
   4a48c:	f800283a 	ret

0004a490 <fiprintf>:
   4a490:	defffd04 	addi	sp,sp,-12
   4a494:	2005883a 	mov	r2,r4
   4a498:	dfc00015 	stw	ra,0(sp)
   4a49c:	d9800115 	stw	r6,4(sp)
   4a4a0:	d9c00215 	stw	r7,8(sp)
   4a4a4:	00c00174 	movhi	r3,5
   4a4a8:	19158317 	ldw	r4,22028(r3)
   4a4ac:	280d883a 	mov	r6,r5
   4a4b0:	d9c00104 	addi	r7,sp,4
   4a4b4:	100b883a 	mov	r5,r2
   4a4b8:	004ac400 	call	4ac40 <_vfiprintf_r>
   4a4bc:	dfc00017 	ldw	ra,0(sp)
   4a4c0:	dec00304 	addi	sp,sp,12
   4a4c4:	f800283a 	ret

0004a4c8 <_setlocale_r>:
   4a4c8:	30001626 	beq	r6,zero,4a524 <_setlocale_r+0x5c>
   4a4cc:	01400174 	movhi	r5,5
   4a4d0:	defffe04 	addi	sp,sp,-8
   4a4d4:	294dd804 	addi	r5,r5,14176
   4a4d8:	3009883a 	mov	r4,r6
   4a4dc:	dc000015 	stw	r16,0(sp)
   4a4e0:	dfc00115 	stw	ra,4(sp)
   4a4e4:	3021883a 	mov	r16,r6
   4a4e8:	0043ec00 	call	43ec0 <strcmp>
   4a4ec:	1000061e 	bne	r2,zero,4a508 <_setlocale_r+0x40>
   4a4f0:	00800174 	movhi	r2,5
   4a4f4:	108dd704 	addi	r2,r2,14172
   4a4f8:	dfc00117 	ldw	ra,4(sp)
   4a4fc:	dc000017 	ldw	r16,0(sp)
   4a500:	dec00204 	addi	sp,sp,8
   4a504:	f800283a 	ret
   4a508:	80800003 	ldbu	r2,0(r16)
   4a50c:	10bfef44 	addi	r2,r2,-67
   4a510:	10000726 	beq	r2,zero,4a530 <_setlocale_r+0x68>
   4a514:	80800003 	ldbu	r2,0(r16)
   4a518:	103ff526 	beq	r2,zero,4a4f0 <_setlocale_r+0x28>
   4a51c:	0005883a 	mov	r2,zero
   4a520:	003ff506 	br	4a4f8 <_setlocale_r+0x30>
   4a524:	00800174 	movhi	r2,5
   4a528:	108dd704 	addi	r2,r2,14172
   4a52c:	f800283a 	ret
   4a530:	80800043 	ldbu	r2,1(r16)
   4a534:	103fee26 	beq	r2,zero,4a4f0 <_setlocale_r+0x28>
   4a538:	003ff606 	br	4a514 <_setlocale_r+0x4c>

0004a53c <__locale_mb_cur_max>:
   4a53c:	00800174 	movhi	r2,5
   4a540:	1090e207 	ldb	r2,17288(r2)
   4a544:	f800283a 	ret

0004a548 <setlocale>:
   4a548:	00c00174 	movhi	r3,5
   4a54c:	2005883a 	mov	r2,r4
   4a550:	19158317 	ldw	r4,22028(r3)
   4a554:	280d883a 	mov	r6,r5
   4a558:	100b883a 	mov	r5,r2
   4a55c:	004a4c81 	jmpi	4a4c8 <_setlocale_r>

0004a560 <_mbtowc_r>:
   4a560:	00800174 	movhi	r2,5
   4a564:	1090d117 	ldw	r2,17220(r2)
   4a568:	1000683a 	jmp	r2

0004a56c <__ascii_mbtowc>:
   4a56c:	deffff04 	addi	sp,sp,-4
   4a570:	28000826 	beq	r5,zero,4a594 <__ascii_mbtowc+0x28>
   4a574:	30000926 	beq	r6,zero,4a59c <__ascii_mbtowc+0x30>
   4a578:	38000b26 	beq	r7,zero,4a5a8 <__ascii_mbtowc+0x3c>
   4a57c:	30800003 	ldbu	r2,0(r6)
   4a580:	28800015 	stw	r2,0(r5)
   4a584:	30800003 	ldbu	r2,0(r6)
   4a588:	1004c03a 	cmpne	r2,r2,zero
   4a58c:	dec00104 	addi	sp,sp,4
   4a590:	f800283a 	ret
   4a594:	d80b883a 	mov	r5,sp
   4a598:	303ff71e 	bne	r6,zero,4a578 <__ascii_mbtowc+0xc>
   4a59c:	0005883a 	mov	r2,zero
   4a5a0:	dec00104 	addi	sp,sp,4
   4a5a4:	f800283a 	ret
   4a5a8:	00bfff84 	movi	r2,-2
   4a5ac:	003ff706 	br	4a58c <__ascii_mbtowc+0x20>

0004a5b0 <memmove>:
   4a5b0:	2005883a 	mov	r2,r4
   4a5b4:	29000a2e 	bgeu	r5,r4,4a5e0 <memmove+0x30>
   4a5b8:	2989883a 	add	r4,r5,r6
   4a5bc:	1100082e 	bgeu	r2,r4,4a5e0 <memmove+0x30>
   4a5c0:	1187883a 	add	r3,r2,r6
   4a5c4:	30003e26 	beq	r6,zero,4a6c0 <memmove+0x110>
   4a5c8:	217fffc3 	ldbu	r5,-1(r4)
   4a5cc:	18ffffc4 	addi	r3,r3,-1
   4a5d0:	213fffc4 	addi	r4,r4,-1
   4a5d4:	19400005 	stb	r5,0(r3)
   4a5d8:	10fffb1e 	bne	r2,r3,4a5c8 <memmove+0x18>
   4a5dc:	f800283a 	ret
   4a5e0:	30c00430 	cmpltui	r3,r6,16
   4a5e4:	18000b26 	beq	r3,zero,4a614 <memmove+0x64>
   4a5e8:	1007883a 	mov	r3,r2
   4a5ec:	31ffffc4 	addi	r7,r6,-1
   4a5f0:	30003726 	beq	r6,zero,4a6d0 <memmove+0x120>
   4a5f4:	39c00044 	addi	r7,r7,1
   4a5f8:	29cf883a 	add	r7,r5,r7
   4a5fc:	29800003 	ldbu	r6,0(r5)
   4a600:	29400044 	addi	r5,r5,1
   4a604:	18c00044 	addi	r3,r3,1
   4a608:	19bfffc5 	stb	r6,-1(r3)
   4a60c:	29fffb1e 	bne	r5,r7,4a5fc <memmove+0x4c>
   4a610:	f800283a 	ret
   4a614:	2886b03a 	or	r3,r5,r2
   4a618:	18c000cc 	andi	r3,r3,3
   4a61c:	1800291e 	bne	r3,zero,4a6c4 <memmove+0x114>
   4a620:	327ffc04 	addi	r9,r6,-16
   4a624:	4812d13a 	srli	r9,r9,4
   4a628:	280f883a 	mov	r7,r5
   4a62c:	1007883a 	mov	r3,r2
   4a630:	4a400044 	addi	r9,r9,1
   4a634:	4812913a 	slli	r9,r9,4
   4a638:	1251883a 	add	r8,r2,r9
   4a63c:	39000017 	ldw	r4,0(r7)
   4a640:	39c00404 	addi	r7,r7,16
   4a644:	18c00404 	addi	r3,r3,16
   4a648:	193ffc15 	stw	r4,-16(r3)
   4a64c:	393ffd17 	ldw	r4,-12(r7)
   4a650:	193ffd15 	stw	r4,-12(r3)
   4a654:	393ffe17 	ldw	r4,-8(r7)
   4a658:	193ffe15 	stw	r4,-8(r3)
   4a65c:	393fff17 	ldw	r4,-4(r7)
   4a660:	193fff15 	stw	r4,-4(r3)
   4a664:	40fff51e 	bne	r8,r3,4a63c <memmove+0x8c>
   4a668:	3100030c 	andi	r4,r6,12
   4a66c:	2a4b883a 	add	r5,r5,r9
   4a670:	320003cc 	andi	r8,r6,15
   4a674:	20001726 	beq	r4,zero,4a6d4 <memmove+0x124>
   4a678:	2813883a 	mov	r9,r5
   4a67c:	180f883a 	mov	r7,r3
   4a680:	4a800017 	ldw	r10,0(r9)
   4a684:	39c00104 	addi	r7,r7,4
   4a688:	41c9c83a 	sub	r4,r8,r7
   4a68c:	1909883a 	add	r4,r3,r4
   4a690:	21000128 	cmpgeui	r4,r4,4
   4a694:	3abfff15 	stw	r10,-4(r7)
   4a698:	4a400104 	addi	r9,r9,4
   4a69c:	203ff81e 	bne	r4,zero,4a680 <memmove+0xd0>
   4a6a0:	413fff04 	addi	r4,r8,-4
   4a6a4:	2008d0ba 	srli	r4,r4,2
   4a6a8:	318000cc 	andi	r6,r6,3
   4a6ac:	21000044 	addi	r4,r4,1
   4a6b0:	200890ba 	slli	r4,r4,2
   4a6b4:	1907883a 	add	r3,r3,r4
   4a6b8:	290b883a 	add	r5,r5,r4
   4a6bc:	003fcb06 	br	4a5ec <memmove+0x3c>
   4a6c0:	f800283a 	ret
   4a6c4:	31ffffc4 	addi	r7,r6,-1
   4a6c8:	1007883a 	mov	r3,r2
   4a6cc:	003fc906 	br	4a5f4 <memmove+0x44>
   4a6d0:	f800283a 	ret
   4a6d4:	400d883a 	mov	r6,r8
   4a6d8:	003fc406 	br	4a5ec <memmove+0x3c>

0004a6dc <_realloc_r>:
   4a6dc:	defff504 	addi	sp,sp,-44
   4a6e0:	dc800315 	stw	r18,12(sp)
   4a6e4:	dfc00a15 	stw	ra,40(sp)
   4a6e8:	df000915 	stw	fp,36(sp)
   4a6ec:	ddc00815 	stw	r23,32(sp)
   4a6f0:	dd800715 	stw	r22,28(sp)
   4a6f4:	dd400615 	stw	r21,24(sp)
   4a6f8:	dd000515 	stw	r20,20(sp)
   4a6fc:	dcc00415 	stw	r19,16(sp)
   4a700:	dc400215 	stw	r17,8(sp)
   4a704:	dc000115 	stw	r16,4(sp)
   4a708:	3025883a 	mov	r18,r6
   4a70c:	28008b26 	beq	r5,zero,4a93c <_realloc_r+0x260>
   4a710:	2821883a 	mov	r16,r5
   4a714:	2027883a 	mov	r19,r4
   4a718:	944002c4 	addi	r17,r18,11
   4a71c:	00511640 	call	51164 <__malloc_lock>
   4a720:	888005f0 	cmpltui	r2,r17,23
   4a724:	1000521e 	bne	r2,zero,4a870 <_realloc_r+0x194>
   4a728:	017ffe04 	movi	r5,-8
   4a72c:	8962703a 	and	r17,r17,r5
   4a730:	8807883a 	mov	r3,r17
   4a734:	88005116 	blt	r17,zero,4a87c <_realloc_r+0x1a0>
   4a738:	8c805036 	bltu	r17,r18,4a87c <_realloc_r+0x1a0>
   4a73c:	80bfff17 	ldw	r2,-4(r16)
   4a740:	017fff04 	movi	r5,-4
   4a744:	857ffe04 	addi	r21,r16,-8
   4a748:	1168703a 	and	r20,r2,r5
   4a74c:	ad2d883a 	add	r22,r21,r20
   4a750:	a0c0390e 	bge	r20,r3,4a838 <_realloc_r+0x15c>
   4a754:	07000174 	movhi	fp,5
   4a758:	e70e8d04 	addi	fp,fp,14900
   4a75c:	e2000217 	ldw	r8,8(fp)
   4a760:	b1000117 	ldw	r4,4(r22)
   4a764:	45808e26 	beq	r8,r22,4a9a0 <_realloc_r+0x2c4>
   4a768:	01bfff84 	movi	r6,-2
   4a76c:	218c703a 	and	r6,r4,r6
   4a770:	b18d883a 	add	r6,r22,r6
   4a774:	31800117 	ldw	r6,4(r6)
   4a778:	3180004c 	andi	r6,r6,1
   4a77c:	30004f1e 	bne	r6,zero,4a8bc <_realloc_r+0x1e0>
   4a780:	2148703a 	and	r4,r4,r5
   4a784:	a10b883a 	add	r5,r20,r4
   4a788:	28c0bf0e 	bge	r5,r3,4aa88 <_realloc_r+0x3ac>
   4a78c:	1080004c 	andi	r2,r2,1
   4a790:	10004c1e 	bne	r2,zero,4a8c4 <_realloc_r+0x1e8>
   4a794:	81fffe17 	ldw	r7,-8(r16)
   4a798:	00bfff04 	movi	r2,-4
   4a79c:	a9cfc83a 	sub	r7,r21,r7
   4a7a0:	39400117 	ldw	r5,4(r7)
   4a7a4:	288a703a 	and	r5,r5,r2
   4a7a8:	b0000426 	beq	r22,zero,4a7bc <_realloc_r+0xe0>
   4a7ac:	a16f883a 	add	r23,r20,r5
   4a7b0:	b92f883a 	add	r23,r23,r4
   4a7b4:	4580bf26 	beq	r8,r22,4aab4 <_realloc_r+0x3d8>
   4a7b8:	b8c0930e 	bge	r23,r3,4aa08 <_realloc_r+0x32c>
   4a7bc:	38004126 	beq	r7,zero,4a8c4 <_realloc_r+0x1e8>
   4a7c0:	a16f883a 	add	r23,r20,r5
   4a7c4:	b8c03f16 	blt	r23,r3,4a8c4 <_realloc_r+0x1e8>
   4a7c8:	38800317 	ldw	r2,12(r7)
   4a7cc:	38c00217 	ldw	r3,8(r7)
   4a7d0:	a1bfff04 	addi	r6,r20,-4
   4a7d4:	31400968 	cmpgeui	r5,r6,37
   4a7d8:	18800315 	stw	r2,12(r3)
   4a7dc:	10c00215 	stw	r3,8(r2)
   4a7e0:	39000204 	addi	r4,r7,8
   4a7e4:	3ded883a 	add	r22,r7,r23
   4a7e8:	2800941e 	bne	r5,zero,4aa3c <_realloc_r+0x360>
   4a7ec:	30800530 	cmpltui	r2,r6,20
   4a7f0:	80c00017 	ldw	r3,0(r16)
   4a7f4:	1000df1e 	bne	r2,zero,4ab74 <_realloc_r+0x498>
   4a7f8:	38c00215 	stw	r3,8(r7)
   4a7fc:	80c00117 	ldw	r3,4(r16)
   4a800:	30800728 	cmpgeui	r2,r6,28
   4a804:	38c00315 	stw	r3,12(r7)
   4a808:	1000dc1e 	bne	r2,zero,4ab7c <_realloc_r+0x4a0>
   4a80c:	80c00217 	ldw	r3,8(r16)
   4a810:	38800404 	addi	r2,r7,16
   4a814:	84000204 	addi	r16,r16,8
   4a818:	10c00015 	stw	r3,0(r2)
   4a81c:	80c00117 	ldw	r3,4(r16)
   4a820:	b829883a 	mov	r20,r23
   4a824:	382b883a 	mov	r21,r7
   4a828:	10c00115 	stw	r3,4(r2)
   4a82c:	80c00217 	ldw	r3,8(r16)
   4a830:	2021883a 	mov	r16,r4
   4a834:	10c00215 	stw	r3,8(r2)
   4a838:	a9800117 	ldw	r6,4(r21)
   4a83c:	a445c83a 	sub	r2,r20,r17
   4a840:	10c00430 	cmpltui	r3,r2,16
   4a844:	3180004c 	andi	r6,r6,1
   4a848:	18004926 	beq	r3,zero,4a970 <_realloc_r+0x294>
   4a84c:	a18cb03a 	or	r6,r20,r6
   4a850:	a9800115 	stw	r6,4(r21)
   4a854:	b0800117 	ldw	r2,4(r22)
   4a858:	10800054 	ori	r2,r2,1
   4a85c:	b0800115 	stw	r2,4(r22)
   4a860:	9809883a 	mov	r4,r19
   4a864:	00511880 	call	51188 <__malloc_unlock>
   4a868:	8025883a 	mov	r18,r16
   4a86c:	00000606 	br	4a888 <_realloc_r+0x1ac>
   4a870:	04400404 	movi	r17,16
   4a874:	00c00404 	movi	r3,16
   4a878:	8cbfb02e 	bgeu	r17,r18,4a73c <_realloc_r+0x60>
   4a87c:	00800304 	movi	r2,12
   4a880:	98800015 	stw	r2,0(r19)
   4a884:	0025883a 	mov	r18,zero
   4a888:	9005883a 	mov	r2,r18
   4a88c:	dfc00a17 	ldw	ra,40(sp)
   4a890:	df000917 	ldw	fp,36(sp)
   4a894:	ddc00817 	ldw	r23,32(sp)
   4a898:	dd800717 	ldw	r22,28(sp)
   4a89c:	dd400617 	ldw	r21,24(sp)
   4a8a0:	dd000517 	ldw	r20,20(sp)
   4a8a4:	dcc00417 	ldw	r19,16(sp)
   4a8a8:	dc800317 	ldw	r18,12(sp)
   4a8ac:	dc400217 	ldw	r17,8(sp)
   4a8b0:	dc000117 	ldw	r16,4(sp)
   4a8b4:	dec00b04 	addi	sp,sp,44
   4a8b8:	f800283a 	ret
   4a8bc:	1080004c 	andi	r2,r2,1
   4a8c0:	10006c26 	beq	r2,zero,4aa74 <_realloc_r+0x398>
   4a8c4:	900b883a 	mov	r5,r18
   4a8c8:	9809883a 	mov	r4,r19
   4a8cc:	00430f00 	call	430f0 <_malloc_r>
   4a8d0:	1025883a 	mov	r18,r2
   4a8d4:	10001626 	beq	r2,zero,4a930 <_realloc_r+0x254>
   4a8d8:	80bfff17 	ldw	r2,-4(r16)
   4a8dc:	013fff84 	movi	r4,-2
   4a8e0:	90fffe04 	addi	r3,r18,-8
   4a8e4:	1104703a 	and	r2,r2,r4
   4a8e8:	a885883a 	add	r2,r21,r2
   4a8ec:	10c05b26 	beq	r2,r3,4aa5c <_realloc_r+0x380>
   4a8f0:	a1bfff04 	addi	r6,r20,-4
   4a8f4:	30800968 	cmpgeui	r2,r6,37
   4a8f8:	10006a1e 	bne	r2,zero,4aaa4 <_realloc_r+0x3c8>
   4a8fc:	30800530 	cmpltui	r2,r6,20
   4a900:	81000017 	ldw	r4,0(r16)
   4a904:	10003726 	beq	r2,zero,4a9e4 <_realloc_r+0x308>
   4a908:	9005883a 	mov	r2,r18
   4a90c:	8007883a 	mov	r3,r16
   4a910:	11000015 	stw	r4,0(r2)
   4a914:	19000117 	ldw	r4,4(r3)
   4a918:	11000115 	stw	r4,4(r2)
   4a91c:	18c00217 	ldw	r3,8(r3)
   4a920:	10c00215 	stw	r3,8(r2)
   4a924:	800b883a 	mov	r5,r16
   4a928:	9809883a 	mov	r4,r19
   4a92c:	0047b140 	call	47b14 <_free_r>
   4a930:	9809883a 	mov	r4,r19
   4a934:	00511880 	call	51188 <__malloc_unlock>
   4a938:	003fd306 	br	4a888 <_realloc_r+0x1ac>
   4a93c:	300b883a 	mov	r5,r6
   4a940:	dfc00a17 	ldw	ra,40(sp)
   4a944:	df000917 	ldw	fp,36(sp)
   4a948:	ddc00817 	ldw	r23,32(sp)
   4a94c:	dd800717 	ldw	r22,28(sp)
   4a950:	dd400617 	ldw	r21,24(sp)
   4a954:	dd000517 	ldw	r20,20(sp)
   4a958:	dcc00417 	ldw	r19,16(sp)
   4a95c:	dc800317 	ldw	r18,12(sp)
   4a960:	dc400217 	ldw	r17,8(sp)
   4a964:	dc000117 	ldw	r16,4(sp)
   4a968:	dec00b04 	addi	sp,sp,44
   4a96c:	00430f01 	jmpi	430f0 <_malloc_r>
   4a970:	344cb03a 	or	r6,r6,r17
   4a974:	a9800115 	stw	r6,4(r21)
   4a978:	ac4b883a 	add	r5,r21,r17
   4a97c:	10800054 	ori	r2,r2,1
   4a980:	28800115 	stw	r2,4(r5)
   4a984:	b0800117 	ldw	r2,4(r22)
   4a988:	29400204 	addi	r5,r5,8
   4a98c:	9809883a 	mov	r4,r19
   4a990:	10800054 	ori	r2,r2,1
   4a994:	b0800115 	stw	r2,4(r22)
   4a998:	0047b140 	call	47b14 <_free_r>
   4a99c:	003fb006 	br	4a860 <_realloc_r+0x184>
   4a9a0:	2148703a 	and	r4,r4,r5
   4a9a4:	a10b883a 	add	r5,r20,r4
   4a9a8:	89800404 	addi	r6,r17,16
   4a9ac:	29bf7716 	blt	r5,r6,4a78c <_realloc_r+0xb0>
   4a9b0:	ac6b883a 	add	r21,r21,r17
   4a9b4:	2c45c83a 	sub	r2,r5,r17
   4a9b8:	e5400215 	stw	r21,8(fp)
   4a9bc:	10800054 	ori	r2,r2,1
   4a9c0:	a8800115 	stw	r2,4(r21)
   4a9c4:	80bfff17 	ldw	r2,-4(r16)
   4a9c8:	9809883a 	mov	r4,r19
   4a9cc:	8025883a 	mov	r18,r16
   4a9d0:	1080004c 	andi	r2,r2,1
   4a9d4:	1462b03a 	or	r17,r2,r17
   4a9d8:	847fff15 	stw	r17,-4(r16)
   4a9dc:	00511880 	call	51188 <__malloc_unlock>
   4a9e0:	003fa906 	br	4a888 <_realloc_r+0x1ac>
   4a9e4:	91000015 	stw	r4,0(r18)
   4a9e8:	80c00117 	ldw	r3,4(r16)
   4a9ec:	30800728 	cmpgeui	r2,r6,28
   4a9f0:	90c00115 	stw	r3,4(r18)
   4a9f4:	1000551e 	bne	r2,zero,4ab4c <_realloc_r+0x470>
   4a9f8:	81000217 	ldw	r4,8(r16)
   4a9fc:	80c00204 	addi	r3,r16,8
   4aa00:	90800204 	addi	r2,r18,8
   4aa04:	003fc206 	br	4a910 <_realloc_r+0x234>
   4aa08:	b0800317 	ldw	r2,12(r22)
   4aa0c:	b0c00217 	ldw	r3,8(r22)
   4aa10:	a1bfff04 	addi	r6,r20,-4
   4aa14:	31400968 	cmpgeui	r5,r6,37
   4aa18:	18800315 	stw	r2,12(r3)
   4aa1c:	10c00215 	stw	r3,8(r2)
   4aa20:	38c00217 	ldw	r3,8(r7)
   4aa24:	38800317 	ldw	r2,12(r7)
   4aa28:	39000204 	addi	r4,r7,8
   4aa2c:	3ded883a 	add	r22,r7,r23
   4aa30:	18800315 	stw	r2,12(r3)
   4aa34:	10c00215 	stw	r3,8(r2)
   4aa38:	283f6c26 	beq	r5,zero,4a7ec <_realloc_r+0x110>
   4aa3c:	800b883a 	mov	r5,r16
   4aa40:	d9c00015 	stw	r7,0(sp)
   4aa44:	004a5b00 	call	4a5b0 <memmove>
   4aa48:	d9c00017 	ldw	r7,0(sp)
   4aa4c:	1021883a 	mov	r16,r2
   4aa50:	b829883a 	mov	r20,r23
   4aa54:	382b883a 	mov	r21,r7
   4aa58:	003f7706 	br	4a838 <_realloc_r+0x15c>
   4aa5c:	90bfff17 	ldw	r2,-4(r18)
   4aa60:	00ffff04 	movi	r3,-4
   4aa64:	10c4703a 	and	r2,r2,r3
   4aa68:	a0a9883a 	add	r20,r20,r2
   4aa6c:	ad2d883a 	add	r22,r21,r20
   4aa70:	003f7106 	br	4a838 <_realloc_r+0x15c>
   4aa74:	81fffe17 	ldw	r7,-8(r16)
   4aa78:	a9cfc83a 	sub	r7,r21,r7
   4aa7c:	39000117 	ldw	r4,4(r7)
   4aa80:	214a703a 	and	r5,r4,r5
   4aa84:	003f4d06 	br	4a7bc <_realloc_r+0xe0>
   4aa88:	b0800317 	ldw	r2,12(r22)
   4aa8c:	b0c00217 	ldw	r3,8(r22)
   4aa90:	2829883a 	mov	r20,r5
   4aa94:	a96d883a 	add	r22,r21,r5
   4aa98:	18800315 	stw	r2,12(r3)
   4aa9c:	10c00215 	stw	r3,8(r2)
   4aaa0:	003f6506 	br	4a838 <_realloc_r+0x15c>
   4aaa4:	800b883a 	mov	r5,r16
   4aaa8:	9009883a 	mov	r4,r18
   4aaac:	004a5b00 	call	4a5b0 <memmove>
   4aab0:	003f9c06 	br	4a924 <_realloc_r+0x248>
   4aab4:	88800404 	addi	r2,r17,16
   4aab8:	b8bf4016 	blt	r23,r2,4a7bc <_realloc_r+0xe0>
   4aabc:	38800317 	ldw	r2,12(r7)
   4aac0:	38c00217 	ldw	r3,8(r7)
   4aac4:	a1bfff04 	addi	r6,r20,-4
   4aac8:	31000968 	cmpgeui	r4,r6,37
   4aacc:	18800315 	stw	r2,12(r3)
   4aad0:	10c00215 	stw	r3,8(r2)
   4aad4:	3c800204 	addi	r18,r7,8
   4aad8:	20003b1e 	bne	r4,zero,4abc8 <_realloc_r+0x4ec>
   4aadc:	30800530 	cmpltui	r2,r6,20
   4aae0:	80c00017 	ldw	r3,0(r16)
   4aae4:	1000361e 	bne	r2,zero,4abc0 <_realloc_r+0x4e4>
   4aae8:	38c00215 	stw	r3,8(r7)
   4aaec:	80c00117 	ldw	r3,4(r16)
   4aaf0:	30800728 	cmpgeui	r2,r6,28
   4aaf4:	38c00315 	stw	r3,12(r7)
   4aaf8:	1000401e 	bne	r2,zero,4abfc <_realloc_r+0x520>
   4aafc:	80c00217 	ldw	r3,8(r16)
   4ab00:	38800404 	addi	r2,r7,16
   4ab04:	84000204 	addi	r16,r16,8
   4ab08:	10c00015 	stw	r3,0(r2)
   4ab0c:	80c00117 	ldw	r3,4(r16)
   4ab10:	10c00115 	stw	r3,4(r2)
   4ab14:	80c00217 	ldw	r3,8(r16)
   4ab18:	10c00215 	stw	r3,8(r2)
   4ab1c:	3c47883a 	add	r3,r7,r17
   4ab20:	bc45c83a 	sub	r2,r23,r17
   4ab24:	e0c00215 	stw	r3,8(fp)
   4ab28:	10800054 	ori	r2,r2,1
   4ab2c:	18800115 	stw	r2,4(r3)
   4ab30:	38800117 	ldw	r2,4(r7)
   4ab34:	9809883a 	mov	r4,r19
   4ab38:	1080004c 	andi	r2,r2,1
   4ab3c:	1462b03a 	or	r17,r2,r17
   4ab40:	3c400115 	stw	r17,4(r7)
   4ab44:	00511880 	call	51188 <__malloc_unlock>
   4ab48:	003f4f06 	br	4a888 <_realloc_r+0x1ac>
   4ab4c:	80800217 	ldw	r2,8(r16)
   4ab50:	31800920 	cmpeqi	r6,r6,36
   4ab54:	90800215 	stw	r2,8(r18)
   4ab58:	80800317 	ldw	r2,12(r16)
   4ab5c:	90800315 	stw	r2,12(r18)
   4ab60:	81000417 	ldw	r4,16(r16)
   4ab64:	30000f1e 	bne	r6,zero,4aba4 <_realloc_r+0x4c8>
   4ab68:	80c00404 	addi	r3,r16,16
   4ab6c:	90800404 	addi	r2,r18,16
   4ab70:	003f6706 	br	4a910 <_realloc_r+0x234>
   4ab74:	2005883a 	mov	r2,r4
   4ab78:	003f2706 	br	4a818 <_realloc_r+0x13c>
   4ab7c:	80800217 	ldw	r2,8(r16)
   4ab80:	31800920 	cmpeqi	r6,r6,36
   4ab84:	38800415 	stw	r2,16(r7)
   4ab88:	80800317 	ldw	r2,12(r16)
   4ab8c:	38800515 	stw	r2,20(r7)
   4ab90:	80c00417 	ldw	r3,16(r16)
   4ab94:	3000121e 	bne	r6,zero,4abe0 <_realloc_r+0x504>
   4ab98:	38800604 	addi	r2,r7,24
   4ab9c:	84000404 	addi	r16,r16,16
   4aba0:	003f1d06 	br	4a818 <_realloc_r+0x13c>
   4aba4:	91000415 	stw	r4,16(r18)
   4aba8:	81000517 	ldw	r4,20(r16)
   4abac:	80c00604 	addi	r3,r16,24
   4abb0:	90800604 	addi	r2,r18,24
   4abb4:	91000515 	stw	r4,20(r18)
   4abb8:	81000617 	ldw	r4,24(r16)
   4abbc:	003f5406 	br	4a910 <_realloc_r+0x234>
   4abc0:	9005883a 	mov	r2,r18
   4abc4:	003fd006 	br	4ab08 <_realloc_r+0x42c>
   4abc8:	800b883a 	mov	r5,r16
   4abcc:	9009883a 	mov	r4,r18
   4abd0:	d9c00015 	stw	r7,0(sp)
   4abd4:	004a5b00 	call	4a5b0 <memmove>
   4abd8:	d9c00017 	ldw	r7,0(sp)
   4abdc:	003fcf06 	br	4ab1c <_realloc_r+0x440>
   4abe0:	84000604 	addi	r16,r16,24
   4abe4:	38c00615 	stw	r3,24(r7)
   4abe8:	80ffff17 	ldw	r3,-4(r16)
   4abec:	38800804 	addi	r2,r7,32
   4abf0:	38c00715 	stw	r3,28(r7)
   4abf4:	80c00017 	ldw	r3,0(r16)
   4abf8:	003f0706 	br	4a818 <_realloc_r+0x13c>
   4abfc:	80800217 	ldw	r2,8(r16)
   4ac00:	31800920 	cmpeqi	r6,r6,36
   4ac04:	38800415 	stw	r2,16(r7)
   4ac08:	80800317 	ldw	r2,12(r16)
   4ac0c:	38800515 	stw	r2,20(r7)
   4ac10:	80c00417 	ldw	r3,16(r16)
   4ac14:	3000031e 	bne	r6,zero,4ac24 <_realloc_r+0x548>
   4ac18:	38800604 	addi	r2,r7,24
   4ac1c:	84000404 	addi	r16,r16,16
   4ac20:	003fb906 	br	4ab08 <_realloc_r+0x42c>
   4ac24:	84000604 	addi	r16,r16,24
   4ac28:	38c00615 	stw	r3,24(r7)
   4ac2c:	80ffff17 	ldw	r3,-4(r16)
   4ac30:	38800804 	addi	r2,r7,32
   4ac34:	38c00715 	stw	r3,28(r7)
   4ac38:	80c00017 	ldw	r3,0(r16)
   4ac3c:	003fb206 	br	4ab08 <_realloc_r+0x42c>

0004ac40 <_vfiprintf_r>:
   4ac40:	004ad8c1 	jmpi	4ad8c <___vfiprintf_internal_r>

0004ac44 <_wctomb_r>:
   4ac44:	00800174 	movhi	r2,5
   4ac48:	1090d017 	ldw	r2,17216(r2)
   4ac4c:	1000683a 	jmp	r2

0004ac50 <__ascii_wctomb>:
   4ac50:	28000926 	beq	r5,zero,4ac78 <__ascii_wctomb+0x28>
   4ac54:	30804030 	cmpltui	r2,r6,256
   4ac58:	10000326 	beq	r2,zero,4ac68 <__ascii_wctomb+0x18>
   4ac5c:	29800005 	stb	r6,0(r5)
   4ac60:	00800044 	movi	r2,1
   4ac64:	f800283a 	ret
   4ac68:	00802284 	movi	r2,138
   4ac6c:	20800015 	stw	r2,0(r4)
   4ac70:	00bfffc4 	movi	r2,-1
   4ac74:	f800283a 	ret
   4ac78:	0005883a 	mov	r2,zero
   4ac7c:	f800283a 	ret

0004ac80 <__sprint_r.part.0>:
   4ac80:	28801917 	ldw	r2,100(r5)
   4ac84:	defff604 	addi	sp,sp,-40
   4ac88:	dcc00315 	stw	r19,12(sp)
   4ac8c:	dfc00915 	stw	ra,36(sp)
   4ac90:	df000815 	stw	fp,32(sp)
   4ac94:	ddc00715 	stw	r23,28(sp)
   4ac98:	dd800615 	stw	r22,24(sp)
   4ac9c:	dd400515 	stw	r21,20(sp)
   4aca0:	dd000415 	stw	r20,16(sp)
   4aca4:	dc800215 	stw	r18,8(sp)
   4aca8:	dc400115 	stw	r17,4(sp)
   4acac:	dc000015 	stw	r16,0(sp)
   4acb0:	1088000c 	andi	r2,r2,8192
   4acb4:	3027883a 	mov	r19,r6
   4acb8:	10002c26 	beq	r2,zero,4ad6c <__sprint_r.part.0+0xec>
   4acbc:	30800217 	ldw	r2,8(r6)
   4acc0:	35000017 	ldw	r20,0(r6)
   4acc4:	2821883a 	mov	r16,r5
   4acc8:	2023883a 	mov	r17,r4
   4accc:	05bfff04 	movi	r22,-4
   4acd0:	10002426 	beq	r2,zero,4ad64 <__sprint_r.part.0+0xe4>
   4acd4:	a5400117 	ldw	r21,4(r20)
   4acd8:	a5c00017 	ldw	r23,0(r20)
   4acdc:	a824d0ba 	srli	r18,r21,2
   4ace0:	90001b26 	beq	r18,zero,4ad50 <__sprint_r.part.0+0xd0>
   4ace4:	0039883a 	mov	fp,zero
   4ace8:	00000206 	br	4acf4 <__sprint_r.part.0+0x74>
   4acec:	bdc00104 	addi	r23,r23,4
   4acf0:	97001626 	beq	r18,fp,4ad4c <__sprint_r.part.0+0xcc>
   4acf4:	b9400017 	ldw	r5,0(r23)
   4acf8:	800d883a 	mov	r6,r16
   4acfc:	8809883a 	mov	r4,r17
   4ad00:	004ca200 	call	4ca20 <_fputwc_r>
   4ad04:	10bfffe0 	cmpeqi	r2,r2,-1
   4ad08:	e7000044 	addi	fp,fp,1
   4ad0c:	103ff726 	beq	r2,zero,4acec <__sprint_r.part.0+0x6c>
   4ad10:	00bfffc4 	movi	r2,-1
   4ad14:	98000215 	stw	zero,8(r19)
   4ad18:	98000115 	stw	zero,4(r19)
   4ad1c:	dfc00917 	ldw	ra,36(sp)
   4ad20:	df000817 	ldw	fp,32(sp)
   4ad24:	ddc00717 	ldw	r23,28(sp)
   4ad28:	dd800617 	ldw	r22,24(sp)
   4ad2c:	dd400517 	ldw	r21,20(sp)
   4ad30:	dd000417 	ldw	r20,16(sp)
   4ad34:	dcc00317 	ldw	r19,12(sp)
   4ad38:	dc800217 	ldw	r18,8(sp)
   4ad3c:	dc400117 	ldw	r17,4(sp)
   4ad40:	dc000017 	ldw	r16,0(sp)
   4ad44:	dec00a04 	addi	sp,sp,40
   4ad48:	f800283a 	ret
   4ad4c:	98800217 	ldw	r2,8(r19)
   4ad50:	adaa703a 	and	r21,r21,r22
   4ad54:	1545c83a 	sub	r2,r2,r21
   4ad58:	98800215 	stw	r2,8(r19)
   4ad5c:	a5000204 	addi	r20,r20,8
   4ad60:	103fdc1e 	bne	r2,zero,4acd4 <__sprint_r.part.0+0x54>
   4ad64:	0005883a 	mov	r2,zero
   4ad68:	003fea06 	br	4ad14 <__sprint_r.part.0+0x94>
   4ad6c:	004cabc0 	call	4cabc <__sfvwrite_r>
   4ad70:	003fe806 	br	4ad14 <__sprint_r.part.0+0x94>

0004ad74 <__sprint_r>:
   4ad74:	30c00217 	ldw	r3,8(r6)
   4ad78:	18000126 	beq	r3,zero,4ad80 <__sprint_r+0xc>
   4ad7c:	004ac801 	jmpi	4ac80 <__sprint_r.part.0>
   4ad80:	30000115 	stw	zero,4(r6)
   4ad84:	0005883a 	mov	r2,zero
   4ad88:	f800283a 	ret

0004ad8c <___vfiprintf_internal_r>:
   4ad8c:	deffcf04 	addi	sp,sp,-196
   4ad90:	dd802d15 	stw	r22,180(sp)
   4ad94:	dd402c15 	stw	r21,176(sp)
   4ad98:	dd002b15 	stw	r20,172(sp)
   4ad9c:	dfc03015 	stw	ra,192(sp)
   4ada0:	df002f15 	stw	fp,188(sp)
   4ada4:	ddc02e15 	stw	r23,184(sp)
   4ada8:	dcc02a15 	stw	r19,168(sp)
   4adac:	dc802915 	stw	r18,164(sp)
   4adb0:	dc402815 	stw	r17,160(sp)
   4adb4:	dc002715 	stw	r16,156(sp)
   4adb8:	d9c00415 	stw	r7,16(sp)
   4adbc:	202d883a 	mov	r22,r4
   4adc0:	282b883a 	mov	r21,r5
   4adc4:	3029883a 	mov	r20,r6
   4adc8:	20000226 	beq	r4,zero,4add4 <___vfiprintf_internal_r+0x48>
   4adcc:	20800e17 	ldw	r2,56(r4)
   4add0:	1001b226 	beq	r2,zero,4b49c <___vfiprintf_internal_r+0x710>
   4add4:	a880030b 	ldhu	r2,12(r21)
   4add8:	10c8000c 	andi	r3,r2,8192
   4addc:	1800061e 	bne	r3,zero,4adf8 <___vfiprintf_internal_r+0x6c>
   4ade0:	a8c01917 	ldw	r3,100(r21)
   4ade4:	0137ffc4 	movi	r4,-8193
   4ade8:	10880014 	ori	r2,r2,8192
   4adec:	1906703a 	and	r3,r3,r4
   4adf0:	a880030d 	sth	r2,12(r21)
   4adf4:	a8c01915 	stw	r3,100(r21)
   4adf8:	10c0020c 	andi	r3,r2,8
   4adfc:	18010626 	beq	r3,zero,4b218 <___vfiprintf_internal_r+0x48c>
   4ae00:	a8c00417 	ldw	r3,16(r21)
   4ae04:	18010426 	beq	r3,zero,4b218 <___vfiprintf_internal_r+0x48c>
   4ae08:	1080068c 	andi	r2,r2,26
   4ae0c:	10800298 	cmpnei	r2,r2,10
   4ae10:	10010926 	beq	r2,zero,4b238 <___vfiprintf_internal_r+0x4ac>
   4ae14:	dc801704 	addi	r18,sp,92
   4ae18:	dc800a15 	stw	r18,40(sp)
   4ae1c:	d8000c15 	stw	zero,48(sp)
   4ae20:	d8000b15 	stw	zero,44(sp)
   4ae24:	9021883a 	mov	r16,r18
   4ae28:	d8000515 	stw	zero,20(sp)
   4ae2c:	d8000115 	stw	zero,4(sp)
   4ae30:	a0c00007 	ldb	r3,0(r20)
   4ae34:	1800e626 	beq	r3,zero,4b1d0 <___vfiprintf_internal_r+0x444>
   4ae38:	a023883a 	mov	r17,r20
   4ae3c:	00000306 	br	4ae4c <___vfiprintf_internal_r+0xc0>
   4ae40:	88c00047 	ldb	r3,1(r17)
   4ae44:	8c400044 	addi	r17,r17,1
   4ae48:	18012826 	beq	r3,zero,4b2ec <___vfiprintf_internal_r+0x560>
   4ae4c:	18c00958 	cmpnei	r3,r3,37
   4ae50:	183ffb1e 	bne	r3,zero,4ae40 <___vfiprintf_internal_r+0xb4>
   4ae54:	8d27c83a 	sub	r19,r17,r20
   4ae58:	8d01261e 	bne	r17,r20,4b2f4 <___vfiprintf_internal_r+0x568>
   4ae5c:	88800003 	ldbu	r2,0(r17)
   4ae60:	10803fcc 	andi	r2,r2,255
   4ae64:	1080201c 	xori	r2,r2,128
   4ae68:	10bfe004 	addi	r2,r2,-128
   4ae6c:	1000d826 	beq	r2,zero,4b1d0 <___vfiprintf_internal_r+0x444>
   4ae70:	88800047 	ldb	r2,1(r17)
   4ae74:	8d000044 	addi	r20,r17,1
   4ae78:	d8000945 	stb	zero,37(sp)
   4ae7c:	000b883a 	mov	r5,zero
   4ae80:	000d883a 	mov	r6,zero
   4ae84:	023fffc4 	movi	r8,-1
   4ae88:	0023883a 	mov	r17,zero
   4ae8c:	001b883a 	mov	r13,zero
   4ae90:	a5000044 	addi	r20,r20,1
   4ae94:	10fff804 	addi	r3,r2,-32
   4ae98:	19001668 	cmpgeui	r4,r3,89
   4ae9c:	20006a1e 	bne	r4,zero,4b048 <___vfiprintf_internal_r+0x2bc>
   4aea0:	180690ba 	slli	r3,r3,2
   4aea4:	01000174 	movhi	r4,5
   4aea8:	1909883a 	add	r4,r3,r4
   4aeac:	20ebad17 	ldw	r3,-20812(r4)
   4aeb0:	1800683a 	jmp	r3
   4aeb4:	0004b7a4 	muli	zero,zero,4830
   4aeb8:	0004b048 	cmpgei	zero,zero,4801
   4aebc:	0004b048 	cmpgei	zero,zero,4801
   4aec0:	0004b798 	cmpnei	zero,zero,4830
   4aec4:	0004b048 	cmpgei	zero,zero,4801
   4aec8:	0004b048 	cmpgei	zero,zero,4801
   4aecc:	0004b048 	cmpgei	zero,zero,4801
   4aed0:	0004b048 	cmpgei	zero,zero,4801
   4aed4:	0004b048 	cmpgei	zero,zero,4801
   4aed8:	0004b048 	cmpgei	zero,zero,4801
   4aedc:	0004b770 	cmpltui	zero,zero,4829
   4aee0:	0004b760 	cmpeqi	zero,zero,4829
   4aee4:	0004b048 	cmpgei	zero,zero,4801
   4aee8:	0004b748 	cmpgei	zero,zero,4829
   4aeec:	0004b704 	movi	zero,4828
   4aef0:	0004b048 	cmpgei	zero,zero,4801
   4aef4:	0004b6f8 	rdprs	zero,zero,4827
   4aef8:	0004b018 	cmpnei	zero,zero,4800
   4aefc:	0004b018 	cmpnei	zero,zero,4800
   4af00:	0004b018 	cmpnei	zero,zero,4800
   4af04:	0004b018 	cmpnei	zero,zero,4800
   4af08:	0004b018 	cmpnei	zero,zero,4800
   4af0c:	0004b018 	cmpnei	zero,zero,4800
   4af10:	0004b018 	cmpnei	zero,zero,4800
   4af14:	0004b018 	cmpnei	zero,zero,4800
   4af18:	0004b018 	cmpnei	zero,zero,4800
   4af1c:	0004b048 	cmpgei	zero,zero,4801
   4af20:	0004b048 	cmpgei	zero,zero,4801
   4af24:	0004b048 	cmpgei	zero,zero,4801
   4af28:	0004b048 	cmpgei	zero,zero,4801
   4af2c:	0004b048 	cmpgei	zero,zero,4801
   4af30:	0004b048 	cmpgei	zero,zero,4801
   4af34:	0004b048 	cmpgei	zero,zero,4801
   4af38:	0004b048 	cmpgei	zero,zero,4801
   4af3c:	0004b048 	cmpgei	zero,zero,4801
   4af40:	0004b048 	cmpgei	zero,zero,4801
   4af44:	0004b614 	movui	zero,4824
   4af48:	0004b048 	cmpgei	zero,zero,4801
   4af4c:	0004b048 	cmpgei	zero,zero,4801
   4af50:	0004b048 	cmpgei	zero,zero,4801
   4af54:	0004b048 	cmpgei	zero,zero,4801
   4af58:	0004b048 	cmpgei	zero,zero,4801
   4af5c:	0004b048 	cmpgei	zero,zero,4801
   4af60:	0004b048 	cmpgei	zero,zero,4801
   4af64:	0004b048 	cmpgei	zero,zero,4801
   4af68:	0004b048 	cmpgei	zero,zero,4801
   4af6c:	0004b048 	cmpgei	zero,zero,4801
   4af70:	0004b284 	movi	zero,4810
   4af74:	0004b048 	cmpgei	zero,zero,4801
   4af78:	0004b048 	cmpgei	zero,zero,4801
   4af7c:	0004b048 	cmpgei	zero,zero,4801
   4af80:	0004b048 	cmpgei	zero,zero,4801
   4af84:	0004b048 	cmpgei	zero,zero,4801
   4af88:	0004b25c 	xori	zero,zero,4809
   4af8c:	0004b048 	cmpgei	zero,zero,4801
   4af90:	0004b048 	cmpgei	zero,zero,4801
   4af94:	0004b5cc 	andi	zero,zero,4823
   4af98:	0004b048 	cmpgei	zero,zero,4801
   4af9c:	0004b048 	cmpgei	zero,zero,4801
   4afa0:	0004b048 	cmpgei	zero,zero,4801
   4afa4:	0004b048 	cmpgei	zero,zero,4801
   4afa8:	0004b048 	cmpgei	zero,zero,4801
   4afac:	0004b048 	cmpgei	zero,zero,4801
   4afb0:	0004b048 	cmpgei	zero,zero,4801
   4afb4:	0004b048 	cmpgei	zero,zero,4801
   4afb8:	0004b048 	cmpgei	zero,zero,4801
   4afbc:	0004b048 	cmpgei	zero,zero,4801
   4afc0:	0004b5a4 	muli	zero,zero,4822
   4afc4:	0004b4a4 	muli	zero,zero,4818
   4afc8:	0004b048 	cmpgei	zero,zero,4801
   4afcc:	0004b048 	cmpgei	zero,zero,4801
   4afd0:	0004b048 	cmpgei	zero,zero,4801
   4afd4:	0004b548 	cmpgei	zero,zero,4821
   4afd8:	0004b4a4 	muli	zero,zero,4818
   4afdc:	0004b048 	cmpgei	zero,zero,4801
   4afe0:	0004b048 	cmpgei	zero,zero,4801
   4afe4:	0004b590 	cmplti	zero,zero,4822
   4afe8:	0004b048 	cmpgei	zero,zero,4801
   4afec:	0004b554 	movui	zero,4821
   4aff0:	0004b288 	cmpgei	zero,zero,4810
   4aff4:	0004b87c 	xorhi	zero,zero,4833
   4aff8:	0004b870 	cmpltui	zero,zero,4833
   4affc:	0004b048 	cmpgei	zero,zero,4801
   4b000:	0004b818 	cmpnei	zero,zero,4832
   4b004:	0004b048 	cmpgei	zero,zero,4801
   4b008:	0004b260 	cmpeqi	zero,zero,4809
   4b00c:	0004b048 	cmpgei	zero,zero,4801
   4b010:	0004b048 	cmpgei	zero,zero,4801
   4b014:	0004b7d0 	cmplti	zero,zero,4831
   4b018:	0023883a 	mov	r17,zero
   4b01c:	10fff404 	addi	r3,r2,-48
   4b020:	a0800007 	ldb	r2,0(r20)
   4b024:	8c4002a4 	muli	r17,r17,10
   4b028:	a5000044 	addi	r20,r20,1
   4b02c:	1c63883a 	add	r17,r3,r17
   4b030:	10fff404 	addi	r3,r2,-48
   4b034:	190002b0 	cmpltui	r4,r3,10
   4b038:	203ff91e 	bne	r4,zero,4b020 <___vfiprintf_internal_r+0x294>
   4b03c:	10fff804 	addi	r3,r2,-32
   4b040:	19001668 	cmpgeui	r4,r3,89
   4b044:	203f9626 	beq	r4,zero,4aea0 <___vfiprintf_internal_r+0x114>
   4b048:	29403fcc 	andi	r5,r5,255
   4b04c:	2803e11e 	bne	r5,zero,4bfd4 <___vfiprintf_internal_r+0x1248>
   4b050:	10005f26 	beq	r2,zero,4b1d0 <___vfiprintf_internal_r+0x444>
   4b054:	d8800d05 	stb	r2,52(sp)
   4b058:	d8000945 	stb	zero,37(sp)
   4b05c:	05c00044 	movi	r23,1
   4b060:	07000044 	movi	fp,1
   4b064:	dcc00d04 	addi	r19,sp,52
   4b068:	db400015 	stw	r13,0(sp)
   4b06c:	0011883a 	mov	r8,zero
   4b070:	d8800017 	ldw	r2,0(sp)
   4b074:	1380008c 	andi	r14,r2,2
   4b078:	70000126 	beq	r14,zero,4b080 <___vfiprintf_internal_r+0x2f4>
   4b07c:	bdc00084 	addi	r23,r23,2
   4b080:	d8800017 	ldw	r2,0(sp)
   4b084:	d9000b17 	ldw	r4,44(sp)
   4b088:	1340210c 	andi	r13,r2,132
   4b08c:	21800044 	addi	r6,r4,1
   4b090:	d8800c17 	ldw	r2,48(sp)
   4b094:	300b883a 	mov	r5,r6
   4b098:	6800021e 	bne	r13,zero,4b0a4 <___vfiprintf_internal_r+0x318>
   4b09c:	8dc7c83a 	sub	r3,r17,r23
   4b0a0:	00c2d516 	blt	zero,r3,4bbf8 <___vfiprintf_internal_r+0xe6c>
   4b0a4:	d8c00947 	ldb	r3,37(sp)
   4b0a8:	81800204 	addi	r6,r16,8
   4b0ac:	18000d26 	beq	r3,zero,4b0e4 <___vfiprintf_internal_r+0x358>
   4b0b0:	d8c00944 	addi	r3,sp,37
   4b0b4:	10800044 	addi	r2,r2,1
   4b0b8:	80c00015 	stw	r3,0(r16)
   4b0bc:	00c00044 	movi	r3,1
   4b0c0:	80c00115 	stw	r3,4(r16)
   4b0c4:	d8800c15 	stw	r2,48(sp)
   4b0c8:	d9400b15 	stw	r5,44(sp)
   4b0cc:	28c00208 	cmpgei	r3,r5,8
   4b0d0:	1802aa1e 	bne	r3,zero,4bb7c <___vfiprintf_internal_r+0xdf0>
   4b0d4:	2809883a 	mov	r4,r5
   4b0d8:	3021883a 	mov	r16,r6
   4b0dc:	29400044 	addi	r5,r5,1
   4b0e0:	31800204 	addi	r6,r6,8
   4b0e4:	70001826 	beq	r14,zero,4b148 <___vfiprintf_internal_r+0x3bc>
   4b0e8:	d8c00984 	addi	r3,sp,38
   4b0ec:	10800084 	addi	r2,r2,2
   4b0f0:	80c00015 	stw	r3,0(r16)
   4b0f4:	00c00084 	movi	r3,2
   4b0f8:	80c00115 	stw	r3,4(r16)
   4b0fc:	d8800c15 	stw	r2,48(sp)
   4b100:	d9400b15 	stw	r5,44(sp)
   4b104:	28c00208 	cmpgei	r3,r5,8
   4b108:	1802b426 	beq	r3,zero,4bbdc <___vfiprintf_internal_r+0xe50>
   4b10c:	10031026 	beq	r2,zero,4bd50 <___vfiprintf_internal_r+0xfc4>
   4b110:	d9800a04 	addi	r6,sp,40
   4b114:	a80b883a 	mov	r5,r21
   4b118:	b009883a 	mov	r4,r22
   4b11c:	da000315 	stw	r8,12(sp)
   4b120:	db400215 	stw	r13,8(sp)
   4b124:	004ac800 	call	4ac80 <__sprint_r.part.0>
   4b128:	10002b1e 	bne	r2,zero,4b1d8 <___vfiprintf_internal_r+0x44c>
   4b12c:	d9000b17 	ldw	r4,44(sp)
   4b130:	d8800c17 	ldw	r2,48(sp)
   4b134:	da000317 	ldw	r8,12(sp)
   4b138:	db400217 	ldw	r13,8(sp)
   4b13c:	d9801904 	addi	r6,sp,100
   4b140:	21400044 	addi	r5,r4,1
   4b144:	9021883a 	mov	r16,r18
   4b148:	6b402018 	cmpnei	r13,r13,128
   4b14c:	68020a26 	beq	r13,zero,4b978 <___vfiprintf_internal_r+0xbec>
   4b150:	4711c83a 	sub	r8,r8,fp
   4b154:	02024916 	blt	zero,r8,4ba7c <___vfiprintf_internal_r+0xcf0>
   4b158:	e085883a 	add	r2,fp,r2
   4b15c:	d9400b15 	stw	r5,44(sp)
   4b160:	84c00015 	stw	r19,0(r16)
   4b164:	87000115 	stw	fp,4(r16)
   4b168:	d8800c15 	stw	r2,48(sp)
   4b16c:	29400210 	cmplti	r5,r5,8
   4b170:	2800081e 	bne	r5,zero,4b194 <___vfiprintf_internal_r+0x408>
   4b174:	10008f26 	beq	r2,zero,4b3b4 <___vfiprintf_internal_r+0x628>
   4b178:	d9800a04 	addi	r6,sp,40
   4b17c:	a80b883a 	mov	r5,r21
   4b180:	b009883a 	mov	r4,r22
   4b184:	004ac800 	call	4ac80 <__sprint_r.part.0>
   4b188:	1000131e 	bne	r2,zero,4b1d8 <___vfiprintf_internal_r+0x44c>
   4b18c:	d8800c17 	ldw	r2,48(sp)
   4b190:	900d883a 	mov	r6,r18
   4b194:	d8c00017 	ldw	r3,0(sp)
   4b198:	1cc0010c 	andi	r19,r3,4
   4b19c:	98000226 	beq	r19,zero,4b1a8 <___vfiprintf_internal_r+0x41c>
   4b1a0:	8de1c83a 	sub	r16,r17,r23
   4b1a4:	04008a16 	blt	zero,r16,4b3d0 <___vfiprintf_internal_r+0x644>
   4b1a8:	8dc0010e 	bge	r17,r23,4b1b0 <___vfiprintf_internal_r+0x424>
   4b1ac:	b823883a 	mov	r17,r23
   4b1b0:	d8c00117 	ldw	r3,4(sp)
   4b1b4:	1c47883a 	add	r3,r3,r17
   4b1b8:	d8c00115 	stw	r3,4(sp)
   4b1bc:	1002651e 	bne	r2,zero,4bb54 <___vfiprintf_internal_r+0xdc8>
   4b1c0:	a0c00007 	ldb	r3,0(r20)
   4b1c4:	d8000b15 	stw	zero,44(sp)
   4b1c8:	9021883a 	mov	r16,r18
   4b1cc:	183f1a1e 	bne	r3,zero,4ae38 <___vfiprintf_internal_r+0xac>
   4b1d0:	d8800c17 	ldw	r2,48(sp)
   4b1d4:	1003811e 	bne	r2,zero,4bfdc <___vfiprintf_internal_r+0x1250>
   4b1d8:	a880030b 	ldhu	r2,12(r21)
   4b1dc:	1080100c 	andi	r2,r2,64
   4b1e0:	10039c1e 	bne	r2,zero,4c054 <___vfiprintf_internal_r+0x12c8>
   4b1e4:	d8800117 	ldw	r2,4(sp)
   4b1e8:	dfc03017 	ldw	ra,192(sp)
   4b1ec:	df002f17 	ldw	fp,188(sp)
   4b1f0:	ddc02e17 	ldw	r23,184(sp)
   4b1f4:	dd802d17 	ldw	r22,180(sp)
   4b1f8:	dd402c17 	ldw	r21,176(sp)
   4b1fc:	dd002b17 	ldw	r20,172(sp)
   4b200:	dcc02a17 	ldw	r19,168(sp)
   4b204:	dc802917 	ldw	r18,164(sp)
   4b208:	dc402817 	ldw	r17,160(sp)
   4b20c:	dc002717 	ldw	r16,156(sp)
   4b210:	dec03104 	addi	sp,sp,196
   4b214:	f800283a 	ret
   4b218:	a80b883a 	mov	r5,r21
   4b21c:	b009883a 	mov	r4,r22
   4b220:	004c16c0 	call	4c16c <__swsetup_r>
   4b224:	10038b1e 	bne	r2,zero,4c054 <___vfiprintf_internal_r+0x12c8>
   4b228:	a880030b 	ldhu	r2,12(r21)
   4b22c:	1080068c 	andi	r2,r2,26
   4b230:	10800298 	cmpnei	r2,r2,10
   4b234:	103ef71e 	bne	r2,zero,4ae14 <___vfiprintf_internal_r+0x88>
   4b238:	a880038f 	ldh	r2,14(r21)
   4b23c:	103ef516 	blt	r2,zero,4ae14 <___vfiprintf_internal_r+0x88>
   4b240:	d9c00417 	ldw	r7,16(sp)
   4b244:	a00d883a 	mov	r6,r20
   4b248:	a80b883a 	mov	r5,r21
   4b24c:	b009883a 	mov	r4,r22
   4b250:	004c0ac0 	call	4c0ac <__sbprintf>
   4b254:	d8800115 	stw	r2,4(sp)
   4b258:	003fe206 	br	4b1e4 <___vfiprintf_internal_r+0x458>
   4b25c:	6b400414 	ori	r13,r13,16
   4b260:	6880080c 	andi	r2,r13,32
   4b264:	10004726 	beq	r2,zero,4b384 <___vfiprintf_internal_r+0x5f8>
   4b268:	d8c00417 	ldw	r3,16(sp)
   4b26c:	00800044 	movi	r2,1
   4b270:	1dc00017 	ldw	r23,0(r3)
   4b274:	1f000117 	ldw	fp,4(r3)
   4b278:	18c00204 	addi	r3,r3,8
   4b27c:	d8c00415 	stw	r3,16(sp)
   4b280:	00000906 	br	4b2a8 <___vfiprintf_internal_r+0x51c>
   4b284:	6b400414 	ori	r13,r13,16
   4b288:	6880080c 	andi	r2,r13,32
   4b28c:	10003126 	beq	r2,zero,4b354 <___vfiprintf_internal_r+0x5c8>
   4b290:	d8c00417 	ldw	r3,16(sp)
   4b294:	0005883a 	mov	r2,zero
   4b298:	1dc00017 	ldw	r23,0(r3)
   4b29c:	1f000117 	ldw	fp,4(r3)
   4b2a0:	18c00204 	addi	r3,r3,8
   4b2a4:	d8c00415 	stw	r3,16(sp)
   4b2a8:	d8000945 	stb	zero,37(sp)
   4b2ac:	40ffffe0 	cmpeqi	r3,r8,-1
   4b2b0:	001d883a 	mov	r14,zero
   4b2b4:	1800f21e 	bne	r3,zero,4b680 <___vfiprintf_internal_r+0x8f4>
   4b2b8:	04ffdfc4 	movi	r19,-129
   4b2bc:	6cc8703a 	and	r4,r13,r19
   4b2c0:	bf06b03a 	or	r3,r23,fp
   4b2c4:	d9000015 	stw	r4,0(sp)
   4b2c8:	1802491e 	bne	r3,zero,4bbf0 <___vfiprintf_internal_r+0xe64>
   4b2cc:	4003071e 	bne	r8,zero,4beec <___vfiprintf_internal_r+0x1160>
   4b2d0:	1002a41e 	bne	r2,zero,4bd64 <___vfiprintf_internal_r+0xfd8>
   4b2d4:	6f00004c 	andi	fp,r13,1
   4b2d8:	e002b626 	beq	fp,zero,4bdb4 <___vfiprintf_internal_r+0x1028>
   4b2dc:	00800c04 	movi	r2,48
   4b2e0:	d88016c5 	stb	r2,91(sp)
   4b2e4:	dcc016c4 	addi	r19,sp,91
   4b2e8:	00008e06 	br	4b524 <___vfiprintf_internal_r+0x798>
   4b2ec:	8d27c83a 	sub	r19,r17,r20
   4b2f0:	8d3fb726 	beq	r17,r20,4b1d0 <___vfiprintf_internal_r+0x444>
   4b2f4:	d8c00c17 	ldw	r3,48(sp)
   4b2f8:	d8800b17 	ldw	r2,44(sp)
   4b2fc:	85000015 	stw	r20,0(r16)
   4b300:	98c7883a 	add	r3,r19,r3
   4b304:	10800044 	addi	r2,r2,1
   4b308:	d8800b15 	stw	r2,44(sp)
   4b30c:	84c00115 	stw	r19,4(r16)
   4b310:	d8c00c15 	stw	r3,48(sp)
   4b314:	10800208 	cmpgei	r2,r2,8
   4b318:	1000061e 	bne	r2,zero,4b334 <___vfiprintf_internal_r+0x5a8>
   4b31c:	84000204 	addi	r16,r16,8
   4b320:	d8c00117 	ldw	r3,4(sp)
   4b324:	88800003 	ldbu	r2,0(r17)
   4b328:	1cc7883a 	add	r3,r3,r19
   4b32c:	d8c00115 	stw	r3,4(sp)
   4b330:	003ecb06 	br	4ae60 <___vfiprintf_internal_r+0xd4>
   4b334:	18027d26 	beq	r3,zero,4bd2c <___vfiprintf_internal_r+0xfa0>
   4b338:	d9800a04 	addi	r6,sp,40
   4b33c:	a80b883a 	mov	r5,r21
   4b340:	b009883a 	mov	r4,r22
   4b344:	004ac800 	call	4ac80 <__sprint_r.part.0>
   4b348:	103fa31e 	bne	r2,zero,4b1d8 <___vfiprintf_internal_r+0x44c>
   4b34c:	9021883a 	mov	r16,r18
   4b350:	003ff306 	br	4b320 <___vfiprintf_internal_r+0x594>
   4b354:	d9000417 	ldw	r4,16(sp)
   4b358:	6880040c 	andi	r2,r13,16
   4b35c:	20c00104 	addi	r3,r4,4
   4b360:	1002a11e 	bne	r2,zero,4bde8 <___vfiprintf_internal_r+0x105c>
   4b364:	6880100c 	andi	r2,r13,64
   4b368:	1002f426 	beq	r2,zero,4bf3c <___vfiprintf_internal_r+0x11b0>
   4b36c:	d8800417 	ldw	r2,16(sp)
   4b370:	0039883a 	mov	fp,zero
   4b374:	d8c00415 	stw	r3,16(sp)
   4b378:	15c0000b 	ldhu	r23,0(r2)
   4b37c:	0005883a 	mov	r2,zero
   4b380:	003fc906 	br	4b2a8 <___vfiprintf_internal_r+0x51c>
   4b384:	d9000417 	ldw	r4,16(sp)
   4b388:	6880040c 	andi	r2,r13,16
   4b38c:	20c00104 	addi	r3,r4,4
   4b390:	1002a91e 	bne	r2,zero,4be38 <___vfiprintf_internal_r+0x10ac>
   4b394:	6880100c 	andi	r2,r13,64
   4b398:	1002ee26 	beq	r2,zero,4bf54 <___vfiprintf_internal_r+0x11c8>
   4b39c:	d8800417 	ldw	r2,16(sp)
   4b3a0:	0039883a 	mov	fp,zero
   4b3a4:	d8c00415 	stw	r3,16(sp)
   4b3a8:	15c0000b 	ldhu	r23,0(r2)
   4b3ac:	00800044 	movi	r2,1
   4b3b0:	003fbd06 	br	4b2a8 <___vfiprintf_internal_r+0x51c>
   4b3b4:	d8c00017 	ldw	r3,0(sp)
   4b3b8:	d8000b15 	stw	zero,44(sp)
   4b3bc:	1cc0010c 	andi	r19,r3,4
   4b3c0:	98024826 	beq	r19,zero,4bce4 <___vfiprintf_internal_r+0xf58>
   4b3c4:	8de1c83a 	sub	r16,r17,r23
   4b3c8:	0402460e 	bge	zero,r16,4bce4 <___vfiprintf_internal_r+0xf58>
   4b3cc:	900d883a 	mov	r6,r18
   4b3d0:	80c00450 	cmplti	r3,r16,17
   4b3d4:	d9000b17 	ldw	r4,44(sp)
   4b3d8:	01c00174 	movhi	r7,5
   4b3dc:	1803151e 	bne	r3,zero,4c034 <___vfiprintf_internal_r+0x12a8>
   4b3e0:	39ce8004 	addi	r7,r7,14848
   4b3e4:	04c00404 	movi	r19,16
   4b3e8:	00000606 	br	4b404 <___vfiprintf_internal_r+0x678>
   4b3ec:	21400084 	addi	r5,r4,2
   4b3f0:	31800204 	addi	r6,r6,8
   4b3f4:	1809883a 	mov	r4,r3
   4b3f8:	843ffc04 	addi	r16,r16,-16
   4b3fc:	80c00448 	cmpgei	r3,r16,17
   4b400:	18001726 	beq	r3,zero,4b460 <___vfiprintf_internal_r+0x6d4>
   4b404:	20c00044 	addi	r3,r4,1
   4b408:	10800404 	addi	r2,r2,16
   4b40c:	31c00015 	stw	r7,0(r6)
   4b410:	34c00115 	stw	r19,4(r6)
   4b414:	d8800c15 	stw	r2,48(sp)
   4b418:	d8c00b15 	stw	r3,44(sp)
   4b41c:	19400208 	cmpgei	r5,r3,8
   4b420:	283ff226 	beq	r5,zero,4b3ec <___vfiprintf_internal_r+0x660>
   4b424:	d9800a04 	addi	r6,sp,40
   4b428:	a80b883a 	mov	r5,r21
   4b42c:	b009883a 	mov	r4,r22
   4b430:	10014d26 	beq	r2,zero,4b968 <___vfiprintf_internal_r+0xbdc>
   4b434:	d9c00015 	stw	r7,0(sp)
   4b438:	004ac800 	call	4ac80 <__sprint_r.part.0>
   4b43c:	103f661e 	bne	r2,zero,4b1d8 <___vfiprintf_internal_r+0x44c>
   4b440:	d9000b17 	ldw	r4,44(sp)
   4b444:	843ffc04 	addi	r16,r16,-16
   4b448:	80c00448 	cmpgei	r3,r16,17
   4b44c:	d8800c17 	ldw	r2,48(sp)
   4b450:	d9c00017 	ldw	r7,0(sp)
   4b454:	900d883a 	mov	r6,r18
   4b458:	21400044 	addi	r5,r4,1
   4b45c:	183fe91e 	bne	r3,zero,4b404 <___vfiprintf_internal_r+0x678>
   4b460:	1405883a 	add	r2,r2,r16
   4b464:	d9400b15 	stw	r5,44(sp)
   4b468:	31c00015 	stw	r7,0(r6)
   4b46c:	34000115 	stw	r16,4(r6)
   4b470:	d8800c15 	stw	r2,48(sp)
   4b474:	29400210 	cmplti	r5,r5,8
   4b478:	283f4b1e 	bne	r5,zero,4b1a8 <___vfiprintf_internal_r+0x41c>
   4b47c:	10021926 	beq	r2,zero,4bce4 <___vfiprintf_internal_r+0xf58>
   4b480:	d9800a04 	addi	r6,sp,40
   4b484:	a80b883a 	mov	r5,r21
   4b488:	b009883a 	mov	r4,r22
   4b48c:	004ac800 	call	4ac80 <__sprint_r.part.0>
   4b490:	103f511e 	bne	r2,zero,4b1d8 <___vfiprintf_internal_r+0x44c>
   4b494:	d8800c17 	ldw	r2,48(sp)
   4b498:	003f4306 	br	4b1a8 <___vfiprintf_internal_r+0x41c>
   4b49c:	004c8740 	call	4c874 <__sinit>
   4b4a0:	003e4c06 	br	4add4 <___vfiprintf_internal_r+0x48>
   4b4a4:	29403fcc 	andi	r5,r5,255
   4b4a8:	2802de1e 	bne	r5,zero,4c024 <___vfiprintf_internal_r+0x1298>
   4b4ac:	6880080c 	andi	r2,r13,32
   4b4b0:	10005d26 	beq	r2,zero,4b628 <___vfiprintf_internal_r+0x89c>
   4b4b4:	d8c00417 	ldw	r3,16(sp)
   4b4b8:	18800117 	ldw	r2,4(r3)
   4b4bc:	1dc00017 	ldw	r23,0(r3)
   4b4c0:	18c00204 	addi	r3,r3,8
   4b4c4:	d8c00415 	stw	r3,16(sp)
   4b4c8:	1039883a 	mov	fp,r2
   4b4cc:	10006216 	blt	r2,zero,4b658 <___vfiprintf_internal_r+0x8cc>
   4b4d0:	40bfffd8 	cmpnei	r2,r8,-1
   4b4d4:	10000a26 	beq	r2,zero,4b500 <___vfiprintf_internal_r+0x774>
   4b4d8:	00ffdfc4 	movi	r3,-129
   4b4dc:	bf04b03a 	or	r2,r23,fp
   4b4e0:	db800943 	ldbu	r14,37(sp)
   4b4e4:	68da703a 	and	r13,r13,r3
   4b4e8:	1000061e 	bne	r2,zero,4b504 <___vfiprintf_internal_r+0x778>
   4b4ec:	4000081e 	bne	r8,zero,4b510 <___vfiprintf_internal_r+0x784>
   4b4f0:	0039883a 	mov	fp,zero
   4b4f4:	db400015 	stw	r13,0(sp)
   4b4f8:	9027883a 	mov	r19,r18
   4b4fc:	00000906 	br	4b524 <___vfiprintf_internal_r+0x798>
   4b500:	db800943 	ldbu	r14,37(sp)
   4b504:	e000ec1e 	bne	fp,zero,4b8b8 <___vfiprintf_internal_r+0xb2c>
   4b508:	b88002a8 	cmpgeui	r2,r23,10
   4b50c:	1000ea1e 	bne	r2,zero,4b8b8 <___vfiprintf_internal_r+0xb2c>
   4b510:	bdc00c04 	addi	r23,r23,48
   4b514:	ddc016c5 	stb	r23,91(sp)
   4b518:	db400015 	stw	r13,0(sp)
   4b51c:	07000044 	movi	fp,1
   4b520:	dcc016c4 	addi	r19,sp,91
   4b524:	402f883a 	mov	r23,r8
   4b528:	4700010e 	bge	r8,fp,4b530 <___vfiprintf_internal_r+0x7a4>
   4b52c:	e02f883a 	mov	r23,fp
   4b530:	73803fcc 	andi	r14,r14,255
   4b534:	7380201c 	xori	r14,r14,128
   4b538:	73bfe004 	addi	r14,r14,-128
   4b53c:	703ecc26 	beq	r14,zero,4b070 <___vfiprintf_internal_r+0x2e4>
   4b540:	bdc00044 	addi	r23,r23,1
   4b544:	003eca06 	br	4b070 <___vfiprintf_internal_r+0x2e4>
   4b548:	a0800007 	ldb	r2,0(r20)
   4b54c:	6b401014 	ori	r13,r13,64
   4b550:	003e4f06 	br	4ae90 <___vfiprintf_internal_r+0x104>
   4b554:	29403fcc 	andi	r5,r5,255
   4b558:	2802b01e 	bne	r5,zero,4c01c <___vfiprintf_internal_r+0x1290>
   4b55c:	d9000417 	ldw	r4,16(sp)
   4b560:	6880080c 	andi	r2,r13,32
   4b564:	20c00017 	ldw	r3,0(r4)
   4b568:	21000104 	addi	r4,r4,4
   4b56c:	1002231e 	bne	r2,zero,4bdfc <___vfiprintf_internal_r+0x1070>
   4b570:	6880040c 	andi	r2,r13,16
   4b574:	1002511e 	bne	r2,zero,4bebc <___vfiprintf_internal_r+0x1130>
   4b578:	6b40100c 	andi	r13,r13,64
   4b57c:	68024f26 	beq	r13,zero,4bebc <___vfiprintf_internal_r+0x1130>
   4b580:	d8800117 	ldw	r2,4(sp)
   4b584:	d9000415 	stw	r4,16(sp)
   4b588:	1880000d 	sth	r2,0(r3)
   4b58c:	003e2806 	br	4ae30 <___vfiprintf_internal_r+0xa4>
   4b590:	a0800007 	ldb	r2,0(r20)
   4b594:	10c01b18 	cmpnei	r3,r2,108
   4b598:	18025826 	beq	r3,zero,4befc <___vfiprintf_internal_r+0x1170>
   4b59c:	6b400414 	ori	r13,r13,16
   4b5a0:	003e3b06 	br	4ae90 <___vfiprintf_internal_r+0x104>
   4b5a4:	d8c00417 	ldw	r3,16(sp)
   4b5a8:	d8000945 	stb	zero,37(sp)
   4b5ac:	05c00044 	movi	r23,1
   4b5b0:	18800017 	ldw	r2,0(r3)
   4b5b4:	18c00104 	addi	r3,r3,4
   4b5b8:	d8c00415 	stw	r3,16(sp)
   4b5bc:	d8800d05 	stb	r2,52(sp)
   4b5c0:	07000044 	movi	fp,1
   4b5c4:	dcc00d04 	addi	r19,sp,52
   4b5c8:	003ea706 	br	4b068 <___vfiprintf_internal_r+0x2dc>
   4b5cc:	29403fcc 	andi	r5,r5,255
   4b5d0:	2802961e 	bne	r5,zero,4c02c <___vfiprintf_internal_r+0x12a0>
   4b5d4:	00c00174 	movhi	r3,5
   4b5d8:	18cd3a04 	addi	r3,r3,13544
   4b5dc:	d8c00515 	stw	r3,20(sp)
   4b5e0:	68c0080c 	andi	r3,r13,32
   4b5e4:	18008126 	beq	r3,zero,4b7ec <___vfiprintf_internal_r+0xa60>
   4b5e8:	d8c00417 	ldw	r3,16(sp)
   4b5ec:	1dc00017 	ldw	r23,0(r3)
   4b5f0:	1f000117 	ldw	fp,4(r3)
   4b5f4:	18c00204 	addi	r3,r3,8
   4b5f8:	d8c00415 	stw	r3,16(sp)
   4b5fc:	68c0004c 	andi	r3,r13,1
   4b600:	18000226 	beq	r3,zero,4b60c <___vfiprintf_internal_r+0x880>
   4b604:	bf06b03a 	or	r3,r23,fp
   4b608:	1801f11e 	bne	r3,zero,4bdd0 <___vfiprintf_internal_r+0x1044>
   4b60c:	00800084 	movi	r2,2
   4b610:	003f2506 	br	4b2a8 <___vfiprintf_internal_r+0x51c>
   4b614:	29403fcc 	andi	r5,r5,255
   4b618:	28027e1e 	bne	r5,zero,4c014 <___vfiprintf_internal_r+0x1288>
   4b61c:	6b400414 	ori	r13,r13,16
   4b620:	6880080c 	andi	r2,r13,32
   4b624:	103fa31e 	bne	r2,zero,4b4b4 <___vfiprintf_internal_r+0x728>
   4b628:	d9000417 	ldw	r4,16(sp)
   4b62c:	6880040c 	andi	r2,r13,16
   4b630:	20c00104 	addi	r3,r4,4
   4b634:	1001f71e 	bne	r2,zero,4be14 <___vfiprintf_internal_r+0x1088>
   4b638:	6880100c 	andi	r2,r13,64
   4b63c:	10025026 	beq	r2,zero,4bf80 <___vfiprintf_internal_r+0x11f4>
   4b640:	d8800417 	ldw	r2,16(sp)
   4b644:	d8c00415 	stw	r3,16(sp)
   4b648:	15c0000f 	ldh	r23,0(r2)
   4b64c:	b839d7fa 	srai	fp,r23,31
   4b650:	e005883a 	mov	r2,fp
   4b654:	103f9e0e 	bge	r2,zero,4b4d0 <___vfiprintf_internal_r+0x744>
   4b658:	b804c03a 	cmpne	r2,r23,zero
   4b65c:	0739c83a 	sub	fp,zero,fp
   4b660:	e0b9c83a 	sub	fp,fp,r2
   4b664:	00800b44 	movi	r2,45
   4b668:	d8800945 	stb	r2,37(sp)
   4b66c:	40ffffe0 	cmpeqi	r3,r8,-1
   4b670:	05efc83a 	sub	r23,zero,r23
   4b674:	03800b44 	movi	r14,45
   4b678:	00800044 	movi	r2,1
   4b67c:	183f0e26 	beq	r3,zero,4b2b8 <___vfiprintf_internal_r+0x52c>
   4b680:	10c00060 	cmpeqi	r3,r2,1
   4b684:	183f9f1e 	bne	r3,zero,4b504 <___vfiprintf_internal_r+0x778>
   4b688:	108000a0 	cmpeqi	r2,r2,2
   4b68c:	9027883a 	mov	r19,r18
   4b690:	1000a61e 	bne	r2,zero,4b92c <___vfiprintf_internal_r+0xba0>
   4b694:	e006977a 	slli	r3,fp,29
   4b698:	b804d0fa 	srli	r2,r23,3
   4b69c:	e038d0fa 	srli	fp,fp,3
   4b6a0:	b90001cc 	andi	r4,r23,7
   4b6a4:	21000c04 	addi	r4,r4,48
   4b6a8:	18aeb03a 	or	r23,r3,r2
   4b6ac:	993fffc5 	stb	r4,-1(r19)
   4b6b0:	bf04b03a 	or	r2,r23,fp
   4b6b4:	980b883a 	mov	r5,r19
   4b6b8:	9cffffc4 	addi	r19,r19,-1
   4b6bc:	103ff51e 	bne	r2,zero,4b694 <___vfiprintf_internal_r+0x908>
   4b6c0:	6880004c 	andi	r2,r13,1
   4b6c4:	1000a526 	beq	r2,zero,4b95c <___vfiprintf_internal_r+0xbd0>
   4b6c8:	21003fcc 	andi	r4,r4,255
   4b6cc:	2100201c 	xori	r4,r4,128
   4b6d0:	213fe004 	addi	r4,r4,-128
   4b6d4:	20800c18 	cmpnei	r2,r4,48
   4b6d8:	1000a026 	beq	r2,zero,4b95c <___vfiprintf_internal_r+0xbd0>
   4b6dc:	297fff84 	addi	r5,r5,-2
   4b6e0:	00800c04 	movi	r2,48
   4b6e4:	98bfffc5 	stb	r2,-1(r19)
   4b6e8:	9179c83a 	sub	fp,r18,r5
   4b6ec:	db400015 	stw	r13,0(sp)
   4b6f0:	2827883a 	mov	r19,r5
   4b6f4:	003f8b06 	br	4b524 <___vfiprintf_internal_r+0x798>
   4b6f8:	a0800007 	ldb	r2,0(r20)
   4b6fc:	6b402014 	ori	r13,r13,128
   4b700:	003de306 	br	4ae90 <___vfiprintf_internal_r+0x104>
   4b704:	a0800007 	ldb	r2,0(r20)
   4b708:	a1000044 	addi	r4,r20,1
   4b70c:	10c00aa0 	cmpeqi	r3,r2,42
   4b710:	1802531e 	bne	r3,zero,4c060 <___vfiprintf_internal_r+0x12d4>
   4b714:	10fff404 	addi	r3,r2,-48
   4b718:	19c002b0 	cmpltui	r7,r3,10
   4b71c:	2029883a 	mov	r20,r4
   4b720:	0011883a 	mov	r8,zero
   4b724:	383ddb26 	beq	r7,zero,4ae94 <___vfiprintf_internal_r+0x108>
   4b728:	a0800007 	ldb	r2,0(r20)
   4b72c:	420002a4 	muli	r8,r8,10
   4b730:	a5000044 	addi	r20,r20,1
   4b734:	40d1883a 	add	r8,r8,r3
   4b738:	10fff404 	addi	r3,r2,-48
   4b73c:	190002b0 	cmpltui	r4,r3,10
   4b740:	203ff91e 	bne	r4,zero,4b728 <___vfiprintf_internal_r+0x99c>
   4b744:	003dd306 	br	4ae94 <___vfiprintf_internal_r+0x108>
   4b748:	a0800003 	ldbu	r2,0(r20)
   4b74c:	10803fcc 	andi	r2,r2,255
   4b750:	1080201c 	xori	r2,r2,128
   4b754:	6b400114 	ori	r13,r13,4
   4b758:	10bfe004 	addi	r2,r2,-128
   4b75c:	003dcc06 	br	4ae90 <___vfiprintf_internal_r+0x104>
   4b760:	a0800007 	ldb	r2,0(r20)
   4b764:	01400044 	movi	r5,1
   4b768:	01800ac4 	movi	r6,43
   4b76c:	003dc806 	br	4ae90 <___vfiprintf_internal_r+0x104>
   4b770:	d8c00417 	ldw	r3,16(sp)
   4b774:	a0800003 	ldbu	r2,0(r20)
   4b778:	1c400017 	ldw	r17,0(r3)
   4b77c:	18c00104 	addi	r3,r3,4
   4b780:	8801b916 	blt	r17,zero,4be68 <___vfiprintf_internal_r+0x10dc>
   4b784:	d8c00415 	stw	r3,16(sp)
   4b788:	10803fcc 	andi	r2,r2,255
   4b78c:	1080201c 	xori	r2,r2,128
   4b790:	10bfe004 	addi	r2,r2,-128
   4b794:	003dbe06 	br	4ae90 <___vfiprintf_internal_r+0x104>
   4b798:	a0800007 	ldb	r2,0(r20)
   4b79c:	6b400054 	ori	r13,r13,1
   4b7a0:	003dbb06 	br	4ae90 <___vfiprintf_internal_r+0x104>
   4b7a4:	30c03fcc 	andi	r3,r6,255
   4b7a8:	18c0201c 	xori	r3,r3,128
   4b7ac:	18ffe004 	addi	r3,r3,-128
   4b7b0:	a0800003 	ldbu	r2,0(r20)
   4b7b4:	183ff41e 	bne	r3,zero,4b788 <___vfiprintf_internal_r+0x9fc>
   4b7b8:	10803fcc 	andi	r2,r2,255
   4b7bc:	1080201c 	xori	r2,r2,128
   4b7c0:	01400044 	movi	r5,1
   4b7c4:	01800804 	movi	r6,32
   4b7c8:	10bfe004 	addi	r2,r2,-128
   4b7cc:	003db006 	br	4ae90 <___vfiprintf_internal_r+0x104>
   4b7d0:	29403fcc 	andi	r5,r5,255
   4b7d4:	28020a1e 	bne	r5,zero,4c000 <___vfiprintf_internal_r+0x1274>
   4b7d8:	00c00174 	movhi	r3,5
   4b7dc:	18cd3f04 	addi	r3,r3,13564
   4b7e0:	d8c00515 	stw	r3,20(sp)
   4b7e4:	68c0080c 	andi	r3,r13,32
   4b7e8:	183f7f1e 	bne	r3,zero,4b5e8 <___vfiprintf_internal_r+0x85c>
   4b7ec:	d9400417 	ldw	r5,16(sp)
   4b7f0:	68c0040c 	andi	r3,r13,16
   4b7f4:	29000104 	addi	r4,r5,4
   4b7f8:	18018b1e 	bne	r3,zero,4be28 <___vfiprintf_internal_r+0x109c>
   4b7fc:	68c0100c 	andi	r3,r13,64
   4b800:	1801da26 	beq	r3,zero,4bf6c <___vfiprintf_internal_r+0x11e0>
   4b804:	d8c00417 	ldw	r3,16(sp)
   4b808:	0039883a 	mov	fp,zero
   4b80c:	d9000415 	stw	r4,16(sp)
   4b810:	1dc0000b 	ldhu	r23,0(r3)
   4b814:	003f7906 	br	4b5fc <___vfiprintf_internal_r+0x870>
   4b818:	d8800417 	ldw	r2,16(sp)
   4b81c:	d8000945 	stb	zero,37(sp)
   4b820:	14c00017 	ldw	r19,0(r2)
   4b824:	10c00104 	addi	r3,r2,4
   4b828:	9801bb26 	beq	r19,zero,4bf18 <___vfiprintf_internal_r+0x118c>
   4b82c:	40bfffe0 	cmpeqi	r2,r8,-1
   4b830:	1001901e 	bne	r2,zero,4be74 <___vfiprintf_internal_r+0x10e8>
   4b834:	400d883a 	mov	r6,r8
   4b838:	000b883a 	mov	r5,zero
   4b83c:	9809883a 	mov	r4,r19
   4b840:	d8c00315 	stw	r3,12(sp)
   4b844:	db400215 	stw	r13,8(sp)
   4b848:	da000015 	stw	r8,0(sp)
   4b84c:	0047e300 	call	47e30 <memchr>
   4b850:	da000017 	ldw	r8,0(sp)
   4b854:	db400217 	ldw	r13,8(sp)
   4b858:	d8c00317 	ldw	r3,12(sp)
   4b85c:	1001e426 	beq	r2,zero,4bff0 <___vfiprintf_internal_r+0x1264>
   4b860:	14f9c83a 	sub	fp,r2,r19
   4b864:	e02f883a 	mov	r23,fp
   4b868:	d8c00415 	stw	r3,16(sp)
   4b86c:	003dfe06 	br	4b068 <___vfiprintf_internal_r+0x2dc>
   4b870:	a0800007 	ldb	r2,0(r20)
   4b874:	6b400814 	ori	r13,r13,32
   4b878:	003d8506 	br	4ae90 <___vfiprintf_internal_r+0x104>
   4b87c:	d8c00417 	ldw	r3,16(sp)
   4b880:	00800c04 	movi	r2,48
   4b884:	d8800985 	stb	r2,38(sp)
   4b888:	00801e04 	movi	r2,120
   4b88c:	01000174 	movhi	r4,5
   4b890:	d88009c5 	stb	r2,39(sp)
   4b894:	18800104 	addi	r2,r3,4
   4b898:	d8800415 	stw	r2,16(sp)
   4b89c:	208d3f04 	addi	r2,r4,13564
   4b8a0:	d8800515 	stw	r2,20(sp)
   4b8a4:	1dc00017 	ldw	r23,0(r3)
   4b8a8:	0039883a 	mov	fp,zero
   4b8ac:	6b400094 	ori	r13,r13,2
   4b8b0:	00800084 	movi	r2,2
   4b8b4:	003e7c06 	br	4b2a8 <___vfiprintf_internal_r+0x51c>
   4b8b8:	9027883a 	mov	r19,r18
   4b8bc:	b809883a 	mov	r4,r23
   4b8c0:	e00b883a 	mov	r5,fp
   4b8c4:	01800284 	movi	r6,10
   4b8c8:	000f883a 	mov	r7,zero
   4b8cc:	db800315 	stw	r14,12(sp)
   4b8d0:	da000215 	stw	r8,8(sp)
   4b8d4:	db400015 	stw	r13,0(sp)
   4b8d8:	004def80 	call	4def8 <__umoddi3>
   4b8dc:	10800c04 	addi	r2,r2,48
   4b8e0:	b809883a 	mov	r4,r23
   4b8e4:	e00b883a 	mov	r5,fp
   4b8e8:	98bfffc5 	stb	r2,-1(r19)
   4b8ec:	01800284 	movi	r6,10
   4b8f0:	000f883a 	mov	r7,zero
   4b8f4:	004d9680 	call	4d968 <__udivdi3>
   4b8f8:	e009883a 	mov	r4,fp
   4b8fc:	b80b883a 	mov	r5,r23
   4b900:	db400017 	ldw	r13,0(sp)
   4b904:	da000217 	ldw	r8,8(sp)
   4b908:	db800317 	ldw	r14,12(sp)
   4b90c:	9cffffc4 	addi	r19,r19,-1
   4b910:	102f883a 	mov	r23,r2
   4b914:	1839883a 	mov	fp,r3
   4b918:	203fe81e 	bne	r4,zero,4b8bc <___vfiprintf_internal_r+0xb30>
   4b91c:	294002a8 	cmpgeui	r5,r5,10
   4b920:	283fe61e 	bne	r5,zero,4b8bc <___vfiprintf_internal_r+0xb30>
   4b924:	94f9c83a 	sub	fp,r18,r19
   4b928:	003efe06 	br	4b524 <___vfiprintf_internal_r+0x798>
   4b92c:	d9000517 	ldw	r4,20(sp)
   4b930:	b88003cc 	andi	r2,r23,15
   4b934:	e006973a 	slli	r3,fp,28
   4b938:	b82ed13a 	srli	r23,r23,4
   4b93c:	2085883a 	add	r2,r4,r2
   4b940:	10800003 	ldbu	r2,0(r2)
   4b944:	e038d13a 	srli	fp,fp,4
   4b948:	1deeb03a 	or	r23,r3,r23
   4b94c:	98bfffc5 	stb	r2,-1(r19)
   4b950:	bf04b03a 	or	r2,r23,fp
   4b954:	9cffffc4 	addi	r19,r19,-1
   4b958:	103ff41e 	bne	r2,zero,4b92c <___vfiprintf_internal_r+0xba0>
   4b95c:	94f9c83a 	sub	fp,r18,r19
   4b960:	db400015 	stw	r13,0(sp)
   4b964:	003eef06 	br	4b524 <___vfiprintf_internal_r+0x798>
   4b968:	01400044 	movi	r5,1
   4b96c:	0009883a 	mov	r4,zero
   4b970:	900d883a 	mov	r6,r18
   4b974:	003ea006 	br	4b3f8 <___vfiprintf_internal_r+0x66c>
   4b978:	8dc7c83a 	sub	r3,r17,r23
   4b97c:	00fdf40e 	bge	zero,r3,4b150 <___vfiprintf_internal_r+0x3c4>
   4b980:	19c00450 	cmplti	r7,r3,17
   4b984:	3801ae1e 	bne	r7,zero,4c040 <___vfiprintf_internal_r+0x12b4>
   4b988:	01c00174 	movhi	r7,5
   4b98c:	39ce7c04 	addi	r7,r7,14832
   4b990:	03400404 	movi	r13,16
   4b994:	00000606 	br	4b9b0 <___vfiprintf_internal_r+0xc24>
   4b998:	23800084 	addi	r14,r4,2
   4b99c:	84000204 	addi	r16,r16,8
   4b9a0:	2809883a 	mov	r4,r5
   4b9a4:	18fffc04 	addi	r3,r3,-16
   4b9a8:	19400448 	cmpgei	r5,r3,17
   4b9ac:	28001c26 	beq	r5,zero,4ba20 <___vfiprintf_internal_r+0xc94>
   4b9b0:	21400044 	addi	r5,r4,1
   4b9b4:	10800404 	addi	r2,r2,16
   4b9b8:	81c00015 	stw	r7,0(r16)
   4b9bc:	83400115 	stw	r13,4(r16)
   4b9c0:	d8800c15 	stw	r2,48(sp)
   4b9c4:	d9400b15 	stw	r5,44(sp)
   4b9c8:	29800208 	cmpgei	r6,r5,8
   4b9cc:	303ff226 	beq	r6,zero,4b998 <___vfiprintf_internal_r+0xc0c>
   4b9d0:	d9800a04 	addi	r6,sp,40
   4b9d4:	a80b883a 	mov	r5,r21
   4b9d8:	b009883a 	mov	r4,r22
   4b9dc:	10006326 	beq	r2,zero,4bb6c <___vfiprintf_internal_r+0xde0>
   4b9e0:	d9c00615 	stw	r7,24(sp)
   4b9e4:	d8c00315 	stw	r3,12(sp)
   4b9e8:	da000215 	stw	r8,8(sp)
   4b9ec:	004ac800 	call	4ac80 <__sprint_r.part.0>
   4b9f0:	103df91e 	bne	r2,zero,4b1d8 <___vfiprintf_internal_r+0x44c>
   4b9f4:	d8c00317 	ldw	r3,12(sp)
   4b9f8:	d9000b17 	ldw	r4,44(sp)
   4b9fc:	d8800c17 	ldw	r2,48(sp)
   4ba00:	18fffc04 	addi	r3,r3,-16
   4ba04:	19400448 	cmpgei	r5,r3,17
   4ba08:	d9c00617 	ldw	r7,24(sp)
   4ba0c:	da000217 	ldw	r8,8(sp)
   4ba10:	9021883a 	mov	r16,r18
   4ba14:	23800044 	addi	r14,r4,1
   4ba18:	03400404 	movi	r13,16
   4ba1c:	283fe41e 	bne	r5,zero,4b9b0 <___vfiprintf_internal_r+0xc24>
   4ba20:	83400204 	addi	r13,r16,8
   4ba24:	10c5883a 	add	r2,r2,r3
   4ba28:	80c00115 	stw	r3,4(r16)
   4ba2c:	81c00015 	stw	r7,0(r16)
   4ba30:	d8800c15 	stw	r2,48(sp)
   4ba34:	db800b15 	stw	r14,44(sp)
   4ba38:	70c00208 	cmpgei	r3,r14,8
   4ba3c:	1800df26 	beq	r3,zero,4bdbc <___vfiprintf_internal_r+0x1030>
   4ba40:	10015826 	beq	r2,zero,4bfa4 <___vfiprintf_internal_r+0x1218>
   4ba44:	d9800a04 	addi	r6,sp,40
   4ba48:	a80b883a 	mov	r5,r21
   4ba4c:	b009883a 	mov	r4,r22
   4ba50:	da000215 	stw	r8,8(sp)
   4ba54:	004ac800 	call	4ac80 <__sprint_r.part.0>
   4ba58:	103ddf1e 	bne	r2,zero,4b1d8 <___vfiprintf_internal_r+0x44c>
   4ba5c:	da000217 	ldw	r8,8(sp)
   4ba60:	d9000b17 	ldw	r4,44(sp)
   4ba64:	d8800c17 	ldw	r2,48(sp)
   4ba68:	4711c83a 	sub	r8,r8,fp
   4ba6c:	d9801904 	addi	r6,sp,100
   4ba70:	21400044 	addi	r5,r4,1
   4ba74:	9021883a 	mov	r16,r18
   4ba78:	023db70e 	bge	zero,r8,4b158 <___vfiprintf_internal_r+0x3cc>
   4ba7c:	40c00450 	cmplti	r3,r8,17
   4ba80:	01c00174 	movhi	r7,5
   4ba84:	1801441e 	bne	r3,zero,4bf98 <___vfiprintf_internal_r+0x120c>
   4ba88:	39ce7c04 	addi	r7,r7,14832
   4ba8c:	03400404 	movi	r13,16
   4ba90:	00000606 	br	4baac <___vfiprintf_internal_r+0xd20>
   4ba94:	21400084 	addi	r5,r4,2
   4ba98:	84000204 	addi	r16,r16,8
   4ba9c:	1809883a 	mov	r4,r3
   4baa0:	423ffc04 	addi	r8,r8,-16
   4baa4:	40c00448 	cmpgei	r3,r8,17
   4baa8:	18001a26 	beq	r3,zero,4bb14 <___vfiprintf_internal_r+0xd88>
   4baac:	20c00044 	addi	r3,r4,1
   4bab0:	10800404 	addi	r2,r2,16
   4bab4:	81c00015 	stw	r7,0(r16)
   4bab8:	83400115 	stw	r13,4(r16)
   4babc:	d8800c15 	stw	r2,48(sp)
   4bac0:	d8c00b15 	stw	r3,44(sp)
   4bac4:	19400208 	cmpgei	r5,r3,8
   4bac8:	283ff226 	beq	r5,zero,4ba94 <___vfiprintf_internal_r+0xd08>
   4bacc:	d9800a04 	addi	r6,sp,40
   4bad0:	a80b883a 	mov	r5,r21
   4bad4:	b009883a 	mov	r4,r22
   4bad8:	10001a26 	beq	r2,zero,4bb44 <___vfiprintf_internal_r+0xdb8>
   4badc:	d9c00315 	stw	r7,12(sp)
   4bae0:	da000215 	stw	r8,8(sp)
   4bae4:	004ac800 	call	4ac80 <__sprint_r.part.0>
   4bae8:	103dbb1e 	bne	r2,zero,4b1d8 <___vfiprintf_internal_r+0x44c>
   4baec:	da000217 	ldw	r8,8(sp)
   4baf0:	d9000b17 	ldw	r4,44(sp)
   4baf4:	d8800c17 	ldw	r2,48(sp)
   4baf8:	423ffc04 	addi	r8,r8,-16
   4bafc:	40c00448 	cmpgei	r3,r8,17
   4bb00:	d9c00317 	ldw	r7,12(sp)
   4bb04:	9021883a 	mov	r16,r18
   4bb08:	21400044 	addi	r5,r4,1
   4bb0c:	03400404 	movi	r13,16
   4bb10:	183fe61e 	bne	r3,zero,4baac <___vfiprintf_internal_r+0xd20>
   4bb14:	81000204 	addi	r4,r16,8
   4bb18:	1205883a 	add	r2,r2,r8
   4bb1c:	81c00015 	stw	r7,0(r16)
   4bb20:	82000115 	stw	r8,4(r16)
   4bb24:	d8800c15 	stw	r2,48(sp)
   4bb28:	d9400b15 	stw	r5,44(sp)
   4bb2c:	28c00208 	cmpgei	r3,r5,8
   4bb30:	1800721e 	bne	r3,zero,4bcfc <___vfiprintf_internal_r+0xf70>
   4bb34:	29400044 	addi	r5,r5,1
   4bb38:	21800204 	addi	r6,r4,8
   4bb3c:	2021883a 	mov	r16,r4
   4bb40:	003d8506 	br	4b158 <___vfiprintf_internal_r+0x3cc>
   4bb44:	01400044 	movi	r5,1
   4bb48:	0009883a 	mov	r4,zero
   4bb4c:	9021883a 	mov	r16,r18
   4bb50:	003fd306 	br	4baa0 <___vfiprintf_internal_r+0xd14>
   4bb54:	d9800a04 	addi	r6,sp,40
   4bb58:	a80b883a 	mov	r5,r21
   4bb5c:	b009883a 	mov	r4,r22
   4bb60:	004ac800 	call	4ac80 <__sprint_r.part.0>
   4bb64:	103d9626 	beq	r2,zero,4b1c0 <___vfiprintf_internal_r+0x434>
   4bb68:	003d9b06 	br	4b1d8 <___vfiprintf_internal_r+0x44c>
   4bb6c:	03800044 	movi	r14,1
   4bb70:	0009883a 	mov	r4,zero
   4bb74:	9021883a 	mov	r16,r18
   4bb78:	003f8a06 	br	4b9a4 <___vfiprintf_internal_r+0xc18>
   4bb7c:	10006e26 	beq	r2,zero,4bd38 <___vfiprintf_internal_r+0xfac>
   4bb80:	d9800a04 	addi	r6,sp,40
   4bb84:	a80b883a 	mov	r5,r21
   4bb88:	b009883a 	mov	r4,r22
   4bb8c:	da000615 	stw	r8,24(sp)
   4bb90:	db400315 	stw	r13,12(sp)
   4bb94:	db800215 	stw	r14,8(sp)
   4bb98:	004ac800 	call	4ac80 <__sprint_r.part.0>
   4bb9c:	103d8e1e 	bne	r2,zero,4b1d8 <___vfiprintf_internal_r+0x44c>
   4bba0:	d9000b17 	ldw	r4,44(sp)
   4bba4:	d8800c17 	ldw	r2,48(sp)
   4bba8:	da000617 	ldw	r8,24(sp)
   4bbac:	db400317 	ldw	r13,12(sp)
   4bbb0:	db800217 	ldw	r14,8(sp)
   4bbb4:	d9801904 	addi	r6,sp,100
   4bbb8:	21400044 	addi	r5,r4,1
   4bbbc:	9021883a 	mov	r16,r18
   4bbc0:	003d4806 	br	4b0e4 <___vfiprintf_internal_r+0x358>
   4bbc4:	d8800984 	addi	r2,sp,38
   4bbc8:	d8801715 	stw	r2,92(sp)
   4bbcc:	00800084 	movi	r2,2
   4bbd0:	d8801815 	stw	r2,96(sp)
   4bbd4:	d9801904 	addi	r6,sp,100
   4bbd8:	01400044 	movi	r5,1
   4bbdc:	3021883a 	mov	r16,r6
   4bbe0:	2809883a 	mov	r4,r5
   4bbe4:	21400044 	addi	r5,r4,1
   4bbe8:	81800204 	addi	r6,r16,8
   4bbec:	003d5606 	br	4b148 <___vfiprintf_internal_r+0x3bc>
   4bbf0:	db400017 	ldw	r13,0(sp)
   4bbf4:	003ea206 	br	4b680 <___vfiprintf_internal_r+0x8f4>
   4bbf8:	19400450 	cmplti	r5,r3,17
   4bbfc:	01c00174 	movhi	r7,5
   4bc00:	2801011e 	bne	r5,zero,4c008 <___vfiprintf_internal_r+0x127c>
   4bc04:	39ce8004 	addi	r7,r7,14848
   4bc08:	03c00404 	movi	r15,16
   4bc0c:	00000706 	br	4bc2c <___vfiprintf_internal_r+0xea0>
   4bc10:	27c00084 	addi	ra,r4,2
   4bc14:	84000204 	addi	r16,r16,8
   4bc18:	3009883a 	mov	r4,r6
   4bc1c:	18fffc04 	addi	r3,r3,-16
   4bc20:	19400448 	cmpgei	r5,r3,17
   4bc24:	28002026 	beq	r5,zero,4bca8 <___vfiprintf_internal_r+0xf1c>
   4bc28:	21800044 	addi	r6,r4,1
   4bc2c:	10800404 	addi	r2,r2,16
   4bc30:	81c00015 	stw	r7,0(r16)
   4bc34:	83c00115 	stw	r15,4(r16)
   4bc38:	d8800c15 	stw	r2,48(sp)
   4bc3c:	d9800b15 	stw	r6,44(sp)
   4bc40:	31400208 	cmpgei	r5,r6,8
   4bc44:	283ff226 	beq	r5,zero,4bc10 <___vfiprintf_internal_r+0xe84>
   4bc48:	d9800a04 	addi	r6,sp,40
   4bc4c:	a80b883a 	mov	r5,r21
   4bc50:	b009883a 	mov	r4,r22
   4bc54:	10001f26 	beq	r2,zero,4bcd4 <___vfiprintf_internal_r+0xf48>
   4bc58:	d9c00815 	stw	r7,32(sp)
   4bc5c:	d8c00715 	stw	r3,28(sp)
   4bc60:	da000615 	stw	r8,24(sp)
   4bc64:	db400315 	stw	r13,12(sp)
   4bc68:	db800215 	stw	r14,8(sp)
   4bc6c:	004ac800 	call	4ac80 <__sprint_r.part.0>
   4bc70:	103d591e 	bne	r2,zero,4b1d8 <___vfiprintf_internal_r+0x44c>
   4bc74:	d8c00717 	ldw	r3,28(sp)
   4bc78:	d9000b17 	ldw	r4,44(sp)
   4bc7c:	d8800c17 	ldw	r2,48(sp)
   4bc80:	18fffc04 	addi	r3,r3,-16
   4bc84:	19400448 	cmpgei	r5,r3,17
   4bc88:	d9c00817 	ldw	r7,32(sp)
   4bc8c:	da000617 	ldw	r8,24(sp)
   4bc90:	db400317 	ldw	r13,12(sp)
   4bc94:	db800217 	ldw	r14,8(sp)
   4bc98:	9021883a 	mov	r16,r18
   4bc9c:	27c00044 	addi	ra,r4,1
   4bca0:	03c00404 	movi	r15,16
   4bca4:	283fe01e 	bne	r5,zero,4bc28 <___vfiprintf_internal_r+0xe9c>
   4bca8:	10c5883a 	add	r2,r2,r3
   4bcac:	80c00115 	stw	r3,4(r16)
   4bcb0:	81c00015 	stw	r7,0(r16)
   4bcb4:	d8800c15 	stw	r2,48(sp)
   4bcb8:	dfc00b15 	stw	ra,44(sp)
   4bcbc:	f8c00208 	cmpgei	r3,ra,8
   4bcc0:	18002b1e 	bne	r3,zero,4bd70 <___vfiprintf_internal_r+0xfe4>
   4bcc4:	84000204 	addi	r16,r16,8
   4bcc8:	f9400044 	addi	r5,ra,1
   4bccc:	f809883a 	mov	r4,ra
   4bcd0:	003cf406 	br	4b0a4 <___vfiprintf_internal_r+0x318>
   4bcd4:	0009883a 	mov	r4,zero
   4bcd8:	07c00044 	movi	ra,1
   4bcdc:	9021883a 	mov	r16,r18
   4bce0:	003fce06 	br	4bc1c <___vfiprintf_internal_r+0xe90>
   4bce4:	8dc0010e 	bge	r17,r23,4bcec <___vfiprintf_internal_r+0xf60>
   4bce8:	b823883a 	mov	r17,r23
   4bcec:	d8800117 	ldw	r2,4(sp)
   4bcf0:	1445883a 	add	r2,r2,r17
   4bcf4:	d8800115 	stw	r2,4(sp)
   4bcf8:	003d3106 	br	4b1c0 <___vfiprintf_internal_r+0x434>
   4bcfc:	10007326 	beq	r2,zero,4becc <___vfiprintf_internal_r+0x1140>
   4bd00:	d9800a04 	addi	r6,sp,40
   4bd04:	a80b883a 	mov	r5,r21
   4bd08:	b009883a 	mov	r4,r22
   4bd0c:	004ac800 	call	4ac80 <__sprint_r.part.0>
   4bd10:	103d311e 	bne	r2,zero,4b1d8 <___vfiprintf_internal_r+0x44c>
   4bd14:	d9400b17 	ldw	r5,44(sp)
   4bd18:	d8800c17 	ldw	r2,48(sp)
   4bd1c:	d9801904 	addi	r6,sp,100
   4bd20:	29400044 	addi	r5,r5,1
   4bd24:	9021883a 	mov	r16,r18
   4bd28:	003d0b06 	br	4b158 <___vfiprintf_internal_r+0x3cc>
   4bd2c:	d8000b15 	stw	zero,44(sp)
   4bd30:	9021883a 	mov	r16,r18
   4bd34:	003d7a06 	br	4b320 <___vfiprintf_internal_r+0x594>
   4bd38:	7000441e 	bne	r14,zero,4be4c <___vfiprintf_internal_r+0x10c0>
   4bd3c:	0009883a 	mov	r4,zero
   4bd40:	d9801904 	addi	r6,sp,100
   4bd44:	01400044 	movi	r5,1
   4bd48:	9021883a 	mov	r16,r18
   4bd4c:	003cfe06 	br	4b148 <___vfiprintf_internal_r+0x3bc>
   4bd50:	d9801904 	addi	r6,sp,100
   4bd54:	01400044 	movi	r5,1
   4bd58:	0009883a 	mov	r4,zero
   4bd5c:	9021883a 	mov	r16,r18
   4bd60:	003cf906 	br	4b148 <___vfiprintf_internal_r+0x3bc>
   4bd64:	0039883a 	mov	fp,zero
   4bd68:	9027883a 	mov	r19,r18
   4bd6c:	003ded06 	br	4b524 <___vfiprintf_internal_r+0x798>
   4bd70:	10004a26 	beq	r2,zero,4be9c <___vfiprintf_internal_r+0x1110>
   4bd74:	d9800a04 	addi	r6,sp,40
   4bd78:	a80b883a 	mov	r5,r21
   4bd7c:	b009883a 	mov	r4,r22
   4bd80:	da000615 	stw	r8,24(sp)
   4bd84:	db400315 	stw	r13,12(sp)
   4bd88:	db800215 	stw	r14,8(sp)
   4bd8c:	004ac800 	call	4ac80 <__sprint_r.part.0>
   4bd90:	103d111e 	bne	r2,zero,4b1d8 <___vfiprintf_internal_r+0x44c>
   4bd94:	d9000b17 	ldw	r4,44(sp)
   4bd98:	d8800c17 	ldw	r2,48(sp)
   4bd9c:	da000617 	ldw	r8,24(sp)
   4bda0:	db400317 	ldw	r13,12(sp)
   4bda4:	db800217 	ldw	r14,8(sp)
   4bda8:	9021883a 	mov	r16,r18
   4bdac:	21400044 	addi	r5,r4,1
   4bdb0:	003cbc06 	br	4b0a4 <___vfiprintf_internal_r+0x318>
   4bdb4:	9027883a 	mov	r19,r18
   4bdb8:	003dda06 	br	4b524 <___vfiprintf_internal_r+0x798>
   4bdbc:	71400044 	addi	r5,r14,1
   4bdc0:	69800204 	addi	r6,r13,8
   4bdc4:	7009883a 	mov	r4,r14
   4bdc8:	6821883a 	mov	r16,r13
   4bdcc:	003ce006 	br	4b150 <___vfiprintf_internal_r+0x3c4>
   4bdd0:	00c00c04 	movi	r3,48
   4bdd4:	d88009c5 	stb	r2,39(sp)
   4bdd8:	d8c00985 	stb	r3,38(sp)
   4bddc:	6b400094 	ori	r13,r13,2
   4bde0:	00800084 	movi	r2,2
   4bde4:	003d3006 	br	4b2a8 <___vfiprintf_internal_r+0x51c>
   4bde8:	25c00017 	ldw	r23,0(r4)
   4bdec:	0039883a 	mov	fp,zero
   4bdf0:	d8c00415 	stw	r3,16(sp)
   4bdf4:	0005883a 	mov	r2,zero
   4bdf8:	003d2b06 	br	4b2a8 <___vfiprintf_internal_r+0x51c>
   4bdfc:	d9400117 	ldw	r5,4(sp)
   4be00:	d9000415 	stw	r4,16(sp)
   4be04:	2805d7fa 	srai	r2,r5,31
   4be08:	19400015 	stw	r5,0(r3)
   4be0c:	18800115 	stw	r2,4(r3)
   4be10:	003c0706 	br	4ae30 <___vfiprintf_internal_r+0xa4>
   4be14:	25c00017 	ldw	r23,0(r4)
   4be18:	d8c00415 	stw	r3,16(sp)
   4be1c:	b839d7fa 	srai	fp,r23,31
   4be20:	e005883a 	mov	r2,fp
   4be24:	003da906 	br	4b4cc <___vfiprintf_internal_r+0x740>
   4be28:	2dc00017 	ldw	r23,0(r5)
   4be2c:	0039883a 	mov	fp,zero
   4be30:	d9000415 	stw	r4,16(sp)
   4be34:	003df106 	br	4b5fc <___vfiprintf_internal_r+0x870>
   4be38:	25c00017 	ldw	r23,0(r4)
   4be3c:	0039883a 	mov	fp,zero
   4be40:	d8c00415 	stw	r3,16(sp)
   4be44:	00800044 	movi	r2,1
   4be48:	003d1706 	br	4b2a8 <___vfiprintf_internal_r+0x51c>
   4be4c:	d8800984 	addi	r2,sp,38
   4be50:	d8801715 	stw	r2,92(sp)
   4be54:	00800084 	movi	r2,2
   4be58:	d8801815 	stw	r2,96(sp)
   4be5c:	dc001904 	addi	r16,sp,100
   4be60:	01000044 	movi	r4,1
   4be64:	003f5f06 	br	4bbe4 <___vfiprintf_internal_r+0xe58>
   4be68:	0463c83a 	sub	r17,zero,r17
   4be6c:	d8c00415 	stw	r3,16(sp)
   4be70:	003e3606 	br	4b74c <___vfiprintf_internal_r+0x9c0>
   4be74:	9809883a 	mov	r4,r19
   4be78:	d8c00215 	stw	r3,8(sp)
   4be7c:	db400015 	stw	r13,0(sp)
   4be80:	0043f780 	call	43f78 <strlen>
   4be84:	d8c00217 	ldw	r3,8(sp)
   4be88:	db400017 	ldw	r13,0(sp)
   4be8c:	1039883a 	mov	fp,r2
   4be90:	102f883a 	mov	r23,r2
   4be94:	d8c00415 	stw	r3,16(sp)
   4be98:	003c7306 	br	4b068 <___vfiprintf_internal_r+0x2dc>
   4be9c:	d8c00947 	ldb	r3,37(sp)
   4bea0:	1800451e 	bne	r3,zero,4bfb8 <___vfiprintf_internal_r+0x122c>
   4bea4:	703f471e 	bne	r14,zero,4bbc4 <___vfiprintf_internal_r+0xe38>
   4bea8:	0009883a 	mov	r4,zero
   4beac:	d9801904 	addi	r6,sp,100
   4beb0:	01400044 	movi	r5,1
   4beb4:	9021883a 	mov	r16,r18
   4beb8:	003ca506 	br	4b150 <___vfiprintf_internal_r+0x3c4>
   4bebc:	d8800117 	ldw	r2,4(sp)
   4bec0:	18800015 	stw	r2,0(r3)
   4bec4:	d9000415 	stw	r4,16(sp)
   4bec8:	003bd906 	br	4ae30 <___vfiprintf_internal_r+0xa4>
   4becc:	00c00044 	movi	r3,1
   4bed0:	e005883a 	mov	r2,fp
   4bed4:	dcc01715 	stw	r19,92(sp)
   4bed8:	df001815 	stw	fp,96(sp)
   4bedc:	df000c15 	stw	fp,48(sp)
   4bee0:	d8c00b15 	stw	r3,44(sp)
   4bee4:	d9801904 	addi	r6,sp,100
   4bee8:	003caa06 	br	4b194 <___vfiprintf_internal_r+0x408>
   4beec:	10c00060 	cmpeqi	r3,r2,1
   4bef0:	db400017 	ldw	r13,0(sp)
   4bef4:	183de426 	beq	r3,zero,4b688 <___vfiprintf_internal_r+0x8fc>
   4bef8:	003d8506 	br	4b510 <___vfiprintf_internal_r+0x784>
   4befc:	a0800043 	ldbu	r2,1(r20)
   4bf00:	6b400814 	ori	r13,r13,32
   4bf04:	a5000044 	addi	r20,r20,1
   4bf08:	10803fcc 	andi	r2,r2,255
   4bf0c:	1080201c 	xori	r2,r2,128
   4bf10:	10bfe004 	addi	r2,r2,-128
   4bf14:	003bde06 	br	4ae90 <___vfiprintf_internal_r+0x104>
   4bf18:	408001f0 	cmpltui	r2,r8,7
   4bf1c:	4039883a 	mov	fp,r8
   4bf20:	1000011e 	bne	r2,zero,4bf28 <___vfiprintf_internal_r+0x119c>
   4bf24:	07000184 	movi	fp,6
   4bf28:	04c00174 	movhi	r19,5
   4bf2c:	e02f883a 	mov	r23,fp
   4bf30:	d8c00415 	stw	r3,16(sp)
   4bf34:	9ccd4404 	addi	r19,r19,13584
   4bf38:	003c4b06 	br	4b068 <___vfiprintf_internal_r+0x2dc>
   4bf3c:	d8800417 	ldw	r2,16(sp)
   4bf40:	0039883a 	mov	fp,zero
   4bf44:	d8c00415 	stw	r3,16(sp)
   4bf48:	15c00017 	ldw	r23,0(r2)
   4bf4c:	0005883a 	mov	r2,zero
   4bf50:	003cd506 	br	4b2a8 <___vfiprintf_internal_r+0x51c>
   4bf54:	d8800417 	ldw	r2,16(sp)
   4bf58:	0039883a 	mov	fp,zero
   4bf5c:	d8c00415 	stw	r3,16(sp)
   4bf60:	15c00017 	ldw	r23,0(r2)
   4bf64:	00800044 	movi	r2,1
   4bf68:	003ccf06 	br	4b2a8 <___vfiprintf_internal_r+0x51c>
   4bf6c:	d8c00417 	ldw	r3,16(sp)
   4bf70:	0039883a 	mov	fp,zero
   4bf74:	d9000415 	stw	r4,16(sp)
   4bf78:	1dc00017 	ldw	r23,0(r3)
   4bf7c:	003d9f06 	br	4b5fc <___vfiprintf_internal_r+0x870>
   4bf80:	d8800417 	ldw	r2,16(sp)
   4bf84:	d8c00415 	stw	r3,16(sp)
   4bf88:	15c00017 	ldw	r23,0(r2)
   4bf8c:	b839d7fa 	srai	fp,r23,31
   4bf90:	e005883a 	mov	r2,fp
   4bf94:	003d4d06 	br	4b4cc <___vfiprintf_internal_r+0x740>
   4bf98:	3009883a 	mov	r4,r6
   4bf9c:	39ce7c04 	addi	r7,r7,14832
   4bfa0:	003edd06 	br	4bb18 <___vfiprintf_internal_r+0xd8c>
   4bfa4:	d9801904 	addi	r6,sp,100
   4bfa8:	01400044 	movi	r5,1
   4bfac:	0009883a 	mov	r4,zero
   4bfb0:	9021883a 	mov	r16,r18
   4bfb4:	003c6606 	br	4b150 <___vfiprintf_internal_r+0x3c4>
   4bfb8:	d8800944 	addi	r2,sp,37
   4bfbc:	d8801715 	stw	r2,92(sp)
   4bfc0:	00800044 	movi	r2,1
   4bfc4:	d8801815 	stw	r2,96(sp)
   4bfc8:	d9801904 	addi	r6,sp,100
   4bfcc:	01400044 	movi	r5,1
   4bfd0:	003c4006 	br	4b0d4 <___vfiprintf_internal_r+0x348>
   4bfd4:	d9800945 	stb	r6,37(sp)
   4bfd8:	003c1d06 	br	4b050 <___vfiprintf_internal_r+0x2c4>
   4bfdc:	d9800a04 	addi	r6,sp,40
   4bfe0:	a80b883a 	mov	r5,r21
   4bfe4:	b009883a 	mov	r4,r22
   4bfe8:	004ac800 	call	4ac80 <__sprint_r.part.0>
   4bfec:	003c7a06 	br	4b1d8 <___vfiprintf_internal_r+0x44c>
   4bff0:	402f883a 	mov	r23,r8
   4bff4:	d8c00415 	stw	r3,16(sp)
   4bff8:	4039883a 	mov	fp,r8
   4bffc:	003c1a06 	br	4b068 <___vfiprintf_internal_r+0x2dc>
   4c000:	d9800945 	stb	r6,37(sp)
   4c004:	003df406 	br	4b7d8 <___vfiprintf_internal_r+0xa4c>
   4c008:	303f883a 	mov	ra,r6
   4c00c:	39ce8004 	addi	r7,r7,14848
   4c010:	003f2506 	br	4bca8 <___vfiprintf_internal_r+0xf1c>
   4c014:	d9800945 	stb	r6,37(sp)
   4c018:	003d8006 	br	4b61c <___vfiprintf_internal_r+0x890>
   4c01c:	d9800945 	stb	r6,37(sp)
   4c020:	003d4e06 	br	4b55c <___vfiprintf_internal_r+0x7d0>
   4c024:	d9800945 	stb	r6,37(sp)
   4c028:	003d2006 	br	4b4ac <___vfiprintf_internal_r+0x720>
   4c02c:	d9800945 	stb	r6,37(sp)
   4c030:	003d6806 	br	4b5d4 <___vfiprintf_internal_r+0x848>
   4c034:	21400044 	addi	r5,r4,1
   4c038:	39ce8004 	addi	r7,r7,14848
   4c03c:	003d0806 	br	4b460 <___vfiprintf_internal_r+0x6d4>
   4c040:	01c00174 	movhi	r7,5
   4c044:	301b883a 	mov	r13,r6
   4c048:	281d883a 	mov	r14,r5
   4c04c:	39ce7c04 	addi	r7,r7,14832
   4c050:	003e7406 	br	4ba24 <___vfiprintf_internal_r+0xc98>
   4c054:	00bfffc4 	movi	r2,-1
   4c058:	d8800115 	stw	r2,4(sp)
   4c05c:	003c6106 	br	4b1e4 <___vfiprintf_internal_r+0x458>
   4c060:	d8800417 	ldw	r2,16(sp)
   4c064:	12000017 	ldw	r8,0(r2)
   4c068:	10c00104 	addi	r3,r2,4
   4c06c:	4000010e 	bge	r8,zero,4c074 <___vfiprintf_internal_r+0x12e8>
   4c070:	023fffc4 	movi	r8,-1
   4c074:	a0800043 	ldbu	r2,1(r20)
   4c078:	d8c00415 	stw	r3,16(sp)
   4c07c:	2029883a 	mov	r20,r4
   4c080:	10803fcc 	andi	r2,r2,255
   4c084:	1080201c 	xori	r2,r2,128
   4c088:	10bfe004 	addi	r2,r2,-128
   4c08c:	003b8006 	br	4ae90 <___vfiprintf_internal_r+0x104>

0004c090 <__vfiprintf_internal>:
   4c090:	00c00174 	movhi	r3,5
   4c094:	2005883a 	mov	r2,r4
   4c098:	19158317 	ldw	r4,22028(r3)
   4c09c:	300f883a 	mov	r7,r6
   4c0a0:	280d883a 	mov	r6,r5
   4c0a4:	100b883a 	mov	r5,r2
   4c0a8:	004ad8c1 	jmpi	4ad8c <___vfiprintf_internal_r>

0004c0ac <__sbprintf>:
   4c0ac:	2880030b 	ldhu	r2,12(r5)
   4c0b0:	2b001917 	ldw	r12,100(r5)
   4c0b4:	2ac0038b 	ldhu	r11,14(r5)
   4c0b8:	2a800717 	ldw	r10,28(r5)
   4c0bc:	2a400917 	ldw	r9,36(r5)
   4c0c0:	defee204 	addi	sp,sp,-1144
   4c0c4:	da001a04 	addi	r8,sp,104
   4c0c8:	00c10004 	movi	r3,1024
   4c0cc:	dc011a15 	stw	r16,1128(sp)
   4c0d0:	10bfff4c 	andi	r2,r2,65533
   4c0d4:	2821883a 	mov	r16,r5
   4c0d8:	d80b883a 	mov	r5,sp
   4c0dc:	dc811c15 	stw	r18,1136(sp)
   4c0e0:	dc411b15 	stw	r17,1132(sp)
   4c0e4:	dfc11d15 	stw	ra,1140(sp)
   4c0e8:	2025883a 	mov	r18,r4
   4c0ec:	d880030d 	sth	r2,12(sp)
   4c0f0:	db001915 	stw	r12,100(sp)
   4c0f4:	dac0038d 	sth	r11,14(sp)
   4c0f8:	da800715 	stw	r10,28(sp)
   4c0fc:	da400915 	stw	r9,36(sp)
   4c100:	da000015 	stw	r8,0(sp)
   4c104:	da000415 	stw	r8,16(sp)
   4c108:	d8c00215 	stw	r3,8(sp)
   4c10c:	d8c00515 	stw	r3,20(sp)
   4c110:	d8000615 	stw	zero,24(sp)
   4c114:	004ad8c0 	call	4ad8c <___vfiprintf_internal_r>
   4c118:	1023883a 	mov	r17,r2
   4c11c:	10000d0e 	bge	r2,zero,4c154 <__sbprintf+0xa8>
   4c120:	d880030b 	ldhu	r2,12(sp)
   4c124:	1080100c 	andi	r2,r2,64
   4c128:	10000326 	beq	r2,zero,4c138 <__sbprintf+0x8c>
   4c12c:	8080030b 	ldhu	r2,12(r16)
   4c130:	10801014 	ori	r2,r2,64
   4c134:	8080030d 	sth	r2,12(r16)
   4c138:	8805883a 	mov	r2,r17
   4c13c:	dfc11d17 	ldw	ra,1140(sp)
   4c140:	dc811c17 	ldw	r18,1136(sp)
   4c144:	dc411b17 	ldw	r17,1132(sp)
   4c148:	dc011a17 	ldw	r16,1128(sp)
   4c14c:	dec11e04 	addi	sp,sp,1144
   4c150:	f800283a 	ret
   4c154:	d80b883a 	mov	r5,sp
   4c158:	9009883a 	mov	r4,r18
   4c15c:	004c4f00 	call	4c4f0 <_fflush_r>
   4c160:	103fef26 	beq	r2,zero,4c120 <__sbprintf+0x74>
   4c164:	047fffc4 	movi	r17,-1
   4c168:	003fed06 	br	4c120 <__sbprintf+0x74>

0004c16c <__swsetup_r>:
   4c16c:	00800174 	movhi	r2,5
   4c170:	10958317 	ldw	r2,22028(r2)
   4c174:	defffd04 	addi	sp,sp,-12
   4c178:	dc400115 	stw	r17,4(sp)
   4c17c:	dc000015 	stw	r16,0(sp)
   4c180:	dfc00215 	stw	ra,8(sp)
   4c184:	2023883a 	mov	r17,r4
   4c188:	2821883a 	mov	r16,r5
   4c18c:	10000226 	beq	r2,zero,4c198 <__swsetup_r+0x2c>
   4c190:	10c00e17 	ldw	r3,56(r2)
   4c194:	18003326 	beq	r3,zero,4c264 <__swsetup_r+0xf8>
   4c198:	8180030b 	ldhu	r6,12(r16)
   4c19c:	30c0020c 	andi	r3,r6,8
   4c1a0:	3005883a 	mov	r2,r6
   4c1a4:	18000f26 	beq	r3,zero,4c1e4 <__swsetup_r+0x78>
   4c1a8:	80c00417 	ldw	r3,16(r16)
   4c1ac:	18001626 	beq	r3,zero,4c208 <__swsetup_r+0x9c>
   4c1b0:	1100004c 	andi	r4,r2,1
   4c1b4:	20001f1e 	bne	r4,zero,4c234 <__swsetup_r+0xc8>
   4c1b8:	1100008c 	andi	r4,r2,2
   4c1bc:	20002c1e 	bne	r4,zero,4c270 <__swsetup_r+0x104>
   4c1c0:	81000517 	ldw	r4,20(r16)
   4c1c4:	81000215 	stw	r4,8(r16)
   4c1c8:	18001f26 	beq	r3,zero,4c248 <__swsetup_r+0xdc>
   4c1cc:	0005883a 	mov	r2,zero
   4c1d0:	dfc00217 	ldw	ra,8(sp)
   4c1d4:	dc400117 	ldw	r17,4(sp)
   4c1d8:	dc000017 	ldw	r16,0(sp)
   4c1dc:	dec00304 	addi	sp,sp,12
   4c1e0:	f800283a 	ret
   4c1e4:	3080040c 	andi	r2,r6,16
   4c1e8:	10003126 	beq	r2,zero,4c2b0 <__swsetup_r+0x144>
   4c1ec:	3080010c 	andi	r2,r6,4
   4c1f0:	1000211e 	bne	r2,zero,4c278 <__swsetup_r+0x10c>
   4c1f4:	80c00417 	ldw	r3,16(r16)
   4c1f8:	30800214 	ori	r2,r6,8
   4c1fc:	8080030d 	sth	r2,12(r16)
   4c200:	100d883a 	mov	r6,r2
   4c204:	183fea1e 	bne	r3,zero,4c1b0 <__swsetup_r+0x44>
   4c208:	1100a00c 	andi	r4,r2,640
   4c20c:	21008020 	cmpeqi	r4,r4,512
   4c210:	203fe71e 	bne	r4,zero,4c1b0 <__swsetup_r+0x44>
   4c214:	8809883a 	mov	r4,r17
   4c218:	800b883a 	mov	r5,r16
   4c21c:	004d1500 	call	4d150 <__smakebuf_r>
   4c220:	8180030b 	ldhu	r6,12(r16)
   4c224:	80c00417 	ldw	r3,16(r16)
   4c228:	3005883a 	mov	r2,r6
   4c22c:	1100004c 	andi	r4,r2,1
   4c230:	203fe126 	beq	r4,zero,4c1b8 <__swsetup_r+0x4c>
   4c234:	81000517 	ldw	r4,20(r16)
   4c238:	80000215 	stw	zero,8(r16)
   4c23c:	0109c83a 	sub	r4,zero,r4
   4c240:	81000615 	stw	r4,24(r16)
   4c244:	183fe11e 	bne	r3,zero,4c1cc <__swsetup_r+0x60>
   4c248:	10c0200c 	andi	r3,r2,128
   4c24c:	0005883a 	mov	r2,zero
   4c250:	183fdf26 	beq	r3,zero,4c1d0 <__swsetup_r+0x64>
   4c254:	31801014 	ori	r6,r6,64
   4c258:	8180030d 	sth	r6,12(r16)
   4c25c:	00bfffc4 	movi	r2,-1
   4c260:	003fdb06 	br	4c1d0 <__swsetup_r+0x64>
   4c264:	1009883a 	mov	r4,r2
   4c268:	004c8740 	call	4c874 <__sinit>
   4c26c:	003fca06 	br	4c198 <__swsetup_r+0x2c>
   4c270:	0009883a 	mov	r4,zero
   4c274:	003fd306 	br	4c1c4 <__swsetup_r+0x58>
   4c278:	81400c17 	ldw	r5,48(r16)
   4c27c:	28000626 	beq	r5,zero,4c298 <__swsetup_r+0x12c>
   4c280:	80801004 	addi	r2,r16,64
   4c284:	28800326 	beq	r5,r2,4c294 <__swsetup_r+0x128>
   4c288:	8809883a 	mov	r4,r17
   4c28c:	0047b140 	call	47b14 <_free_r>
   4c290:	8180030b 	ldhu	r6,12(r16)
   4c294:	80000c15 	stw	zero,48(r16)
   4c298:	80c00417 	ldw	r3,16(r16)
   4c29c:	00bff6c4 	movi	r2,-37
   4c2a0:	118c703a 	and	r6,r2,r6
   4c2a4:	80000115 	stw	zero,4(r16)
   4c2a8:	80c00015 	stw	r3,0(r16)
   4c2ac:	003fd206 	br	4c1f8 <__swsetup_r+0x8c>
   4c2b0:	00800244 	movi	r2,9
   4c2b4:	88800015 	stw	r2,0(r17)
   4c2b8:	31801014 	ori	r6,r6,64
   4c2bc:	8180030d 	sth	r6,12(r16)
   4c2c0:	00bfffc4 	movi	r2,-1
   4c2c4:	003fc206 	br	4c1d0 <__swsetup_r+0x64>

0004c2c8 <__sflush_r>:
   4c2c8:	2880030b 	ldhu	r2,12(r5)
   4c2cc:	defffb04 	addi	sp,sp,-20
   4c2d0:	dcc00315 	stw	r19,12(sp)
   4c2d4:	dc000015 	stw	r16,0(sp)
   4c2d8:	dfc00415 	stw	ra,16(sp)
   4c2dc:	dc800215 	stw	r18,8(sp)
   4c2e0:	dc400115 	stw	r17,4(sp)
   4c2e4:	10c0020c 	andi	r3,r2,8
   4c2e8:	2821883a 	mov	r16,r5
   4c2ec:	2027883a 	mov	r19,r4
   4c2f0:	18003f1e 	bne	r3,zero,4c3f0 <__sflush_r+0x128>
   4c2f4:	28c00117 	ldw	r3,4(r5)
   4c2f8:	10820014 	ori	r2,r2,2048
   4c2fc:	2880030d 	sth	r2,12(r5)
   4c300:	00c0550e 	bge	zero,r3,4c458 <__sflush_r+0x190>
   4c304:	82000a17 	ldw	r8,40(r16)
   4c308:	40003126 	beq	r8,zero,4c3d0 <__sflush_r+0x108>
   4c30c:	9c400017 	ldw	r17,0(r19)
   4c310:	1104000c 	andi	r4,r2,4096
   4c314:	98000015 	stw	zero,0(r19)
   4c318:	81400717 	ldw	r5,28(r16)
   4c31c:	1007883a 	mov	r3,r2
   4c320:	2000521e 	bne	r4,zero,4c46c <__sflush_r+0x1a4>
   4c324:	01c00044 	movi	r7,1
   4c328:	000d883a 	mov	r6,zero
   4c32c:	9809883a 	mov	r4,r19
   4c330:	403ee83a 	callr	r8
   4c334:	10ffffd8 	cmpnei	r3,r2,-1
   4c338:	18005826 	beq	r3,zero,4c49c <__sflush_r+0x1d4>
   4c33c:	80c0030b 	ldhu	r3,12(r16)
   4c340:	82000a17 	ldw	r8,40(r16)
   4c344:	81400717 	ldw	r5,28(r16)
   4c348:	18c0010c 	andi	r3,r3,4
   4c34c:	18000626 	beq	r3,zero,4c368 <__sflush_r+0xa0>
   4c350:	81000117 	ldw	r4,4(r16)
   4c354:	80c00c17 	ldw	r3,48(r16)
   4c358:	1105c83a 	sub	r2,r2,r4
   4c35c:	18000226 	beq	r3,zero,4c368 <__sflush_r+0xa0>
   4c360:	80c00f17 	ldw	r3,60(r16)
   4c364:	10c5c83a 	sub	r2,r2,r3
   4c368:	100d883a 	mov	r6,r2
   4c36c:	000f883a 	mov	r7,zero
   4c370:	9809883a 	mov	r4,r19
   4c374:	403ee83a 	callr	r8
   4c378:	10ffffd8 	cmpnei	r3,r2,-1
   4c37c:	18003d1e 	bne	r3,zero,4c474 <__sflush_r+0x1ac>
   4c380:	99000017 	ldw	r4,0(r19)
   4c384:	80c0030b 	ldhu	r3,12(r16)
   4c388:	20004e26 	beq	r4,zero,4c4c4 <__sflush_r+0x1fc>
   4c38c:	21400760 	cmpeqi	r5,r4,29
   4c390:	2800021e 	bne	r5,zero,4c39c <__sflush_r+0xd4>
   4c394:	210005a0 	cmpeqi	r4,r4,22
   4c398:	20002c26 	beq	r4,zero,4c44c <__sflush_r+0x184>
   4c39c:	80800417 	ldw	r2,16(r16)
   4c3a0:	18fdffcc 	andi	r3,r3,63487
   4c3a4:	80c0030d 	sth	r3,12(r16)
   4c3a8:	80000115 	stw	zero,4(r16)
   4c3ac:	80800015 	stw	r2,0(r16)
   4c3b0:	81400c17 	ldw	r5,48(r16)
   4c3b4:	9c400015 	stw	r17,0(r19)
   4c3b8:	28000526 	beq	r5,zero,4c3d0 <__sflush_r+0x108>
   4c3bc:	80801004 	addi	r2,r16,64
   4c3c0:	28800226 	beq	r5,r2,4c3cc <__sflush_r+0x104>
   4c3c4:	9809883a 	mov	r4,r19
   4c3c8:	0047b140 	call	47b14 <_free_r>
   4c3cc:	80000c15 	stw	zero,48(r16)
   4c3d0:	0005883a 	mov	r2,zero
   4c3d4:	dfc00417 	ldw	ra,16(sp)
   4c3d8:	dcc00317 	ldw	r19,12(sp)
   4c3dc:	dc800217 	ldw	r18,8(sp)
   4c3e0:	dc400117 	ldw	r17,4(sp)
   4c3e4:	dc000017 	ldw	r16,0(sp)
   4c3e8:	dec00504 	addi	sp,sp,20
   4c3ec:	f800283a 	ret
   4c3f0:	2c800417 	ldw	r18,16(r5)
   4c3f4:	903ff626 	beq	r18,zero,4c3d0 <__sflush_r+0x108>
   4c3f8:	2c400017 	ldw	r17,0(r5)
   4c3fc:	108000cc 	andi	r2,r2,3
   4c400:	2c800015 	stw	r18,0(r5)
   4c404:	8ca3c83a 	sub	r17,r17,r18
   4c408:	1000161e 	bne	r2,zero,4c464 <__sflush_r+0x19c>
   4c40c:	28800517 	ldw	r2,20(r5)
   4c410:	80800215 	stw	r2,8(r16)
   4c414:	04400316 	blt	zero,r17,4c424 <__sflush_r+0x15c>
   4c418:	003fed06 	br	4c3d0 <__sflush_r+0x108>
   4c41c:	90a5883a 	add	r18,r18,r2
   4c420:	047feb0e 	bge	zero,r17,4c3d0 <__sflush_r+0x108>
   4c424:	80800917 	ldw	r2,36(r16)
   4c428:	81400717 	ldw	r5,28(r16)
   4c42c:	880f883a 	mov	r7,r17
   4c430:	900d883a 	mov	r6,r18
   4c434:	9809883a 	mov	r4,r19
   4c438:	103ee83a 	callr	r2
   4c43c:	88a3c83a 	sub	r17,r17,r2
   4c440:	00bff616 	blt	zero,r2,4c41c <__sflush_r+0x154>
   4c444:	80c0030b 	ldhu	r3,12(r16)
   4c448:	00bfffc4 	movi	r2,-1
   4c44c:	18c01014 	ori	r3,r3,64
   4c450:	80c0030d 	sth	r3,12(r16)
   4c454:	003fdf06 	br	4c3d4 <__sflush_r+0x10c>
   4c458:	28c00f17 	ldw	r3,60(r5)
   4c45c:	00ffa916 	blt	zero,r3,4c304 <__sflush_r+0x3c>
   4c460:	003fdb06 	br	4c3d0 <__sflush_r+0x108>
   4c464:	0005883a 	mov	r2,zero
   4c468:	003fe906 	br	4c410 <__sflush_r+0x148>
   4c46c:	80801417 	ldw	r2,80(r16)
   4c470:	003fb506 	br	4c348 <__sflush_r+0x80>
   4c474:	80c0030b 	ldhu	r3,12(r16)
   4c478:	81000417 	ldw	r4,16(r16)
   4c47c:	80000115 	stw	zero,4(r16)
   4c480:	197dffcc 	andi	r5,r3,63487
   4c484:	8140030d 	sth	r5,12(r16)
   4c488:	81000015 	stw	r4,0(r16)
   4c48c:	18c4000c 	andi	r3,r3,4096
   4c490:	183fc726 	beq	r3,zero,4c3b0 <__sflush_r+0xe8>
   4c494:	80801415 	stw	r2,80(r16)
   4c498:	003fc506 	br	4c3b0 <__sflush_r+0xe8>
   4c49c:	98c00017 	ldw	r3,0(r19)
   4c4a0:	183fa626 	beq	r3,zero,4c33c <__sflush_r+0x74>
   4c4a4:	19000760 	cmpeqi	r4,r3,29
   4c4a8:	20000e1e 	bne	r4,zero,4c4e4 <__sflush_r+0x21c>
   4c4ac:	18c00598 	cmpnei	r3,r3,22
   4c4b0:	18000c26 	beq	r3,zero,4c4e4 <__sflush_r+0x21c>
   4c4b4:	80c0030b 	ldhu	r3,12(r16)
   4c4b8:	18c01014 	ori	r3,r3,64
   4c4bc:	80c0030d 	sth	r3,12(r16)
   4c4c0:	003fc406 	br	4c3d4 <__sflush_r+0x10c>
   4c4c4:	81000417 	ldw	r4,16(r16)
   4c4c8:	197dffcc 	andi	r5,r3,63487
   4c4cc:	8140030d 	sth	r5,12(r16)
   4c4d0:	80000115 	stw	zero,4(r16)
   4c4d4:	81000015 	stw	r4,0(r16)
   4c4d8:	18c4000c 	andi	r3,r3,4096
   4c4dc:	183fb426 	beq	r3,zero,4c3b0 <__sflush_r+0xe8>
   4c4e0:	003fec06 	br	4c494 <__sflush_r+0x1cc>
   4c4e4:	9c400015 	stw	r17,0(r19)
   4c4e8:	0005883a 	mov	r2,zero
   4c4ec:	003fb906 	br	4c3d4 <__sflush_r+0x10c>

0004c4f0 <_fflush_r>:
   4c4f0:	defffd04 	addi	sp,sp,-12
   4c4f4:	dc000115 	stw	r16,4(sp)
   4c4f8:	dfc00215 	stw	ra,8(sp)
   4c4fc:	2021883a 	mov	r16,r4
   4c500:	20000226 	beq	r4,zero,4c50c <_fflush_r+0x1c>
   4c504:	20800e17 	ldw	r2,56(r4)
   4c508:	10000726 	beq	r2,zero,4c528 <_fflush_r+0x38>
   4c50c:	2880030f 	ldh	r2,12(r5)
   4c510:	10000a1e 	bne	r2,zero,4c53c <_fflush_r+0x4c>
   4c514:	0005883a 	mov	r2,zero
   4c518:	dfc00217 	ldw	ra,8(sp)
   4c51c:	dc000117 	ldw	r16,4(sp)
   4c520:	dec00304 	addi	sp,sp,12
   4c524:	f800283a 	ret
   4c528:	d9400015 	stw	r5,0(sp)
   4c52c:	004c8740 	call	4c874 <__sinit>
   4c530:	d9400017 	ldw	r5,0(sp)
   4c534:	2880030f 	ldh	r2,12(r5)
   4c538:	103ff626 	beq	r2,zero,4c514 <_fflush_r+0x24>
   4c53c:	8009883a 	mov	r4,r16
   4c540:	dfc00217 	ldw	ra,8(sp)
   4c544:	dc000117 	ldw	r16,4(sp)
   4c548:	dec00304 	addi	sp,sp,12
   4c54c:	004c2c81 	jmpi	4c2c8 <__sflush_r>

0004c550 <fflush>:
   4c550:	200b883a 	mov	r5,r4
   4c554:	20000326 	beq	r4,zero,4c564 <fflush+0x14>
   4c558:	00800174 	movhi	r2,5
   4c55c:	11158317 	ldw	r4,22028(r2)
   4c560:	004c4f01 	jmpi	4c4f0 <_fflush_r>
   4c564:	00800174 	movhi	r2,5
   4c568:	11158217 	ldw	r4,22024(r2)
   4c56c:	01400174 	movhi	r5,5
   4c570:	29713c04 	addi	r5,r5,-15120
   4c574:	004d0101 	jmpi	4d010 <_fwalk_reent>

0004c578 <__fp_lock>:
   4c578:	0005883a 	mov	r2,zero
   4c57c:	f800283a 	ret

0004c580 <_cleanup_r>:
   4c580:	01400174 	movhi	r5,5
   4c584:	2975b804 	addi	r5,r5,-10528
   4c588:	004d0101 	jmpi	4d010 <_fwalk_reent>

0004c58c <__sinit.part.0>:
   4c58c:	00c00174 	movhi	r3,5
   4c590:	20800117 	ldw	r2,4(r4)
   4c594:	18f16004 	addi	r3,r3,-14976
   4c598:	20c00f15 	stw	r3,60(r4)
   4c59c:	2140bb04 	addi	r5,r4,748
   4c5a0:	00c000c4 	movi	r3,3
   4c5a4:	20c0b915 	stw	r3,740(r4)
   4c5a8:	2140ba15 	stw	r5,744(r4)
   4c5ac:	2000b815 	stw	zero,736(r4)
   4c5b0:	10001705 	stb	zero,92(r2)
   4c5b4:	10001745 	stb	zero,93(r2)
   4c5b8:	10001785 	stb	zero,94(r2)
   4c5bc:	100017c5 	stb	zero,95(r2)
   4c5c0:	10001805 	stb	zero,96(r2)
   4c5c4:	10001845 	stb	zero,97(r2)
   4c5c8:	10001885 	stb	zero,98(r2)
   4c5cc:	100018c5 	stb	zero,99(r2)
   4c5d0:	00c00104 	movi	r3,4
   4c5d4:	10c00315 	stw	r3,12(r2)
   4c5d8:	02000174 	movhi	r8,5
   4c5dc:	20c00217 	ldw	r3,8(r4)
   4c5e0:	01c00174 	movhi	r7,5
   4c5e4:	01800174 	movhi	r6,5
   4c5e8:	01400174 	movhi	r5,5
   4c5ec:	4234a404 	addi	r8,r8,-11632
   4c5f0:	39f4bb04 	addi	r7,r7,-11540
   4c5f4:	31b4db04 	addi	r6,r6,-11412
   4c5f8:	2974f204 	addi	r5,r5,-11320
   4c5fc:	02400074 	movhi	r9,1
   4c600:	10001915 	stw	zero,100(r2)
   4c604:	10000015 	stw	zero,0(r2)
   4c608:	10000115 	stw	zero,4(r2)
   4c60c:	10000215 	stw	zero,8(r2)
   4c610:	10000415 	stw	zero,16(r2)
   4c614:	10000515 	stw	zero,20(r2)
   4c618:	10000615 	stw	zero,24(r2)
   4c61c:	10800715 	stw	r2,28(r2)
   4c620:	12000815 	stw	r8,32(r2)
   4c624:	11c00915 	stw	r7,36(r2)
   4c628:	11800a15 	stw	r6,40(r2)
   4c62c:	11400b15 	stw	r5,44(r2)
   4c630:	4a400284 	addi	r9,r9,10
   4c634:	1a400315 	stw	r9,12(r3)
   4c638:	18001915 	stw	zero,100(r3)
   4c63c:	18000015 	stw	zero,0(r3)
   4c640:	18000115 	stw	zero,4(r3)
   4c644:	18000215 	stw	zero,8(r3)
   4c648:	18000415 	stw	zero,16(r3)
   4c64c:	18001705 	stb	zero,92(r3)
   4c650:	18001745 	stb	zero,93(r3)
   4c654:	18001785 	stb	zero,94(r3)
   4c658:	180017c5 	stb	zero,95(r3)
   4c65c:	18001805 	stb	zero,96(r3)
   4c660:	18001845 	stb	zero,97(r3)
   4c664:	18001885 	stb	zero,98(r3)
   4c668:	180018c5 	stb	zero,99(r3)
   4c66c:	20800317 	ldw	r2,12(r4)
   4c670:	024000b4 	movhi	r9,2
   4c674:	18000515 	stw	zero,20(r3)
   4c678:	18000615 	stw	zero,24(r3)
   4c67c:	18c00715 	stw	r3,28(r3)
   4c680:	1a000815 	stw	r8,32(r3)
   4c684:	19c00915 	stw	r7,36(r3)
   4c688:	19800a15 	stw	r6,40(r3)
   4c68c:	19400b15 	stw	r5,44(r3)
   4c690:	4a400484 	addi	r9,r9,18
   4c694:	10001915 	stw	zero,100(r2)
   4c698:	10000015 	stw	zero,0(r2)
   4c69c:	10000115 	stw	zero,4(r2)
   4c6a0:	10000215 	stw	zero,8(r2)
   4c6a4:	12400315 	stw	r9,12(r2)
   4c6a8:	10000415 	stw	zero,16(r2)
   4c6ac:	10000515 	stw	zero,20(r2)
   4c6b0:	10000615 	stw	zero,24(r2)
   4c6b4:	10001705 	stb	zero,92(r2)
   4c6b8:	10001745 	stb	zero,93(r2)
   4c6bc:	10001785 	stb	zero,94(r2)
   4c6c0:	100017c5 	stb	zero,95(r2)
   4c6c4:	10001805 	stb	zero,96(r2)
   4c6c8:	10001845 	stb	zero,97(r2)
   4c6cc:	10001885 	stb	zero,98(r2)
   4c6d0:	100018c5 	stb	zero,99(r2)
   4c6d4:	10800715 	stw	r2,28(r2)
   4c6d8:	12000815 	stw	r8,32(r2)
   4c6dc:	11c00915 	stw	r7,36(r2)
   4c6e0:	11800a15 	stw	r6,40(r2)
   4c6e4:	11400b15 	stw	r5,44(r2)
   4c6e8:	00800044 	movi	r2,1
   4c6ec:	20800e15 	stw	r2,56(r4)
   4c6f0:	f800283a 	ret

0004c6f4 <__fp_unlock>:
   4c6f4:	0005883a 	mov	r2,zero
   4c6f8:	f800283a 	ret

0004c6fc <__sfmoreglue>:
   4c6fc:	defffc04 	addi	sp,sp,-16
   4c700:	dc400115 	stw	r17,4(sp)
   4c704:	2c7fffc4 	addi	r17,r5,-1
   4c708:	8c401a24 	muli	r17,r17,104
   4c70c:	dc800215 	stw	r18,8(sp)
   4c710:	2825883a 	mov	r18,r5
   4c714:	89401d04 	addi	r5,r17,116
   4c718:	dc000015 	stw	r16,0(sp)
   4c71c:	dfc00315 	stw	ra,12(sp)
   4c720:	00430f00 	call	430f0 <_malloc_r>
   4c724:	1021883a 	mov	r16,r2
   4c728:	10000726 	beq	r2,zero,4c748 <__sfmoreglue+0x4c>
   4c72c:	11000304 	addi	r4,r2,12
   4c730:	10000015 	stw	zero,0(r2)
   4c734:	14800115 	stw	r18,4(r2)
   4c738:	11000215 	stw	r4,8(r2)
   4c73c:	89801a04 	addi	r6,r17,104
   4c740:	000b883a 	mov	r5,zero
   4c744:	00438d00 	call	438d0 <memset>
   4c748:	8005883a 	mov	r2,r16
   4c74c:	dfc00317 	ldw	ra,12(sp)
   4c750:	dc800217 	ldw	r18,8(sp)
   4c754:	dc400117 	ldw	r17,4(sp)
   4c758:	dc000017 	ldw	r16,0(sp)
   4c75c:	dec00404 	addi	sp,sp,16
   4c760:	f800283a 	ret

0004c764 <__sfp>:
   4c764:	defffd04 	addi	sp,sp,-12
   4c768:	00800174 	movhi	r2,5
   4c76c:	dc000015 	stw	r16,0(sp)
   4c770:	14158217 	ldw	r16,22024(r2)
   4c774:	dc400115 	stw	r17,4(sp)
   4c778:	dfc00215 	stw	ra,8(sp)
   4c77c:	80800e17 	ldw	r2,56(r16)
   4c780:	2023883a 	mov	r17,r4
   4c784:	10002b26 	beq	r2,zero,4c834 <__sfp+0xd0>
   4c788:	8400b804 	addi	r16,r16,736
   4c78c:	80c00117 	ldw	r3,4(r16)
   4c790:	80800217 	ldw	r2,8(r16)
   4c794:	18ffffc4 	addi	r3,r3,-1
   4c798:	1800030e 	bge	r3,zero,4c7a8 <__sfp+0x44>
   4c79c:	00002106 	br	4c824 <__sfp+0xc0>
   4c7a0:	10801a04 	addi	r2,r2,104
   4c7a4:	30001f26 	beq	r6,zero,4c824 <__sfp+0xc0>
   4c7a8:	1140030f 	ldh	r5,12(r2)
   4c7ac:	18ffffc4 	addi	r3,r3,-1
   4c7b0:	19bfffd8 	cmpnei	r6,r3,-1
   4c7b4:	283ffa1e 	bne	r5,zero,4c7a0 <__sfp+0x3c>
   4c7b8:	00fffff4 	movhi	r3,65535
   4c7bc:	18c00044 	addi	r3,r3,1
   4c7c0:	10001915 	stw	zero,100(r2)
   4c7c4:	10000015 	stw	zero,0(r2)
   4c7c8:	10000115 	stw	zero,4(r2)
   4c7cc:	10000215 	stw	zero,8(r2)
   4c7d0:	10c00315 	stw	r3,12(r2)
   4c7d4:	10000415 	stw	zero,16(r2)
   4c7d8:	10000515 	stw	zero,20(r2)
   4c7dc:	10000615 	stw	zero,24(r2)
   4c7e0:	10001705 	stb	zero,92(r2)
   4c7e4:	10001745 	stb	zero,93(r2)
   4c7e8:	10001785 	stb	zero,94(r2)
   4c7ec:	100017c5 	stb	zero,95(r2)
   4c7f0:	10001805 	stb	zero,96(r2)
   4c7f4:	10001845 	stb	zero,97(r2)
   4c7f8:	10001885 	stb	zero,98(r2)
   4c7fc:	100018c5 	stb	zero,99(r2)
   4c800:	10000c15 	stw	zero,48(r2)
   4c804:	10000d15 	stw	zero,52(r2)
   4c808:	10001115 	stw	zero,68(r2)
   4c80c:	10001215 	stw	zero,72(r2)
   4c810:	dfc00217 	ldw	ra,8(sp)
   4c814:	dc400117 	ldw	r17,4(sp)
   4c818:	dc000017 	ldw	r16,0(sp)
   4c81c:	dec00304 	addi	sp,sp,12
   4c820:	f800283a 	ret
   4c824:	80800017 	ldw	r2,0(r16)
   4c828:	10000526 	beq	r2,zero,4c840 <__sfp+0xdc>
   4c82c:	1021883a 	mov	r16,r2
   4c830:	003fd606 	br	4c78c <__sfp+0x28>
   4c834:	8009883a 	mov	r4,r16
   4c838:	004c58c0 	call	4c58c <__sinit.part.0>
   4c83c:	003fd206 	br	4c788 <__sfp+0x24>
   4c840:	01400104 	movi	r5,4
   4c844:	8809883a 	mov	r4,r17
   4c848:	004c6fc0 	call	4c6fc <__sfmoreglue>
   4c84c:	80800015 	stw	r2,0(r16)
   4c850:	103ff61e 	bne	r2,zero,4c82c <__sfp+0xc8>
   4c854:	00c00304 	movi	r3,12
   4c858:	88c00015 	stw	r3,0(r17)
   4c85c:	003fec06 	br	4c810 <__sfp+0xac>

0004c860 <_cleanup>:
   4c860:	00800174 	movhi	r2,5
   4c864:	11158217 	ldw	r4,22024(r2)
   4c868:	01400174 	movhi	r5,5
   4c86c:	2975b804 	addi	r5,r5,-10528
   4c870:	004d0101 	jmpi	4d010 <_fwalk_reent>

0004c874 <__sinit>:
   4c874:	20800e17 	ldw	r2,56(r4)
   4c878:	10000126 	beq	r2,zero,4c880 <__sinit+0xc>
   4c87c:	f800283a 	ret
   4c880:	004c58c1 	jmpi	4c58c <__sinit.part.0>

0004c884 <__sfp_lock_acquire>:
   4c884:	f800283a 	ret

0004c888 <__sfp_lock_release>:
   4c888:	f800283a 	ret

0004c88c <__sinit_lock_acquire>:
   4c88c:	f800283a 	ret

0004c890 <__sinit_lock_release>:
   4c890:	f800283a 	ret

0004c894 <__fp_lock_all>:
   4c894:	00800174 	movhi	r2,5
   4c898:	11158317 	ldw	r4,22028(r2)
   4c89c:	01400174 	movhi	r5,5
   4c8a0:	29715e04 	addi	r5,r5,-14984
   4c8a4:	004cf781 	jmpi	4cf78 <_fwalk>

0004c8a8 <__fp_unlock_all>:
   4c8a8:	00800174 	movhi	r2,5
   4c8ac:	11158317 	ldw	r4,22028(r2)
   4c8b0:	01400174 	movhi	r5,5
   4c8b4:	2971bd04 	addi	r5,r5,-14604
   4c8b8:	004cf781 	jmpi	4cf78 <_fwalk>

0004c8bc <__fputwc>:
   4c8bc:	defff904 	addi	sp,sp,-28
   4c8c0:	dcc00415 	stw	r19,16(sp)
   4c8c4:	dc800315 	stw	r18,12(sp)
   4c8c8:	dc000115 	stw	r16,4(sp)
   4c8cc:	dfc00615 	stw	ra,24(sp)
   4c8d0:	dd000515 	stw	r20,20(sp)
   4c8d4:	dc400215 	stw	r17,8(sp)
   4c8d8:	2025883a 	mov	r18,r4
   4c8dc:	2827883a 	mov	r19,r5
   4c8e0:	3021883a 	mov	r16,r6
   4c8e4:	004a53c0 	call	4a53c <__locale_mb_cur_max>
   4c8e8:	10800058 	cmpnei	r2,r2,1
   4c8ec:	1000071e 	bne	r2,zero,4c90c <__fputwc+0x50>
   4c8f0:	98bfffc4 	addi	r2,r19,-1
   4c8f4:	10803fe8 	cmpgeui	r2,r2,255
   4c8f8:	1000041e 	bne	r2,zero,4c90c <__fputwc+0x50>
   4c8fc:	980b883a 	mov	r5,r19
   4c900:	dcc000c5 	stb	r19,3(sp)
   4c904:	05000044 	movi	r20,1
   4c908:	00000a06 	br	4c934 <__fputwc+0x78>
   4c90c:	81c01704 	addi	r7,r16,92
   4c910:	980d883a 	mov	r6,r19
   4c914:	d94000c4 	addi	r5,sp,3
   4c918:	9009883a 	mov	r4,r18
   4c91c:	004d5300 	call	4d530 <_wcrtomb_r>
   4c920:	1029883a 	mov	r20,r2
   4c924:	10bfffd8 	cmpnei	r2,r2,-1
   4c928:	10003926 	beq	r2,zero,4ca10 <__fputwc+0x154>
   4c92c:	a0001f26 	beq	r20,zero,4c9ac <__fputwc+0xf0>
   4c930:	d94000c3 	ldbu	r5,3(sp)
   4c934:	0023883a 	mov	r17,zero
   4c938:	00000a06 	br	4c964 <__fputwc+0xa8>
   4c93c:	80800017 	ldw	r2,0(r16)
   4c940:	11400005 	stb	r5,0(r2)
   4c944:	80c00017 	ldw	r3,0(r16)
   4c948:	18c00044 	addi	r3,r3,1
   4c94c:	80c00015 	stw	r3,0(r16)
   4c950:	8c400044 	addi	r17,r17,1
   4c954:	d88000c4 	addi	r2,sp,3
   4c958:	1447883a 	add	r3,r2,r17
   4c95c:	8d00132e 	bgeu	r17,r20,4c9ac <__fputwc+0xf0>
   4c960:	19400003 	ldbu	r5,0(r3)
   4c964:	80c00217 	ldw	r3,8(r16)
   4c968:	18ffffc4 	addi	r3,r3,-1
   4c96c:	80c00215 	stw	r3,8(r16)
   4c970:	183ff20e 	bge	r3,zero,4c93c <__fputwc+0x80>
   4c974:	80800617 	ldw	r2,24(r16)
   4c978:	18801616 	blt	r3,r2,4c9d4 <__fputwc+0x118>
   4c97c:	80800017 	ldw	r2,0(r16)
   4c980:	11400005 	stb	r5,0(r2)
   4c984:	80800017 	ldw	r2,0(r16)
   4c988:	10c00003 	ldbu	r3,0(r2)
   4c98c:	10800044 	addi	r2,r2,1
   4c990:	18c002a0 	cmpeqi	r3,r3,10
   4c994:	1800181e 	bne	r3,zero,4c9f8 <__fputwc+0x13c>
   4c998:	80800015 	stw	r2,0(r16)
   4c99c:	8c400044 	addi	r17,r17,1
   4c9a0:	d88000c4 	addi	r2,sp,3
   4c9a4:	1447883a 	add	r3,r2,r17
   4c9a8:	8d3fed36 	bltu	r17,r20,4c960 <__fputwc+0xa4>
   4c9ac:	9829883a 	mov	r20,r19
   4c9b0:	a005883a 	mov	r2,r20
   4c9b4:	dfc00617 	ldw	ra,24(sp)
   4c9b8:	dd000517 	ldw	r20,20(sp)
   4c9bc:	dcc00417 	ldw	r19,16(sp)
   4c9c0:	dc800317 	ldw	r18,12(sp)
   4c9c4:	dc400217 	ldw	r17,8(sp)
   4c9c8:	dc000117 	ldw	r16,4(sp)
   4c9cc:	dec00704 	addi	sp,sp,28
   4c9d0:	f800283a 	ret
   4c9d4:	29403fcc 	andi	r5,r5,255
   4c9d8:	800d883a 	mov	r6,r16
   4c9dc:	9009883a 	mov	r4,r18
   4c9e0:	004d3d00 	call	4d3d0 <__swbuf_r>
   4c9e4:	10ffffe0 	cmpeqi	r3,r2,-1
   4c9e8:	18c03fcc 	andi	r3,r3,255
   4c9ec:	183fd826 	beq	r3,zero,4c950 <__fputwc+0x94>
   4c9f0:	053fffc4 	movi	r20,-1
   4c9f4:	003fee06 	br	4c9b0 <__fputwc+0xf4>
   4c9f8:	800d883a 	mov	r6,r16
   4c9fc:	01400284 	movi	r5,10
   4ca00:	9009883a 	mov	r4,r18
   4ca04:	004d3d00 	call	4d3d0 <__swbuf_r>
   4ca08:	10ffffe0 	cmpeqi	r3,r2,-1
   4ca0c:	003ff606 	br	4c9e8 <__fputwc+0x12c>
   4ca10:	8080030b 	ldhu	r2,12(r16)
   4ca14:	10801014 	ori	r2,r2,64
   4ca18:	8080030d 	sth	r2,12(r16)
   4ca1c:	003fe406 	br	4c9b0 <__fputwc+0xf4>

0004ca20 <_fputwc_r>:
   4ca20:	3080030b 	ldhu	r2,12(r6)
   4ca24:	10c8000c 	andi	r3,r2,8192
   4ca28:	1800051e 	bne	r3,zero,4ca40 <_fputwc_r+0x20>
   4ca2c:	30c01917 	ldw	r3,100(r6)
   4ca30:	10880014 	ori	r2,r2,8192
   4ca34:	3080030d 	sth	r2,12(r6)
   4ca38:	18880014 	ori	r2,r3,8192
   4ca3c:	30801915 	stw	r2,100(r6)
   4ca40:	004c8bc1 	jmpi	4c8bc <__fputwc>

0004ca44 <fputwc>:
   4ca44:	defffc04 	addi	sp,sp,-16
   4ca48:	00800174 	movhi	r2,5
   4ca4c:	dc000215 	stw	r16,8(sp)
   4ca50:	14158317 	ldw	r16,22028(r2)
   4ca54:	dfc00315 	stw	ra,12(sp)
   4ca58:	280d883a 	mov	r6,r5
   4ca5c:	200b883a 	mov	r5,r4
   4ca60:	80000226 	beq	r16,zero,4ca6c <fputwc+0x28>
   4ca64:	80800e17 	ldw	r2,56(r16)
   4ca68:	10000d26 	beq	r2,zero,4caa0 <fputwc+0x5c>
   4ca6c:	3080030b 	ldhu	r2,12(r6)
   4ca70:	10c8000c 	andi	r3,r2,8192
   4ca74:	1800051e 	bne	r3,zero,4ca8c <fputwc+0x48>
   4ca78:	30c01917 	ldw	r3,100(r6)
   4ca7c:	10880014 	ori	r2,r2,8192
   4ca80:	3080030d 	sth	r2,12(r6)
   4ca84:	18880014 	ori	r2,r3,8192
   4ca88:	30801915 	stw	r2,100(r6)
   4ca8c:	8009883a 	mov	r4,r16
   4ca90:	dfc00317 	ldw	ra,12(sp)
   4ca94:	dc000217 	ldw	r16,8(sp)
   4ca98:	dec00404 	addi	sp,sp,16
   4ca9c:	004c8bc1 	jmpi	4c8bc <__fputwc>
   4caa0:	d9000015 	stw	r4,0(sp)
   4caa4:	8009883a 	mov	r4,r16
   4caa8:	d9800115 	stw	r6,4(sp)
   4caac:	004c8740 	call	4c874 <__sinit>
   4cab0:	d9800117 	ldw	r6,4(sp)
   4cab4:	d9400017 	ldw	r5,0(sp)
   4cab8:	003fec06 	br	4ca6c <fputwc+0x28>

0004cabc <__sfvwrite_r>:
   4cabc:	30800217 	ldw	r2,8(r6)
   4cac0:	1000c726 	beq	r2,zero,4cde0 <__sfvwrite_r+0x324>
   4cac4:	29c0030b 	ldhu	r7,12(r5)
   4cac8:	defff404 	addi	sp,sp,-48
   4cacc:	dd800815 	stw	r22,32(sp)
   4cad0:	dd400715 	stw	r21,28(sp)
   4cad4:	dc000215 	stw	r16,8(sp)
   4cad8:	dfc00b15 	stw	ra,44(sp)
   4cadc:	df000a15 	stw	fp,40(sp)
   4cae0:	ddc00915 	stw	r23,36(sp)
   4cae4:	dd000615 	stw	r20,24(sp)
   4cae8:	dcc00515 	stw	r19,20(sp)
   4caec:	dc800415 	stw	r18,16(sp)
   4caf0:	dc400315 	stw	r17,12(sp)
   4caf4:	3880020c 	andi	r2,r7,8
   4caf8:	302d883a 	mov	r22,r6
   4cafc:	202b883a 	mov	r21,r4
   4cb00:	2821883a 	mov	r16,r5
   4cb04:	10002226 	beq	r2,zero,4cb90 <__sfvwrite_r+0xd4>
   4cb08:	28800417 	ldw	r2,16(r5)
   4cb0c:	10002026 	beq	r2,zero,4cb90 <__sfvwrite_r+0xd4>
   4cb10:	3880008c 	andi	r2,r7,2
   4cb14:	b4400017 	ldw	r17,0(r22)
   4cb18:	10002526 	beq	r2,zero,4cbb0 <__sfvwrite_r+0xf4>
   4cb1c:	80800917 	ldw	r2,36(r16)
   4cb20:	81400717 	ldw	r5,28(r16)
   4cb24:	05200034 	movhi	r20,32768
   4cb28:	0027883a 	mov	r19,zero
   4cb2c:	0025883a 	mov	r18,zero
   4cb30:	a53f0004 	addi	r20,r20,-1024
   4cb34:	980d883a 	mov	r6,r19
   4cb38:	a809883a 	mov	r4,r21
   4cb3c:	90001026 	beq	r18,zero,4cb80 <__sfvwrite_r+0xc4>
   4cb40:	900f883a 	mov	r7,r18
   4cb44:	a480012e 	bgeu	r20,r18,4cb4c <__sfvwrite_r+0x90>
   4cb48:	a00f883a 	mov	r7,r20
   4cb4c:	103ee83a 	callr	r2
   4cb50:	00809e0e 	bge	zero,r2,4cdcc <__sfvwrite_r+0x310>
   4cb54:	b1000217 	ldw	r4,8(r22)
   4cb58:	98a7883a 	add	r19,r19,r2
   4cb5c:	90a5c83a 	sub	r18,r18,r2
   4cb60:	2085c83a 	sub	r2,r4,r2
   4cb64:	b0800215 	stw	r2,8(r22)
   4cb68:	10006226 	beq	r2,zero,4ccf4 <__sfvwrite_r+0x238>
   4cb6c:	80800917 	ldw	r2,36(r16)
   4cb70:	81400717 	ldw	r5,28(r16)
   4cb74:	980d883a 	mov	r6,r19
   4cb78:	a809883a 	mov	r4,r21
   4cb7c:	903ff01e 	bne	r18,zero,4cb40 <__sfvwrite_r+0x84>
   4cb80:	8cc00017 	ldw	r19,0(r17)
   4cb84:	8c800117 	ldw	r18,4(r17)
   4cb88:	8c400204 	addi	r17,r17,8
   4cb8c:	003fe906 	br	4cb34 <__sfvwrite_r+0x78>
   4cb90:	800b883a 	mov	r5,r16
   4cb94:	a809883a 	mov	r4,r21
   4cb98:	004c16c0 	call	4c16c <__swsetup_r>
   4cb9c:	1000f41e 	bne	r2,zero,4cf70 <__sfvwrite_r+0x4b4>
   4cba0:	81c0030b 	ldhu	r7,12(r16)
   4cba4:	b4400017 	ldw	r17,0(r22)
   4cba8:	3880008c 	andi	r2,r7,2
   4cbac:	103fdb1e 	bne	r2,zero,4cb1c <__sfvwrite_r+0x60>
   4cbb0:	3880004c 	andi	r2,r7,1
   4cbb4:	84800217 	ldw	r18,8(r16)
   4cbb8:	82000017 	ldw	r8,0(r16)
   4cbbc:	10008a1e 	bne	r2,zero,4cde8 <__sfvwrite_r+0x32c>
   4cbc0:	00a00034 	movhi	r2,32768
   4cbc4:	10bfff84 	addi	r2,r2,-2
   4cbc8:	00e00034 	movhi	r3,32768
   4cbcc:	d8800015 	stw	r2,0(sp)
   4cbd0:	18bfffc4 	addi	r2,r3,-1
   4cbd4:	0039883a 	mov	fp,zero
   4cbd8:	0027883a 	mov	r19,zero
   4cbdc:	d8800115 	stw	r2,4(sp)
   4cbe0:	98004026 	beq	r19,zero,4cce4 <__sfvwrite_r+0x228>
   4cbe4:	3880800c 	andi	r2,r7,512
   4cbe8:	10009226 	beq	r2,zero,4ce34 <__sfvwrite_r+0x378>
   4cbec:	902f883a 	mov	r23,r18
   4cbf0:	9c80b636 	bltu	r19,r18,4cecc <__sfvwrite_r+0x410>
   4cbf4:	3881200c 	andi	r2,r7,1152
   4cbf8:	10002526 	beq	r2,zero,4cc90 <__sfvwrite_r+0x1d4>
   4cbfc:	81000517 	ldw	r4,20(r16)
   4cc00:	81400417 	ldw	r5,16(r16)
   4cc04:	98800044 	addi	r2,r19,1
   4cc08:	210000e4 	muli	r4,r4,3
   4cc0c:	4165c83a 	sub	r18,r8,r5
   4cc10:	1485883a 	add	r2,r2,r18
   4cc14:	2028d7fa 	srli	r20,r4,31
   4cc18:	a109883a 	add	r4,r20,r4
   4cc1c:	2029d07a 	srai	r20,r4,1
   4cc20:	a00d883a 	mov	r6,r20
   4cc24:	a080022e 	bgeu	r20,r2,4cc30 <__sfvwrite_r+0x174>
   4cc28:	1029883a 	mov	r20,r2
   4cc2c:	100d883a 	mov	r6,r2
   4cc30:	39c1000c 	andi	r7,r7,1024
   4cc34:	3800be26 	beq	r7,zero,4cf30 <__sfvwrite_r+0x474>
   4cc38:	a809883a 	mov	r4,r21
   4cc3c:	300b883a 	mov	r5,r6
   4cc40:	00430f00 	call	430f0 <_malloc_r>
   4cc44:	1009883a 	mov	r4,r2
   4cc48:	1000c526 	beq	r2,zero,4cf60 <__sfvwrite_r+0x4a4>
   4cc4c:	81400417 	ldw	r5,16(r16)
   4cc50:	900d883a 	mov	r6,r18
   4cc54:	0047f040 	call	47f04 <memcpy>
   4cc58:	1009883a 	mov	r4,r2
   4cc5c:	8080030b 	ldhu	r2,12(r16)
   4cc60:	00fedfc4 	movi	r3,-1153
   4cc64:	10c4703a 	and	r2,r2,r3
   4cc68:	10802014 	ori	r2,r2,128
   4cc6c:	8080030d 	sth	r2,12(r16)
   4cc70:	2491883a 	add	r8,r4,r18
   4cc74:	a485c83a 	sub	r2,r20,r18
   4cc78:	81000415 	stw	r4,16(r16)
   4cc7c:	82000015 	stw	r8,0(r16)
   4cc80:	85000515 	stw	r20,20(r16)
   4cc84:	9825883a 	mov	r18,r19
   4cc88:	80800215 	stw	r2,8(r16)
   4cc8c:	982f883a 	mov	r23,r19
   4cc90:	4009883a 	mov	r4,r8
   4cc94:	b80d883a 	mov	r6,r23
   4cc98:	e00b883a 	mov	r5,fp
   4cc9c:	004a5b00 	call	4a5b0 <memmove>
   4cca0:	81000217 	ldw	r4,8(r16)
   4cca4:	80800017 	ldw	r2,0(r16)
   4cca8:	9829883a 	mov	r20,r19
   4ccac:	24a5c83a 	sub	r18,r4,r18
   4ccb0:	15c5883a 	add	r2,r2,r23
   4ccb4:	84800215 	stw	r18,8(r16)
   4ccb8:	80800015 	stw	r2,0(r16)
   4ccbc:	0027883a 	mov	r19,zero
   4ccc0:	b0800217 	ldw	r2,8(r22)
   4ccc4:	e539883a 	add	fp,fp,r20
   4ccc8:	1529c83a 	sub	r20,r2,r20
   4cccc:	b5000215 	stw	r20,8(r22)
   4ccd0:	a0000826 	beq	r20,zero,4ccf4 <__sfvwrite_r+0x238>
   4ccd4:	81c0030b 	ldhu	r7,12(r16)
   4ccd8:	84800217 	ldw	r18,8(r16)
   4ccdc:	82000017 	ldw	r8,0(r16)
   4cce0:	983fc01e 	bne	r19,zero,4cbe4 <__sfvwrite_r+0x128>
   4cce4:	8f000017 	ldw	fp,0(r17)
   4cce8:	8cc00117 	ldw	r19,4(r17)
   4ccec:	8c400204 	addi	r17,r17,8
   4ccf0:	003fbb06 	br	4cbe0 <__sfvwrite_r+0x124>
   4ccf4:	0005883a 	mov	r2,zero
   4ccf8:	dfc00b17 	ldw	ra,44(sp)
   4ccfc:	df000a17 	ldw	fp,40(sp)
   4cd00:	ddc00917 	ldw	r23,36(sp)
   4cd04:	dd800817 	ldw	r22,32(sp)
   4cd08:	dd400717 	ldw	r21,28(sp)
   4cd0c:	dd000617 	ldw	r20,24(sp)
   4cd10:	dcc00517 	ldw	r19,20(sp)
   4cd14:	dc800417 	ldw	r18,16(sp)
   4cd18:	dc400317 	ldw	r17,12(sp)
   4cd1c:	dc000217 	ldw	r16,8(sp)
   4cd20:	dec00c04 	addi	sp,sp,48
   4cd24:	f800283a 	ret
   4cd28:	e1c07016 	blt	fp,r7,4ceec <__sfvwrite_r+0x430>
   4cd2c:	80800917 	ldw	r2,36(r16)
   4cd30:	81400717 	ldw	r5,28(r16)
   4cd34:	b80d883a 	mov	r6,r23
   4cd38:	a809883a 	mov	r4,r21
   4cd3c:	103ee83a 	callr	r2
   4cd40:	1025883a 	mov	r18,r2
   4cd44:	0080210e 	bge	zero,r2,4cdcc <__sfvwrite_r+0x310>
   4cd48:	a4a9c83a 	sub	r20,r20,r18
   4cd4c:	a0006226 	beq	r20,zero,4ced8 <__sfvwrite_r+0x41c>
   4cd50:	00800044 	movi	r2,1
   4cd54:	b1800217 	ldw	r6,8(r22)
   4cd58:	bcaf883a 	add	r23,r23,r18
   4cd5c:	9ca7c83a 	sub	r19,r19,r18
   4cd60:	34a5c83a 	sub	r18,r6,r18
   4cd64:	b4800215 	stw	r18,8(r22)
   4cd68:	903fe226 	beq	r18,zero,4ccf4 <__sfvwrite_r+0x238>
   4cd6c:	84800217 	ldw	r18,8(r16)
   4cd70:	82000017 	ldw	r8,0(r16)
   4cd74:	98002126 	beq	r19,zero,4cdfc <__sfvwrite_r+0x340>
   4cd78:	10002426 	beq	r2,zero,4ce0c <__sfvwrite_r+0x350>
   4cd7c:	a005883a 	mov	r2,r20
   4cd80:	9839883a 	mov	fp,r19
   4cd84:	14c0012e 	bgeu	r2,r19,4cd8c <__sfvwrite_r+0x2d0>
   4cd88:	1039883a 	mov	fp,r2
   4cd8c:	80800417 	ldw	r2,16(r16)
   4cd90:	81c00517 	ldw	r7,20(r16)
   4cd94:	123fe42e 	bgeu	r2,r8,4cd28 <__sfvwrite_r+0x26c>
   4cd98:	3ca5883a 	add	r18,r7,r18
   4cd9c:	973fe20e 	bge	r18,fp,4cd28 <__sfvwrite_r+0x26c>
   4cda0:	b80b883a 	mov	r5,r23
   4cda4:	4009883a 	mov	r4,r8
   4cda8:	900d883a 	mov	r6,r18
   4cdac:	004a5b00 	call	4a5b0 <memmove>
   4cdb0:	80800017 	ldw	r2,0(r16)
   4cdb4:	800b883a 	mov	r5,r16
   4cdb8:	a809883a 	mov	r4,r21
   4cdbc:	1485883a 	add	r2,r2,r18
   4cdc0:	80800015 	stw	r2,0(r16)
   4cdc4:	004c4f00 	call	4c4f0 <_fflush_r>
   4cdc8:	103fdf26 	beq	r2,zero,4cd48 <__sfvwrite_r+0x28c>
   4cdcc:	8080030b 	ldhu	r2,12(r16)
   4cdd0:	10801014 	ori	r2,r2,64
   4cdd4:	8080030d 	sth	r2,12(r16)
   4cdd8:	00bfffc4 	movi	r2,-1
   4cddc:	003fc606 	br	4ccf8 <__sfvwrite_r+0x23c>
   4cde0:	0005883a 	mov	r2,zero
   4cde4:	f800283a 	ret
   4cde8:	0027883a 	mov	r19,zero
   4cdec:	0029883a 	mov	r20,zero
   4cdf0:	0005883a 	mov	r2,zero
   4cdf4:	002f883a 	mov	r23,zero
   4cdf8:	983fdf1e 	bne	r19,zero,4cd78 <__sfvwrite_r+0x2bc>
   4cdfc:	8cc00117 	ldw	r19,4(r17)
   4ce00:	8dc00017 	ldw	r23,0(r17)
   4ce04:	8c400204 	addi	r17,r17,8
   4ce08:	983ffc26 	beq	r19,zero,4cdfc <__sfvwrite_r+0x340>
   4ce0c:	980d883a 	mov	r6,r19
   4ce10:	01400284 	movi	r5,10
   4ce14:	b809883a 	mov	r4,r23
   4ce18:	da000015 	stw	r8,0(sp)
   4ce1c:	0047e300 	call	47e30 <memchr>
   4ce20:	da000017 	ldw	r8,0(sp)
   4ce24:	10003f26 	beq	r2,zero,4cf24 <__sfvwrite_r+0x468>
   4ce28:	10800044 	addi	r2,r2,1
   4ce2c:	15e9c83a 	sub	r20,r2,r23
   4ce30:	003fd206 	br	4cd7c <__sfvwrite_r+0x2c0>
   4ce34:	80800417 	ldw	r2,16(r16)
   4ce38:	12001136 	bltu	r2,r8,4ce80 <__sfvwrite_r+0x3c4>
   4ce3c:	85000517 	ldw	r20,20(r16)
   4ce40:	9d000f36 	bltu	r19,r20,4ce80 <__sfvwrite_r+0x3c4>
   4ce44:	d8800017 	ldw	r2,0(sp)
   4ce48:	14c0342e 	bgeu	r2,r19,4cf1c <__sfvwrite_r+0x460>
   4ce4c:	d9000117 	ldw	r4,4(sp)
   4ce50:	a00b883a 	mov	r5,r20
   4ce54:	00427600 	call	42760 <__divsi3>
   4ce58:	150f383a 	mul	r7,r2,r20
   4ce5c:	82000917 	ldw	r8,36(r16)
   4ce60:	81400717 	ldw	r5,28(r16)
   4ce64:	e00d883a 	mov	r6,fp
   4ce68:	a809883a 	mov	r4,r21
   4ce6c:	403ee83a 	callr	r8
   4ce70:	1029883a 	mov	r20,r2
   4ce74:	00bfd50e 	bge	zero,r2,4cdcc <__sfvwrite_r+0x310>
   4ce78:	9d27c83a 	sub	r19,r19,r20
   4ce7c:	003f9006 	br	4ccc0 <__sfvwrite_r+0x204>
   4ce80:	9029883a 	mov	r20,r18
   4ce84:	9c80012e 	bgeu	r19,r18,4ce8c <__sfvwrite_r+0x3d0>
   4ce88:	9829883a 	mov	r20,r19
   4ce8c:	4009883a 	mov	r4,r8
   4ce90:	a00d883a 	mov	r6,r20
   4ce94:	e00b883a 	mov	r5,fp
   4ce98:	004a5b00 	call	4a5b0 <memmove>
   4ce9c:	80800217 	ldw	r2,8(r16)
   4cea0:	81000017 	ldw	r4,0(r16)
   4cea4:	1505c83a 	sub	r2,r2,r20
   4cea8:	2509883a 	add	r4,r4,r20
   4ceac:	80800215 	stw	r2,8(r16)
   4ceb0:	81000015 	stw	r4,0(r16)
   4ceb4:	103ff01e 	bne	r2,zero,4ce78 <__sfvwrite_r+0x3bc>
   4ceb8:	800b883a 	mov	r5,r16
   4cebc:	a809883a 	mov	r4,r21
   4cec0:	004c4f00 	call	4c4f0 <_fflush_r>
   4cec4:	103fec26 	beq	r2,zero,4ce78 <__sfvwrite_r+0x3bc>
   4cec8:	003fc006 	br	4cdcc <__sfvwrite_r+0x310>
   4cecc:	9825883a 	mov	r18,r19
   4ced0:	982f883a 	mov	r23,r19
   4ced4:	003f6e06 	br	4cc90 <__sfvwrite_r+0x1d4>
   4ced8:	800b883a 	mov	r5,r16
   4cedc:	a809883a 	mov	r4,r21
   4cee0:	004c4f00 	call	4c4f0 <_fflush_r>
   4cee4:	103f9b26 	beq	r2,zero,4cd54 <__sfvwrite_r+0x298>
   4cee8:	003fb806 	br	4cdcc <__sfvwrite_r+0x310>
   4ceec:	e00d883a 	mov	r6,fp
   4cef0:	b80b883a 	mov	r5,r23
   4cef4:	4009883a 	mov	r4,r8
   4cef8:	004a5b00 	call	4a5b0 <memmove>
   4cefc:	80800217 	ldw	r2,8(r16)
   4cf00:	81800017 	ldw	r6,0(r16)
   4cf04:	e025883a 	mov	r18,fp
   4cf08:	1705c83a 	sub	r2,r2,fp
   4cf0c:	370d883a 	add	r6,r6,fp
   4cf10:	80800215 	stw	r2,8(r16)
   4cf14:	81800015 	stw	r6,0(r16)
   4cf18:	003f8b06 	br	4cd48 <__sfvwrite_r+0x28c>
   4cf1c:	9809883a 	mov	r4,r19
   4cf20:	003fcb06 	br	4ce50 <__sfvwrite_r+0x394>
   4cf24:	98800044 	addi	r2,r19,1
   4cf28:	1029883a 	mov	r20,r2
   4cf2c:	003f9406 	br	4cd80 <__sfvwrite_r+0x2c4>
   4cf30:	a809883a 	mov	r4,r21
   4cf34:	004a6dc0 	call	4a6dc <_realloc_r>
   4cf38:	1009883a 	mov	r4,r2
   4cf3c:	103f4c1e 	bne	r2,zero,4cc70 <__sfvwrite_r+0x1b4>
   4cf40:	81400417 	ldw	r5,16(r16)
   4cf44:	a809883a 	mov	r4,r21
   4cf48:	0047b140 	call	47b14 <_free_r>
   4cf4c:	8080030b 	ldhu	r2,12(r16)
   4cf50:	00c00304 	movi	r3,12
   4cf54:	a8c00015 	stw	r3,0(r21)
   4cf58:	10bfdfcc 	andi	r2,r2,65407
   4cf5c:	003f9c06 	br	4cdd0 <__sfvwrite_r+0x314>
   4cf60:	00c00304 	movi	r3,12
   4cf64:	8080030b 	ldhu	r2,12(r16)
   4cf68:	a8c00015 	stw	r3,0(r21)
   4cf6c:	003f9806 	br	4cdd0 <__sfvwrite_r+0x314>
   4cf70:	00bfffc4 	movi	r2,-1
   4cf74:	003f6006 	br	4ccf8 <__sfvwrite_r+0x23c>

0004cf78 <_fwalk>:
   4cf78:	defffa04 	addi	sp,sp,-24
   4cf7c:	dd000415 	stw	r20,16(sp)
   4cf80:	dcc00315 	stw	r19,12(sp)
   4cf84:	dc800215 	stw	r18,8(sp)
   4cf88:	dfc00515 	stw	ra,20(sp)
   4cf8c:	dc400115 	stw	r17,4(sp)
   4cf90:	dc000015 	stw	r16,0(sp)
   4cf94:	2827883a 	mov	r19,r5
   4cf98:	2480b804 	addi	r18,r4,736
   4cf9c:	0029883a 	mov	r20,zero
   4cfa0:	94400117 	ldw	r17,4(r18)
   4cfa4:	94000217 	ldw	r16,8(r18)
   4cfa8:	8c7fffc4 	addi	r17,r17,-1
   4cfac:	88000d16 	blt	r17,zero,4cfe4 <_fwalk+0x6c>
   4cfb0:	8080030b 	ldhu	r2,12(r16)
   4cfb4:	8c7fffc4 	addi	r17,r17,-1
   4cfb8:	108000b0 	cmpltui	r2,r2,2
   4cfbc:	1000061e 	bne	r2,zero,4cfd8 <_fwalk+0x60>
   4cfc0:	8080038f 	ldh	r2,14(r16)
   4cfc4:	8009883a 	mov	r4,r16
   4cfc8:	10bfffe0 	cmpeqi	r2,r2,-1
   4cfcc:	1000021e 	bne	r2,zero,4cfd8 <_fwalk+0x60>
   4cfd0:	983ee83a 	callr	r19
   4cfd4:	a0a8b03a 	or	r20,r20,r2
   4cfd8:	88bfffd8 	cmpnei	r2,r17,-1
   4cfdc:	84001a04 	addi	r16,r16,104
   4cfe0:	103ff31e 	bne	r2,zero,4cfb0 <_fwalk+0x38>
   4cfe4:	94800017 	ldw	r18,0(r18)
   4cfe8:	903fed1e 	bne	r18,zero,4cfa0 <_fwalk+0x28>
   4cfec:	a005883a 	mov	r2,r20
   4cff0:	dfc00517 	ldw	ra,20(sp)
   4cff4:	dd000417 	ldw	r20,16(sp)
   4cff8:	dcc00317 	ldw	r19,12(sp)
   4cffc:	dc800217 	ldw	r18,8(sp)
   4d000:	dc400117 	ldw	r17,4(sp)
   4d004:	dc000017 	ldw	r16,0(sp)
   4d008:	dec00604 	addi	sp,sp,24
   4d00c:	f800283a 	ret

0004d010 <_fwalk_reent>:
   4d010:	defff904 	addi	sp,sp,-28
   4d014:	dd400515 	stw	r21,20(sp)
   4d018:	dd000415 	stw	r20,16(sp)
   4d01c:	dcc00315 	stw	r19,12(sp)
   4d020:	dc800215 	stw	r18,8(sp)
   4d024:	dfc00615 	stw	ra,24(sp)
   4d028:	dc400115 	stw	r17,4(sp)
   4d02c:	dc000015 	stw	r16,0(sp)
   4d030:	202b883a 	mov	r21,r4
   4d034:	2827883a 	mov	r19,r5
   4d038:	2480b804 	addi	r18,r4,736
   4d03c:	0029883a 	mov	r20,zero
   4d040:	94400117 	ldw	r17,4(r18)
   4d044:	94000217 	ldw	r16,8(r18)
   4d048:	8c7fffc4 	addi	r17,r17,-1
   4d04c:	88000e16 	blt	r17,zero,4d088 <_fwalk_reent+0x78>
   4d050:	8080030b 	ldhu	r2,12(r16)
   4d054:	8c7fffc4 	addi	r17,r17,-1
   4d058:	108000b0 	cmpltui	r2,r2,2
   4d05c:	1000071e 	bne	r2,zero,4d07c <_fwalk_reent+0x6c>
   4d060:	8080038f 	ldh	r2,14(r16)
   4d064:	800b883a 	mov	r5,r16
   4d068:	a809883a 	mov	r4,r21
   4d06c:	10bfffe0 	cmpeqi	r2,r2,-1
   4d070:	1000021e 	bne	r2,zero,4d07c <_fwalk_reent+0x6c>
   4d074:	983ee83a 	callr	r19
   4d078:	a0a8b03a 	or	r20,r20,r2
   4d07c:	88bfffd8 	cmpnei	r2,r17,-1
   4d080:	84001a04 	addi	r16,r16,104
   4d084:	103ff21e 	bne	r2,zero,4d050 <_fwalk_reent+0x40>
   4d088:	94800017 	ldw	r18,0(r18)
   4d08c:	903fec1e 	bne	r18,zero,4d040 <_fwalk_reent+0x30>
   4d090:	a005883a 	mov	r2,r20
   4d094:	dfc00617 	ldw	ra,24(sp)
   4d098:	dd400517 	ldw	r21,20(sp)
   4d09c:	dd000417 	ldw	r20,16(sp)
   4d0a0:	dcc00317 	ldw	r19,12(sp)
   4d0a4:	dc800217 	ldw	r18,8(sp)
   4d0a8:	dc400117 	ldw	r17,4(sp)
   4d0ac:	dc000017 	ldw	r16,0(sp)
   4d0b0:	dec00704 	addi	sp,sp,28
   4d0b4:	f800283a 	ret

0004d0b8 <__swhatbuf_r>:
   4d0b8:	deffea04 	addi	sp,sp,-88
   4d0bc:	dc001215 	stw	r16,72(sp)
   4d0c0:	2821883a 	mov	r16,r5
   4d0c4:	2940038f 	ldh	r5,14(r5)
   4d0c8:	dc801415 	stw	r18,80(sp)
   4d0cc:	dc401315 	stw	r17,76(sp)
   4d0d0:	dfc01515 	stw	ra,84(sp)
   4d0d4:	3023883a 	mov	r17,r6
   4d0d8:	3825883a 	mov	r18,r7
   4d0dc:	28001016 	blt	r5,zero,4d120 <__swhatbuf_r+0x68>
   4d0e0:	d80d883a 	mov	r6,sp
   4d0e4:	004d7e80 	call	4d7e8 <_fstat_r>
   4d0e8:	10000d16 	blt	r2,zero,4d120 <__swhatbuf_r+0x68>
   4d0ec:	d8c00117 	ldw	r3,4(sp)
   4d0f0:	00820004 	movi	r2,2048
   4d0f4:	18fc000c 	andi	r3,r3,61440
   4d0f8:	18c80020 	cmpeqi	r3,r3,8192
   4d0fc:	90c00015 	stw	r3,0(r18)
   4d100:	00c10004 	movi	r3,1024
   4d104:	88c00015 	stw	r3,0(r17)
   4d108:	dfc01517 	ldw	ra,84(sp)
   4d10c:	dc801417 	ldw	r18,80(sp)
   4d110:	dc401317 	ldw	r17,76(sp)
   4d114:	dc001217 	ldw	r16,72(sp)
   4d118:	dec01604 	addi	sp,sp,88
   4d11c:	f800283a 	ret
   4d120:	8080030b 	ldhu	r2,12(r16)
   4d124:	90000015 	stw	zero,0(r18)
   4d128:	1080200c 	andi	r2,r2,128
   4d12c:	10000426 	beq	r2,zero,4d140 <__swhatbuf_r+0x88>
   4d130:	00801004 	movi	r2,64
   4d134:	88800015 	stw	r2,0(r17)
   4d138:	0005883a 	mov	r2,zero
   4d13c:	003ff206 	br	4d108 <__swhatbuf_r+0x50>
   4d140:	00810004 	movi	r2,1024
   4d144:	88800015 	stw	r2,0(r17)
   4d148:	0005883a 	mov	r2,zero
   4d14c:	003fee06 	br	4d108 <__swhatbuf_r+0x50>

0004d150 <__smakebuf_r>:
   4d150:	2880030b 	ldhu	r2,12(r5)
   4d154:	defffa04 	addi	sp,sp,-24
   4d158:	dc000215 	stw	r16,8(sp)
   4d15c:	dfc00515 	stw	ra,20(sp)
   4d160:	dc800415 	stw	r18,16(sp)
   4d164:	dc400315 	stw	r17,12(sp)
   4d168:	1080008c 	andi	r2,r2,2
   4d16c:	2821883a 	mov	r16,r5
   4d170:	10000b26 	beq	r2,zero,4d1a0 <__smakebuf_r+0x50>
   4d174:	288010c4 	addi	r2,r5,67
   4d178:	28800015 	stw	r2,0(r5)
   4d17c:	28800415 	stw	r2,16(r5)
   4d180:	00800044 	movi	r2,1
   4d184:	28800515 	stw	r2,20(r5)
   4d188:	dfc00517 	ldw	ra,20(sp)
   4d18c:	dc800417 	ldw	r18,16(sp)
   4d190:	dc400317 	ldw	r17,12(sp)
   4d194:	dc000217 	ldw	r16,8(sp)
   4d198:	dec00604 	addi	sp,sp,24
   4d19c:	f800283a 	ret
   4d1a0:	d9c00104 	addi	r7,sp,4
   4d1a4:	d80d883a 	mov	r6,sp
   4d1a8:	2023883a 	mov	r17,r4
   4d1ac:	004d0b80 	call	4d0b8 <__swhatbuf_r>
   4d1b0:	d9000117 	ldw	r4,4(sp)
   4d1b4:	1025883a 	mov	r18,r2
   4d1b8:	2000131e 	bne	r4,zero,4d208 <__smakebuf_r+0xb8>
   4d1bc:	d9400017 	ldw	r5,0(sp)
   4d1c0:	8809883a 	mov	r4,r17
   4d1c4:	00430f00 	call	430f0 <_malloc_r>
   4d1c8:	10001c26 	beq	r2,zero,4d23c <__smakebuf_r+0xec>
   4d1cc:	01000174 	movhi	r4,5
   4d1d0:	21316004 	addi	r4,r4,-14976
   4d1d4:	80c0030b 	ldhu	r3,12(r16)
   4d1d8:	89000f15 	stw	r4,60(r17)
   4d1dc:	80800015 	stw	r2,0(r16)
   4d1e0:	80800415 	stw	r2,16(r16)
   4d1e4:	d8800017 	ldw	r2,0(sp)
   4d1e8:	d9400117 	ldw	r5,4(sp)
   4d1ec:	18c02014 	ori	r3,r3,128
   4d1f0:	80c0030d 	sth	r3,12(r16)
   4d1f4:	80800515 	stw	r2,20(r16)
   4d1f8:	28001d1e 	bne	r5,zero,4d270 <__smakebuf_r+0x120>
   4d1fc:	90c6b03a 	or	r3,r18,r3
   4d200:	80c0030d 	sth	r3,12(r16)
   4d204:	003fe006 	br	4d188 <__smakebuf_r+0x38>
   4d208:	8140038f 	ldh	r5,14(r16)
   4d20c:	8809883a 	mov	r4,r17
   4d210:	004d8480 	call	4d848 <_isatty_r>
   4d214:	103fe926 	beq	r2,zero,4d1bc <__smakebuf_r+0x6c>
   4d218:	8080030b 	ldhu	r2,12(r16)
   4d21c:	80c010c4 	addi	r3,r16,67
   4d220:	80c00015 	stw	r3,0(r16)
   4d224:	10800054 	ori	r2,r2,1
   4d228:	8080030d 	sth	r2,12(r16)
   4d22c:	00800044 	movi	r2,1
   4d230:	80c00415 	stw	r3,16(r16)
   4d234:	80800515 	stw	r2,20(r16)
   4d238:	003fe006 	br	4d1bc <__smakebuf_r+0x6c>
   4d23c:	8080030b 	ldhu	r2,12(r16)
   4d240:	10c0800c 	andi	r3,r2,512
   4d244:	183fd01e 	bne	r3,zero,4d188 <__smakebuf_r+0x38>
   4d248:	00ffff04 	movi	r3,-4
   4d24c:	10c4703a 	and	r2,r2,r3
   4d250:	10800094 	ori	r2,r2,2
   4d254:	80c010c4 	addi	r3,r16,67
   4d258:	8080030d 	sth	r2,12(r16)
   4d25c:	00800044 	movi	r2,1
   4d260:	80c00015 	stw	r3,0(r16)
   4d264:	80c00415 	stw	r3,16(r16)
   4d268:	80800515 	stw	r2,20(r16)
   4d26c:	003fc606 	br	4d188 <__smakebuf_r+0x38>
   4d270:	8140038f 	ldh	r5,14(r16)
   4d274:	8809883a 	mov	r4,r17
   4d278:	004d8480 	call	4d848 <_isatty_r>
   4d27c:	80c0030b 	ldhu	r3,12(r16)
   4d280:	103fde26 	beq	r2,zero,4d1fc <__smakebuf_r+0xac>
   4d284:	18ffff0c 	andi	r3,r3,65532
   4d288:	18c00054 	ori	r3,r3,1
   4d28c:	003fdb06 	br	4d1fc <__smakebuf_r+0xac>

0004d290 <__sread>:
   4d290:	defffe04 	addi	sp,sp,-8
   4d294:	dc000015 	stw	r16,0(sp)
   4d298:	2821883a 	mov	r16,r5
   4d29c:	2940038f 	ldh	r5,14(r5)
   4d2a0:	dfc00115 	stw	ra,4(sp)
   4d2a4:	004d9040 	call	4d904 <_read_r>
   4d2a8:	10000716 	blt	r2,zero,4d2c8 <__sread+0x38>
   4d2ac:	80c01417 	ldw	r3,80(r16)
   4d2b0:	1887883a 	add	r3,r3,r2
   4d2b4:	80c01415 	stw	r3,80(r16)
   4d2b8:	dfc00117 	ldw	ra,4(sp)
   4d2bc:	dc000017 	ldw	r16,0(sp)
   4d2c0:	dec00204 	addi	sp,sp,8
   4d2c4:	f800283a 	ret
   4d2c8:	80c0030b 	ldhu	r3,12(r16)
   4d2cc:	18fbffcc 	andi	r3,r3,61439
   4d2d0:	80c0030d 	sth	r3,12(r16)
   4d2d4:	dfc00117 	ldw	ra,4(sp)
   4d2d8:	dc000017 	ldw	r16,0(sp)
   4d2dc:	dec00204 	addi	sp,sp,8
   4d2e0:	f800283a 	ret

0004d2e4 <__seofread>:
   4d2e4:	0005883a 	mov	r2,zero
   4d2e8:	f800283a 	ret

0004d2ec <__swrite>:
   4d2ec:	2880030b 	ldhu	r2,12(r5)
   4d2f0:	defffb04 	addi	sp,sp,-20
   4d2f4:	dcc00315 	stw	r19,12(sp)
   4d2f8:	dc800215 	stw	r18,8(sp)
   4d2fc:	dc400115 	stw	r17,4(sp)
   4d300:	dc000015 	stw	r16,0(sp)
   4d304:	dfc00415 	stw	ra,16(sp)
   4d308:	10c0400c 	andi	r3,r2,256
   4d30c:	2821883a 	mov	r16,r5
   4d310:	2023883a 	mov	r17,r4
   4d314:	2940038f 	ldh	r5,14(r5)
   4d318:	3025883a 	mov	r18,r6
   4d31c:	3827883a 	mov	r19,r7
   4d320:	18000c1e 	bne	r3,zero,4d354 <__swrite+0x68>
   4d324:	10bbffcc 	andi	r2,r2,61439
   4d328:	980f883a 	mov	r7,r19
   4d32c:	900d883a 	mov	r6,r18
   4d330:	8809883a 	mov	r4,r17
   4d334:	8080030d 	sth	r2,12(r16)
   4d338:	dfc00417 	ldw	ra,16(sp)
   4d33c:	dcc00317 	ldw	r19,12(sp)
   4d340:	dc800217 	ldw	r18,8(sp)
   4d344:	dc400117 	ldw	r17,4(sp)
   4d348:	dc000017 	ldw	r16,0(sp)
   4d34c:	dec00504 	addi	sp,sp,20
   4d350:	004d6241 	jmpi	4d624 <_write_r>
   4d354:	01c00084 	movi	r7,2
   4d358:	000d883a 	mov	r6,zero
   4d35c:	004d8a00 	call	4d8a0 <_lseek_r>
   4d360:	8080030b 	ldhu	r2,12(r16)
   4d364:	8140038f 	ldh	r5,14(r16)
   4d368:	003fee06 	br	4d324 <__swrite+0x38>

0004d36c <__sseek>:
   4d36c:	defffe04 	addi	sp,sp,-8
   4d370:	dc000015 	stw	r16,0(sp)
   4d374:	2821883a 	mov	r16,r5
   4d378:	2940038f 	ldh	r5,14(r5)
   4d37c:	dfc00115 	stw	ra,4(sp)
   4d380:	004d8a00 	call	4d8a0 <_lseek_r>
   4d384:	10ffffd8 	cmpnei	r3,r2,-1
   4d388:	18000826 	beq	r3,zero,4d3ac <__sseek+0x40>
   4d38c:	80c0030b 	ldhu	r3,12(r16)
   4d390:	80801415 	stw	r2,80(r16)
   4d394:	18c40014 	ori	r3,r3,4096
   4d398:	80c0030d 	sth	r3,12(r16)
   4d39c:	dfc00117 	ldw	ra,4(sp)
   4d3a0:	dc000017 	ldw	r16,0(sp)
   4d3a4:	dec00204 	addi	sp,sp,8
   4d3a8:	f800283a 	ret
   4d3ac:	80c0030b 	ldhu	r3,12(r16)
   4d3b0:	18fbffcc 	andi	r3,r3,61439
   4d3b4:	80c0030d 	sth	r3,12(r16)
   4d3b8:	dfc00117 	ldw	ra,4(sp)
   4d3bc:	dc000017 	ldw	r16,0(sp)
   4d3c0:	dec00204 	addi	sp,sp,8
   4d3c4:	f800283a 	ret

0004d3c8 <__sclose>:
   4d3c8:	2940038f 	ldh	r5,14(r5)
   4d3cc:	004d6881 	jmpi	4d688 <_close_r>

0004d3d0 <__swbuf_r>:
   4d3d0:	defffb04 	addi	sp,sp,-20
   4d3d4:	dcc00315 	stw	r19,12(sp)
   4d3d8:	dc400115 	stw	r17,4(sp)
   4d3dc:	dc000015 	stw	r16,0(sp)
   4d3e0:	dfc00415 	stw	ra,16(sp)
   4d3e4:	dc800215 	stw	r18,8(sp)
   4d3e8:	2027883a 	mov	r19,r4
   4d3ec:	2823883a 	mov	r17,r5
   4d3f0:	3021883a 	mov	r16,r6
   4d3f4:	20000226 	beq	r4,zero,4d400 <__swbuf_r+0x30>
   4d3f8:	20800e17 	ldw	r2,56(r4)
   4d3fc:	10003e26 	beq	r2,zero,4d4f8 <__swbuf_r+0x128>
   4d400:	80800617 	ldw	r2,24(r16)
   4d404:	80c0030b 	ldhu	r3,12(r16)
   4d408:	80800215 	stw	r2,8(r16)
   4d40c:	1880020c 	andi	r2,r3,8
   4d410:	10001f26 	beq	r2,zero,4d490 <__swbuf_r+0xc0>
   4d414:	80800417 	ldw	r2,16(r16)
   4d418:	10001d26 	beq	r2,zero,4d490 <__swbuf_r+0xc0>
   4d41c:	1948000c 	andi	r5,r3,8192
   4d420:	8c803fcc 	andi	r18,r17,255
   4d424:	28002326 	beq	r5,zero,4d4b4 <__swbuf_r+0xe4>
   4d428:	80c00017 	ldw	r3,0(r16)
   4d42c:	81000517 	ldw	r4,20(r16)
   4d430:	1885c83a 	sub	r2,r3,r2
   4d434:	1100290e 	bge	r2,r4,4d4dc <__swbuf_r+0x10c>
   4d438:	10800044 	addi	r2,r2,1
   4d43c:	81400217 	ldw	r5,8(r16)
   4d440:	19000044 	addi	r4,r3,1
   4d444:	81000015 	stw	r4,0(r16)
   4d448:	297fffc4 	addi	r5,r5,-1
   4d44c:	81400215 	stw	r5,8(r16)
   4d450:	1c400005 	stb	r17,0(r3)
   4d454:	80c00517 	ldw	r3,20(r16)
   4d458:	18802926 	beq	r3,r2,4d500 <__swbuf_r+0x130>
   4d45c:	8080030b 	ldhu	r2,12(r16)
   4d460:	1080004c 	andi	r2,r2,1
   4d464:	10000226 	beq	r2,zero,4d470 <__swbuf_r+0xa0>
   4d468:	90800298 	cmpnei	r2,r18,10
   4d46c:	10002426 	beq	r2,zero,4d500 <__swbuf_r+0x130>
   4d470:	9005883a 	mov	r2,r18
   4d474:	dfc00417 	ldw	ra,16(sp)
   4d478:	dcc00317 	ldw	r19,12(sp)
   4d47c:	dc800217 	ldw	r18,8(sp)
   4d480:	dc400117 	ldw	r17,4(sp)
   4d484:	dc000017 	ldw	r16,0(sp)
   4d488:	dec00504 	addi	sp,sp,20
   4d48c:	f800283a 	ret
   4d490:	800b883a 	mov	r5,r16
   4d494:	9809883a 	mov	r4,r19
   4d498:	004c16c0 	call	4c16c <__swsetup_r>
   4d49c:	10001c1e 	bne	r2,zero,4d510 <__swbuf_r+0x140>
   4d4a0:	80c0030b 	ldhu	r3,12(r16)
   4d4a4:	80800417 	ldw	r2,16(r16)
   4d4a8:	8c803fcc 	andi	r18,r17,255
   4d4ac:	1948000c 	andi	r5,r3,8192
   4d4b0:	283fdd1e 	bne	r5,zero,4d428 <__swbuf_r+0x58>
   4d4b4:	81001917 	ldw	r4,100(r16)
   4d4b8:	18c80014 	ori	r3,r3,8192
   4d4bc:	0177ffc4 	movi	r5,-8193
   4d4c0:	2148703a 	and	r4,r4,r5
   4d4c4:	80c0030d 	sth	r3,12(r16)
   4d4c8:	80c00017 	ldw	r3,0(r16)
   4d4cc:	81001915 	stw	r4,100(r16)
   4d4d0:	81000517 	ldw	r4,20(r16)
   4d4d4:	1885c83a 	sub	r2,r3,r2
   4d4d8:	113fd716 	blt	r2,r4,4d438 <__swbuf_r+0x68>
   4d4dc:	800b883a 	mov	r5,r16
   4d4e0:	9809883a 	mov	r4,r19
   4d4e4:	004c4f00 	call	4c4f0 <_fflush_r>
   4d4e8:	1000091e 	bne	r2,zero,4d510 <__swbuf_r+0x140>
   4d4ec:	80c00017 	ldw	r3,0(r16)
   4d4f0:	00800044 	movi	r2,1
   4d4f4:	003fd106 	br	4d43c <__swbuf_r+0x6c>
   4d4f8:	004c8740 	call	4c874 <__sinit>
   4d4fc:	003fc006 	br	4d400 <__swbuf_r+0x30>
   4d500:	800b883a 	mov	r5,r16
   4d504:	9809883a 	mov	r4,r19
   4d508:	004c4f00 	call	4c4f0 <_fflush_r>
   4d50c:	103fd826 	beq	r2,zero,4d470 <__swbuf_r+0xa0>
   4d510:	04bfffc4 	movi	r18,-1
   4d514:	003fd606 	br	4d470 <__swbuf_r+0xa0>

0004d518 <__swbuf>:
   4d518:	00c00174 	movhi	r3,5
   4d51c:	2005883a 	mov	r2,r4
   4d520:	19158317 	ldw	r4,22028(r3)
   4d524:	280d883a 	mov	r6,r5
   4d528:	100b883a 	mov	r5,r2
   4d52c:	004d3d01 	jmpi	4d3d0 <__swbuf_r>

0004d530 <_wcrtomb_r>:
   4d530:	defffa04 	addi	sp,sp,-24
   4d534:	dc400415 	stw	r17,16(sp)
   4d538:	dc000315 	stw	r16,12(sp)
   4d53c:	00800174 	movhi	r2,5
   4d540:	dfc00515 	stw	ra,20(sp)
   4d544:	1090d017 	ldw	r2,17216(r2)
   4d548:	2023883a 	mov	r17,r4
   4d54c:	3821883a 	mov	r16,r7
   4d550:	28000826 	beq	r5,zero,4d574 <_wcrtomb_r+0x44>
   4d554:	103ee83a 	callr	r2
   4d558:	10ffffd8 	cmpnei	r3,r2,-1
   4d55c:	18000a26 	beq	r3,zero,4d588 <_wcrtomb_r+0x58>
   4d560:	dfc00517 	ldw	ra,20(sp)
   4d564:	dc400417 	ldw	r17,16(sp)
   4d568:	dc000317 	ldw	r16,12(sp)
   4d56c:	dec00604 	addi	sp,sp,24
   4d570:	f800283a 	ret
   4d574:	000d883a 	mov	r6,zero
   4d578:	d9400084 	addi	r5,sp,2
   4d57c:	103ee83a 	callr	r2
   4d580:	10ffffd8 	cmpnei	r3,r2,-1
   4d584:	183ff61e 	bne	r3,zero,4d560 <_wcrtomb_r+0x30>
   4d588:	00802284 	movi	r2,138
   4d58c:	80000015 	stw	zero,0(r16)
   4d590:	88800015 	stw	r2,0(r17)
   4d594:	00bfffc4 	movi	r2,-1
   4d598:	003ff106 	br	4d560 <_wcrtomb_r+0x30>

0004d59c <wcrtomb>:
   4d59c:	defffa04 	addi	sp,sp,-24
   4d5a0:	00c00174 	movhi	r3,5
   4d5a4:	dc400415 	stw	r17,16(sp)
   4d5a8:	dc000315 	stw	r16,12(sp)
   4d5ac:	1c558317 	ldw	r17,22028(r3)
   4d5b0:	dfc00515 	stw	ra,20(sp)
   4d5b4:	00c00174 	movhi	r3,5
   4d5b8:	18d0d017 	ldw	r3,17216(r3)
   4d5bc:	3021883a 	mov	r16,r6
   4d5c0:	20000c26 	beq	r4,zero,4d5f4 <wcrtomb+0x58>
   4d5c4:	280d883a 	mov	r6,r5
   4d5c8:	800f883a 	mov	r7,r16
   4d5cc:	200b883a 	mov	r5,r4
   4d5d0:	8809883a 	mov	r4,r17
   4d5d4:	183ee83a 	callr	r3
   4d5d8:	10ffffd8 	cmpnei	r3,r2,-1
   4d5dc:	18000c26 	beq	r3,zero,4d610 <wcrtomb+0x74>
   4d5e0:	dfc00517 	ldw	ra,20(sp)
   4d5e4:	dc400417 	ldw	r17,16(sp)
   4d5e8:	dc000317 	ldw	r16,12(sp)
   4d5ec:	dec00604 	addi	sp,sp,24
   4d5f0:	f800283a 	ret
   4d5f4:	300f883a 	mov	r7,r6
   4d5f8:	d9400084 	addi	r5,sp,2
   4d5fc:	000d883a 	mov	r6,zero
   4d600:	8809883a 	mov	r4,r17
   4d604:	183ee83a 	callr	r3
   4d608:	10ffffd8 	cmpnei	r3,r2,-1
   4d60c:	183ff41e 	bne	r3,zero,4d5e0 <wcrtomb+0x44>
   4d610:	00802284 	movi	r2,138
   4d614:	80000015 	stw	zero,0(r16)
   4d618:	88800015 	stw	r2,0(r17)
   4d61c:	00bfffc4 	movi	r2,-1
   4d620:	003fef06 	br	4d5e0 <wcrtomb+0x44>

0004d624 <_write_r>:
   4d624:	2807883a 	mov	r3,r5
   4d628:	defffe04 	addi	sp,sp,-8
   4d62c:	dc000015 	stw	r16,0(sp)
   4d630:	300b883a 	mov	r5,r6
   4d634:	00800174 	movhi	r2,5
   4d638:	380d883a 	mov	r6,r7
   4d63c:	2021883a 	mov	r16,r4
   4d640:	1809883a 	mov	r4,r3
   4d644:	dfc00115 	stw	ra,4(sp)
   4d648:	101c9715 	stw	zero,29276(r2)
   4d64c:	00514300 	call	51430 <write>
   4d650:	10ffffd8 	cmpnei	r3,r2,-1
   4d654:	18000426 	beq	r3,zero,4d668 <_write_r+0x44>
   4d658:	dfc00117 	ldw	ra,4(sp)
   4d65c:	dc000017 	ldw	r16,0(sp)
   4d660:	dec00204 	addi	sp,sp,8
   4d664:	f800283a 	ret
   4d668:	00c00174 	movhi	r3,5
   4d66c:	18dc9717 	ldw	r3,29276(r3)
   4d670:	183ff926 	beq	r3,zero,4d658 <_write_r+0x34>
   4d674:	80c00015 	stw	r3,0(r16)
   4d678:	dfc00117 	ldw	ra,4(sp)
   4d67c:	dc000017 	ldw	r16,0(sp)
   4d680:	dec00204 	addi	sp,sp,8
   4d684:	f800283a 	ret

0004d688 <_close_r>:
   4d688:	defffe04 	addi	sp,sp,-8
   4d68c:	dc000015 	stw	r16,0(sp)
   4d690:	00800174 	movhi	r2,5
   4d694:	2021883a 	mov	r16,r4
   4d698:	2809883a 	mov	r4,r5
   4d69c:	dfc00115 	stw	ra,4(sp)
   4d6a0:	101c9715 	stw	zero,29276(r2)
   4d6a4:	0050a640 	call	50a64 <close>
   4d6a8:	10ffffd8 	cmpnei	r3,r2,-1
   4d6ac:	18000426 	beq	r3,zero,4d6c0 <_close_r+0x38>
   4d6b0:	dfc00117 	ldw	ra,4(sp)
   4d6b4:	dc000017 	ldw	r16,0(sp)
   4d6b8:	dec00204 	addi	sp,sp,8
   4d6bc:	f800283a 	ret
   4d6c0:	00c00174 	movhi	r3,5
   4d6c4:	18dc9717 	ldw	r3,29276(r3)
   4d6c8:	183ff926 	beq	r3,zero,4d6b0 <_close_r+0x28>
   4d6cc:	80c00015 	stw	r3,0(r16)
   4d6d0:	dfc00117 	ldw	ra,4(sp)
   4d6d4:	dc000017 	ldw	r16,0(sp)
   4d6d8:	dec00204 	addi	sp,sp,8
   4d6dc:	f800283a 	ret

0004d6e0 <_fclose_r>:
   4d6e0:	defffc04 	addi	sp,sp,-16
   4d6e4:	dfc00315 	stw	ra,12(sp)
   4d6e8:	dc800215 	stw	r18,8(sp)
   4d6ec:	dc400115 	stw	r17,4(sp)
   4d6f0:	dc000015 	stw	r16,0(sp)
   4d6f4:	28000726 	beq	r5,zero,4d714 <_fclose_r+0x34>
   4d6f8:	2821883a 	mov	r16,r5
   4d6fc:	2023883a 	mov	r17,r4
   4d700:	20000226 	beq	r4,zero,4d70c <_fclose_r+0x2c>
   4d704:	20800e17 	ldw	r2,56(r4)
   4d708:	10002726 	beq	r2,zero,4d7a8 <_fclose_r+0xc8>
   4d70c:	8080030f 	ldh	r2,12(r16)
   4d710:	1000081e 	bne	r2,zero,4d734 <_fclose_r+0x54>
   4d714:	0025883a 	mov	r18,zero
   4d718:	9005883a 	mov	r2,r18
   4d71c:	dfc00317 	ldw	ra,12(sp)
   4d720:	dc800217 	ldw	r18,8(sp)
   4d724:	dc400117 	ldw	r17,4(sp)
   4d728:	dc000017 	ldw	r16,0(sp)
   4d72c:	dec00404 	addi	sp,sp,16
   4d730:	f800283a 	ret
   4d734:	800b883a 	mov	r5,r16
   4d738:	8809883a 	mov	r4,r17
   4d73c:	004c2c80 	call	4c2c8 <__sflush_r>
   4d740:	80c00b17 	ldw	r3,44(r16)
   4d744:	1025883a 	mov	r18,r2
   4d748:	18000426 	beq	r3,zero,4d75c <_fclose_r+0x7c>
   4d74c:	81400717 	ldw	r5,28(r16)
   4d750:	8809883a 	mov	r4,r17
   4d754:	183ee83a 	callr	r3
   4d758:	10001716 	blt	r2,zero,4d7b8 <_fclose_r+0xd8>
   4d75c:	8080030b 	ldhu	r2,12(r16)
   4d760:	1080200c 	andi	r2,r2,128
   4d764:	1000181e 	bne	r2,zero,4d7c8 <_fclose_r+0xe8>
   4d768:	81400c17 	ldw	r5,48(r16)
   4d76c:	28000526 	beq	r5,zero,4d784 <_fclose_r+0xa4>
   4d770:	80801004 	addi	r2,r16,64
   4d774:	28800226 	beq	r5,r2,4d780 <_fclose_r+0xa0>
   4d778:	8809883a 	mov	r4,r17
   4d77c:	0047b140 	call	47b14 <_free_r>
   4d780:	80000c15 	stw	zero,48(r16)
   4d784:	81401117 	ldw	r5,68(r16)
   4d788:	28000326 	beq	r5,zero,4d798 <_fclose_r+0xb8>
   4d78c:	8809883a 	mov	r4,r17
   4d790:	0047b140 	call	47b14 <_free_r>
   4d794:	80001115 	stw	zero,68(r16)
   4d798:	004c8840 	call	4c884 <__sfp_lock_acquire>
   4d79c:	8000030d 	sth	zero,12(r16)
   4d7a0:	004c8880 	call	4c888 <__sfp_lock_release>
   4d7a4:	003fdc06 	br	4d718 <_fclose_r+0x38>
   4d7a8:	004c8740 	call	4c874 <__sinit>
   4d7ac:	8080030f 	ldh	r2,12(r16)
   4d7b0:	103fd826 	beq	r2,zero,4d714 <_fclose_r+0x34>
   4d7b4:	003fdf06 	br	4d734 <_fclose_r+0x54>
   4d7b8:	8080030b 	ldhu	r2,12(r16)
   4d7bc:	04bfffc4 	movi	r18,-1
   4d7c0:	1080200c 	andi	r2,r2,128
   4d7c4:	103fe826 	beq	r2,zero,4d768 <_fclose_r+0x88>
   4d7c8:	81400417 	ldw	r5,16(r16)
   4d7cc:	8809883a 	mov	r4,r17
   4d7d0:	0047b140 	call	47b14 <_free_r>
   4d7d4:	003fe406 	br	4d768 <_fclose_r+0x88>

0004d7d8 <fclose>:
   4d7d8:	00800174 	movhi	r2,5
   4d7dc:	200b883a 	mov	r5,r4
   4d7e0:	11158317 	ldw	r4,22028(r2)
   4d7e4:	004d6e01 	jmpi	4d6e0 <_fclose_r>

0004d7e8 <_fstat_r>:
   4d7e8:	2807883a 	mov	r3,r5
   4d7ec:	defffe04 	addi	sp,sp,-8
   4d7f0:	dc000015 	stw	r16,0(sp)
   4d7f4:	00800174 	movhi	r2,5
   4d7f8:	300b883a 	mov	r5,r6
   4d7fc:	2021883a 	mov	r16,r4
   4d800:	1809883a 	mov	r4,r3
   4d804:	dfc00115 	stw	ra,4(sp)
   4d808:	101c9715 	stw	zero,29276(r2)
   4d80c:	0050bd40 	call	50bd4 <fstat>
   4d810:	10ffffd8 	cmpnei	r3,r2,-1
   4d814:	18000426 	beq	r3,zero,4d828 <_fstat_r+0x40>
   4d818:	dfc00117 	ldw	ra,4(sp)
   4d81c:	dc000017 	ldw	r16,0(sp)
   4d820:	dec00204 	addi	sp,sp,8
   4d824:	f800283a 	ret
   4d828:	00c00174 	movhi	r3,5
   4d82c:	18dc9717 	ldw	r3,29276(r3)
   4d830:	183ff926 	beq	r3,zero,4d818 <_fstat_r+0x30>
   4d834:	80c00015 	stw	r3,0(r16)
   4d838:	dfc00117 	ldw	ra,4(sp)
   4d83c:	dc000017 	ldw	r16,0(sp)
   4d840:	dec00204 	addi	sp,sp,8
   4d844:	f800283a 	ret

0004d848 <_isatty_r>:
   4d848:	defffe04 	addi	sp,sp,-8
   4d84c:	dc000015 	stw	r16,0(sp)
   4d850:	00800174 	movhi	r2,5
   4d854:	2021883a 	mov	r16,r4
   4d858:	2809883a 	mov	r4,r5
   4d85c:	dfc00115 	stw	ra,4(sp)
   4d860:	101c9715 	stw	zero,29276(r2)
   4d864:	0050ce00 	call	50ce0 <isatty>
   4d868:	10ffffd8 	cmpnei	r3,r2,-1
   4d86c:	18000426 	beq	r3,zero,4d880 <_isatty_r+0x38>
   4d870:	dfc00117 	ldw	ra,4(sp)
   4d874:	dc000017 	ldw	r16,0(sp)
   4d878:	dec00204 	addi	sp,sp,8
   4d87c:	f800283a 	ret
   4d880:	00c00174 	movhi	r3,5
   4d884:	18dc9717 	ldw	r3,29276(r3)
   4d888:	183ff926 	beq	r3,zero,4d870 <_isatty_r+0x28>
   4d88c:	80c00015 	stw	r3,0(r16)
   4d890:	dfc00117 	ldw	ra,4(sp)
   4d894:	dc000017 	ldw	r16,0(sp)
   4d898:	dec00204 	addi	sp,sp,8
   4d89c:	f800283a 	ret

0004d8a0 <_lseek_r>:
   4d8a0:	2807883a 	mov	r3,r5
   4d8a4:	defffe04 	addi	sp,sp,-8
   4d8a8:	dc000015 	stw	r16,0(sp)
   4d8ac:	300b883a 	mov	r5,r6
   4d8b0:	00800174 	movhi	r2,5
   4d8b4:	380d883a 	mov	r6,r7
   4d8b8:	2021883a 	mov	r16,r4
   4d8bc:	1809883a 	mov	r4,r3
   4d8c0:	dfc00115 	stw	ra,4(sp)
   4d8c4:	101c9715 	stw	zero,29276(r2)
   4d8c8:	00510140 	call	51014 <lseek>
   4d8cc:	10ffffd8 	cmpnei	r3,r2,-1
   4d8d0:	18000426 	beq	r3,zero,4d8e4 <_lseek_r+0x44>
   4d8d4:	dfc00117 	ldw	ra,4(sp)
   4d8d8:	dc000017 	ldw	r16,0(sp)
   4d8dc:	dec00204 	addi	sp,sp,8
   4d8e0:	f800283a 	ret
   4d8e4:	00c00174 	movhi	r3,5
   4d8e8:	18dc9717 	ldw	r3,29276(r3)
   4d8ec:	183ff926 	beq	r3,zero,4d8d4 <_lseek_r+0x34>
   4d8f0:	80c00015 	stw	r3,0(r16)
   4d8f4:	dfc00117 	ldw	ra,4(sp)
   4d8f8:	dc000017 	ldw	r16,0(sp)
   4d8fc:	dec00204 	addi	sp,sp,8
   4d900:	f800283a 	ret

0004d904 <_read_r>:
   4d904:	2807883a 	mov	r3,r5
   4d908:	defffe04 	addi	sp,sp,-8
   4d90c:	dc000015 	stw	r16,0(sp)
   4d910:	300b883a 	mov	r5,r6
   4d914:	00800174 	movhi	r2,5
   4d918:	380d883a 	mov	r6,r7
   4d91c:	2021883a 	mov	r16,r4
   4d920:	1809883a 	mov	r4,r3
   4d924:	dfc00115 	stw	ra,4(sp)
   4d928:	101c9715 	stw	zero,29276(r2)
   4d92c:	00511e80 	call	511e8 <read>
   4d930:	10ffffd8 	cmpnei	r3,r2,-1
   4d934:	18000426 	beq	r3,zero,4d948 <_read_r+0x44>
   4d938:	dfc00117 	ldw	ra,4(sp)
   4d93c:	dc000017 	ldw	r16,0(sp)
   4d940:	dec00204 	addi	sp,sp,8
   4d944:	f800283a 	ret
   4d948:	00c00174 	movhi	r3,5
   4d94c:	18dc9717 	ldw	r3,29276(r3)
   4d950:	183ff926 	beq	r3,zero,4d938 <_read_r+0x34>
   4d954:	80c00015 	stw	r3,0(r16)
   4d958:	dfc00117 	ldw	ra,4(sp)
   4d95c:	dc000017 	ldw	r16,0(sp)
   4d960:	dec00204 	addi	sp,sp,8
   4d964:	f800283a 	ret

0004d968 <__udivdi3>:
   4d968:	defff504 	addi	sp,sp,-44
   4d96c:	dcc00415 	stw	r19,16(sp)
   4d970:	dc000115 	stw	r16,4(sp)
   4d974:	dfc00a15 	stw	ra,40(sp)
   4d978:	df000915 	stw	fp,36(sp)
   4d97c:	ddc00815 	stw	r23,32(sp)
   4d980:	dd800715 	stw	r22,28(sp)
   4d984:	dd400615 	stw	r21,24(sp)
   4d988:	dd000515 	stw	r20,20(sp)
   4d98c:	dc800315 	stw	r18,12(sp)
   4d990:	dc400215 	stw	r17,8(sp)
   4d994:	2027883a 	mov	r19,r4
   4d998:	2821883a 	mov	r16,r5
   4d99c:	3800411e 	bne	r7,zero,4daa4 <__udivdi3+0x13c>
   4d9a0:	3829883a 	mov	r20,r7
   4d9a4:	3023883a 	mov	r17,r6
   4d9a8:	2025883a 	mov	r18,r4
   4d9ac:	29805d2e 	bgeu	r5,r6,4db24 <__udivdi3+0x1bc>
   4d9b0:	00bfffd4 	movui	r2,65535
   4d9b4:	282b883a 	mov	r21,r5
   4d9b8:	1180a02e 	bgeu	r2,r6,4dc3c <__udivdi3+0x2d4>
   4d9bc:	00804034 	movhi	r2,256
   4d9c0:	30813636 	bltu	r6,r2,4de9c <__udivdi3+0x534>
   4d9c4:	3006d63a 	srli	r3,r6,24
   4d9c8:	05000604 	movi	r20,24
   4d9cc:	00800174 	movhi	r2,5
   4d9d0:	1885883a 	add	r2,r3,r2
   4d9d4:	108cf603 	ldbu	r2,13272(r2)
   4d9d8:	00c00804 	movi	r3,32
   4d9dc:	1505883a 	add	r2,r2,r20
   4d9e0:	1889c83a 	sub	r4,r3,r2
   4d9e4:	18800526 	beq	r3,r2,4d9fc <__udivdi3+0x94>
   4d9e8:	8120983a 	sll	r16,r16,r4
   4d9ec:	9884d83a 	srl	r2,r19,r2
   4d9f0:	3122983a 	sll	r17,r6,r4
   4d9f4:	9924983a 	sll	r18,r19,r4
   4d9f8:	142ab03a 	or	r21,r2,r16
   4d9fc:	882cd43a 	srli	r22,r17,16
   4da00:	a809883a 	mov	r4,r21
   4da04:	8d3fffcc 	andi	r20,r17,65535
   4da08:	b00b883a 	mov	r5,r22
   4da0c:	00428b80 	call	428b8 <__umodsi3>
   4da10:	a809883a 	mov	r4,r21
   4da14:	b00b883a 	mov	r5,r22
   4da18:	1027883a 	mov	r19,r2
   4da1c:	00428540 	call	42854 <__udivsi3>
   4da20:	9826943a 	slli	r19,r19,16
   4da24:	9008d43a 	srli	r4,r18,16
   4da28:	1021883a 	mov	r16,r2
   4da2c:	a085383a 	mul	r2,r20,r2
   4da30:	9908b03a 	or	r4,r19,r4
   4da34:	2080052e 	bgeu	r4,r2,4da4c <__udivdi3+0xe4>
   4da38:	2449883a 	add	r4,r4,r17
   4da3c:	80ffffc4 	addi	r3,r16,-1
   4da40:	24400136 	bltu	r4,r17,4da48 <__udivdi3+0xe0>
   4da44:	20812636 	bltu	r4,r2,4dee0 <__udivdi3+0x578>
   4da48:	1821883a 	mov	r16,r3
   4da4c:	20a7c83a 	sub	r19,r4,r2
   4da50:	9809883a 	mov	r4,r19
   4da54:	b00b883a 	mov	r5,r22
   4da58:	00428b80 	call	428b8 <__umodsi3>
   4da5c:	9809883a 	mov	r4,r19
   4da60:	b00b883a 	mov	r5,r22
   4da64:	1027883a 	mov	r19,r2
   4da68:	9826943a 	slli	r19,r19,16
   4da6c:	00428540 	call	42854 <__udivsi3>
   4da70:	a0a9383a 	mul	r20,r20,r2
   4da74:	94bfffcc 	andi	r18,r18,65535
   4da78:	9ca4b03a 	or	r18,r19,r18
   4da7c:	9500052e 	bgeu	r18,r20,4da94 <__udivdi3+0x12c>
   4da80:	8ca5883a 	add	r18,r17,r18
   4da84:	10ffffc4 	addi	r3,r2,-1
   4da88:	94400136 	bltu	r18,r17,4da90 <__udivdi3+0x128>
   4da8c:	95011236 	bltu	r18,r20,4ded8 <__udivdi3+0x570>
   4da90:	1805883a 	mov	r2,r3
   4da94:	8020943a 	slli	r16,r16,16
   4da98:	0007883a 	mov	r3,zero
   4da9c:	8084b03a 	or	r2,r16,r2
   4daa0:	00000306 	br	4dab0 <__udivdi3+0x148>
   4daa4:	29c00e2e 	bgeu	r5,r7,4dae0 <__udivdi3+0x178>
   4daa8:	0007883a 	mov	r3,zero
   4daac:	0005883a 	mov	r2,zero
   4dab0:	dfc00a17 	ldw	ra,40(sp)
   4dab4:	df000917 	ldw	fp,36(sp)
   4dab8:	ddc00817 	ldw	r23,32(sp)
   4dabc:	dd800717 	ldw	r22,28(sp)
   4dac0:	dd400617 	ldw	r21,24(sp)
   4dac4:	dd000517 	ldw	r20,20(sp)
   4dac8:	dcc00417 	ldw	r19,16(sp)
   4dacc:	dc800317 	ldw	r18,12(sp)
   4dad0:	dc400217 	ldw	r17,8(sp)
   4dad4:	dc000117 	ldw	r16,4(sp)
   4dad8:	dec00b04 	addi	sp,sp,44
   4dadc:	f800283a 	ret
   4dae0:	00bfffd4 	movui	r2,65535
   4dae4:	11c05a2e 	bgeu	r2,r7,4dc50 <__udivdi3+0x2e8>
   4dae8:	00804034 	movhi	r2,256
   4daec:	3880dd36 	bltu	r7,r2,4de64 <__udivdi3+0x4fc>
   4daf0:	3806d63a 	srli	r3,r7,24
   4daf4:	01000604 	movi	r4,24
   4daf8:	00800174 	movhi	r2,5
   4dafc:	1885883a 	add	r2,r3,r2
   4db00:	10ccf603 	ldbu	r3,13272(r2)
   4db04:	00800804 	movi	r2,32
   4db08:	1907883a 	add	r3,r3,r4
   4db0c:	10ebc83a 	sub	r21,r2,r3
   4db10:	10c0861e 	bne	r2,r3,4dd2c <__udivdi3+0x3c4>
   4db14:	3c00d836 	bltu	r7,r16,4de78 <__udivdi3+0x510>
   4db18:	9985403a 	cmpgeu	r2,r19,r6
   4db1c:	0007883a 	mov	r3,zero
   4db20:	003fe306 	br	4dab0 <__udivdi3+0x148>
   4db24:	3000041e 	bne	r6,zero,4db38 <__udivdi3+0x1d0>
   4db28:	000b883a 	mov	r5,zero
   4db2c:	01000044 	movi	r4,1
   4db30:	00428540 	call	42854 <__udivsi3>
   4db34:	1023883a 	mov	r17,r2
   4db38:	00bfffd4 	movui	r2,65535
   4db3c:	14403a2e 	bgeu	r2,r17,4dc28 <__udivdi3+0x2c0>
   4db40:	00804034 	movhi	r2,256
   4db44:	8880d236 	bltu	r17,r2,4de90 <__udivdi3+0x528>
   4db48:	8806d63a 	srli	r3,r17,24
   4db4c:	05000604 	movi	r20,24
   4db50:	00800174 	movhi	r2,5
   4db54:	1885883a 	add	r2,r3,r2
   4db58:	108cf603 	ldbu	r2,13272(r2)
   4db5c:	00c00804 	movi	r3,32
   4db60:	1505883a 	add	r2,r2,r20
   4db64:	188dc83a 	sub	r6,r3,r2
   4db68:	18803e1e 	bne	r3,r2,4dc64 <__udivdi3+0x2fc>
   4db6c:	882ad43a 	srli	r21,r17,16
   4db70:	8461c83a 	sub	r16,r16,r17
   4db74:	8cffffcc 	andi	r19,r17,65535
   4db78:	00c00044 	movi	r3,1
   4db7c:	8009883a 	mov	r4,r16
   4db80:	a80b883a 	mov	r5,r21
   4db84:	d8c00015 	stw	r3,0(sp)
   4db88:	00428b80 	call	428b8 <__umodsi3>
   4db8c:	8009883a 	mov	r4,r16
   4db90:	a80b883a 	mov	r5,r21
   4db94:	1021883a 	mov	r16,r2
   4db98:	00428540 	call	42854 <__udivsi3>
   4db9c:	8020943a 	slli	r16,r16,16
   4dba0:	9008d43a 	srli	r4,r18,16
   4dba4:	1029883a 	mov	r20,r2
   4dba8:	14c5383a 	mul	r2,r2,r19
   4dbac:	8108b03a 	or	r4,r16,r4
   4dbb0:	d8c00017 	ldw	r3,0(sp)
   4dbb4:	2080052e 	bgeu	r4,r2,4dbcc <__udivdi3+0x264>
   4dbb8:	2449883a 	add	r4,r4,r17
   4dbbc:	a17fffc4 	addi	r5,r20,-1
   4dbc0:	24400136 	bltu	r4,r17,4dbc8 <__udivdi3+0x260>
   4dbc4:	2080c936 	bltu	r4,r2,4deec <__udivdi3+0x584>
   4dbc8:	2829883a 	mov	r20,r5
   4dbcc:	20a1c83a 	sub	r16,r4,r2
   4dbd0:	8009883a 	mov	r4,r16
   4dbd4:	a80b883a 	mov	r5,r21
   4dbd8:	d8c00015 	stw	r3,0(sp)
   4dbdc:	00428b80 	call	428b8 <__umodsi3>
   4dbe0:	8009883a 	mov	r4,r16
   4dbe4:	a80b883a 	mov	r5,r21
   4dbe8:	1021883a 	mov	r16,r2
   4dbec:	8020943a 	slli	r16,r16,16
   4dbf0:	00428540 	call	42854 <__udivsi3>
   4dbf4:	14e7383a 	mul	r19,r2,r19
   4dbf8:	94bfffcc 	andi	r18,r18,65535
   4dbfc:	84a4b03a 	or	r18,r16,r18
   4dc00:	d8c00017 	ldw	r3,0(sp)
   4dc04:	94c0052e 	bgeu	r18,r19,4dc1c <__udivdi3+0x2b4>
   4dc08:	8ca5883a 	add	r18,r17,r18
   4dc0c:	113fffc4 	addi	r4,r2,-1
   4dc10:	94400136 	bltu	r18,r17,4dc18 <__udivdi3+0x2b0>
   4dc14:	94c0ae36 	bltu	r18,r19,4ded0 <__udivdi3+0x568>
   4dc18:	2005883a 	mov	r2,r4
   4dc1c:	a00c943a 	slli	r6,r20,16
   4dc20:	3084b03a 	or	r2,r6,r2
   4dc24:	003fa206 	br	4dab0 <__udivdi3+0x148>
   4dc28:	88804030 	cmpltui	r2,r17,256
   4dc2c:	10009e1e 	bne	r2,zero,4dea8 <__udivdi3+0x540>
   4dc30:	8806d23a 	srli	r3,r17,8
   4dc34:	05000204 	movi	r20,8
   4dc38:	003fc506 	br	4db50 <__udivdi3+0x1e8>
   4dc3c:	30804030 	cmpltui	r2,r6,256
   4dc40:	10008b1e 	bne	r2,zero,4de70 <__udivdi3+0x508>
   4dc44:	3006d23a 	srli	r3,r6,8
   4dc48:	05000204 	movi	r20,8
   4dc4c:	003f5f06 	br	4d9cc <__udivdi3+0x64>
   4dc50:	38804030 	cmpltui	r2,r7,256
   4dc54:	10008b1e 	bne	r2,zero,4de84 <__udivdi3+0x51c>
   4dc58:	3806d23a 	srli	r3,r7,8
   4dc5c:	01000204 	movi	r4,8
   4dc60:	003fa506 	br	4daf8 <__udivdi3+0x190>
   4dc64:	89a2983a 	sll	r17,r17,r6
   4dc68:	80acd83a 	srl	r22,r16,r2
   4dc6c:	81a0983a 	sll	r16,r16,r6
   4dc70:	882ad43a 	srli	r21,r17,16
   4dc74:	9884d83a 	srl	r2,r19,r2
   4dc78:	b009883a 	mov	r4,r22
   4dc7c:	a80b883a 	mov	r5,r21
   4dc80:	99a4983a 	sll	r18,r19,r6
   4dc84:	1428b03a 	or	r20,r2,r16
   4dc88:	00428b80 	call	428b8 <__umodsi3>
   4dc8c:	b009883a 	mov	r4,r22
   4dc90:	a80b883a 	mov	r5,r21
   4dc94:	1021883a 	mov	r16,r2
   4dc98:	00428540 	call	42854 <__udivsi3>
   4dc9c:	8008943a 	slli	r4,r16,16
   4dca0:	a00ad43a 	srli	r5,r20,16
   4dca4:	8cffffcc 	andi	r19,r17,65535
   4dca8:	98a1383a 	mul	r16,r19,r2
   4dcac:	2148b03a 	or	r4,r4,r5
   4dcb0:	102d883a 	mov	r22,r2
   4dcb4:	2400062e 	bgeu	r4,r16,4dcd0 <__udivdi3+0x368>
   4dcb8:	2449883a 	add	r4,r4,r17
   4dcbc:	10bfffc4 	addi	r2,r2,-1
   4dcc0:	24408136 	bltu	r4,r17,4dec8 <__udivdi3+0x560>
   4dcc4:	2400802e 	bgeu	r4,r16,4dec8 <__udivdi3+0x560>
   4dcc8:	b5bfff84 	addi	r22,r22,-2
   4dccc:	2449883a 	add	r4,r4,r17
   4dcd0:	2421c83a 	sub	r16,r4,r16
   4dcd4:	8009883a 	mov	r4,r16
   4dcd8:	a80b883a 	mov	r5,r21
   4dcdc:	00428b80 	call	428b8 <__umodsi3>
   4dce0:	8009883a 	mov	r4,r16
   4dce4:	a80b883a 	mov	r5,r21
   4dce8:	1021883a 	mov	r16,r2
   4dcec:	8020943a 	slli	r16,r16,16
   4dcf0:	00428540 	call	42854 <__udivsi3>
   4dcf4:	9889383a 	mul	r4,r19,r2
   4dcf8:	a53fffcc 	andi	r20,r20,65535
   4dcfc:	8520b03a 	or	r16,r16,r20
   4dd00:	8100062e 	bgeu	r16,r4,4dd1c <__udivdi3+0x3b4>
   4dd04:	8461883a 	add	r16,r16,r17
   4dd08:	10ffffc4 	addi	r3,r2,-1
   4dd0c:	84406a36 	bltu	r16,r17,4deb8 <__udivdi3+0x550>
   4dd10:	8100692e 	bgeu	r16,r4,4deb8 <__udivdi3+0x550>
   4dd14:	10bfff84 	addi	r2,r2,-2
   4dd18:	8461883a 	add	r16,r16,r17
   4dd1c:	b006943a 	slli	r3,r22,16
   4dd20:	8121c83a 	sub	r16,r16,r4
   4dd24:	1886b03a 	or	r3,r3,r2
   4dd28:	003f9406 	br	4db7c <__udivdi3+0x214>
   4dd2c:	30ecd83a 	srl	r22,r6,r3
   4dd30:	3d4e983a 	sll	r7,r7,r21
   4dd34:	80e4d83a 	srl	r18,r16,r3
   4dd38:	98e2d83a 	srl	r17,r19,r3
   4dd3c:	b1ecb03a 	or	r22,r22,r7
   4dd40:	b038d43a 	srli	fp,r22,16
   4dd44:	8546983a 	sll	r3,r16,r21
   4dd48:	9009883a 	mov	r4,r18
   4dd4c:	e00b883a 	mov	r5,fp
   4dd50:	88e2b03a 	or	r17,r17,r3
   4dd54:	3568983a 	sll	r20,r6,r21
   4dd58:	00428b80 	call	428b8 <__umodsi3>
   4dd5c:	9009883a 	mov	r4,r18
   4dd60:	e00b883a 	mov	r5,fp
   4dd64:	1025883a 	mov	r18,r2
   4dd68:	00428540 	call	42854 <__udivsi3>
   4dd6c:	9008943a 	slli	r4,r18,16
   4dd70:	8806d43a 	srli	r3,r17,16
   4dd74:	b5ffffcc 	andi	r23,r22,65535
   4dd78:	b8a5383a 	mul	r18,r23,r2
   4dd7c:	20c8b03a 	or	r4,r4,r3
   4dd80:	1021883a 	mov	r16,r2
   4dd84:	2480062e 	bgeu	r4,r18,4dda0 <__udivdi3+0x438>
   4dd88:	2589883a 	add	r4,r4,r22
   4dd8c:	10bfffc4 	addi	r2,r2,-1
   4dd90:	25804b36 	bltu	r4,r22,4dec0 <__udivdi3+0x558>
   4dd94:	24804a2e 	bgeu	r4,r18,4dec0 <__udivdi3+0x558>
   4dd98:	843fff84 	addi	r16,r16,-2
   4dd9c:	2589883a 	add	r4,r4,r22
   4dda0:	24a5c83a 	sub	r18,r4,r18
   4dda4:	9009883a 	mov	r4,r18
   4dda8:	e00b883a 	mov	r5,fp
   4ddac:	00428b80 	call	428b8 <__umodsi3>
   4ddb0:	9009883a 	mov	r4,r18
   4ddb4:	e00b883a 	mov	r5,fp
   4ddb8:	1025883a 	mov	r18,r2
   4ddbc:	9024943a 	slli	r18,r18,16
   4ddc0:	00428540 	call	42854 <__udivsi3>
   4ddc4:	b8af383a 	mul	r23,r23,r2
   4ddc8:	8c7fffcc 	andi	r17,r17,65535
   4ddcc:	9462b03a 	or	r17,r18,r17
   4ddd0:	8dc0062e 	bgeu	r17,r23,4ddec <__udivdi3+0x484>
   4ddd4:	8da3883a 	add	r17,r17,r22
   4ddd8:	10ffffc4 	addi	r3,r2,-1
   4dddc:	8d803436 	bltu	r17,r22,4deb0 <__udivdi3+0x548>
   4dde0:	8dc0332e 	bgeu	r17,r23,4deb0 <__udivdi3+0x548>
   4dde4:	10bfff84 	addi	r2,r2,-2
   4dde8:	8da3883a 	add	r17,r17,r22
   4ddec:	8020943a 	slli	r16,r16,16
   4ddf0:	10ffffcc 	andi	r3,r2,65535
   4ddf4:	a00ed43a 	srli	r7,r20,16
   4ddf8:	8084b03a 	or	r2,r16,r2
   4ddfc:	1008d43a 	srli	r4,r2,16
   4de00:	a1bfffcc 	andi	r6,r20,65535
   4de04:	1991383a 	mul	r8,r3,r6
   4de08:	218d383a 	mul	r6,r4,r6
   4de0c:	19c7383a 	mul	r3,r3,r7
   4de10:	400ad43a 	srli	r5,r8,16
   4de14:	21c9383a 	mul	r4,r4,r7
   4de18:	1987883a 	add	r3,r3,r6
   4de1c:	28c7883a 	add	r3,r5,r3
   4de20:	8de3c83a 	sub	r17,r17,r23
   4de24:	1980022e 	bgeu	r3,r6,4de30 <__udivdi3+0x4c8>
   4de28:	01400074 	movhi	r5,1
   4de2c:	2149883a 	add	r4,r4,r5
   4de30:	180ad43a 	srli	r5,r3,16
   4de34:	2909883a 	add	r4,r5,r4
   4de38:	89000836 	bltu	r17,r4,4de5c <__udivdi3+0x4f4>
   4de3c:	89000226 	beq	r17,r4,4de48 <__udivdi3+0x4e0>
   4de40:	0007883a 	mov	r3,zero
   4de44:	003f1a06 	br	4dab0 <__udivdi3+0x148>
   4de48:	1806943a 	slli	r3,r3,16
   4de4c:	9d4c983a 	sll	r6,r19,r21
   4de50:	423fffcc 	andi	r8,r8,65535
   4de54:	1a07883a 	add	r3,r3,r8
   4de58:	30fff92e 	bgeu	r6,r3,4de40 <__udivdi3+0x4d8>
   4de5c:	10bfffc4 	addi	r2,r2,-1
   4de60:	003ff706 	br	4de40 <__udivdi3+0x4d8>
   4de64:	3806d43a 	srli	r3,r7,16
   4de68:	01000404 	movi	r4,16
   4de6c:	003f2206 	br	4daf8 <__udivdi3+0x190>
   4de70:	3007883a 	mov	r3,r6
   4de74:	003ed506 	br	4d9cc <__udivdi3+0x64>
   4de78:	0007883a 	mov	r3,zero
   4de7c:	00800044 	movi	r2,1
   4de80:	003f0b06 	br	4dab0 <__udivdi3+0x148>
   4de84:	3807883a 	mov	r3,r7
   4de88:	0009883a 	mov	r4,zero
   4de8c:	003f1a06 	br	4daf8 <__udivdi3+0x190>
   4de90:	8806d43a 	srli	r3,r17,16
   4de94:	05000404 	movi	r20,16
   4de98:	003f2d06 	br	4db50 <__udivdi3+0x1e8>
   4de9c:	3006d43a 	srli	r3,r6,16
   4dea0:	05000404 	movi	r20,16
   4dea4:	003ec906 	br	4d9cc <__udivdi3+0x64>
   4dea8:	8807883a 	mov	r3,r17
   4deac:	003f2806 	br	4db50 <__udivdi3+0x1e8>
   4deb0:	1805883a 	mov	r2,r3
   4deb4:	003fcd06 	br	4ddec <__udivdi3+0x484>
   4deb8:	1805883a 	mov	r2,r3
   4debc:	003f9706 	br	4dd1c <__udivdi3+0x3b4>
   4dec0:	1021883a 	mov	r16,r2
   4dec4:	003fb606 	br	4dda0 <__udivdi3+0x438>
   4dec8:	102d883a 	mov	r22,r2
   4decc:	003f8006 	br	4dcd0 <__udivdi3+0x368>
   4ded0:	10bfff84 	addi	r2,r2,-2
   4ded4:	003f5106 	br	4dc1c <__udivdi3+0x2b4>
   4ded8:	10bfff84 	addi	r2,r2,-2
   4dedc:	003eed06 	br	4da94 <__udivdi3+0x12c>
   4dee0:	843fff84 	addi	r16,r16,-2
   4dee4:	2449883a 	add	r4,r4,r17
   4dee8:	003ed806 	br	4da4c <__udivdi3+0xe4>
   4deec:	a53fff84 	addi	r20,r20,-2
   4def0:	2449883a 	add	r4,r4,r17
   4def4:	003f3506 	br	4dbcc <__udivdi3+0x264>

0004def8 <__umoddi3>:
   4def8:	defff504 	addi	sp,sp,-44
   4defc:	dc400215 	stw	r17,8(sp)
   4df00:	dc000115 	stw	r16,4(sp)
   4df04:	dfc00a15 	stw	ra,40(sp)
   4df08:	df000915 	stw	fp,36(sp)
   4df0c:	ddc00815 	stw	r23,32(sp)
   4df10:	dd800715 	stw	r22,28(sp)
   4df14:	dd400615 	stw	r21,24(sp)
   4df18:	dd000515 	stw	r20,20(sp)
   4df1c:	dcc00415 	stw	r19,16(sp)
   4df20:	dc800315 	stw	r18,12(sp)
   4df24:	2823883a 	mov	r17,r5
   4df28:	2021883a 	mov	r16,r4
   4df2c:	3800371e 	bne	r7,zero,4e00c <__umoddi3+0x114>
   4df30:	3825883a 	mov	r18,r7
   4df34:	3029883a 	mov	r20,r6
   4df38:	2027883a 	mov	r19,r4
   4df3c:	2980572e 	bgeu	r5,r6,4e09c <__umoddi3+0x1a4>
   4df40:	00bfffd4 	movui	r2,65535
   4df44:	282b883a 	mov	r21,r5
   4df48:	1180922e 	bgeu	r2,r6,4e194 <__umoddi3+0x29c>
   4df4c:	00804034 	movhi	r2,256
   4df50:	30812036 	bltu	r6,r2,4e3d4 <__umoddi3+0x4dc>
   4df54:	3006d63a 	srli	r3,r6,24
   4df58:	04800604 	movi	r18,24
   4df5c:	00800174 	movhi	r2,5
   4df60:	1885883a 	add	r2,r3,r2
   4df64:	108cf603 	ldbu	r2,13272(r2)
   4df68:	00c00804 	movi	r3,32
   4df6c:	1485883a 	add	r2,r2,r18
   4df70:	18a5c83a 	sub	r18,r3,r2
   4df74:	18800526 	beq	r3,r2,4df8c <__umoddi3+0x94>
   4df78:	8ca2983a 	sll	r17,r17,r18
   4df7c:	8084d83a 	srl	r2,r16,r2
   4df80:	34a8983a 	sll	r20,r6,r18
   4df84:	84a6983a 	sll	r19,r16,r18
   4df88:	146ab03a 	or	r21,r2,r17
   4df8c:	a02ed43a 	srli	r23,r20,16
   4df90:	a809883a 	mov	r4,r21
   4df94:	a43fffcc 	andi	r16,r20,65535
   4df98:	b80b883a 	mov	r5,r23
   4df9c:	00428b80 	call	428b8 <__umodsi3>
   4dfa0:	a809883a 	mov	r4,r21
   4dfa4:	b80b883a 	mov	r5,r23
   4dfa8:	102d883a 	mov	r22,r2
   4dfac:	00428540 	call	42854 <__udivsi3>
   4dfb0:	b02c943a 	slli	r22,r22,16
   4dfb4:	9808d43a 	srli	r4,r19,16
   4dfb8:	80ab383a 	mul	r21,r16,r2
   4dfbc:	b108b03a 	or	r4,r22,r4
   4dfc0:	2540042e 	bgeu	r4,r21,4dfd4 <__umoddi3+0xdc>
   4dfc4:	2509883a 	add	r4,r4,r20
   4dfc8:	25000236 	bltu	r4,r20,4dfd4 <__umoddi3+0xdc>
   4dfcc:	2540012e 	bgeu	r4,r21,4dfd4 <__umoddi3+0xdc>
   4dfd0:	2509883a 	add	r4,r4,r20
   4dfd4:	256bc83a 	sub	r21,r4,r21
   4dfd8:	b80b883a 	mov	r5,r23
   4dfdc:	a809883a 	mov	r4,r21
   4dfe0:	00428b80 	call	428b8 <__umodsi3>
   4dfe4:	1023883a 	mov	r17,r2
   4dfe8:	b80b883a 	mov	r5,r23
   4dfec:	a809883a 	mov	r4,r21
   4dff0:	00428540 	call	42854 <__udivsi3>
   4dff4:	8822943a 	slli	r17,r17,16
   4dff8:	8085383a 	mul	r2,r16,r2
   4dffc:	98ffffcc 	andi	r3,r19,65535
   4e000:	88c6b03a 	or	r3,r17,r3
   4e004:	18805a2e 	bgeu	r3,r2,4e170 <__umoddi3+0x278>
   4e008:	00005506 	br	4e160 <__umoddi3+0x268>
   4e00c:	2005883a 	mov	r2,r4
   4e010:	29c00d2e 	bgeu	r5,r7,4e048 <__umoddi3+0x150>
   4e014:	2807883a 	mov	r3,r5
   4e018:	dfc00a17 	ldw	ra,40(sp)
   4e01c:	df000917 	ldw	fp,36(sp)
   4e020:	ddc00817 	ldw	r23,32(sp)
   4e024:	dd800717 	ldw	r22,28(sp)
   4e028:	dd400617 	ldw	r21,24(sp)
   4e02c:	dd000517 	ldw	r20,20(sp)
   4e030:	dcc00417 	ldw	r19,16(sp)
   4e034:	dc800317 	ldw	r18,12(sp)
   4e038:	dc400217 	ldw	r17,8(sp)
   4e03c:	dc000117 	ldw	r16,4(sp)
   4e040:	dec00b04 	addi	sp,sp,44
   4e044:	f800283a 	ret
   4e048:	013fffd4 	movui	r4,65535
   4e04c:	2807883a 	mov	r3,r5
   4e050:	21c0552e 	bgeu	r4,r7,4e1a8 <__umoddi3+0x2b0>
   4e054:	01004034 	movhi	r4,256
   4e058:	3900e336 	bltu	r7,r4,4e3e8 <__umoddi3+0x4f0>
   4e05c:	3808d63a 	srli	r4,r7,24
   4e060:	02000604 	movi	r8,24
   4e064:	01400174 	movhi	r5,5
   4e068:	214b883a 	add	r5,r4,r5
   4e06c:	2d4cf603 	ldbu	r21,13272(r5)
   4e070:	01000804 	movi	r4,32
   4e074:	aa2b883a 	add	r21,r21,r8
   4e078:	2569c83a 	sub	r20,r4,r21
   4e07c:	25404f1e 	bne	r4,r21,4e1bc <__umoddi3+0x2c4>
   4e080:	3c400136 	bltu	r7,r17,4e088 <__umoddi3+0x190>
   4e084:	81bfe436 	bltu	r16,r6,4e018 <__umoddi3+0x120>
   4e088:	8185c83a 	sub	r2,r16,r6
   4e08c:	89cfc83a 	sub	r7,r17,r7
   4e090:	8087803a 	cmpltu	r3,r16,r2
   4e094:	38c7c83a 	sub	r3,r7,r3
   4e098:	003fdf06 	br	4e018 <__umoddi3+0x120>
   4e09c:	3000041e 	bne	r6,zero,4e0b0 <__umoddi3+0x1b8>
   4e0a0:	000b883a 	mov	r5,zero
   4e0a4:	01000044 	movi	r4,1
   4e0a8:	00428540 	call	42854 <__udivsi3>
   4e0ac:	1029883a 	mov	r20,r2
   4e0b0:	00bfffd4 	movui	r2,65535
   4e0b4:	1500322e 	bgeu	r2,r20,4e180 <__umoddi3+0x288>
   4e0b8:	00804034 	movhi	r2,256
   4e0bc:	a080cd36 	bltu	r20,r2,4e3f4 <__umoddi3+0x4fc>
   4e0c0:	a006d63a 	srli	r3,r20,24
   4e0c4:	04800604 	movi	r18,24
   4e0c8:	00800174 	movhi	r2,5
   4e0cc:	1885883a 	add	r2,r3,r2
   4e0d0:	158cf603 	ldbu	r22,13272(r2)
   4e0d4:	00800804 	movi	r2,32
   4e0d8:	b4ad883a 	add	r22,r22,r18
   4e0dc:	15a5c83a 	sub	r18,r2,r22
   4e0e0:	15808a1e 	bne	r2,r22,4e30c <__umoddi3+0x414>
   4e0e4:	a02ed43a 	srli	r23,r20,16
   4e0e8:	8d23c83a 	sub	r17,r17,r20
   4e0ec:	a57fffcc 	andi	r21,r20,65535
   4e0f0:	b80b883a 	mov	r5,r23
   4e0f4:	8809883a 	mov	r4,r17
   4e0f8:	00428b80 	call	428b8 <__umodsi3>
   4e0fc:	8809883a 	mov	r4,r17
   4e100:	b80b883a 	mov	r5,r23
   4e104:	102d883a 	mov	r22,r2
   4e108:	00428540 	call	42854 <__udivsi3>
   4e10c:	b02c943a 	slli	r22,r22,16
   4e110:	9808d43a 	srli	r4,r19,16
   4e114:	1561383a 	mul	r16,r2,r21
   4e118:	b108b03a 	or	r4,r22,r4
   4e11c:	2400032e 	bgeu	r4,r16,4e12c <__umoddi3+0x234>
   4e120:	2509883a 	add	r4,r4,r20
   4e124:	25000136 	bltu	r4,r20,4e12c <__umoddi3+0x234>
   4e128:	2400be36 	bltu	r4,r16,4e424 <__umoddi3+0x52c>
   4e12c:	2421c83a 	sub	r16,r4,r16
   4e130:	b80b883a 	mov	r5,r23
   4e134:	8009883a 	mov	r4,r16
   4e138:	00428b80 	call	428b8 <__umodsi3>
   4e13c:	1023883a 	mov	r17,r2
   4e140:	b80b883a 	mov	r5,r23
   4e144:	8009883a 	mov	r4,r16
   4e148:	00428540 	call	42854 <__udivsi3>
   4e14c:	8822943a 	slli	r17,r17,16
   4e150:	1545383a 	mul	r2,r2,r21
   4e154:	9cffffcc 	andi	r19,r19,65535
   4e158:	8cc6b03a 	or	r3,r17,r19
   4e15c:	1880042e 	bgeu	r3,r2,4e170 <__umoddi3+0x278>
   4e160:	1d07883a 	add	r3,r3,r20
   4e164:	1d000236 	bltu	r3,r20,4e170 <__umoddi3+0x278>
   4e168:	1880012e 	bgeu	r3,r2,4e170 <__umoddi3+0x278>
   4e16c:	1d07883a 	add	r3,r3,r20
   4e170:	1885c83a 	sub	r2,r3,r2
   4e174:	1484d83a 	srl	r2,r2,r18
   4e178:	0007883a 	mov	r3,zero
   4e17c:	003fa606 	br	4e018 <__umoddi3+0x120>
   4e180:	a0804030 	cmpltui	r2,r20,256
   4e184:	10009e1e 	bne	r2,zero,4e400 <__umoddi3+0x508>
   4e188:	a006d23a 	srli	r3,r20,8
   4e18c:	04800204 	movi	r18,8
   4e190:	003fcd06 	br	4e0c8 <__umoddi3+0x1d0>
   4e194:	30804030 	cmpltui	r2,r6,256
   4e198:	1000911e 	bne	r2,zero,4e3e0 <__umoddi3+0x4e8>
   4e19c:	3006d23a 	srli	r3,r6,8
   4e1a0:	04800204 	movi	r18,8
   4e1a4:	003f6d06 	br	4df5c <__umoddi3+0x64>
   4e1a8:	39004030 	cmpltui	r4,r7,256
   4e1ac:	2000961e 	bne	r4,zero,4e408 <__umoddi3+0x510>
   4e1b0:	3808d23a 	srli	r4,r7,8
   4e1b4:	02000204 	movi	r8,8
   4e1b8:	003faa06 	br	4e064 <__umoddi3+0x16c>
   4e1bc:	3d0e983a 	sll	r7,r7,r20
   4e1c0:	3544d83a 	srl	r2,r6,r21
   4e1c4:	8d64d83a 	srl	r18,r17,r21
   4e1c8:	8d22983a 	sll	r17,r17,r20
   4e1cc:	11eeb03a 	or	r23,r2,r7
   4e1d0:	b838d43a 	srli	fp,r23,16
   4e1d4:	8544d83a 	srl	r2,r16,r21
   4e1d8:	9009883a 	mov	r4,r18
   4e1dc:	e00b883a 	mov	r5,fp
   4e1e0:	3526983a 	sll	r19,r6,r20
   4e1e4:	1462b03a 	or	r17,r2,r17
   4e1e8:	00428b80 	call	428b8 <__umodsi3>
   4e1ec:	9009883a 	mov	r4,r18
   4e1f0:	e00b883a 	mov	r5,fp
   4e1f4:	1025883a 	mov	r18,r2
   4e1f8:	00428540 	call	42854 <__udivsi3>
   4e1fc:	9008943a 	slli	r4,r18,16
   4e200:	8806d43a 	srli	r3,r17,16
   4e204:	b9ffffcc 	andi	r7,r23,65535
   4e208:	38a5383a 	mul	r18,r7,r2
   4e20c:	20c8b03a 	or	r4,r4,r3
   4e210:	8520983a 	sll	r16,r16,r20
   4e214:	102d883a 	mov	r22,r2
   4e218:	2480062e 	bgeu	r4,r18,4e234 <__umoddi3+0x33c>
   4e21c:	25c9883a 	add	r4,r4,r23
   4e220:	10bfffc4 	addi	r2,r2,-1
   4e224:	25c07d36 	bltu	r4,r23,4e41c <__umoddi3+0x524>
   4e228:	24807c2e 	bgeu	r4,r18,4e41c <__umoddi3+0x524>
   4e22c:	b5bfff84 	addi	r22,r22,-2
   4e230:	25c9883a 	add	r4,r4,r23
   4e234:	24a5c83a 	sub	r18,r4,r18
   4e238:	9009883a 	mov	r4,r18
   4e23c:	e00b883a 	mov	r5,fp
   4e240:	d9c00015 	stw	r7,0(sp)
   4e244:	00428b80 	call	428b8 <__umodsi3>
   4e248:	9009883a 	mov	r4,r18
   4e24c:	e00b883a 	mov	r5,fp
   4e250:	1025883a 	mov	r18,r2
   4e254:	00428540 	call	42854 <__udivsi3>
   4e258:	d9c00017 	ldw	r7,0(sp)
   4e25c:	9024943a 	slli	r18,r18,16
   4e260:	8c7fffcc 	andi	r17,r17,65535
   4e264:	388f383a 	mul	r7,r7,r2
   4e268:	9448b03a 	or	r4,r18,r17
   4e26c:	21c0062e 	bgeu	r4,r7,4e288 <__umoddi3+0x390>
   4e270:	25c9883a 	add	r4,r4,r23
   4e274:	10ffffc4 	addi	r3,r2,-1
   4e278:	25c06636 	bltu	r4,r23,4e414 <__umoddi3+0x51c>
   4e27c:	21c0652e 	bgeu	r4,r7,4e414 <__umoddi3+0x51c>
   4e280:	10bfff84 	addi	r2,r2,-2
   4e284:	25c9883a 	add	r4,r4,r23
   4e288:	b00a943a 	slli	r5,r22,16
   4e28c:	11bfffcc 	andi	r6,r2,65535
   4e290:	9806d43a 	srli	r3,r19,16
   4e294:	2884b03a 	or	r2,r5,r2
   4e298:	102cd43a 	srli	r22,r2,16
   4e29c:	997fffcc 	andi	r5,r19,65535
   4e2a0:	3151383a 	mul	r8,r6,r5
   4e2a4:	b14b383a 	mul	r5,r22,r5
   4e2a8:	30cd383a 	mul	r6,r6,r3
   4e2ac:	4004d43a 	srli	r2,r8,16
   4e2b0:	b0ed383a 	mul	r22,r22,r3
   4e2b4:	314d883a 	add	r6,r6,r5
   4e2b8:	1185883a 	add	r2,r2,r6
   4e2bc:	21c9c83a 	sub	r4,r4,r7
   4e2c0:	1140022e 	bgeu	r2,r5,4e2cc <__umoddi3+0x3d4>
   4e2c4:	00c00074 	movhi	r3,1
   4e2c8:	b0ed883a 	add	r22,r22,r3
   4e2cc:	1006d43a 	srli	r3,r2,16
   4e2d0:	1004943a 	slli	r2,r2,16
   4e2d4:	423fffcc 	andi	r8,r8,65535
   4e2d8:	1dad883a 	add	r22,r3,r22
   4e2dc:	1205883a 	add	r2,r2,r8
   4e2e0:	25803636 	bltu	r4,r22,4e3bc <__umoddi3+0x4c4>
   4e2e4:	25803426 	beq	r4,r22,4e3b8 <__umoddi3+0x4c0>
   4e2e8:	8085c83a 	sub	r2,r16,r2
   4e2ec:	8087803a 	cmpltu	r3,r16,r2
   4e2f0:	2589c83a 	sub	r4,r4,r22
   4e2f4:	20c7c83a 	sub	r3,r4,r3
   4e2f8:	1d60983a 	sll	r16,r3,r21
   4e2fc:	1504d83a 	srl	r2,r2,r20
   4e300:	1d06d83a 	srl	r3,r3,r20
   4e304:	8084b03a 	or	r2,r16,r2
   4e308:	003f4306 	br	4e018 <__umoddi3+0x120>
   4e30c:	a4a8983a 	sll	r20,r20,r18
   4e310:	8daad83a 	srl	r21,r17,r22
   4e314:	8ca2983a 	sll	r17,r17,r18
   4e318:	a02ed43a 	srli	r23,r20,16
   4e31c:	a809883a 	mov	r4,r21
   4e320:	85acd83a 	srl	r22,r16,r22
   4e324:	b80b883a 	mov	r5,r23
   4e328:	00428b80 	call	428b8 <__umodsi3>
   4e32c:	a809883a 	mov	r4,r21
   4e330:	b80b883a 	mov	r5,r23
   4e334:	b46cb03a 	or	r22,r22,r17
   4e338:	1027883a 	mov	r19,r2
   4e33c:	00428540 	call	42854 <__udivsi3>
   4e340:	9826943a 	slli	r19,r19,16
   4e344:	b008d43a 	srli	r4,r22,16
   4e348:	a57fffcc 	andi	r21,r20,65535
   4e34c:	a8a3383a 	mul	r17,r21,r2
   4e350:	9908b03a 	or	r4,r19,r4
   4e354:	84a6983a 	sll	r19,r16,r18
   4e358:	2440042e 	bgeu	r4,r17,4e36c <__umoddi3+0x474>
   4e35c:	2509883a 	add	r4,r4,r20
   4e360:	25000236 	bltu	r4,r20,4e36c <__umoddi3+0x474>
   4e364:	2440012e 	bgeu	r4,r17,4e36c <__umoddi3+0x474>
   4e368:	2509883a 	add	r4,r4,r20
   4e36c:	2463c83a 	sub	r17,r4,r17
   4e370:	8809883a 	mov	r4,r17
   4e374:	b80b883a 	mov	r5,r23
   4e378:	00428b80 	call	428b8 <__umodsi3>
   4e37c:	1021883a 	mov	r16,r2
   4e380:	8809883a 	mov	r4,r17
   4e384:	b80b883a 	mov	r5,r23
   4e388:	8020943a 	slli	r16,r16,16
   4e38c:	00428540 	call	42854 <__udivsi3>
   4e390:	a885383a 	mul	r2,r21,r2
   4e394:	b47fffcc 	andi	r17,r22,65535
   4e398:	8462b03a 	or	r17,r16,r17
   4e39c:	8880042e 	bgeu	r17,r2,4e3b0 <__umoddi3+0x4b8>
   4e3a0:	8d23883a 	add	r17,r17,r20
   4e3a4:	8d000236 	bltu	r17,r20,4e3b0 <__umoddi3+0x4b8>
   4e3a8:	8880012e 	bgeu	r17,r2,4e3b0 <__umoddi3+0x4b8>
   4e3ac:	8d23883a 	add	r17,r17,r20
   4e3b0:	88a3c83a 	sub	r17,r17,r2
   4e3b4:	003f4e06 	br	4e0f0 <__umoddi3+0x1f8>
   4e3b8:	80bfcb2e 	bgeu	r16,r2,4e2e8 <__umoddi3+0x3f0>
   4e3bc:	14e7c83a 	sub	r19,r2,r19
   4e3c0:	14c5803a 	cmpltu	r2,r2,r19
   4e3c4:	15c5883a 	add	r2,r2,r23
   4e3c8:	b0adc83a 	sub	r22,r22,r2
   4e3cc:	9805883a 	mov	r2,r19
   4e3d0:	003fc506 	br	4e2e8 <__umoddi3+0x3f0>
   4e3d4:	3006d43a 	srli	r3,r6,16
   4e3d8:	04800404 	movi	r18,16
   4e3dc:	003edf06 	br	4df5c <__umoddi3+0x64>
   4e3e0:	3007883a 	mov	r3,r6
   4e3e4:	003edd06 	br	4df5c <__umoddi3+0x64>
   4e3e8:	3808d43a 	srli	r4,r7,16
   4e3ec:	02000404 	movi	r8,16
   4e3f0:	003f1c06 	br	4e064 <__umoddi3+0x16c>
   4e3f4:	a006d43a 	srli	r3,r20,16
   4e3f8:	04800404 	movi	r18,16
   4e3fc:	003f3206 	br	4e0c8 <__umoddi3+0x1d0>
   4e400:	a007883a 	mov	r3,r20
   4e404:	003f3006 	br	4e0c8 <__umoddi3+0x1d0>
   4e408:	3809883a 	mov	r4,r7
   4e40c:	0011883a 	mov	r8,zero
   4e410:	003f1406 	br	4e064 <__umoddi3+0x16c>
   4e414:	1805883a 	mov	r2,r3
   4e418:	003f9b06 	br	4e288 <__umoddi3+0x390>
   4e41c:	102d883a 	mov	r22,r2
   4e420:	003f8406 	br	4e234 <__umoddi3+0x33c>
   4e424:	2509883a 	add	r4,r4,r20
   4e428:	003f4006 	br	4e12c <__umoddi3+0x234>

0004e42c <__adddf3>:
   4e42c:	02000434 	movhi	r8,16
   4e430:	423fffc4 	addi	r8,r8,-1
   4e434:	3a12703a 	and	r9,r7,r8
   4e438:	2a06703a 	and	r3,r5,r8
   4e43c:	2818d53a 	srli	r12,r5,20
   4e440:	3804d53a 	srli	r2,r7,20
   4e444:	481490fa 	slli	r10,r9,3
   4e448:	280ad7fa 	srli	r5,r5,31
   4e44c:	180690fa 	slli	r3,r3,3
   4e450:	2016d77a 	srli	r11,r4,29
   4e454:	3012d77a 	srli	r9,r6,29
   4e458:	380ed7fa 	srli	r7,r7,31
   4e45c:	defffb04 	addi	sp,sp,-20
   4e460:	dc400115 	stw	r17,4(sp)
   4e464:	dc000015 	stw	r16,0(sp)
   4e468:	dfc00415 	stw	ra,16(sp)
   4e46c:	dcc00315 	stw	r19,12(sp)
   4e470:	dc800215 	stw	r18,8(sp)
   4e474:	201c90fa 	slli	r14,r4,3
   4e478:	301a90fa 	slli	r13,r6,3
   4e47c:	6441ffcc 	andi	r17,r12,2047
   4e480:	2821883a 	mov	r16,r5
   4e484:	58c6b03a 	or	r3,r11,r3
   4e488:	1081ffcc 	andi	r2,r2,2047
   4e48c:	4a92b03a 	or	r9,r9,r10
   4e490:	29c06326 	beq	r5,r7,4e620 <__adddf3+0x1f4>
   4e494:	888bc83a 	sub	r5,r17,r2
   4e498:	0140560e 	bge	zero,r5,4e5f4 <__adddf3+0x1c8>
   4e49c:	10007526 	beq	r2,zero,4e674 <__adddf3+0x248>
   4e4a0:	8881ffd8 	cmpnei	r2,r17,2047
   4e4a4:	10012d26 	beq	r2,zero,4e95c <__adddf3+0x530>
   4e4a8:	4a402034 	orhi	r9,r9,128
   4e4ac:	28800e48 	cmpgei	r2,r5,57
   4e4b0:	1000f41e 	bne	r2,zero,4e884 <__adddf3+0x458>
   4e4b4:	28800808 	cmpgei	r2,r5,32
   4e4b8:	1001471e 	bne	r2,zero,4e9d8 <__adddf3+0x5ac>
   4e4bc:	00800804 	movi	r2,32
   4e4c0:	1145c83a 	sub	r2,r2,r5
   4e4c4:	6948d83a 	srl	r4,r13,r5
   4e4c8:	48a4983a 	sll	r18,r9,r2
   4e4cc:	6884983a 	sll	r2,r13,r2
   4e4d0:	494ad83a 	srl	r5,r9,r5
   4e4d4:	9124b03a 	or	r18,r18,r4
   4e4d8:	101ac03a 	cmpne	r13,r2,zero
   4e4dc:	9364b03a 	or	r18,r18,r13
   4e4e0:	1947c83a 	sub	r3,r3,r5
   4e4e4:	74a5c83a 	sub	r18,r14,r18
   4e4e8:	7489803a 	cmpltu	r4,r14,r18
   4e4ec:	1909c83a 	sub	r4,r3,r4
   4e4f0:	2080202c 	andhi	r2,r4,128
   4e4f4:	10008626 	beq	r2,zero,4e710 <__adddf3+0x2e4>
   4e4f8:	00802034 	movhi	r2,128
   4e4fc:	10bfffc4 	addi	r2,r2,-1
   4e500:	20a6703a 	and	r19,r4,r2
   4e504:	9800d626 	beq	r19,zero,4e860 <__adddf3+0x434>
   4e508:	9809883a 	mov	r4,r19
   4e50c:	00430640 	call	43064 <__clzsi2>
   4e510:	133ffe04 	addi	r12,r2,-8
   4e514:	01000804 	movi	r4,32
   4e518:	2309c83a 	sub	r4,r4,r12
   4e51c:	9108d83a 	srl	r4,r18,r4
   4e520:	9b04983a 	sll	r2,r19,r12
   4e524:	9324983a 	sll	r18,r18,r12
   4e528:	2088b03a 	or	r4,r4,r2
   4e52c:	6440c716 	blt	r12,r17,4e84c <__adddf3+0x420>
   4e530:	6459c83a 	sub	r12,r12,r17
   4e534:	62000044 	addi	r8,r12,1
   4e538:	40800808 	cmpgei	r2,r8,32
   4e53c:	1001191e 	bne	r2,zero,4e9a4 <__adddf3+0x578>
   4e540:	00800804 	movi	r2,32
   4e544:	1205c83a 	sub	r2,r2,r8
   4e548:	9206d83a 	srl	r3,r18,r8
   4e54c:	90a4983a 	sll	r18,r18,r2
   4e550:	2084983a 	sll	r2,r4,r2
   4e554:	2208d83a 	srl	r4,r4,r8
   4e558:	9024c03a 	cmpne	r18,r18,zero
   4e55c:	10c4b03a 	or	r2,r2,r3
   4e560:	14a4b03a 	or	r18,r2,r18
   4e564:	0023883a 	mov	r17,zero
   4e568:	908001cc 	andi	r2,r18,7
   4e56c:	10000726 	beq	r2,zero,4e58c <__adddf3+0x160>
   4e570:	908003cc 	andi	r2,r18,15
   4e574:	10800120 	cmpeqi	r2,r2,4
   4e578:	1000041e 	bne	r2,zero,4e58c <__adddf3+0x160>
   4e57c:	90c00104 	addi	r3,r18,4
   4e580:	1ca5803a 	cmpltu	r18,r3,r18
   4e584:	2489883a 	add	r4,r4,r18
   4e588:	1825883a 	mov	r18,r3
   4e58c:	2080202c 	andhi	r2,r4,128
   4e590:	10006126 	beq	r2,zero,4e718 <__adddf3+0x2ec>
   4e594:	89400044 	addi	r5,r17,1
   4e598:	2881ffe0 	cmpeqi	r2,r5,2047
   4e59c:	2941ffcc 	andi	r5,r5,2047
   4e5a0:	1000731e 	bne	r2,zero,4e770 <__adddf3+0x344>
   4e5a4:	023fe034 	movhi	r8,65408
   4e5a8:	423fffc4 	addi	r8,r8,-1
   4e5ac:	2210703a 	and	r8,r4,r8
   4e5b0:	4006927a 	slli	r3,r8,9
   4e5b4:	9024d0fa 	srli	r18,r18,3
   4e5b8:	4004977a 	slli	r2,r8,29
   4e5bc:	1806d33a 	srli	r3,r3,12
   4e5c0:	1484b03a 	or	r2,r2,r18
   4e5c4:	280a953a 	slli	r5,r5,20
   4e5c8:	84003fcc 	andi	r16,r16,255
   4e5cc:	802097fa 	slli	r16,r16,31
   4e5d0:	28c6b03a 	or	r3,r5,r3
   4e5d4:	1c06b03a 	or	r3,r3,r16
   4e5d8:	dfc00417 	ldw	ra,16(sp)
   4e5dc:	dcc00317 	ldw	r19,12(sp)
   4e5e0:	dc800217 	ldw	r18,8(sp)
   4e5e4:	dc400117 	ldw	r17,4(sp)
   4e5e8:	dc000017 	ldw	r16,0(sp)
   4e5ec:	dec00504 	addi	sp,sp,20
   4e5f0:	f800283a 	ret
   4e5f4:	28002726 	beq	r5,zero,4e694 <__adddf3+0x268>
   4e5f8:	144bc83a 	sub	r5,r2,r17
   4e5fc:	8800be1e 	bne	r17,zero,4e8f8 <__adddf3+0x4cc>
   4e600:	1b88b03a 	or	r4,r3,r14
   4e604:	20013126 	beq	r4,zero,4eacc <__adddf3+0x6a0>
   4e608:	293fffc4 	addi	r4,r5,-1
   4e60c:	20017226 	beq	r4,zero,4ebd8 <__adddf3+0x7ac>
   4e610:	2941ffd8 	cmpnei	r5,r5,2047
   4e614:	2801c226 	beq	r5,zero,4ed20 <__adddf3+0x8f4>
   4e618:	200b883a 	mov	r5,r4
   4e61c:	0000b906 	br	4e904 <__adddf3+0x4d8>
   4e620:	888bc83a 	sub	r5,r17,r2
   4e624:	0140700e 	bge	zero,r5,4e7e8 <__adddf3+0x3bc>
   4e628:	10002a26 	beq	r2,zero,4e6d4 <__adddf3+0x2a8>
   4e62c:	8881ffd8 	cmpnei	r2,r17,2047
   4e630:	1000ca26 	beq	r2,zero,4e95c <__adddf3+0x530>
   4e634:	4a402034 	orhi	r9,r9,128
   4e638:	28800e48 	cmpgei	r2,r5,57
   4e63c:	1000421e 	bne	r2,zero,4e748 <__adddf3+0x31c>
   4e640:	28800808 	cmpgei	r2,r5,32
   4e644:	1000ff26 	beq	r2,zero,4ea44 <__adddf3+0x618>
   4e648:	2cbff804 	addi	r18,r5,-32
   4e64c:	29000820 	cmpeqi	r4,r5,32
   4e650:	4c84d83a 	srl	r2,r9,r18
   4e654:	2000041e 	bne	r4,zero,4e668 <__adddf3+0x23c>
   4e658:	01001004 	movi	r4,64
   4e65c:	214bc83a 	sub	r5,r4,r5
   4e660:	4952983a 	sll	r9,r9,r5
   4e664:	6a5ab03a 	or	r13,r13,r9
   4e668:	6824c03a 	cmpne	r18,r13,zero
   4e66c:	90a4b03a 	or	r18,r18,r2
   4e670:	00003706 	br	4e750 <__adddf3+0x324>
   4e674:	4b44b03a 	or	r2,r9,r13
   4e678:	1000b126 	beq	r2,zero,4e940 <__adddf3+0x514>
   4e67c:	28bfffc4 	addi	r2,r5,-1
   4e680:	10011a26 	beq	r2,zero,4eaec <__adddf3+0x6c0>
   4e684:	2941ffd8 	cmpnei	r5,r5,2047
   4e688:	28012526 	beq	r5,zero,4eb20 <__adddf3+0x6f4>
   4e68c:	100b883a 	mov	r5,r2
   4e690:	003f8606 	br	4e4ac <__adddf3+0x80>
   4e694:	8a800044 	addi	r10,r17,1
   4e698:	5281ff8c 	andi	r10,r10,2046
   4e69c:	50008b1e 	bne	r10,zero,4e8cc <__adddf3+0x4a0>
   4e6a0:	1b96b03a 	or	r11,r3,r14
   4e6a4:	4b44b03a 	or	r2,r9,r13
   4e6a8:	8801031e 	bne	r17,zero,4eab8 <__adddf3+0x68c>
   4e6ac:	58014126 	beq	r11,zero,4ebb4 <__adddf3+0x788>
   4e6b0:	1001571e 	bne	r2,zero,4ec10 <__adddf3+0x7e4>
   4e6b4:	1804977a 	slli	r2,r3,29
   4e6b8:	01480034 	movhi	r5,8192
   4e6bc:	297fffc4 	addi	r5,r5,-1
   4e6c0:	2148703a 	and	r4,r4,r5
   4e6c4:	1810d0fa 	srli	r8,r3,3
   4e6c8:	1104b03a 	or	r2,r2,r4
   4e6cc:	500b883a 	mov	r5,r10
   4e6d0:	00001806 	br	4e734 <__adddf3+0x308>
   4e6d4:	4b44b03a 	or	r2,r9,r13
   4e6d8:	10010a26 	beq	r2,zero,4eb04 <__adddf3+0x6d8>
   4e6dc:	28bfffc4 	addi	r2,r5,-1
   4e6e0:	10000426 	beq	r2,zero,4e6f4 <__adddf3+0x2c8>
   4e6e4:	2941ffd8 	cmpnei	r5,r5,2047
   4e6e8:	28014226 	beq	r5,zero,4ebf4 <__adddf3+0x7c8>
   4e6ec:	100b883a 	mov	r5,r2
   4e6f0:	003fd106 	br	4e638 <__adddf3+0x20c>
   4e6f4:	7365883a 	add	r18,r14,r13
   4e6f8:	1a47883a 	add	r3,r3,r9
   4e6fc:	9389803a 	cmpltu	r4,r18,r14
   4e700:	1909883a 	add	r4,r3,r4
   4e704:	2080202c 	andhi	r2,r4,128
   4e708:	10009b1e 	bne	r2,zero,4e978 <__adddf3+0x54c>
   4e70c:	04400044 	movi	r17,1
   4e710:	908001cc 	andi	r2,r18,7
   4e714:	103f961e 	bne	r2,zero,4e570 <__adddf3+0x144>
   4e718:	9024d0fa 	srli	r18,r18,3
   4e71c:	2004977a 	slli	r2,r4,29
   4e720:	2010d0fa 	srli	r8,r4,3
   4e724:	880b883a 	mov	r5,r17
   4e728:	9084b03a 	or	r2,r18,r2
   4e72c:	28c1ffe0 	cmpeqi	r3,r5,2047
   4e730:	1800251e 	bne	r3,zero,4e7c8 <__adddf3+0x39c>
   4e734:	00c00434 	movhi	r3,16
   4e738:	18ffffc4 	addi	r3,r3,-1
   4e73c:	40c6703a 	and	r3,r8,r3
   4e740:	2941ffcc 	andi	r5,r5,2047
   4e744:	003f9f06 	br	4e5c4 <__adddf3+0x198>
   4e748:	4b64b03a 	or	r18,r9,r13
   4e74c:	9024c03a 	cmpne	r18,r18,zero
   4e750:	93a5883a 	add	r18,r18,r14
   4e754:	9389803a 	cmpltu	r4,r18,r14
   4e758:	20c9883a 	add	r4,r4,r3
   4e75c:	2080202c 	andhi	r2,r4,128
   4e760:	103feb26 	beq	r2,zero,4e710 <__adddf3+0x2e4>
   4e764:	8c400044 	addi	r17,r17,1
   4e768:	8881ffe0 	cmpeqi	r2,r17,2047
   4e76c:	10008326 	beq	r2,zero,4e97c <__adddf3+0x550>
   4e770:	0141ffc4 	movi	r5,2047
   4e774:	0007883a 	mov	r3,zero
   4e778:	0005883a 	mov	r2,zero
   4e77c:	003f9106 	br	4e5c4 <__adddf3+0x198>
   4e780:	4b44b03a 	or	r2,r9,r13
   4e784:	180a977a 	slli	r5,r3,29
   4e788:	1810d0fa 	srli	r8,r3,3
   4e78c:	10016c26 	beq	r2,zero,4ed40 <__adddf3+0x914>
   4e790:	00c80034 	movhi	r3,8192
   4e794:	18ffffc4 	addi	r3,r3,-1
   4e798:	20c4703a 	and	r2,r4,r3
   4e79c:	4100022c 	andhi	r4,r8,8
   4e7a0:	1144b03a 	or	r2,r2,r5
   4e7a4:	20000826 	beq	r4,zero,4e7c8 <__adddf3+0x39c>
   4e7a8:	4808d0fa 	srli	r4,r9,3
   4e7ac:	2140022c 	andhi	r5,r4,8
   4e7b0:	2800051e 	bne	r5,zero,4e7c8 <__adddf3+0x39c>
   4e7b4:	4804977a 	slli	r2,r9,29
   4e7b8:	30cc703a 	and	r6,r6,r3
   4e7bc:	3821883a 	mov	r16,r7
   4e7c0:	3084b03a 	or	r2,r6,r2
   4e7c4:	2011883a 	mov	r8,r4
   4e7c8:	4086b03a 	or	r3,r8,r2
   4e7cc:	18017126 	beq	r3,zero,4ed94 <__adddf3+0x968>
   4e7d0:	01000434 	movhi	r4,16
   4e7d4:	40c00234 	orhi	r3,r8,8
   4e7d8:	213fffc4 	addi	r4,r4,-1
   4e7dc:	1906703a 	and	r3,r3,r4
   4e7e0:	0141ffc4 	movi	r5,2047
   4e7e4:	003f7706 	br	4e5c4 <__adddf3+0x198>
   4e7e8:	28002926 	beq	r5,zero,4e890 <__adddf3+0x464>
   4e7ec:	144bc83a 	sub	r5,r2,r17
   4e7f0:	88008c26 	beq	r17,zero,4ea24 <__adddf3+0x5f8>
   4e7f4:	1101ffd8 	cmpnei	r4,r2,2047
   4e7f8:	20011126 	beq	r4,zero,4ec40 <__adddf3+0x814>
   4e7fc:	18c02034 	orhi	r3,r3,128
   4e800:	29000e48 	cmpgei	r4,r5,57
   4e804:	2000d51e 	bne	r4,zero,4eb5c <__adddf3+0x730>
   4e808:	29000808 	cmpgei	r4,r5,32
   4e80c:	2001511e 	bne	r4,zero,4ed54 <__adddf3+0x928>
   4e810:	01000804 	movi	r4,32
   4e814:	2149c83a 	sub	r4,r4,r5
   4e818:	1924983a 	sll	r18,r3,r4
   4e81c:	714cd83a 	srl	r6,r14,r5
   4e820:	7108983a 	sll	r4,r14,r4
   4e824:	194ad83a 	srl	r5,r3,r5
   4e828:	91a4b03a 	or	r18,r18,r6
   4e82c:	2006c03a 	cmpne	r3,r4,zero
   4e830:	90e4b03a 	or	r18,r18,r3
   4e834:	4953883a 	add	r9,r9,r5
   4e838:	9365883a 	add	r18,r18,r13
   4e83c:	9349803a 	cmpltu	r4,r18,r13
   4e840:	2249883a 	add	r4,r4,r9
   4e844:	1023883a 	mov	r17,r2
   4e848:	003fc406 	br	4e75c <__adddf3+0x330>
   4e84c:	023fe034 	movhi	r8,65408
   4e850:	423fffc4 	addi	r8,r8,-1
   4e854:	8b23c83a 	sub	r17,r17,r12
   4e858:	2208703a 	and	r4,r4,r8
   4e85c:	003f4206 	br	4e568 <__adddf3+0x13c>
   4e860:	9009883a 	mov	r4,r18
   4e864:	00430640 	call	43064 <__clzsi2>
   4e868:	13000604 	addi	r12,r2,24
   4e86c:	60c00808 	cmpgei	r3,r12,32
   4e870:	183f2826 	beq	r3,zero,4e514 <__adddf3+0xe8>
   4e874:	113ffe04 	addi	r4,r2,-8
   4e878:	9108983a 	sll	r4,r18,r4
   4e87c:	0025883a 	mov	r18,zero
   4e880:	003f2a06 	br	4e52c <__adddf3+0x100>
   4e884:	4b64b03a 	or	r18,r9,r13
   4e888:	9024c03a 	cmpne	r18,r18,zero
   4e88c:	003f1506 	br	4e4e4 <__adddf3+0xb8>
   4e890:	8a000044 	addi	r8,r17,1
   4e894:	4081ff8c 	andi	r2,r8,2046
   4e898:	1000751e 	bne	r2,zero,4ea70 <__adddf3+0x644>
   4e89c:	1b84b03a 	or	r2,r3,r14
   4e8a0:	8800bc1e 	bne	r17,zero,4eb94 <__adddf3+0x768>
   4e8a4:	10010c26 	beq	r2,zero,4ecd8 <__adddf3+0x8ac>
   4e8a8:	4b44b03a 	or	r2,r9,r13
   4e8ac:	1001111e 	bne	r2,zero,4ecf4 <__adddf3+0x8c8>
   4e8b0:	180c977a 	slli	r6,r3,29
   4e8b4:	00880034 	movhi	r2,8192
   4e8b8:	10bfffc4 	addi	r2,r2,-1
   4e8bc:	2084703a 	and	r2,r4,r2
   4e8c0:	1810d0fa 	srli	r8,r3,3
   4e8c4:	1184b03a 	or	r2,r2,r6
   4e8c8:	003f9a06 	br	4e734 <__adddf3+0x308>
   4e8cc:	7365c83a 	sub	r18,r14,r13
   4e8d0:	1a67c83a 	sub	r19,r3,r9
   4e8d4:	7489803a 	cmpltu	r4,r14,r18
   4e8d8:	9927c83a 	sub	r19,r19,r4
   4e8dc:	9880202c 	andhi	r2,r19,128
   4e8e0:	10006f1e 	bne	r2,zero,4eaa0 <__adddf3+0x674>
   4e8e4:	94c4b03a 	or	r2,r18,r19
   4e8e8:	103f061e 	bne	r2,zero,4e504 <__adddf3+0xd8>
   4e8ec:	0011883a 	mov	r8,zero
   4e8f0:	0021883a 	mov	r16,zero
   4e8f4:	003f8f06 	br	4e734 <__adddf3+0x308>
   4e8f8:	1101ffd8 	cmpnei	r4,r2,2047
   4e8fc:	20008f26 	beq	r4,zero,4eb3c <__adddf3+0x710>
   4e900:	18c02034 	orhi	r3,r3,128
   4e904:	29000e48 	cmpgei	r4,r5,57
   4e908:	20003e1e 	bne	r4,zero,4ea04 <__adddf3+0x5d8>
   4e90c:	29000808 	cmpgei	r4,r5,32
   4e910:	2000951e 	bne	r4,zero,4eb68 <__adddf3+0x73c>
   4e914:	01000804 	movi	r4,32
   4e918:	2149c83a 	sub	r4,r4,r5
   4e91c:	1924983a 	sll	r18,r3,r4
   4e920:	714cd83a 	srl	r6,r14,r5
   4e924:	711c983a 	sll	r14,r14,r4
   4e928:	1946d83a 	srl	r3,r3,r5
   4e92c:	91a4b03a 	or	r18,r18,r6
   4e930:	701cc03a 	cmpne	r14,r14,zero
   4e934:	93a4b03a 	or	r18,r18,r14
   4e938:	48d3c83a 	sub	r9,r9,r3
   4e93c:	00003306 	br	4ea0c <__adddf3+0x5e0>
   4e940:	1824977a 	slli	r18,r3,29
   4e944:	01880034 	movhi	r6,8192
   4e948:	31bfffc4 	addi	r6,r6,-1
   4e94c:	2184703a 	and	r2,r4,r6
   4e950:	1810d0fa 	srli	r8,r3,3
   4e954:	1484b03a 	or	r2,r2,r18
   4e958:	003f7406 	br	4e72c <__adddf3+0x300>
   4e95c:	1804977a 	slli	r2,r3,29
   4e960:	01480034 	movhi	r5,8192
   4e964:	297fffc4 	addi	r5,r5,-1
   4e968:	2148703a 	and	r4,r4,r5
   4e96c:	1810d0fa 	srli	r8,r3,3
   4e970:	1104b03a 	or	r2,r2,r4
   4e974:	003f9406 	br	4e7c8 <__adddf3+0x39c>
   4e978:	04400084 	movi	r17,2
   4e97c:	00bfe034 	movhi	r2,65408
   4e980:	10bfffc4 	addi	r2,r2,-1
   4e984:	9006d07a 	srli	r3,r18,1
   4e988:	2088703a 	and	r4,r4,r2
   4e98c:	200497fa 	slli	r2,r4,31
   4e990:	9480004c 	andi	r18,r18,1
   4e994:	1ca4b03a 	or	r18,r3,r18
   4e998:	2008d07a 	srli	r4,r4,1
   4e99c:	14a4b03a 	or	r18,r2,r18
   4e9a0:	003ef106 	br	4e568 <__adddf3+0x13c>
   4e9a4:	633ff844 	addi	r12,r12,-31
   4e9a8:	40800820 	cmpeqi	r2,r8,32
   4e9ac:	2318d83a 	srl	r12,r4,r12
   4e9b0:	1000041e 	bne	r2,zero,4e9c4 <__adddf3+0x598>
   4e9b4:	00801004 	movi	r2,64
   4e9b8:	1211c83a 	sub	r8,r2,r8
   4e9bc:	2208983a 	sll	r4,r4,r8
   4e9c0:	9124b03a 	or	r18,r18,r4
   4e9c4:	9024c03a 	cmpne	r18,r18,zero
   4e9c8:	9324b03a 	or	r18,r18,r12
   4e9cc:	0009883a 	mov	r4,zero
   4e9d0:	0023883a 	mov	r17,zero
   4e9d4:	003f4e06 	br	4e710 <__adddf3+0x2e4>
   4e9d8:	2cbff804 	addi	r18,r5,-32
   4e9dc:	29000820 	cmpeqi	r4,r5,32
   4e9e0:	4c84d83a 	srl	r2,r9,r18
   4e9e4:	2000041e 	bne	r4,zero,4e9f8 <__adddf3+0x5cc>
   4e9e8:	01001004 	movi	r4,64
   4e9ec:	214bc83a 	sub	r5,r4,r5
   4e9f0:	4952983a 	sll	r9,r9,r5
   4e9f4:	6a5ab03a 	or	r13,r13,r9
   4e9f8:	6824c03a 	cmpne	r18,r13,zero
   4e9fc:	90a4b03a 	or	r18,r18,r2
   4ea00:	003eb806 	br	4e4e4 <__adddf3+0xb8>
   4ea04:	1b88b03a 	or	r4,r3,r14
   4ea08:	2024c03a 	cmpne	r18,r4,zero
   4ea0c:	6ca5c83a 	sub	r18,r13,r18
   4ea10:	6c89803a 	cmpltu	r4,r13,r18
   4ea14:	4909c83a 	sub	r4,r9,r4
   4ea18:	3821883a 	mov	r16,r7
   4ea1c:	1023883a 	mov	r17,r2
   4ea20:	003eb306 	br	4e4f0 <__adddf3+0xc4>
   4ea24:	1b88b03a 	or	r4,r3,r14
   4ea28:	20008c26 	beq	r4,zero,4ec5c <__adddf3+0x830>
   4ea2c:	293fffc4 	addi	r4,r5,-1
   4ea30:	2000d326 	beq	r4,zero,4ed80 <__adddf3+0x954>
   4ea34:	2941ffd8 	cmpnei	r5,r5,2047
   4ea38:	28008126 	beq	r5,zero,4ec40 <__adddf3+0x814>
   4ea3c:	200b883a 	mov	r5,r4
   4ea40:	003f6f06 	br	4e800 <__adddf3+0x3d4>
   4ea44:	00800804 	movi	r2,32
   4ea48:	1145c83a 	sub	r2,r2,r5
   4ea4c:	6948d83a 	srl	r4,r13,r5
   4ea50:	48a4983a 	sll	r18,r9,r2
   4ea54:	6884983a 	sll	r2,r13,r2
   4ea58:	494ad83a 	srl	r5,r9,r5
   4ea5c:	9124b03a 	or	r18,r18,r4
   4ea60:	101ac03a 	cmpne	r13,r2,zero
   4ea64:	9364b03a 	or	r18,r18,r13
   4ea68:	1947883a 	add	r3,r3,r5
   4ea6c:	003f3806 	br	4e750 <__adddf3+0x324>
   4ea70:	4081ffe0 	cmpeqi	r2,r8,2047
   4ea74:	103f3e1e 	bne	r2,zero,4e770 <__adddf3+0x344>
   4ea78:	7345883a 	add	r2,r14,r13
   4ea7c:	139d803a 	cmpltu	r14,r2,r14
   4ea80:	1a49883a 	add	r4,r3,r9
   4ea84:	2389883a 	add	r4,r4,r14
   4ea88:	202497fa 	slli	r18,r4,31
   4ea8c:	1004d07a 	srli	r2,r2,1
   4ea90:	2008d07a 	srli	r4,r4,1
   4ea94:	4023883a 	mov	r17,r8
   4ea98:	90a4b03a 	or	r18,r18,r2
   4ea9c:	003f1c06 	br	4e710 <__adddf3+0x2e4>
   4eaa0:	6ba5c83a 	sub	r18,r13,r14
   4eaa4:	48c9c83a 	sub	r4,r9,r3
   4eaa8:	6c85803a 	cmpltu	r2,r13,r18
   4eaac:	20a7c83a 	sub	r19,r4,r2
   4eab0:	3821883a 	mov	r16,r7
   4eab4:	003e9306 	br	4e504 <__adddf3+0xd8>
   4eab8:	58006f1e 	bne	r11,zero,4ec78 <__adddf3+0x84c>
   4eabc:	10001f1e 	bne	r2,zero,4eb3c <__adddf3+0x710>
   4eac0:	00bfffc4 	movi	r2,-1
   4eac4:	0021883a 	mov	r16,zero
   4eac8:	003f4106 	br	4e7d0 <__adddf3+0x3a4>
   4eacc:	4808977a 	slli	r4,r9,29
   4ead0:	00c80034 	movhi	r3,8192
   4ead4:	18ffffc4 	addi	r3,r3,-1
   4ead8:	30c4703a 	and	r2,r6,r3
   4eadc:	4810d0fa 	srli	r8,r9,3
   4eae0:	1104b03a 	or	r2,r2,r4
   4eae4:	3821883a 	mov	r16,r7
   4eae8:	003f1006 	br	4e72c <__adddf3+0x300>
   4eaec:	7365c83a 	sub	r18,r14,r13
   4eaf0:	1a47c83a 	sub	r3,r3,r9
   4eaf4:	7489803a 	cmpltu	r4,r14,r18
   4eaf8:	1909c83a 	sub	r4,r3,r4
   4eafc:	04400044 	movi	r17,1
   4eb00:	003e7b06 	br	4e4f0 <__adddf3+0xc4>
   4eb04:	1824977a 	slli	r18,r3,29
   4eb08:	01c80034 	movhi	r7,8192
   4eb0c:	39ffffc4 	addi	r7,r7,-1
   4eb10:	21c4703a 	and	r2,r4,r7
   4eb14:	1810d0fa 	srli	r8,r3,3
   4eb18:	1484b03a 	or	r2,r2,r18
   4eb1c:	003f0306 	br	4e72c <__adddf3+0x300>
   4eb20:	1824977a 	slli	r18,r3,29
   4eb24:	01480034 	movhi	r5,8192
   4eb28:	297fffc4 	addi	r5,r5,-1
   4eb2c:	2144703a 	and	r2,r4,r5
   4eb30:	1810d0fa 	srli	r8,r3,3
   4eb34:	1484b03a 	or	r2,r2,r18
   4eb38:	003f2306 	br	4e7c8 <__adddf3+0x39c>
   4eb3c:	4806977a 	slli	r3,r9,29
   4eb40:	00880034 	movhi	r2,8192
   4eb44:	10bfffc4 	addi	r2,r2,-1
   4eb48:	3084703a 	and	r2,r6,r2
   4eb4c:	4810d0fa 	srli	r8,r9,3
   4eb50:	10c4b03a 	or	r2,r2,r3
   4eb54:	3821883a 	mov	r16,r7
   4eb58:	003f1b06 	br	4e7c8 <__adddf3+0x39c>
   4eb5c:	1b88b03a 	or	r4,r3,r14
   4eb60:	2024c03a 	cmpne	r18,r4,zero
   4eb64:	003f3406 	br	4e838 <__adddf3+0x40c>
   4eb68:	2cbff804 	addi	r18,r5,-32
   4eb6c:	29800820 	cmpeqi	r6,r5,32
   4eb70:	1c88d83a 	srl	r4,r3,r18
   4eb74:	3000041e 	bne	r6,zero,4eb88 <__adddf3+0x75c>
   4eb78:	01801004 	movi	r6,64
   4eb7c:	314bc83a 	sub	r5,r6,r5
   4eb80:	1946983a 	sll	r3,r3,r5
   4eb84:	70dcb03a 	or	r14,r14,r3
   4eb88:	7024c03a 	cmpne	r18,r14,zero
   4eb8c:	9124b03a 	or	r18,r18,r4
   4eb90:	003f9e06 	br	4ea0c <__adddf3+0x5e0>
   4eb94:	103efa1e 	bne	r2,zero,4e780 <__adddf3+0x354>
   4eb98:	4804977a 	slli	r2,r9,29
   4eb9c:	00c80034 	movhi	r3,8192
   4eba0:	18ffffc4 	addi	r3,r3,-1
   4eba4:	30cc703a 	and	r6,r6,r3
   4eba8:	4810d0fa 	srli	r8,r9,3
   4ebac:	1184b03a 	or	r2,r2,r6
   4ebb0:	003f0506 	br	4e7c8 <__adddf3+0x39c>
   4ebb4:	10004426 	beq	r2,zero,4ecc8 <__adddf3+0x89c>
   4ebb8:	4806977a 	slli	r3,r9,29
   4ebbc:	00880034 	movhi	r2,8192
   4ebc0:	10bfffc4 	addi	r2,r2,-1
   4ebc4:	3084703a 	and	r2,r6,r2
   4ebc8:	4810d0fa 	srli	r8,r9,3
   4ebcc:	10c4b03a 	or	r2,r2,r3
   4ebd0:	3821883a 	mov	r16,r7
   4ebd4:	003ed706 	br	4e734 <__adddf3+0x308>
   4ebd8:	6ba5c83a 	sub	r18,r13,r14
   4ebdc:	48c7c83a 	sub	r3,r9,r3
   4ebe0:	6c85803a 	cmpltu	r2,r13,r18
   4ebe4:	1889c83a 	sub	r4,r3,r2
   4ebe8:	3821883a 	mov	r16,r7
   4ebec:	04400044 	movi	r17,1
   4ebf0:	003e3f06 	br	4e4f0 <__adddf3+0xc4>
   4ebf4:	180a977a 	slli	r5,r3,29
   4ebf8:	00880034 	movhi	r2,8192
   4ebfc:	10bfffc4 	addi	r2,r2,-1
   4ec00:	2084703a 	and	r2,r4,r2
   4ec04:	1810d0fa 	srli	r8,r3,3
   4ec08:	1144b03a 	or	r2,r2,r5
   4ec0c:	003eee06 	br	4e7c8 <__adddf3+0x39c>
   4ec10:	7365c83a 	sub	r18,r14,r13
   4ec14:	7485803a 	cmpltu	r2,r14,r18
   4ec18:	1a49c83a 	sub	r4,r3,r9
   4ec1c:	2089c83a 	sub	r4,r4,r2
   4ec20:	2080202c 	andhi	r2,r4,128
   4ec24:	10002626 	beq	r2,zero,4ecc0 <__adddf3+0x894>
   4ec28:	6ba5c83a 	sub	r18,r13,r14
   4ec2c:	48c7c83a 	sub	r3,r9,r3
   4ec30:	6c85803a 	cmpltu	r2,r13,r18
   4ec34:	1889c83a 	sub	r4,r3,r2
   4ec38:	3821883a 	mov	r16,r7
   4ec3c:	003e4a06 	br	4e568 <__adddf3+0x13c>
   4ec40:	4806977a 	slli	r3,r9,29
   4ec44:	00880034 	movhi	r2,8192
   4ec48:	10bfffc4 	addi	r2,r2,-1
   4ec4c:	3084703a 	and	r2,r6,r2
   4ec50:	4810d0fa 	srli	r8,r9,3
   4ec54:	10c4b03a 	or	r2,r2,r3
   4ec58:	003edb06 	br	4e7c8 <__adddf3+0x39c>
   4ec5c:	4806977a 	slli	r3,r9,29
   4ec60:	00880034 	movhi	r2,8192
   4ec64:	10bfffc4 	addi	r2,r2,-1
   4ec68:	3084703a 	and	r2,r6,r2
   4ec6c:	4810d0fa 	srli	r8,r9,3
   4ec70:	10c4b03a 	or	r2,r2,r3
   4ec74:	003ead06 	br	4e72c <__adddf3+0x300>
   4ec78:	180a977a 	slli	r5,r3,29
   4ec7c:	1810d0fa 	srli	r8,r3,3
   4ec80:	10002f26 	beq	r2,zero,4ed40 <__adddf3+0x914>
   4ec84:	00c80034 	movhi	r3,8192
   4ec88:	18ffffc4 	addi	r3,r3,-1
   4ec8c:	20c4703a 	and	r2,r4,r3
   4ec90:	4100022c 	andhi	r4,r8,8
   4ec94:	1144b03a 	or	r2,r2,r5
   4ec98:	203ecb26 	beq	r4,zero,4e7c8 <__adddf3+0x39c>
   4ec9c:	4808d0fa 	srli	r4,r9,3
   4eca0:	2140022c 	andhi	r5,r4,8
   4eca4:	283ec81e 	bne	r5,zero,4e7c8 <__adddf3+0x39c>
   4eca8:	4812977a 	slli	r9,r9,29
   4ecac:	30c4703a 	and	r2,r6,r3
   4ecb0:	3821883a 	mov	r16,r7
   4ecb4:	1244b03a 	or	r2,r2,r9
   4ecb8:	2011883a 	mov	r8,r4
   4ecbc:	003ec206 	br	4e7c8 <__adddf3+0x39c>
   4ecc0:	9104b03a 	or	r2,r18,r4
   4ecc4:	103e921e 	bne	r2,zero,4e710 <__adddf3+0x2e4>
   4ecc8:	0011883a 	mov	r8,zero
   4eccc:	100b883a 	mov	r5,r2
   4ecd0:	0021883a 	mov	r16,zero
   4ecd4:	003e9706 	br	4e734 <__adddf3+0x308>
   4ecd8:	4804977a 	slli	r2,r9,29
   4ecdc:	00c80034 	movhi	r3,8192
   4ece0:	18ffffc4 	addi	r3,r3,-1
   4ece4:	30cc703a 	and	r6,r6,r3
   4ece8:	4810d0fa 	srli	r8,r9,3
   4ecec:	1184b03a 	or	r2,r2,r6
   4ecf0:	003e9006 	br	4e734 <__adddf3+0x308>
   4ecf4:	7365883a 	add	r18,r14,r13
   4ecf8:	1a47883a 	add	r3,r3,r9
   4ecfc:	9389803a 	cmpltu	r4,r18,r14
   4ed00:	1909883a 	add	r4,r3,r4
   4ed04:	2080202c 	andhi	r2,r4,128
   4ed08:	103e8126 	beq	r2,zero,4e710 <__adddf3+0x2e4>
   4ed0c:	00bfe034 	movhi	r2,65408
   4ed10:	10bfffc4 	addi	r2,r2,-1
   4ed14:	2088703a 	and	r4,r4,r2
   4ed18:	04400044 	movi	r17,1
   4ed1c:	003e7c06 	br	4e710 <__adddf3+0x2e4>
   4ed20:	4804977a 	slli	r2,r9,29
   4ed24:	00c80034 	movhi	r3,8192
   4ed28:	18ffffc4 	addi	r3,r3,-1
   4ed2c:	30cc703a 	and	r6,r6,r3
   4ed30:	4810d0fa 	srli	r8,r9,3
   4ed34:	1184b03a 	or	r2,r2,r6
   4ed38:	3821883a 	mov	r16,r7
   4ed3c:	003ea206 	br	4e7c8 <__adddf3+0x39c>
   4ed40:	00880034 	movhi	r2,8192
   4ed44:	10bfffc4 	addi	r2,r2,-1
   4ed48:	2084703a 	and	r2,r4,r2
   4ed4c:	1144b03a 	or	r2,r2,r5
   4ed50:	003e9d06 	br	4e7c8 <__adddf3+0x39c>
   4ed54:	293ff804 	addi	r4,r5,-32
   4ed58:	29800820 	cmpeqi	r6,r5,32
   4ed5c:	1908d83a 	srl	r4,r3,r4
   4ed60:	3000041e 	bne	r6,zero,4ed74 <__adddf3+0x948>
   4ed64:	01801004 	movi	r6,64
   4ed68:	314bc83a 	sub	r5,r6,r5
   4ed6c:	1946983a 	sll	r3,r3,r5
   4ed70:	70dcb03a 	or	r14,r14,r3
   4ed74:	7024c03a 	cmpne	r18,r14,zero
   4ed78:	9124b03a 	or	r18,r18,r4
   4ed7c:	003eae06 	br	4e838 <__adddf3+0x40c>
   4ed80:	7365883a 	add	r18,r14,r13
   4ed84:	1a47883a 	add	r3,r3,r9
   4ed88:	9345803a 	cmpltu	r2,r18,r13
   4ed8c:	1889883a 	add	r4,r3,r2
   4ed90:	003e5c06 	br	4e704 <__adddf3+0x2d8>
   4ed94:	0005883a 	mov	r2,zero
   4ed98:	0141ffc4 	movi	r5,2047
   4ed9c:	0007883a 	mov	r3,zero
   4eda0:	003e0806 	br	4e5c4 <__adddf3+0x198>

0004eda4 <__divdf3>:
   4eda4:	2804d53a 	srli	r2,r5,20
   4eda8:	defff204 	addi	sp,sp,-56
   4edac:	dc000415 	stw	r16,16(sp)
   4edb0:	04000434 	movhi	r16,16
   4edb4:	ddc00b15 	stw	r23,44(sp)
   4edb8:	dd800a15 	stw	r22,40(sp)
   4edbc:	dc800615 	stw	r18,24(sp)
   4edc0:	843fffc4 	addi	r16,r16,-1
   4edc4:	dfc00d15 	stw	ra,52(sp)
   4edc8:	df000c15 	stw	fp,48(sp)
   4edcc:	dd400915 	stw	r21,36(sp)
   4edd0:	dd000815 	stw	r20,32(sp)
   4edd4:	dcc00715 	stw	r19,28(sp)
   4edd8:	dc400515 	stw	r17,20(sp)
   4eddc:	1081ffcc 	andi	r2,r2,2047
   4ede0:	282cd7fa 	srli	r22,r5,31
   4ede4:	302f883a 	mov	r23,r6
   4ede8:	2025883a 	mov	r18,r4
   4edec:	2c20703a 	and	r16,r5,r16
   4edf0:	10005326 	beq	r2,zero,4ef40 <__divdf3+0x19c>
   4edf4:	10c1ffe0 	cmpeqi	r3,r2,2047
   4edf8:	1800661e 	bne	r3,zero,4ef94 <__divdf3+0x1f0>
   4edfc:	2028d77a 	srli	r20,r4,29
   4ee00:	800a90fa 	slli	r5,r16,3
   4ee04:	202490fa 	slli	r18,r4,3
   4ee08:	14ff0044 	addi	r19,r2,-1023
   4ee0c:	a14ab03a 	or	r5,r20,r5
   4ee10:	2d002034 	orhi	r20,r5,128
   4ee14:	0021883a 	mov	r16,zero
   4ee18:	0039883a 	mov	fp,zero
   4ee1c:	3804d53a 	srli	r2,r7,20
   4ee20:	00c00434 	movhi	r3,16
   4ee24:	18ffffc4 	addi	r3,r3,-1
   4ee28:	1081ffcc 	andi	r2,r2,2047
   4ee2c:	3810d7fa 	srli	r8,r7,31
   4ee30:	38e2703a 	and	r17,r7,r3
   4ee34:	10005e26 	beq	r2,zero,4efb0 <__divdf3+0x20c>
   4ee38:	10c1ffe0 	cmpeqi	r3,r2,2047
   4ee3c:	1800201e 	bne	r3,zero,4eec0 <__divdf3+0x11c>
   4ee40:	880690fa 	slli	r3,r17,3
   4ee44:	b822d77a 	srli	r17,r23,29
   4ee48:	b81290fa 	slli	r9,r23,3
   4ee4c:	10bf0044 	addi	r2,r2,-1023
   4ee50:	88c6b03a 	or	r3,r17,r3
   4ee54:	1c402034 	orhi	r17,r3,128
   4ee58:	98a7c83a 	sub	r19,r19,r2
   4ee5c:	0007883a 	mov	r3,zero
   4ee60:	80800428 	cmpgeui	r2,r16,16
   4ee64:	b22af03a 	xor	r21,r22,r8
   4ee68:	1000ac1e 	bne	r2,zero,4f11c <__divdf3+0x378>
   4ee6c:	800490ba 	slli	r2,r16,2
   4ee70:	01800174 	movhi	r6,5
   4ee74:	118d883a 	add	r6,r2,r6
   4ee78:	30bba017 	ldw	r2,-4480(r6)
   4ee7c:	1000683a 	jmp	r2
   4ee80:	0004f11c 	xori	zero,zero,5060
   4ee84:	0004ef30 	cmpltui	zero,zero,5052
   4ee88:	0004eedc 	xori	zero,zero,5051
   4ee8c:	0004f064 	muli	zero,zero,5057
   4ee90:	0004eedc 	xori	zero,zero,5051
   4ee94:	0004f0c0 	call	4f0c <__alt_mem_Memory-0x3b0f4>
   4ee98:	0004eedc 	xori	zero,zero,5051
   4ee9c:	0004f064 	muli	zero,zero,5057
   4eea0:	0004ef30 	cmpltui	zero,zero,5052
   4eea4:	0004ef30 	cmpltui	zero,zero,5052
   4eea8:	0004f0c0 	call	4f0c <__alt_mem_Memory-0x3b0f4>
   4eeac:	0004f064 	muli	zero,zero,5057
   4eeb0:	0004effc 	xorhi	zero,zero,5055
   4eeb4:	0004effc 	xorhi	zero,zero,5055
   4eeb8:	0004effc 	xorhi	zero,zero,5055
   4eebc:	0004f0d8 	cmpnei	zero,zero,5059
   4eec0:	8dd2b03a 	or	r9,r17,r23
   4eec4:	9cfe0044 	addi	r19,r19,-2047
   4eec8:	48006b1e 	bne	r9,zero,4f078 <__divdf3+0x2d4>
   4eecc:	84000094 	ori	r16,r16,2
   4eed0:	0023883a 	mov	r17,zero
   4eed4:	00c00084 	movi	r3,2
   4eed8:	003fe106 	br	4ee60 <__divdf3+0xbc>
   4eedc:	0007883a 	mov	r3,zero
   4eee0:	000b883a 	mov	r5,zero
   4eee4:	0025883a 	mov	r18,zero
   4eee8:	a8803fcc 	andi	r2,r21,255
   4eeec:	1806953a 	slli	r3,r3,20
   4eef0:	100497fa 	slli	r2,r2,31
   4eef4:	1946b03a 	or	r3,r3,r5
   4eef8:	1886b03a 	or	r3,r3,r2
   4eefc:	9005883a 	mov	r2,r18
   4ef00:	dfc00d17 	ldw	ra,52(sp)
   4ef04:	df000c17 	ldw	fp,48(sp)
   4ef08:	ddc00b17 	ldw	r23,44(sp)
   4ef0c:	dd800a17 	ldw	r22,40(sp)
   4ef10:	dd400917 	ldw	r21,36(sp)
   4ef14:	dd000817 	ldw	r20,32(sp)
   4ef18:	dcc00717 	ldw	r19,28(sp)
   4ef1c:	dc800617 	ldw	r18,24(sp)
   4ef20:	dc400517 	ldw	r17,20(sp)
   4ef24:	dc000417 	ldw	r16,16(sp)
   4ef28:	dec00e04 	addi	sp,sp,56
   4ef2c:	f800283a 	ret
   4ef30:	00c1ffc4 	movi	r3,2047
   4ef34:	000b883a 	mov	r5,zero
   4ef38:	0025883a 	mov	r18,zero
   4ef3c:	003fea06 	br	4eee8 <__divdf3+0x144>
   4ef40:	2428b03a 	or	r20,r4,r16
   4ef44:	2023883a 	mov	r17,r4
   4ef48:	a0005326 	beq	r20,zero,4f098 <__divdf3+0x2f4>
   4ef4c:	d9c00015 	stw	r7,0(sp)
   4ef50:	80014126 	beq	r16,zero,4f458 <__divdf3+0x6b4>
   4ef54:	8009883a 	mov	r4,r16
   4ef58:	00430640 	call	43064 <__clzsi2>
   4ef5c:	d9c00017 	ldw	r7,0(sp)
   4ef60:	10fffd44 	addi	r3,r2,-11
   4ef64:	05000744 	movi	r20,29
   4ef68:	113ffe04 	addi	r4,r2,-8
   4ef6c:	a0e9c83a 	sub	r20,r20,r3
   4ef70:	810a983a 	sll	r5,r16,r4
   4ef74:	8d28d83a 	srl	r20,r17,r20
   4ef78:	8924983a 	sll	r18,r17,r4
   4ef7c:	a168b03a 	or	r20,r20,r5
   4ef80:	04ff0344 	movi	r19,-1011
   4ef84:	98a7c83a 	sub	r19,r19,r2
   4ef88:	0021883a 	mov	r16,zero
   4ef8c:	0039883a 	mov	fp,zero
   4ef90:	003fa206 	br	4ee1c <__divdf3+0x78>
   4ef94:	2428b03a 	or	r20,r4,r16
   4ef98:	a000441e 	bne	r20,zero,4f0ac <__divdf3+0x308>
   4ef9c:	0025883a 	mov	r18,zero
   4efa0:	04000204 	movi	r16,8
   4efa4:	04c1ffc4 	movi	r19,2047
   4efa8:	07000084 	movi	fp,2
   4efac:	003f9b06 	br	4ee1c <__divdf3+0x78>
   4efb0:	8dd2b03a 	or	r9,r17,r23
   4efb4:	48003426 	beq	r9,zero,4f088 <__divdf3+0x2e4>
   4efb8:	da000015 	stw	r8,0(sp)
   4efbc:	88013126 	beq	r17,zero,4f484 <__divdf3+0x6e0>
   4efc0:	8809883a 	mov	r4,r17
   4efc4:	00430640 	call	43064 <__clzsi2>
   4efc8:	da000017 	ldw	r8,0(sp)
   4efcc:	117ffd44 	addi	r5,r2,-11
   4efd0:	01000744 	movi	r4,29
   4efd4:	127ffe04 	addi	r9,r2,-8
   4efd8:	2149c83a 	sub	r4,r4,r5
   4efdc:	8a46983a 	sll	r3,r17,r9
   4efe0:	b908d83a 	srl	r4,r23,r4
   4efe4:	ba52983a 	sll	r9,r23,r9
   4efe8:	20e2b03a 	or	r17,r4,r3
   4efec:	14c5883a 	add	r2,r2,r19
   4eff0:	14c0fcc4 	addi	r19,r2,1011
   4eff4:	0007883a 	mov	r3,zero
   4eff8:	003f9906 	br	4ee60 <__divdf3+0xbc>
   4effc:	b02b883a 	mov	r21,r22
   4f000:	e08000a0 	cmpeqi	r2,fp,2
   4f004:	103fca1e 	bne	r2,zero,4ef30 <__divdf3+0x18c>
   4f008:	e08000e0 	cmpeqi	r2,fp,3
   4f00c:	1001741e 	bne	r2,zero,4f5e0 <__divdf3+0x83c>
   4f010:	e0800060 	cmpeqi	r2,fp,1
   4f014:	103fb11e 	bne	r2,zero,4eedc <__divdf3+0x138>
   4f018:	9c40ffc4 	addi	r17,r19,1023
   4f01c:	0440de0e 	bge	zero,r17,4f398 <__divdf3+0x5f4>
   4f020:	908001cc 	andi	r2,r18,7
   4f024:	10014a1e 	bne	r2,zero,4f550 <__divdf3+0x7ac>
   4f028:	900cd0fa 	srli	r6,r18,3
   4f02c:	a080402c 	andhi	r2,r20,256
   4f030:	10000426 	beq	r2,zero,4f044 <__divdf3+0x2a0>
   4f034:	00bfc034 	movhi	r2,65280
   4f038:	10bfffc4 	addi	r2,r2,-1
   4f03c:	a0a8703a 	and	r20,r20,r2
   4f040:	9c410004 	addi	r17,r19,1024
   4f044:	8881ffc8 	cmpgei	r2,r17,2047
   4f048:	103fb91e 	bne	r2,zero,4ef30 <__divdf3+0x18c>
   4f04c:	a008977a 	slli	r4,r20,29
   4f050:	a00a927a 	slli	r5,r20,9
   4f054:	88c1ffcc 	andi	r3,r17,2047
   4f058:	21a4b03a 	or	r18,r4,r6
   4f05c:	280ad33a 	srli	r5,r5,12
   4f060:	003fa106 	br	4eee8 <__divdf3+0x144>
   4f064:	402b883a 	mov	r21,r8
   4f068:	8829883a 	mov	r20,r17
   4f06c:	4825883a 	mov	r18,r9
   4f070:	1839883a 	mov	fp,r3
   4f074:	003fe206 	br	4f000 <__divdf3+0x25c>
   4f078:	840000d4 	ori	r16,r16,3
   4f07c:	b813883a 	mov	r9,r23
   4f080:	00c000c4 	movi	r3,3
   4f084:	003f7606 	br	4ee60 <__divdf3+0xbc>
   4f088:	84000054 	ori	r16,r16,1
   4f08c:	0023883a 	mov	r17,zero
   4f090:	00c00044 	movi	r3,1
   4f094:	003f7206 	br	4ee60 <__divdf3+0xbc>
   4f098:	0025883a 	mov	r18,zero
   4f09c:	04000104 	movi	r16,4
   4f0a0:	0027883a 	mov	r19,zero
   4f0a4:	07000044 	movi	fp,1
   4f0a8:	003f5c06 	br	4ee1c <__divdf3+0x78>
   4f0ac:	8029883a 	mov	r20,r16
   4f0b0:	04c1ffc4 	movi	r19,2047
   4f0b4:	04000304 	movi	r16,12
   4f0b8:	070000c4 	movi	fp,3
   4f0bc:	003f5706 	br	4ee1c <__divdf3+0x78>
   4f0c0:	01400434 	movhi	r5,16
   4f0c4:	002b883a 	mov	r21,zero
   4f0c8:	297fffc4 	addi	r5,r5,-1
   4f0cc:	04bfffc4 	movi	r18,-1
   4f0d0:	00c1ffc4 	movi	r3,2047
   4f0d4:	003f8406 	br	4eee8 <__divdf3+0x144>
   4f0d8:	a080022c 	andhi	r2,r20,8
   4f0dc:	10000926 	beq	r2,zero,4f104 <__divdf3+0x360>
   4f0e0:	8880022c 	andhi	r2,r17,8
   4f0e4:	1000071e 	bne	r2,zero,4f104 <__divdf3+0x360>
   4f0e8:	00800434 	movhi	r2,16
   4f0ec:	89400234 	orhi	r5,r17,8
   4f0f0:	10bfffc4 	addi	r2,r2,-1
   4f0f4:	288a703a 	and	r5,r5,r2
   4f0f8:	402b883a 	mov	r21,r8
   4f0fc:	4825883a 	mov	r18,r9
   4f100:	003ff306 	br	4f0d0 <__divdf3+0x32c>
   4f104:	00800434 	movhi	r2,16
   4f108:	a1400234 	orhi	r5,r20,8
   4f10c:	10bfffc4 	addi	r2,r2,-1
   4f110:	288a703a 	and	r5,r5,r2
   4f114:	b02b883a 	mov	r21,r22
   4f118:	003fed06 	br	4f0d0 <__divdf3+0x32c>
   4f11c:	8d00c836 	bltu	r17,r20,4f440 <__divdf3+0x69c>
   4f120:	8d00c626 	beq	r17,r20,4f43c <__divdf3+0x698>
   4f124:	9cffffc4 	addi	r19,r19,-1
   4f128:	0021883a 	mov	r16,zero
   4f12c:	8806923a 	slli	r3,r17,8
   4f130:	480cd63a 	srli	r6,r9,24
   4f134:	4804923a 	slli	r2,r9,8
   4f138:	1838d43a 	srli	fp,r3,16
   4f13c:	a009883a 	mov	r4,r20
   4f140:	30ecb03a 	or	r22,r6,r3
   4f144:	e00b883a 	mov	r5,fp
   4f148:	d8800015 	stw	r2,0(sp)
   4f14c:	00428540 	call	42854 <__udivsi3>
   4f150:	a009883a 	mov	r4,r20
   4f154:	e00b883a 	mov	r5,fp
   4f158:	d8800115 	stw	r2,4(sp)
   4f15c:	00428b80 	call	428b8 <__umodsi3>
   4f160:	d8c00117 	ldw	r3,4(sp)
   4f164:	1004943a 	slli	r2,r2,16
   4f168:	9008d43a 	srli	r4,r18,16
   4f16c:	b5ffffcc 	andi	r23,r22,65535
   4f170:	b8e3383a 	mul	r17,r23,r3
   4f174:	2088b03a 	or	r4,r4,r2
   4f178:	2440042e 	bgeu	r4,r17,4f18c <__divdf3+0x3e8>
   4f17c:	2589883a 	add	r4,r4,r22
   4f180:	18bfffc4 	addi	r2,r3,-1
   4f184:	2580d32e 	bgeu	r4,r22,4f4d4 <__divdf3+0x730>
   4f188:	1007883a 	mov	r3,r2
   4f18c:	2463c83a 	sub	r17,r4,r17
   4f190:	e00b883a 	mov	r5,fp
   4f194:	8809883a 	mov	r4,r17
   4f198:	d8c00115 	stw	r3,4(sp)
   4f19c:	00428540 	call	42854 <__udivsi3>
   4f1a0:	8809883a 	mov	r4,r17
   4f1a4:	e00b883a 	mov	r5,fp
   4f1a8:	1029883a 	mov	r20,r2
   4f1ac:	00428b80 	call	428b8 <__umodsi3>
   4f1b0:	1008943a 	slli	r4,r2,16
   4f1b4:	bd13383a 	mul	r9,r23,r20
   4f1b8:	94bfffcc 	andi	r18,r18,65535
   4f1bc:	9108b03a 	or	r4,r18,r4
   4f1c0:	d8c00117 	ldw	r3,4(sp)
   4f1c4:	2240042e 	bgeu	r4,r9,4f1d8 <__divdf3+0x434>
   4f1c8:	2589883a 	add	r4,r4,r22
   4f1cc:	a0bfffc4 	addi	r2,r20,-1
   4f1d0:	2580bc2e 	bgeu	r4,r22,4f4c4 <__divdf3+0x720>
   4f1d4:	1029883a 	mov	r20,r2
   4f1d8:	180a943a 	slli	r5,r3,16
   4f1dc:	d8800017 	ldw	r2,0(sp)
   4f1e0:	2249c83a 	sub	r4,r4,r9
   4f1e4:	2d28b03a 	or	r20,r5,r20
   4f1e8:	100ed43a 	srli	r7,r2,16
   4f1ec:	123fffcc 	andi	r8,r2,65535
   4f1f0:	a00ad43a 	srli	r5,r20,16
   4f1f4:	a0bfffcc 	andi	r2,r20,65535
   4f1f8:	1225383a 	mul	r18,r2,r8
   4f1fc:	2a15383a 	mul	r10,r5,r8
   4f200:	3887383a 	mul	r3,r7,r2
   4f204:	9004d43a 	srli	r2,r18,16
   4f208:	29cb383a 	mul	r5,r5,r7
   4f20c:	1a87883a 	add	r3,r3,r10
   4f210:	10c5883a 	add	r2,r2,r3
   4f214:	1280022e 	bgeu	r2,r10,4f220 <__divdf3+0x47c>
   4f218:	00c00074 	movhi	r3,1
   4f21c:	28cb883a 	add	r5,r5,r3
   4f220:	1006d43a 	srli	r3,r2,16
   4f224:	1004943a 	slli	r2,r2,16
   4f228:	94bfffcc 	andi	r18,r18,65535
   4f22c:	1947883a 	add	r3,r3,r5
   4f230:	14a5883a 	add	r18,r2,r18
   4f234:	20c07636 	bltu	r4,r3,4f410 <__divdf3+0x66c>
   4f238:	20c07426 	beq	r4,r3,4f40c <__divdf3+0x668>
   4f23c:	84a5c83a 	sub	r18,r16,r18
   4f240:	20c9c83a 	sub	r4,r4,r3
   4f244:	84a1803a 	cmpltu	r16,r16,r18
   4f248:	2421c83a 	sub	r16,r4,r16
   4f24c:	9c40ffc4 	addi	r17,r19,1023
   4f250:	b400ba26 	beq	r22,r16,4f53c <__divdf3+0x798>
   4f254:	8009883a 	mov	r4,r16
   4f258:	e00b883a 	mov	r5,fp
   4f25c:	da000315 	stw	r8,12(sp)
   4f260:	d9c00215 	stw	r7,8(sp)
   4f264:	00428540 	call	42854 <__udivsi3>
   4f268:	8009883a 	mov	r4,r16
   4f26c:	e00b883a 	mov	r5,fp
   4f270:	d8800115 	stw	r2,4(sp)
   4f274:	00428b80 	call	428b8 <__umodsi3>
   4f278:	da400117 	ldw	r9,4(sp)
   4f27c:	1004943a 	slli	r2,r2,16
   4f280:	9008d43a 	srli	r4,r18,16
   4f284:	ba61383a 	mul	r16,r23,r9
   4f288:	d9c00217 	ldw	r7,8(sp)
   4f28c:	2088b03a 	or	r4,r4,r2
   4f290:	da000317 	ldw	r8,12(sp)
   4f294:	2400062e 	bgeu	r4,r16,4f2b0 <__divdf3+0x50c>
   4f298:	2589883a 	add	r4,r4,r22
   4f29c:	48bfffc4 	addi	r2,r9,-1
   4f2a0:	2580b536 	bltu	r4,r22,4f578 <__divdf3+0x7d4>
   4f2a4:	2400b42e 	bgeu	r4,r16,4f578 <__divdf3+0x7d4>
   4f2a8:	4a7fff84 	addi	r9,r9,-2
   4f2ac:	2589883a 	add	r4,r4,r22
   4f2b0:	2421c83a 	sub	r16,r4,r16
   4f2b4:	8009883a 	mov	r4,r16
   4f2b8:	e00b883a 	mov	r5,fp
   4f2bc:	da000315 	stw	r8,12(sp)
   4f2c0:	da400215 	stw	r9,8(sp)
   4f2c4:	d9c00115 	stw	r7,4(sp)
   4f2c8:	00428540 	call	42854 <__udivsi3>
   4f2cc:	8009883a 	mov	r4,r16
   4f2d0:	e00b883a 	mov	r5,fp
   4f2d4:	1021883a 	mov	r16,r2
   4f2d8:	00428b80 	call	428b8 <__umodsi3>
   4f2dc:	1004943a 	slli	r2,r2,16
   4f2e0:	bc2f383a 	mul	r23,r23,r16
   4f2e4:	90ffffcc 	andi	r3,r18,65535
   4f2e8:	1886b03a 	or	r3,r3,r2
   4f2ec:	d9c00117 	ldw	r7,4(sp)
   4f2f0:	da400217 	ldw	r9,8(sp)
   4f2f4:	da000317 	ldw	r8,12(sp)
   4f2f8:	1dc0062e 	bgeu	r3,r23,4f314 <__divdf3+0x570>
   4f2fc:	1d87883a 	add	r3,r3,r22
   4f300:	80bfffc4 	addi	r2,r16,-1
   4f304:	1d809a36 	bltu	r3,r22,4f570 <__divdf3+0x7cc>
   4f308:	1dc0992e 	bgeu	r3,r23,4f570 <__divdf3+0x7cc>
   4f30c:	843fff84 	addi	r16,r16,-2
   4f310:	1d87883a 	add	r3,r3,r22
   4f314:	4808943a 	slli	r4,r9,16
   4f318:	1defc83a 	sub	r23,r3,r23
   4f31c:	2424b03a 	or	r18,r4,r16
   4f320:	900ad43a 	srli	r5,r18,16
   4f324:	90bfffcc 	andi	r2,r18,65535
   4f328:	4087383a 	mul	r3,r8,r2
   4f32c:	3885383a 	mul	r2,r7,r2
   4f330:	2a11383a 	mul	r8,r5,r8
   4f334:	1808d43a 	srli	r4,r3,16
   4f338:	394f383a 	mul	r7,r7,r5
   4f33c:	1205883a 	add	r2,r2,r8
   4f340:	2089883a 	add	r4,r4,r2
   4f344:	2200022e 	bgeu	r4,r8,4f350 <__divdf3+0x5ac>
   4f348:	00800074 	movhi	r2,1
   4f34c:	388f883a 	add	r7,r7,r2
   4f350:	2004d43a 	srli	r2,r4,16
   4f354:	2008943a 	slli	r4,r4,16
   4f358:	18ffffcc 	andi	r3,r3,65535
   4f35c:	11cf883a 	add	r7,r2,r7
   4f360:	20c9883a 	add	r4,r4,r3
   4f364:	b9c00436 	bltu	r23,r7,4f378 <__divdf3+0x5d4>
   4f368:	b9c00226 	beq	r23,r7,4f374 <__divdf3+0x5d0>
   4f36c:	94800054 	ori	r18,r18,1
   4f370:	003f2a06 	br	4f01c <__divdf3+0x278>
   4f374:	203f2926 	beq	r4,zero,4f01c <__divdf3+0x278>
   4f378:	b5ef883a 	add	r23,r22,r23
   4f37c:	90bfffc4 	addi	r2,r18,-1
   4f380:	bd806936 	bltu	r23,r22,4f528 <__divdf3+0x784>
   4f384:	b9c08636 	bltu	r23,r7,4f5a0 <__divdf3+0x7fc>
   4f388:	b9c09a26 	beq	r23,r7,4f5f4 <__divdf3+0x850>
   4f38c:	1025883a 	mov	r18,r2
   4f390:	003ff606 	br	4f36c <__divdf3+0x5c8>
   4f394:	04bfffc4 	movi	r18,-1
   4f398:	01400044 	movi	r5,1
   4f39c:	2c4bc83a 	sub	r5,r5,r17
   4f3a0:	28800e48 	cmpgei	r2,r5,57
   4f3a4:	103ecd1e 	bne	r2,zero,4eedc <__divdf3+0x138>
   4f3a8:	28800808 	cmpgei	r2,r5,32
   4f3ac:	10004d1e 	bne	r2,zero,4f4e4 <__divdf3+0x740>
   4f3b0:	98810784 	addi	r2,r19,1054
   4f3b4:	a086983a 	sll	r3,r20,r2
   4f3b8:	9148d83a 	srl	r4,r18,r5
   4f3bc:	9084983a 	sll	r2,r18,r2
   4f3c0:	a14ad83a 	srl	r5,r20,r5
   4f3c4:	1924b03a 	or	r18,r3,r4
   4f3c8:	1004c03a 	cmpne	r2,r2,zero
   4f3cc:	90a4b03a 	or	r18,r18,r2
   4f3d0:	908001cc 	andi	r2,r18,7
   4f3d4:	10000726 	beq	r2,zero,4f3f4 <__divdf3+0x650>
   4f3d8:	908003cc 	andi	r2,r18,15
   4f3dc:	10800120 	cmpeqi	r2,r2,4
   4f3e0:	1000041e 	bne	r2,zero,4f3f4 <__divdf3+0x650>
   4f3e4:	90800104 	addi	r2,r18,4
   4f3e8:	14a5803a 	cmpltu	r18,r2,r18
   4f3ec:	2c8b883a 	add	r5,r5,r18
   4f3f0:	1025883a 	mov	r18,r2
   4f3f4:	2880202c 	andhi	r2,r5,128
   4f3f8:	10007526 	beq	r2,zero,4f5d0 <__divdf3+0x82c>
   4f3fc:	00c00044 	movi	r3,1
   4f400:	000b883a 	mov	r5,zero
   4f404:	0025883a 	mov	r18,zero
   4f408:	003eb706 	br	4eee8 <__divdf3+0x144>
   4f40c:	84bf8b2e 	bgeu	r16,r18,4f23c <__divdf3+0x498>
   4f410:	d8800017 	ldw	r2,0(sp)
   4f414:	80a1883a 	add	r16,r16,r2
   4f418:	8085803a 	cmpltu	r2,r16,r2
   4f41c:	1585883a 	add	r2,r2,r22
   4f420:	2089883a 	add	r4,r4,r2
   4f424:	a0bfffc4 	addi	r2,r20,-1
   4f428:	b100222e 	bgeu	r22,r4,4f4b4 <__divdf3+0x710>
   4f42c:	20c05536 	bltu	r4,r3,4f584 <__divdf3+0x7e0>
   4f430:	19005326 	beq	r3,r4,4f580 <__divdf3+0x7dc>
   4f434:	1029883a 	mov	r20,r2
   4f438:	003f8006 	br	4f23c <__divdf3+0x498>
   4f43c:	927f3936 	bltu	r18,r9,4f124 <__divdf3+0x380>
   4f440:	a00897fa 	slli	r4,r20,31
   4f444:	9004d07a 	srli	r2,r18,1
   4f448:	902097fa 	slli	r16,r18,31
   4f44c:	a028d07a 	srli	r20,r20,1
   4f450:	20a4b03a 	or	r18,r4,r2
   4f454:	003f3506 	br	4f12c <__divdf3+0x388>
   4f458:	00430640 	call	43064 <__clzsi2>
   4f45c:	10c00544 	addi	r3,r2,21
   4f460:	19000748 	cmpgei	r4,r3,29
   4f464:	100b883a 	mov	r5,r2
   4f468:	d9c00017 	ldw	r7,0(sp)
   4f46c:	10800804 	addi	r2,r2,32
   4f470:	203ebc26 	beq	r4,zero,4ef64 <__divdf3+0x1c0>
   4f474:	297ffe04 	addi	r5,r5,-8
   4f478:	9168983a 	sll	r20,r18,r5
   4f47c:	0025883a 	mov	r18,zero
   4f480:	003ebf06 	br	4ef80 <__divdf3+0x1dc>
   4f484:	b809883a 	mov	r4,r23
   4f488:	00430640 	call	43064 <__clzsi2>
   4f48c:	11400544 	addi	r5,r2,21
   4f490:	29000748 	cmpgei	r4,r5,29
   4f494:	1007883a 	mov	r3,r2
   4f498:	da000017 	ldw	r8,0(sp)
   4f49c:	10800804 	addi	r2,r2,32
   4f4a0:	203ecb26 	beq	r4,zero,4efd0 <__divdf3+0x22c>
   4f4a4:	18fffe04 	addi	r3,r3,-8
   4f4a8:	b8e2983a 	sll	r17,r23,r3
   4f4ac:	0013883a 	mov	r9,zero
   4f4b0:	003ece06 	br	4efec <__divdf3+0x248>
   4f4b4:	b13fdf1e 	bne	r22,r4,4f434 <__divdf3+0x690>
   4f4b8:	d9400017 	ldw	r5,0(sp)
   4f4bc:	817fdd36 	bltu	r16,r5,4f434 <__divdf3+0x690>
   4f4c0:	003fda06 	br	4f42c <__divdf3+0x688>
   4f4c4:	227f432e 	bgeu	r4,r9,4f1d4 <__divdf3+0x430>
   4f4c8:	a53fff84 	addi	r20,r20,-2
   4f4cc:	2589883a 	add	r4,r4,r22
   4f4d0:	003f4106 	br	4f1d8 <__divdf3+0x434>
   4f4d4:	247f2c2e 	bgeu	r4,r17,4f188 <__divdf3+0x3e4>
   4f4d8:	18ffff84 	addi	r3,r3,-2
   4f4dc:	2589883a 	add	r4,r4,r22
   4f4e0:	003f2a06 	br	4f18c <__divdf3+0x3e8>
   4f4e4:	00fff844 	movi	r3,-31
   4f4e8:	1c47c83a 	sub	r3,r3,r17
   4f4ec:	29400820 	cmpeqi	r5,r5,32
   4f4f0:	a0c6d83a 	srl	r3,r20,r3
   4f4f4:	2800031e 	bne	r5,zero,4f504 <__divdf3+0x760>
   4f4f8:	99410f84 	addi	r5,r19,1086
   4f4fc:	a14a983a 	sll	r5,r20,r5
   4f500:	9164b03a 	or	r18,r18,r5
   4f504:	9024c03a 	cmpne	r18,r18,zero
   4f508:	90e4b03a 	or	r18,r18,r3
   4f50c:	910001cc 	andi	r4,r18,7
   4f510:	20002b1e 	bne	r4,zero,4f5c0 <__divdf3+0x81c>
   4f514:	000b883a 	mov	r5,zero
   4f518:	9024d0fa 	srli	r18,r18,3
   4f51c:	0007883a 	mov	r3,zero
   4f520:	9124b03a 	or	r18,r18,r4
   4f524:	003e7006 	br	4eee8 <__divdf3+0x144>
   4f528:	1025883a 	mov	r18,r2
   4f52c:	b9ff8f1e 	bne	r23,r7,4f36c <__divdf3+0x5c8>
   4f530:	d8800017 	ldw	r2,0(sp)
   4f534:	20bf8d1e 	bne	r4,r2,4f36c <__divdf3+0x5c8>
   4f538:	003eb806 	br	4f01c <__divdf3+0x278>
   4f53c:	047f950e 	bge	zero,r17,4f394 <__divdf3+0x5f0>
   4f540:	000d883a 	mov	r6,zero
   4f544:	01000044 	movi	r4,1
   4f548:	a129883a 	add	r20,r20,r4
   4f54c:	003eb706 	br	4f02c <__divdf3+0x288>
   4f550:	908003cc 	andi	r2,r18,15
   4f554:	10800118 	cmpnei	r2,r2,4
   4f558:	103eb326 	beq	r2,zero,4f028 <__divdf3+0x284>
   4f55c:	91800104 	addi	r6,r18,4
   4f560:	013ffec4 	movi	r4,-5
   4f564:	300cd0fa 	srli	r6,r6,3
   4f568:	2489803a 	cmpltu	r4,r4,r18
   4f56c:	003ff606 	br	4f548 <__divdf3+0x7a4>
   4f570:	1021883a 	mov	r16,r2
   4f574:	003f6706 	br	4f314 <__divdf3+0x570>
   4f578:	1013883a 	mov	r9,r2
   4f57c:	003f4c06 	br	4f2b0 <__divdf3+0x50c>
   4f580:	84bfac2e 	bgeu	r16,r18,4f434 <__divdf3+0x690>
   4f584:	d8800017 	ldw	r2,0(sp)
   4f588:	a53fff84 	addi	r20,r20,-2
   4f58c:	80a1883a 	add	r16,r16,r2
   4f590:	8085803a 	cmpltu	r2,r16,r2
   4f594:	1585883a 	add	r2,r2,r22
   4f598:	2089883a 	add	r4,r4,r2
   4f59c:	003f2706 	br	4f23c <__divdf3+0x498>
   4f5a0:	d8c00017 	ldw	r3,0(sp)
   4f5a4:	94bfff84 	addi	r18,r18,-2
   4f5a8:	18c5883a 	add	r2,r3,r3
   4f5ac:	10c7803a 	cmpltu	r3,r2,r3
   4f5b0:	1d8d883a 	add	r6,r3,r22
   4f5b4:	b9af883a 	add	r23,r23,r6
   4f5b8:	d8800015 	stw	r2,0(sp)
   4f5bc:	003fdb06 	br	4f52c <__divdf3+0x788>
   4f5c0:	908003cc 	andi	r2,r18,15
   4f5c4:	10800118 	cmpnei	r2,r2,4
   4f5c8:	000b883a 	mov	r5,zero
   4f5cc:	103f851e 	bne	r2,zero,4f3e4 <__divdf3+0x640>
   4f5d0:	2804927a 	slli	r2,r5,9
   4f5d4:	2808977a 	slli	r4,r5,29
   4f5d8:	100ad33a 	srli	r5,r2,12
   4f5dc:	003fce06 	br	4f518 <__divdf3+0x774>
   4f5e0:	00800434 	movhi	r2,16
   4f5e4:	a1400234 	orhi	r5,r20,8
   4f5e8:	10bfffc4 	addi	r2,r2,-1
   4f5ec:	288a703a 	and	r5,r5,r2
   4f5f0:	003eb706 	br	4f0d0 <__divdf3+0x32c>
   4f5f4:	d8c00017 	ldw	r3,0(sp)
   4f5f8:	193fe936 	bltu	r3,r4,4f5a0 <__divdf3+0x7fc>
   4f5fc:	1025883a 	mov	r18,r2
   4f600:	003fcb06 	br	4f530 <__divdf3+0x78c>

0004f604 <__eqdf2>:
   4f604:	2810d53a 	srli	r8,r5,20
   4f608:	3806d53a 	srli	r3,r7,20
   4f60c:	00800434 	movhi	r2,16
   4f610:	4201ffcc 	andi	r8,r8,2047
   4f614:	10bfffc4 	addi	r2,r2,-1
   4f618:	4241ffd8 	cmpnei	r9,r8,2047
   4f61c:	2814d7fa 	srli	r10,r5,31
   4f620:	3816d7fa 	srli	r11,r7,31
   4f624:	288a703a 	and	r5,r5,r2
   4f628:	388e703a 	and	r7,r7,r2
   4f62c:	1881ffcc 	andi	r2,r3,2047
   4f630:	48000626 	beq	r9,zero,4f64c <__eqdf2+0x48>
   4f634:	10c1ffe0 	cmpeqi	r3,r2,2047
   4f638:	1800021e 	bne	r3,zero,4f644 <__eqdf2+0x40>
   4f63c:	4080011e 	bne	r8,r2,4f644 <__eqdf2+0x40>
   4f640:	29c00826 	beq	r5,r7,4f664 <__eqdf2+0x60>
   4f644:	00800044 	movi	r2,1
   4f648:	f800283a 	ret
   4f64c:	2906b03a 	or	r3,r5,r4
   4f650:	183ffc1e 	bne	r3,zero,4f644 <__eqdf2+0x40>
   4f654:	1081ffd8 	cmpnei	r2,r2,2047
   4f658:	103ffa1e 	bne	r2,zero,4f644 <__eqdf2+0x40>
   4f65c:	398eb03a 	or	r7,r7,r6
   4f660:	383ff81e 	bne	r7,zero,4f644 <__eqdf2+0x40>
   4f664:	21bff71e 	bne	r4,r6,4f644 <__eqdf2+0x40>
   4f668:	52c00426 	beq	r10,r11,4f67c <__eqdf2+0x78>
   4f66c:	403ff51e 	bne	r8,zero,4f644 <__eqdf2+0x40>
   4f670:	290ab03a 	or	r5,r5,r4
   4f674:	2804c03a 	cmpne	r2,r5,zero
   4f678:	f800283a 	ret
   4f67c:	0005883a 	mov	r2,zero
   4f680:	f800283a 	ret

0004f684 <__gedf2>:
   4f684:	2810d53a 	srli	r8,r5,20
   4f688:	3812d53a 	srli	r9,r7,20
   4f68c:	00c00434 	movhi	r3,16
   4f690:	4201ffcc 	andi	r8,r8,2047
   4f694:	18ffffc4 	addi	r3,r3,-1
   4f698:	4281ffd8 	cmpnei	r10,r8,2047
   4f69c:	2816d7fa 	srli	r11,r5,31
   4f6a0:	3804d7fa 	srli	r2,r7,31
   4f6a4:	28ca703a 	and	r5,r5,r3
   4f6a8:	38ce703a 	and	r7,r7,r3
   4f6ac:	48c1ffcc 	andi	r3,r9,2047
   4f6b0:	50000b26 	beq	r10,zero,4f6e0 <__gedf2+0x5c>
   4f6b4:	1a41ffd8 	cmpnei	r9,r3,2047
   4f6b8:	48000d26 	beq	r9,zero,4f6f0 <__gedf2+0x6c>
   4f6bc:	4000191e 	bne	r8,zero,4f724 <__gedf2+0xa0>
   4f6c0:	2914b03a 	or	r10,r5,r4
   4f6c4:	5013003a 	cmpeq	r9,r10,zero
   4f6c8:	1800131e 	bne	r3,zero,4f718 <__gedf2+0x94>
   4f6cc:	3998b03a 	or	r12,r7,r6
   4f6d0:	6000111e 	bne	r12,zero,4f718 <__gedf2+0x94>
   4f6d4:	50000a1e 	bne	r10,zero,4f700 <__gedf2+0x7c>
   4f6d8:	0005883a 	mov	r2,zero
   4f6dc:	f800283a 	ret
   4f6e0:	2912b03a 	or	r9,r5,r4
   4f6e4:	48001e1e 	bne	r9,zero,4f760 <__gedf2+0xdc>
   4f6e8:	1a41ffe0 	cmpeqi	r9,r3,2047
   4f6ec:	48000d26 	beq	r9,zero,4f724 <__gedf2+0xa0>
   4f6f0:	3992b03a 	or	r9,r7,r6
   4f6f4:	48001a1e 	bne	r9,zero,4f760 <__gedf2+0xdc>
   4f6f8:	40000526 	beq	r8,zero,4f710 <__gedf2+0x8c>
   4f6fc:	58800d26 	beq	r11,r2,4f734 <__gedf2+0xb0>
   4f700:	00800044 	movi	r2,1
   4f704:	58000626 	beq	r11,zero,4f720 <__gedf2+0x9c>
   4f708:	00bfffc4 	movi	r2,-1
   4f70c:	f800283a 	ret
   4f710:	2912b03a 	or	r9,r5,r4
   4f714:	4813003a 	cmpeq	r9,r9,zero
   4f718:	483ff826 	beq	r9,zero,4f6fc <__gedf2+0x78>
   4f71c:	103ffa26 	beq	r2,zero,4f708 <__gedf2+0x84>
   4f720:	f800283a 	ret
   4f724:	183ff51e 	bne	r3,zero,4f6fc <__gedf2+0x78>
   4f728:	3992b03a 	or	r9,r7,r6
   4f72c:	483ff31e 	bne	r9,zero,4f6fc <__gedf2+0x78>
   4f730:	003ff306 	br	4f700 <__gedf2+0x7c>
   4f734:	1a000716 	blt	r3,r8,4f754 <__gedf2+0xd0>
   4f738:	40fff816 	blt	r8,r3,4f71c <__gedf2+0x98>
   4f73c:	397ff036 	bltu	r7,r5,4f700 <__gedf2+0x7c>
   4f740:	29c00926 	beq	r5,r7,4f768 <__gedf2+0xe4>
   4f744:	29ffe42e 	bgeu	r5,r7,4f6d8 <__gedf2+0x54>
   4f748:	583fef26 	beq	r11,zero,4f708 <__gedf2+0x84>
   4f74c:	5805883a 	mov	r2,r11
   4f750:	f800283a 	ret
   4f754:	103fec1e 	bne	r2,zero,4f708 <__gedf2+0x84>
   4f758:	00800044 	movi	r2,1
   4f75c:	f800283a 	ret
   4f760:	00bfff84 	movi	r2,-2
   4f764:	f800283a 	ret
   4f768:	313fe536 	bltu	r6,r4,4f700 <__gedf2+0x7c>
   4f76c:	21bfda2e 	bgeu	r4,r6,4f6d8 <__gedf2+0x54>
   4f770:	003ff506 	br	4f748 <__gedf2+0xc4>

0004f774 <__ledf2>:
   4f774:	2810d53a 	srli	r8,r5,20
   4f778:	3812d53a 	srli	r9,r7,20
   4f77c:	00c00434 	movhi	r3,16
   4f780:	4201ffcc 	andi	r8,r8,2047
   4f784:	18ffffc4 	addi	r3,r3,-1
   4f788:	4281ffd8 	cmpnei	r10,r8,2047
   4f78c:	2816d7fa 	srli	r11,r5,31
   4f790:	3804d7fa 	srli	r2,r7,31
   4f794:	28ca703a 	and	r5,r5,r3
   4f798:	38ce703a 	and	r7,r7,r3
   4f79c:	48c1ffcc 	andi	r3,r9,2047
   4f7a0:	50000b26 	beq	r10,zero,4f7d0 <__ledf2+0x5c>
   4f7a4:	1a41ffd8 	cmpnei	r9,r3,2047
   4f7a8:	48000d26 	beq	r9,zero,4f7e0 <__ledf2+0x6c>
   4f7ac:	40001b1e 	bne	r8,zero,4f81c <__ledf2+0xa8>
   4f7b0:	2914b03a 	or	r10,r5,r4
   4f7b4:	5013003a 	cmpeq	r9,r10,zero
   4f7b8:	18000e1e 	bne	r3,zero,4f7f4 <__ledf2+0x80>
   4f7bc:	3998b03a 	or	r12,r7,r6
   4f7c0:	60000c1e 	bne	r12,zero,4f7f4 <__ledf2+0x80>
   4f7c4:	50000d1e 	bne	r10,zero,4f7fc <__ledf2+0x88>
   4f7c8:	0005883a 	mov	r2,zero
   4f7cc:	f800283a 	ret
   4f7d0:	2912b03a 	or	r9,r5,r4
   4f7d4:	48000d1e 	bne	r9,zero,4f80c <__ledf2+0x98>
   4f7d8:	1a41ffe0 	cmpeqi	r9,r3,2047
   4f7dc:	48000f26 	beq	r9,zero,4f81c <__ledf2+0xa8>
   4f7e0:	3992b03a 	or	r9,r7,r6
   4f7e4:	4800091e 	bne	r9,zero,4f80c <__ledf2+0x98>
   4f7e8:	4000031e 	bne	r8,zero,4f7f8 <__ledf2+0x84>
   4f7ec:	2912b03a 	or	r9,r5,r4
   4f7f0:	4813003a 	cmpeq	r9,r9,zero
   4f7f4:	4800071e 	bne	r9,zero,4f814 <__ledf2+0xa0>
   4f7f8:	58800c26 	beq	r11,r2,4f82c <__ledf2+0xb8>
   4f7fc:	00800044 	movi	r2,1
   4f800:	58000526 	beq	r11,zero,4f818 <__ledf2+0xa4>
   4f804:	00bfffc4 	movi	r2,-1
   4f808:	f800283a 	ret
   4f80c:	00800084 	movi	r2,2
   4f810:	f800283a 	ret
   4f814:	103ffb26 	beq	r2,zero,4f804 <__ledf2+0x90>
   4f818:	f800283a 	ret
   4f81c:	183ff61e 	bne	r3,zero,4f7f8 <__ledf2+0x84>
   4f820:	3992b03a 	or	r9,r7,r6
   4f824:	483ff41e 	bne	r9,zero,4f7f8 <__ledf2+0x84>
   4f828:	003ff406 	br	4f7fc <__ledf2+0x88>
   4f82c:	1a00030e 	bge	r3,r8,4f83c <__ledf2+0xc8>
   4f830:	103ff41e 	bne	r2,zero,4f804 <__ledf2+0x90>
   4f834:	00800044 	movi	r2,1
   4f838:	f800283a 	ret
   4f83c:	40fff516 	blt	r8,r3,4f814 <__ledf2+0xa0>
   4f840:	397fee36 	bltu	r7,r5,4f7fc <__ledf2+0x88>
   4f844:	29c00426 	beq	r5,r7,4f858 <__ledf2+0xe4>
   4f848:	29ffdf2e 	bgeu	r5,r7,4f7c8 <__ledf2+0x54>
   4f84c:	583fed26 	beq	r11,zero,4f804 <__ledf2+0x90>
   4f850:	5805883a 	mov	r2,r11
   4f854:	f800283a 	ret
   4f858:	313fe836 	bltu	r6,r4,4f7fc <__ledf2+0x88>
   4f85c:	21bfda2e 	bgeu	r4,r6,4f7c8 <__ledf2+0x54>
   4f860:	003ffa06 	br	4f84c <__ledf2+0xd8>

0004f864 <__muldf3>:
   4f864:	2804d53a 	srli	r2,r5,20
   4f868:	defff504 	addi	sp,sp,-44
   4f86c:	02000434 	movhi	r8,16
   4f870:	df000915 	stw	fp,36(sp)
   4f874:	dd000515 	stw	r20,20(sp)
   4f878:	dcc00415 	stw	r19,16(sp)
   4f87c:	dc000115 	stw	r16,4(sp)
   4f880:	423fffc4 	addi	r8,r8,-1
   4f884:	dfc00a15 	stw	ra,40(sp)
   4f888:	ddc00815 	stw	r23,32(sp)
   4f88c:	dd800715 	stw	r22,28(sp)
   4f890:	dd400615 	stw	r21,24(sp)
   4f894:	dc800315 	stw	r18,12(sp)
   4f898:	dc400215 	stw	r17,8(sp)
   4f89c:	1081ffcc 	andi	r2,r2,2047
   4f8a0:	2828d7fa 	srli	r20,r5,31
   4f8a4:	2027883a 	mov	r19,r4
   4f8a8:	3039883a 	mov	fp,r6
   4f8ac:	2a20703a 	and	r16,r5,r8
   4f8b0:	10005a26 	beq	r2,zero,4fa1c <__muldf3+0x1b8>
   4f8b4:	10c1ffe0 	cmpeqi	r3,r2,2047
   4f8b8:	18006c1e 	bne	r3,zero,4fa6c <__muldf3+0x208>
   4f8bc:	800a90fa 	slli	r5,r16,3
   4f8c0:	2020d77a 	srli	r16,r4,29
   4f8c4:	202490fa 	slli	r18,r4,3
   4f8c8:	14ff0044 	addi	r19,r2,-1023
   4f8cc:	8160b03a 	or	r16,r16,r5
   4f8d0:	84002034 	orhi	r16,r16,128
   4f8d4:	002b883a 	mov	r21,zero
   4f8d8:	002d883a 	mov	r22,zero
   4f8dc:	3804d53a 	srli	r2,r7,20
   4f8e0:	00c00434 	movhi	r3,16
   4f8e4:	18ffffc4 	addi	r3,r3,-1
   4f8e8:	1081ffcc 	andi	r2,r2,2047
   4f8ec:	382ed7fa 	srli	r23,r7,31
   4f8f0:	38e2703a 	and	r17,r7,r3
   4f8f4:	10006426 	beq	r2,zero,4fa88 <__muldf3+0x224>
   4f8f8:	10c1ffe0 	cmpeqi	r3,r2,2047
   4f8fc:	1800211e 	bne	r3,zero,4f984 <__muldf3+0x120>
   4f900:	880690fa 	slli	r3,r17,3
   4f904:	e022d77a 	srli	r17,fp,29
   4f908:	e00a90fa 	slli	r5,fp,3
   4f90c:	10bf0044 	addi	r2,r2,-1023
   4f910:	88e2b03a 	or	r17,r17,r3
   4f914:	8c402034 	orhi	r17,r17,128
   4f918:	98a7883a 	add	r19,r19,r2
   4f91c:	0007883a 	mov	r3,zero
   4f920:	a9000428 	cmpgeui	r4,r21,16
   4f924:	a5ccf03a 	xor	r6,r20,r23
   4f928:	9a000044 	addi	r8,r19,1
   4f92c:	20006b1e 	bne	r4,zero,4fadc <__muldf3+0x278>
   4f930:	a80490ba 	slli	r2,r21,2
   4f934:	01000174 	movhi	r4,5
   4f938:	1109883a 	add	r4,r2,r4
   4f93c:	20be5117 	ldw	r2,-1724(r4)
   4f940:	1000683a 	jmp	r2
   4f944:	0004fadc 	xori	zero,zero,5099
   4f948:	0004f9a4 	muli	zero,zero,5094
   4f94c:	0004f9a4 	muli	zero,zero,5094
   4f950:	0004f9a0 	cmpeqi	zero,zero,5094
   4f954:	0004f9b0 	cmpltui	zero,zero,5094
   4f958:	0004f9b0 	cmpltui	zero,zero,5094
   4f95c:	0004fd2c 	andhi	zero,zero,5108
   4f960:	0004f9a0 	cmpeqi	zero,zero,5094
   4f964:	0004f9b0 	cmpltui	zero,zero,5094
   4f968:	0004fd2c 	andhi	zero,zero,5108
   4f96c:	0004f9b0 	cmpltui	zero,zero,5094
   4f970:	0004f9a0 	cmpeqi	zero,zero,5094
   4f974:	0004fcdc 	xori	zero,zero,5107
   4f978:	0004fcdc 	xori	zero,zero,5107
   4f97c:	0004fcdc 	xori	zero,zero,5107
   4f980:	0004fdb8 	rdprs	zero,zero,5110
   4f984:	e44ab03a 	or	r5,fp,r17
   4f988:	9cc1ffc4 	addi	r19,r19,2047
   4f98c:	2800d51e 	bne	r5,zero,4fce4 <__muldf3+0x480>
   4f990:	ad400094 	ori	r21,r21,2
   4f994:	0023883a 	mov	r17,zero
   4f998:	00c00084 	movi	r3,2
   4f99c:	003fe006 	br	4f920 <__muldf3+0xbc>
   4f9a0:	b80d883a 	mov	r6,r23
   4f9a4:	8821883a 	mov	r16,r17
   4f9a8:	2825883a 	mov	r18,r5
   4f9ac:	182d883a 	mov	r22,r3
   4f9b0:	b08000a0 	cmpeqi	r2,r22,2
   4f9b4:	1000451e 	bne	r2,zero,4facc <__muldf3+0x268>
   4f9b8:	b08000e0 	cmpeqi	r2,r22,3
   4f9bc:	1001401e 	bne	r2,zero,4fec0 <__muldf3+0x65c>
   4f9c0:	b0800060 	cmpeqi	r2,r22,1
   4f9c4:	1000ab26 	beq	r2,zero,4fc74 <__muldf3+0x410>
   4f9c8:	0007883a 	mov	r3,zero
   4f9cc:	0021883a 	mov	r16,zero
   4f9d0:	0025883a 	mov	r18,zero
   4f9d4:	30803fcc 	andi	r2,r6,255
   4f9d8:	1806953a 	slli	r3,r3,20
   4f9dc:	100497fa 	slli	r2,r2,31
   4f9e0:	1c06b03a 	or	r3,r3,r16
   4f9e4:	1886b03a 	or	r3,r3,r2
   4f9e8:	9005883a 	mov	r2,r18
   4f9ec:	dfc00a17 	ldw	ra,40(sp)
   4f9f0:	df000917 	ldw	fp,36(sp)
   4f9f4:	ddc00817 	ldw	r23,32(sp)
   4f9f8:	dd800717 	ldw	r22,28(sp)
   4f9fc:	dd400617 	ldw	r21,24(sp)
   4fa00:	dd000517 	ldw	r20,20(sp)
   4fa04:	dcc00417 	ldw	r19,16(sp)
   4fa08:	dc800317 	ldw	r18,12(sp)
   4fa0c:	dc400217 	ldw	r17,8(sp)
   4fa10:	dc000117 	ldw	r16,4(sp)
   4fa14:	dec00b04 	addi	sp,sp,44
   4fa18:	f800283a 	ret
   4fa1c:	8124b03a 	or	r18,r16,r4
   4fa20:	9000bd26 	beq	r18,zero,4fd18 <__muldf3+0x4b4>
   4fa24:	d9c00015 	stw	r7,0(sp)
   4fa28:	8000ff26 	beq	r16,zero,4fe28 <__muldf3+0x5c4>
   4fa2c:	8009883a 	mov	r4,r16
   4fa30:	00430640 	call	43064 <__clzsi2>
   4fa34:	d9c00017 	ldw	r7,0(sp)
   4fa38:	113ffd44 	addi	r4,r2,-11
   4fa3c:	00c00744 	movi	r3,29
   4fa40:	14bffe04 	addi	r18,r2,-8
   4fa44:	1907c83a 	sub	r3,r3,r4
   4fa48:	84a0983a 	sll	r16,r16,r18
   4fa4c:	98c6d83a 	srl	r3,r19,r3
   4fa50:	9ca4983a 	sll	r18,r19,r18
   4fa54:	1c20b03a 	or	r16,r3,r16
   4fa58:	04ff0344 	movi	r19,-1011
   4fa5c:	98a7c83a 	sub	r19,r19,r2
   4fa60:	002b883a 	mov	r21,zero
   4fa64:	002d883a 	mov	r22,zero
   4fa68:	003f9c06 	br	4f8dc <__muldf3+0x78>
   4fa6c:	8124b03a 	or	r18,r16,r4
   4fa70:	9000a41e 	bne	r18,zero,4fd04 <__muldf3+0x4a0>
   4fa74:	0021883a 	mov	r16,zero
   4fa78:	05400204 	movi	r21,8
   4fa7c:	04c1ffc4 	movi	r19,2047
   4fa80:	05800084 	movi	r22,2
   4fa84:	003f9506 	br	4f8dc <__muldf3+0x78>
   4fa88:	e44ab03a 	or	r5,fp,r17
   4fa8c:	28009926 	beq	r5,zero,4fcf4 <__muldf3+0x490>
   4fa90:	8800da26 	beq	r17,zero,4fdfc <__muldf3+0x598>
   4fa94:	8809883a 	mov	r4,r17
   4fa98:	00430640 	call	43064 <__clzsi2>
   4fa9c:	11bffd44 	addi	r6,r2,-11
   4faa0:	01000744 	movi	r4,29
   4faa4:	117ffe04 	addi	r5,r2,-8
   4faa8:	2189c83a 	sub	r4,r4,r6
   4faac:	8962983a 	sll	r17,r17,r5
   4fab0:	e108d83a 	srl	r4,fp,r4
   4fab4:	e14a983a 	sll	r5,fp,r5
   4fab8:	2462b03a 	or	r17,r4,r17
   4fabc:	9885c83a 	sub	r2,r19,r2
   4fac0:	14ff0344 	addi	r19,r2,-1011
   4fac4:	0007883a 	mov	r3,zero
   4fac8:	003f9506 	br	4f920 <__muldf3+0xbc>
   4facc:	00c1ffc4 	movi	r3,2047
   4fad0:	0021883a 	mov	r16,zero
   4fad4:	0025883a 	mov	r18,zero
   4fad8:	003fbe06 	br	4f9d4 <__muldf3+0x170>
   4fadc:	9008d43a 	srli	r4,r18,16
   4fae0:	281ed43a 	srli	r15,r5,16
   4fae4:	94bfffcc 	andi	r18,r18,65535
   4fae8:	297fffcc 	andi	r5,r5,65535
   4faec:	2c85383a 	mul	r2,r5,r18
   4faf0:	214f383a 	mul	r7,r4,r5
   4faf4:	7c87383a 	mul	r3,r15,r18
   4faf8:	1012d43a 	srli	r9,r2,16
   4fafc:	23dd383a 	mul	r14,r4,r15
   4fb00:	19c7883a 	add	r3,r3,r7
   4fb04:	48d3883a 	add	r9,r9,r3
   4fb08:	49c0022e 	bgeu	r9,r7,4fb14 <__muldf3+0x2b0>
   4fb0c:	00c00074 	movhi	r3,1
   4fb10:	70dd883a 	add	r14,r14,r3
   4fb14:	881ad43a 	srli	r13,r17,16
   4fb18:	8c7fffcc 	andi	r17,r17,65535
   4fb1c:	8c87383a 	mul	r3,r17,r18
   4fb20:	244f383a 	mul	r7,r4,r17
   4fb24:	6ca5383a 	mul	r18,r13,r18
   4fb28:	1816d43a 	srli	r11,r3,16
   4fb2c:	4814943a 	slli	r10,r9,16
   4fb30:	91e5883a 	add	r18,r18,r7
   4fb34:	10bfffcc 	andi	r2,r2,65535
   4fb38:	5c97883a 	add	r11,r11,r18
   4fb3c:	4818d43a 	srli	r12,r9,16
   4fb40:	2349383a 	mul	r4,r4,r13
   4fb44:	5095883a 	add	r10,r10,r2
   4fb48:	59c0022e 	bgeu	r11,r7,4fb54 <__muldf3+0x2f0>
   4fb4c:	00800074 	movhi	r2,1
   4fb50:	2089883a 	add	r4,r4,r2
   4fb54:	8028d43a 	srli	r20,r16,16
   4fb58:	827fffcc 	andi	r9,r16,65535
   4fb5c:	2a6b383a 	mul	r21,r5,r9
   4fb60:	7a45383a 	mul	r2,r15,r9
   4fb64:	a14b383a 	mul	r5,r20,r5
   4fb68:	580e943a 	slli	r7,r11,16
   4fb6c:	a82cd43a 	srli	r22,r21,16
   4fb70:	5824d43a 	srli	r18,r11,16
   4fb74:	18ffffcc 	andi	r3,r3,65535
   4fb78:	1145883a 	add	r2,r2,r5
   4fb7c:	38cf883a 	add	r7,r7,r3
   4fb80:	b085883a 	add	r2,r22,r2
   4fb84:	7d1f383a 	mul	r15,r15,r20
   4fb88:	9117883a 	add	r11,r18,r4
   4fb8c:	61c7883a 	add	r3,r12,r7
   4fb90:	1140022e 	bgeu	r2,r5,4fb9c <__muldf3+0x338>
   4fb94:	01000074 	movhi	r4,1
   4fb98:	791f883a 	add	r15,r15,r4
   4fb9c:	8a65383a 	mul	r18,r17,r9
   4fba0:	6a53383a 	mul	r9,r13,r9
   4fba4:	a463383a 	mul	r17,r20,r17
   4fba8:	9020d43a 	srli	r16,r18,16
   4fbac:	100ad43a 	srli	r5,r2,16
   4fbb0:	1004943a 	slli	r2,r2,16
   4fbb4:	4c53883a 	add	r9,r9,r17
   4fbb8:	ab3fffcc 	andi	r12,r21,65535
   4fbbc:	8253883a 	add	r9,r16,r9
   4fbc0:	6d1b383a 	mul	r13,r13,r20
   4fbc4:	2bdf883a 	add	r15,r5,r15
   4fbc8:	1305883a 	add	r2,r2,r12
   4fbcc:	4c40022e 	bgeu	r9,r17,4fbd8 <__muldf3+0x374>
   4fbd0:	01000074 	movhi	r4,1
   4fbd4:	691b883a 	add	r13,r13,r4
   4fbd8:	4808943a 	slli	r4,r9,16
   4fbdc:	917fffcc 	andi	r5,r18,65535
   4fbe0:	1b87883a 	add	r3,r3,r14
   4fbe4:	2149883a 	add	r4,r4,r5
   4fbe8:	19cf803a 	cmpltu	r7,r3,r7
   4fbec:	22c9883a 	add	r4,r4,r11
   4fbf0:	1887883a 	add	r3,r3,r2
   4fbf4:	21dd883a 	add	r14,r4,r7
   4fbf8:	1885803a 	cmpltu	r2,r3,r2
   4fbfc:	73cb883a 	add	r5,r14,r15
   4fc00:	4812d43a 	srli	r9,r9,16
   4fc04:	2899883a 	add	r12,r5,r2
   4fc08:	22c9803a 	cmpltu	r4,r4,r11
   4fc0c:	71e1803a 	cmpltu	r16,r14,r7
   4fc10:	2bcb803a 	cmpltu	r5,r5,r15
   4fc14:	2420b03a 	or	r16,r4,r16
   4fc18:	6085803a 	cmpltu	r2,r12,r2
   4fc1c:	2884b03a 	or	r2,r5,r2
   4fc20:	8261883a 	add	r16,r16,r9
   4fc24:	1824927a 	slli	r18,r3,9
   4fc28:	80a1883a 	add	r16,r16,r2
   4fc2c:	8361883a 	add	r16,r16,r13
   4fc30:	8020927a 	slli	r16,r16,9
   4fc34:	1806d5fa 	srli	r3,r3,23
   4fc38:	600ad5fa 	srli	r5,r12,23
   4fc3c:	6004927a 	slli	r2,r12,9
   4fc40:	92a4b03a 	or	r18,r18,r10
   4fc44:	9024c03a 	cmpne	r18,r18,zero
   4fc48:	90e4b03a 	or	r18,r18,r3
   4fc4c:	80c0402c 	andhi	r3,r16,256
   4fc50:	90a4b03a 	or	r18,r18,r2
   4fc54:	8160b03a 	or	r16,r16,r5
   4fc58:	18007e26 	beq	r3,zero,4fe54 <__muldf3+0x5f0>
   4fc5c:	9006d07a 	srli	r3,r18,1
   4fc60:	800497fa 	slli	r2,r16,31
   4fc64:	9480004c 	andi	r18,r18,1
   4fc68:	8020d07a 	srli	r16,r16,1
   4fc6c:	1c86b03a 	or	r3,r3,r18
   4fc70:	18a4b03a 	or	r18,r3,r2
   4fc74:	4100ffc4 	addi	r4,r8,1023
   4fc78:	0100320e 	bge	zero,r4,4fd44 <__muldf3+0x4e0>
   4fc7c:	908001cc 	andi	r2,r18,7
   4fc80:	10000726 	beq	r2,zero,4fca0 <__muldf3+0x43c>
   4fc84:	908003cc 	andi	r2,r18,15
   4fc88:	10800120 	cmpeqi	r2,r2,4
   4fc8c:	1000041e 	bne	r2,zero,4fca0 <__muldf3+0x43c>
   4fc90:	90800104 	addi	r2,r18,4
   4fc94:	14a5803a 	cmpltu	r18,r2,r18
   4fc98:	84a1883a 	add	r16,r16,r18
   4fc9c:	1025883a 	mov	r18,r2
   4fca0:	8080402c 	andhi	r2,r16,256
   4fca4:	10000426 	beq	r2,zero,4fcb8 <__muldf3+0x454>
   4fca8:	00bfc034 	movhi	r2,65280
   4fcac:	10bfffc4 	addi	r2,r2,-1
   4fcb0:	80a0703a 	and	r16,r16,r2
   4fcb4:	41010004 	addi	r4,r8,1024
   4fcb8:	2081ffc8 	cmpgei	r2,r4,2047
   4fcbc:	103f831e 	bne	r2,zero,4facc <__muldf3+0x268>
   4fcc0:	8004977a 	slli	r2,r16,29
   4fcc4:	9024d0fa 	srli	r18,r18,3
   4fcc8:	8020927a 	slli	r16,r16,9
   4fccc:	20c1ffcc 	andi	r3,r4,2047
   4fcd0:	14a4b03a 	or	r18,r2,r18
   4fcd4:	8020d33a 	srli	r16,r16,12
   4fcd8:	003f3e06 	br	4f9d4 <__muldf3+0x170>
   4fcdc:	a00d883a 	mov	r6,r20
   4fce0:	003f3306 	br	4f9b0 <__muldf3+0x14c>
   4fce4:	ad4000d4 	ori	r21,r21,3
   4fce8:	e00b883a 	mov	r5,fp
   4fcec:	00c000c4 	movi	r3,3
   4fcf0:	003f0b06 	br	4f920 <__muldf3+0xbc>
   4fcf4:	ad400054 	ori	r21,r21,1
   4fcf8:	0023883a 	mov	r17,zero
   4fcfc:	00c00044 	movi	r3,1
   4fd00:	003f0706 	br	4f920 <__muldf3+0xbc>
   4fd04:	2025883a 	mov	r18,r4
   4fd08:	05400304 	movi	r21,12
   4fd0c:	04c1ffc4 	movi	r19,2047
   4fd10:	058000c4 	movi	r22,3
   4fd14:	003ef106 	br	4f8dc <__muldf3+0x78>
   4fd18:	0021883a 	mov	r16,zero
   4fd1c:	05400104 	movi	r21,4
   4fd20:	0027883a 	mov	r19,zero
   4fd24:	05800044 	movi	r22,1
   4fd28:	003eec06 	br	4f8dc <__muldf3+0x78>
   4fd2c:	04000434 	movhi	r16,16
   4fd30:	000d883a 	mov	r6,zero
   4fd34:	843fffc4 	addi	r16,r16,-1
   4fd38:	04bfffc4 	movi	r18,-1
   4fd3c:	00c1ffc4 	movi	r3,2047
   4fd40:	003f2406 	br	4f9d4 <__muldf3+0x170>
   4fd44:	00800044 	movi	r2,1
   4fd48:	1105c83a 	sub	r2,r2,r4
   4fd4c:	10c00e48 	cmpgei	r3,r2,57
   4fd50:	183f1d1e 	bne	r3,zero,4f9c8 <__muldf3+0x164>
   4fd54:	10c00808 	cmpgei	r3,r2,32
   4fd58:	1800401e 	bne	r3,zero,4fe5c <__muldf3+0x5f8>
   4fd5c:	42010784 	addi	r8,r8,1054
   4fd60:	8206983a 	sll	r3,r16,r8
   4fd64:	9088d83a 	srl	r4,r18,r2
   4fd68:	9210983a 	sll	r8,r18,r8
   4fd6c:	80a0d83a 	srl	r16,r16,r2
   4fd70:	1904b03a 	or	r2,r3,r4
   4fd74:	4024c03a 	cmpne	r18,r8,zero
   4fd78:	1484b03a 	or	r2,r2,r18
   4fd7c:	10c001cc 	andi	r3,r2,7
   4fd80:	18000726 	beq	r3,zero,4fda0 <__muldf3+0x53c>
   4fd84:	10c003cc 	andi	r3,r2,15
   4fd88:	18c00120 	cmpeqi	r3,r3,4
   4fd8c:	1800041e 	bne	r3,zero,4fda0 <__muldf3+0x53c>
   4fd90:	10c00104 	addi	r3,r2,4
   4fd94:	1885803a 	cmpltu	r2,r3,r2
   4fd98:	80a1883a 	add	r16,r16,r2
   4fd9c:	1805883a 	mov	r2,r3
   4fda0:	80c0202c 	andhi	r3,r16,128
   4fda4:	18004226 	beq	r3,zero,4feb0 <__muldf3+0x64c>
   4fda8:	00c00044 	movi	r3,1
   4fdac:	0021883a 	mov	r16,zero
   4fdb0:	0025883a 	mov	r18,zero
   4fdb4:	003f0706 	br	4f9d4 <__muldf3+0x170>
   4fdb8:	8080022c 	andhi	r2,r16,8
   4fdbc:	10000926 	beq	r2,zero,4fde4 <__muldf3+0x580>
   4fdc0:	8880022c 	andhi	r2,r17,8
   4fdc4:	1000071e 	bne	r2,zero,4fde4 <__muldf3+0x580>
   4fdc8:	00800434 	movhi	r2,16
   4fdcc:	8c000234 	orhi	r16,r17,8
   4fdd0:	10bfffc4 	addi	r2,r2,-1
   4fdd4:	80a0703a 	and	r16,r16,r2
   4fdd8:	b80d883a 	mov	r6,r23
   4fddc:	2825883a 	mov	r18,r5
   4fde0:	003fd606 	br	4fd3c <__muldf3+0x4d8>
   4fde4:	00800434 	movhi	r2,16
   4fde8:	84000234 	orhi	r16,r16,8
   4fdec:	10bfffc4 	addi	r2,r2,-1
   4fdf0:	80a0703a 	and	r16,r16,r2
   4fdf4:	a00d883a 	mov	r6,r20
   4fdf8:	003fd006 	br	4fd3c <__muldf3+0x4d8>
   4fdfc:	e009883a 	mov	r4,fp
   4fe00:	00430640 	call	43064 <__clzsi2>
   4fe04:	11800544 	addi	r6,r2,21
   4fe08:	31000748 	cmpgei	r4,r6,29
   4fe0c:	1007883a 	mov	r3,r2
   4fe10:	10800804 	addi	r2,r2,32
   4fe14:	203f2226 	beq	r4,zero,4faa0 <__muldf3+0x23c>
   4fe18:	1c7ffe04 	addi	r17,r3,-8
   4fe1c:	e462983a 	sll	r17,fp,r17
   4fe20:	000b883a 	mov	r5,zero
   4fe24:	003f2506 	br	4fabc <__muldf3+0x258>
   4fe28:	00430640 	call	43064 <__clzsi2>
   4fe2c:	11000544 	addi	r4,r2,21
   4fe30:	21400748 	cmpgei	r5,r4,29
   4fe34:	1007883a 	mov	r3,r2
   4fe38:	d9c00017 	ldw	r7,0(sp)
   4fe3c:	10800804 	addi	r2,r2,32
   4fe40:	283efe26 	beq	r5,zero,4fa3c <__muldf3+0x1d8>
   4fe44:	1c3ffe04 	addi	r16,r3,-8
   4fe48:	9c20983a 	sll	r16,r19,r16
   4fe4c:	0025883a 	mov	r18,zero
   4fe50:	003f0106 	br	4fa58 <__muldf3+0x1f4>
   4fe54:	9811883a 	mov	r8,r19
   4fe58:	003f8606 	br	4fc74 <__muldf3+0x410>
   4fe5c:	00fff844 	movi	r3,-31
   4fe60:	1907c83a 	sub	r3,r3,r4
   4fe64:	10800820 	cmpeqi	r2,r2,32
   4fe68:	80c6d83a 	srl	r3,r16,r3
   4fe6c:	1000031e 	bne	r2,zero,4fe7c <__muldf3+0x618>
   4fe70:	42010f84 	addi	r8,r8,1086
   4fe74:	8220983a 	sll	r16,r16,r8
   4fe78:	9424b03a 	or	r18,r18,r16
   4fe7c:	9024c03a 	cmpne	r18,r18,zero
   4fe80:	90c4b03a 	or	r2,r18,r3
   4fe84:	148001cc 	andi	r18,r2,7
   4fe88:	9000051e 	bne	r18,zero,4fea0 <__muldf3+0x63c>
   4fe8c:	0021883a 	mov	r16,zero
   4fe90:	1004d0fa 	srli	r2,r2,3
   4fe94:	0007883a 	mov	r3,zero
   4fe98:	14a4b03a 	or	r18,r2,r18
   4fe9c:	003ecd06 	br	4f9d4 <__muldf3+0x170>
   4fea0:	10c003cc 	andi	r3,r2,15
   4fea4:	18c00118 	cmpnei	r3,r3,4
   4fea8:	0021883a 	mov	r16,zero
   4feac:	183fb81e 	bne	r3,zero,4fd90 <__muldf3+0x52c>
   4feb0:	8006927a 	slli	r3,r16,9
   4feb4:	8024977a 	slli	r18,r16,29
   4feb8:	1820d33a 	srli	r16,r3,12
   4febc:	003ff406 	br	4fe90 <__muldf3+0x62c>
   4fec0:	00800434 	movhi	r2,16
   4fec4:	84000234 	orhi	r16,r16,8
   4fec8:	10bfffc4 	addi	r2,r2,-1
   4fecc:	80a0703a 	and	r16,r16,r2
   4fed0:	003f9a06 	br	4fd3c <__muldf3+0x4d8>

0004fed4 <__subdf3>:
   4fed4:	00c00434 	movhi	r3,16
   4fed8:	3812d53a 	srli	r9,r7,20
   4fedc:	18ffffc4 	addi	r3,r3,-1
   4fee0:	defffb04 	addi	sp,sp,-20
   4fee4:	28d0703a 	and	r8,r5,r3
   4fee8:	38c6703a 	and	r3,r7,r3
   4feec:	2804d7fa 	srli	r2,r5,31
   4fef0:	401090fa 	slli	r8,r8,3
   4fef4:	280ad53a 	srli	r5,r5,20
   4fef8:	180690fa 	slli	r3,r3,3
   4fefc:	dcc00315 	stw	r19,12(sp)
   4ff00:	dc400115 	stw	r17,4(sp)
   4ff04:	2026d77a 	srli	r19,r4,29
   4ff08:	3022d77a 	srli	r17,r6,29
   4ff0c:	4b41ffcc 	andi	r13,r9,2047
   4ff10:	dc800215 	stw	r18,8(sp)
   4ff14:	dc000015 	stw	r16,0(sp)
   4ff18:	dfc00415 	stw	ra,16(sp)
   4ff1c:	6a41ffe0 	cmpeqi	r9,r13,2047
   4ff20:	1025883a 	mov	r18,r2
   4ff24:	201690fa 	slli	r11,r4,3
   4ff28:	380ed7fa 	srli	r7,r7,31
   4ff2c:	301490fa 	slli	r10,r6,3
   4ff30:	2c01ffcc 	andi	r16,r5,2047
   4ff34:	10803fcc 	andi	r2,r2,255
   4ff38:	9a10b03a 	or	r8,r19,r8
   4ff3c:	88c6b03a 	or	r3,r17,r3
   4ff40:	48006e1e 	bne	r9,zero,500fc <__subdf3+0x228>
   4ff44:	3a40005c 	xori	r9,r7,1
   4ff48:	834bc83a 	sub	r5,r16,r13
   4ff4c:	12405726 	beq	r2,r9,500ac <__subdf3+0x1d8>
   4ff50:	01406f0e 	bge	zero,r5,50110 <__subdf3+0x23c>
   4ff54:	68007a26 	beq	r13,zero,50140 <__subdf3+0x26c>
   4ff58:	8081ffd8 	cmpnei	r2,r16,2047
   4ff5c:	10019f26 	beq	r2,zero,505dc <__subdf3+0x708>
   4ff60:	18c02034 	orhi	r3,r3,128
   4ff64:	28800e48 	cmpgei	r2,r5,57
   4ff68:	1000f91e 	bne	r2,zero,50350 <__subdf3+0x47c>
   4ff6c:	28800808 	cmpgei	r2,r5,32
   4ff70:	1001451e 	bne	r2,zero,50488 <__subdf3+0x5b4>
   4ff74:	00800804 	movi	r2,32
   4ff78:	1145c83a 	sub	r2,r2,r5
   4ff7c:	18a2983a 	sll	r17,r3,r2
   4ff80:	5148d83a 	srl	r4,r10,r5
   4ff84:	5084983a 	sll	r2,r10,r2
   4ff88:	1946d83a 	srl	r3,r3,r5
   4ff8c:	8922b03a 	or	r17,r17,r4
   4ff90:	1004c03a 	cmpne	r2,r2,zero
   4ff94:	88a2b03a 	or	r17,r17,r2
   4ff98:	40d1c83a 	sub	r8,r8,r3
   4ff9c:	5c63c83a 	sub	r17,r11,r17
   4ffa0:	5c49803a 	cmpltu	r4,r11,r17
   4ffa4:	4109c83a 	sub	r4,r8,r4
   4ffa8:	2080202c 	andhi	r2,r4,128
   4ffac:	1000a526 	beq	r2,zero,50244 <__subdf3+0x370>
   4ffb0:	04c02034 	movhi	r19,128
   4ffb4:	9cffffc4 	addi	r19,r19,-1
   4ffb8:	24e6703a 	and	r19,r4,r19
   4ffbc:	9800db26 	beq	r19,zero,5032c <__subdf3+0x458>
   4ffc0:	9809883a 	mov	r4,r19
   4ffc4:	00430640 	call	43064 <__clzsi2>
   4ffc8:	117ffe04 	addi	r5,r2,-8
   4ffcc:	01000804 	movi	r4,32
   4ffd0:	2149c83a 	sub	r4,r4,r5
   4ffd4:	8906d83a 	srl	r3,r17,r4
   4ffd8:	9948983a 	sll	r4,r19,r5
   4ffdc:	8962983a 	sll	r17,r17,r5
   4ffe0:	1908b03a 	or	r4,r3,r4
   4ffe4:	2c00cc16 	blt	r5,r16,50318 <__subdf3+0x444>
   4ffe8:	2c0bc83a 	sub	r5,r5,r16
   4ffec:	28c00044 	addi	r3,r5,1
   4fff0:	18800808 	cmpgei	r2,r3,32
   4fff4:	1001171e 	bne	r2,zero,50454 <__subdf3+0x580>
   4fff8:	00800804 	movi	r2,32
   4fffc:	10c5c83a 	sub	r2,r2,r3
   50000:	88cad83a 	srl	r5,r17,r3
   50004:	88a2983a 	sll	r17,r17,r2
   50008:	2084983a 	sll	r2,r4,r2
   5000c:	20c8d83a 	srl	r4,r4,r3
   50010:	8822c03a 	cmpne	r17,r17,zero
   50014:	1144b03a 	or	r2,r2,r5
   50018:	1462b03a 	or	r17,r2,r17
   5001c:	0021883a 	mov	r16,zero
   50020:	888001cc 	andi	r2,r17,7
   50024:	10000726 	beq	r2,zero,50044 <__subdf3+0x170>
   50028:	888003cc 	andi	r2,r17,15
   5002c:	10800120 	cmpeqi	r2,r2,4
   50030:	1000041e 	bne	r2,zero,50044 <__subdf3+0x170>
   50034:	88c00104 	addi	r3,r17,4
   50038:	1c63803a 	cmpltu	r17,r3,r17
   5003c:	2449883a 	add	r4,r4,r17
   50040:	1823883a 	mov	r17,r3
   50044:	2080202c 	andhi	r2,r4,128
   50048:	10008026 	beq	r2,zero,5024c <__subdf3+0x378>
   5004c:	81400044 	addi	r5,r16,1
   50050:	2881ffe0 	cmpeqi	r2,r5,2047
   50054:	2941ffcc 	andi	r5,r5,2047
   50058:	1000921e 	bne	r2,zero,502a4 <__subdf3+0x3d0>
   5005c:	00bfe034 	movhi	r2,65408
   50060:	10bfffc4 	addi	r2,r2,-1
   50064:	2088703a 	and	r4,r4,r2
   50068:	2006927a 	slli	r3,r4,9
   5006c:	8822d0fa 	srli	r17,r17,3
   50070:	2004977a 	slli	r2,r4,29
   50074:	1806d33a 	srli	r3,r3,12
   50078:	1444b03a 	or	r2,r2,r17
   5007c:	280a953a 	slli	r5,r5,20
   50080:	94803fcc 	andi	r18,r18,255
   50084:	902497fa 	slli	r18,r18,31
   50088:	28c6b03a 	or	r3,r5,r3
   5008c:	1c86b03a 	or	r3,r3,r18
   50090:	dfc00417 	ldw	ra,16(sp)
   50094:	dcc00317 	ldw	r19,12(sp)
   50098:	dc800217 	ldw	r18,8(sp)
   5009c:	dc400117 	ldw	r17,4(sp)
   500a0:	dc000017 	ldw	r16,0(sp)
   500a4:	dec00504 	addi	sp,sp,20
   500a8:	f800283a 	ret
   500ac:	01402e0e 	bge	zero,r5,50168 <__subdf3+0x294>
   500b0:	68005526 	beq	r13,zero,50208 <__subdf3+0x334>
   500b4:	8081ffd8 	cmpnei	r2,r16,2047
   500b8:	10013b26 	beq	r2,zero,505a8 <__subdf3+0x6d4>
   500bc:	18c02034 	orhi	r3,r3,128
   500c0:	28800e48 	cmpgei	r2,r5,57
   500c4:	10006d1e 	bne	r2,zero,5027c <__subdf3+0x3a8>
   500c8:	28800808 	cmpgei	r2,r5,32
   500cc:	10010826 	beq	r2,zero,504f0 <__subdf3+0x61c>
   500d0:	2c7ff804 	addi	r17,r5,-32
   500d4:	29000820 	cmpeqi	r4,r5,32
   500d8:	1c44d83a 	srl	r2,r3,r17
   500dc:	2000041e 	bne	r4,zero,500f0 <__subdf3+0x21c>
   500e0:	01001004 	movi	r4,64
   500e4:	214bc83a 	sub	r5,r4,r5
   500e8:	1946983a 	sll	r3,r3,r5
   500ec:	50d4b03a 	or	r10,r10,r3
   500f0:	5022c03a 	cmpne	r17,r10,zero
   500f4:	88a2b03a 	or	r17,r17,r2
   500f8:	00006206 	br	50284 <__subdf3+0x3b0>
   500fc:	1a98b03a 	or	r12,r3,r10
   50100:	817e0044 	addi	r5,r16,-2047
   50104:	6000161e 	bne	r12,zero,50160 <__subdf3+0x28c>
   50108:	3a40005c 	xori	r9,r7,1
   5010c:	12401626 	beq	r2,r9,50168 <__subdf3+0x294>
   50110:	28002e26 	beq	r5,zero,501cc <__subdf3+0x2f8>
   50114:	6c0bc83a 	sub	r5,r13,r16
   50118:	4825883a 	mov	r18,r9
   5011c:	80009e1e 	bne	r16,zero,50398 <__subdf3+0x4c4>
   50120:	42c4b03a 	or	r2,r8,r11
   50124:	10010926 	beq	r2,zero,5054c <__subdf3+0x678>
   50128:	28bfffc4 	addi	r2,r5,-1
   5012c:	10016826 	beq	r2,zero,506d0 <__subdf3+0x7fc>
   50130:	2941ffd8 	cmpnei	r5,r5,2047
   50134:	28015f26 	beq	r5,zero,506b4 <__subdf3+0x7e0>
   50138:	100b883a 	mov	r5,r2
   5013c:	00009906 	br	503a4 <__subdf3+0x4d0>
   50140:	1a84b03a 	or	r2,r3,r10
   50144:	1000b126 	beq	r2,zero,5040c <__subdf3+0x538>
   50148:	28bfffc4 	addi	r2,r5,-1
   5014c:	10011d26 	beq	r2,zero,505c4 <__subdf3+0x6f0>
   50150:	2941ffd8 	cmpnei	r5,r5,2047
   50154:	28011426 	beq	r5,zero,505a8 <__subdf3+0x6d4>
   50158:	100b883a 	mov	r5,r2
   5015c:	003f8106 	br	4ff64 <__subdf3+0x90>
   50160:	3a403fcc 	andi	r9,r7,255
   50164:	11ffea1e 	bne	r2,r7,50110 <__subdf3+0x23c>
   50168:	28007c26 	beq	r5,zero,5035c <__subdf3+0x488>
   5016c:	6c0bc83a 	sub	r5,r13,r16
   50170:	8000d726 	beq	r16,zero,504d0 <__subdf3+0x5fc>
   50174:	6881ffd8 	cmpnei	r2,r13,2047
   50178:	10012626 	beq	r2,zero,50614 <__subdf3+0x740>
   5017c:	42002034 	orhi	r8,r8,128
   50180:	28800e48 	cmpgei	r2,r5,57
   50184:	10012a1e 	bne	r2,zero,50630 <__subdf3+0x75c>
   50188:	28800808 	cmpgei	r2,r5,32
   5018c:	1001821e 	bne	r2,zero,50798 <__subdf3+0x8c4>
   50190:	00800804 	movi	r2,32
   50194:	1145c83a 	sub	r2,r2,r5
   50198:	40a2983a 	sll	r17,r8,r2
   5019c:	5948d83a 	srl	r4,r11,r5
   501a0:	5884983a 	sll	r2,r11,r2
   501a4:	4150d83a 	srl	r8,r8,r5
   501a8:	8922b03a 	or	r17,r17,r4
   501ac:	1004c03a 	cmpne	r2,r2,zero
   501b0:	88a2b03a 	or	r17,r17,r2
   501b4:	1a07883a 	add	r3,r3,r8
   501b8:	8aa3883a 	add	r17,r17,r10
   501bc:	8a89803a 	cmpltu	r4,r17,r10
   501c0:	20c9883a 	add	r4,r4,r3
   501c4:	6821883a 	mov	r16,r13
   501c8:	00003106 	br	50290 <__subdf3+0x3bc>
   501cc:	80800044 	addi	r2,r16,1
   501d0:	1081ff8c 	andi	r2,r2,2046
   501d4:	1000821e 	bne	r2,zero,503e0 <__subdf3+0x50c>
   501d8:	42ceb03a 	or	r7,r8,r11
   501dc:	1a84b03a 	or	r2,r3,r10
   501e0:	8000e11e 	bne	r16,zero,50568 <__subdf3+0x694>
   501e4:	38012a26 	beq	r7,zero,50690 <__subdf3+0x7bc>
   501e8:	1001461e 	bne	r2,zero,50704 <__subdf3+0x830>
   501ec:	4004977a 	slli	r2,r8,29
   501f0:	00c80034 	movhi	r3,8192
   501f4:	18ffffc4 	addi	r3,r3,-1
   501f8:	20c8703a 	and	r4,r4,r3
   501fc:	4010d0fa 	srli	r8,r8,3
   50200:	1104b03a 	or	r2,r2,r4
   50204:	00001806 	br	50268 <__subdf3+0x394>
   50208:	1a84b03a 	or	r2,r3,r10
   5020c:	1000fa26 	beq	r2,zero,505f8 <__subdf3+0x724>
   50210:	28bfffc4 	addi	r2,r5,-1
   50214:	10000426 	beq	r2,zero,50228 <__subdf3+0x354>
   50218:	2941ffd8 	cmpnei	r5,r5,2047
   5021c:	28013226 	beq	r5,zero,506e8 <__subdf3+0x814>
   50220:	100b883a 	mov	r5,r2
   50224:	003fa606 	br	500c0 <__subdf3+0x1ec>
   50228:	5aa3883a 	add	r17,r11,r10
   5022c:	40c9883a 	add	r4,r8,r3
   50230:	8ad7803a 	cmpltu	r11,r17,r11
   50234:	22c9883a 	add	r4,r4,r11
   50238:	2080202c 	andhi	r2,r4,128
   5023c:	10007a1e 	bne	r2,zero,50428 <__subdf3+0x554>
   50240:	04000044 	movi	r16,1
   50244:	888001cc 	andi	r2,r17,7
   50248:	103f771e 	bne	r2,zero,50028 <__subdf3+0x154>
   5024c:	8822d0fa 	srli	r17,r17,3
   50250:	2004977a 	slli	r2,r4,29
   50254:	2010d0fa 	srli	r8,r4,3
   50258:	800b883a 	mov	r5,r16
   5025c:	8884b03a 	or	r2,r17,r2
   50260:	28c1ffe0 	cmpeqi	r3,r5,2047
   50264:	1800241e 	bne	r3,zero,502f8 <__subdf3+0x424>
   50268:	00c00434 	movhi	r3,16
   5026c:	18ffffc4 	addi	r3,r3,-1
   50270:	40c6703a 	and	r3,r8,r3
   50274:	2941ffcc 	andi	r5,r5,2047
   50278:	003f8006 	br	5007c <__subdf3+0x1a8>
   5027c:	1aa2b03a 	or	r17,r3,r10
   50280:	8822c03a 	cmpne	r17,r17,zero
   50284:	8ae3883a 	add	r17,r17,r11
   50288:	8ac9803a 	cmpltu	r4,r17,r11
   5028c:	2209883a 	add	r4,r4,r8
   50290:	2080202c 	andhi	r2,r4,128
   50294:	103feb26 	beq	r2,zero,50244 <__subdf3+0x370>
   50298:	84000044 	addi	r16,r16,1
   5029c:	8081ffe0 	cmpeqi	r2,r16,2047
   502a0:	10006226 	beq	r2,zero,5042c <__subdf3+0x558>
   502a4:	0141ffc4 	movi	r5,2047
   502a8:	0007883a 	mov	r3,zero
   502ac:	0005883a 	mov	r2,zero
   502b0:	003f7206 	br	5007c <__subdf3+0x1a8>
   502b4:	400e977a 	slli	r7,r8,29
   502b8:	4010d0fa 	srli	r8,r8,3
   502bc:	1000ef26 	beq	r2,zero,5067c <__subdf3+0x7a8>
   502c0:	01480034 	movhi	r5,8192
   502c4:	297fffc4 	addi	r5,r5,-1
   502c8:	2144703a 	and	r2,r4,r5
   502cc:	4100022c 	andhi	r4,r8,8
   502d0:	11c4b03a 	or	r2,r2,r7
   502d4:	20000826 	beq	r4,zero,502f8 <__subdf3+0x424>
   502d8:	1808d0fa 	srli	r4,r3,3
   502dc:	21c0022c 	andhi	r7,r4,8
   502e0:	3800051e 	bne	r7,zero,502f8 <__subdf3+0x424>
   502e4:	1804977a 	slli	r2,r3,29
   502e8:	314c703a 	and	r6,r6,r5
   502ec:	4825883a 	mov	r18,r9
   502f0:	3084b03a 	or	r2,r6,r2
   502f4:	2011883a 	mov	r8,r4
   502f8:	1206b03a 	or	r3,r2,r8
   502fc:	18013e26 	beq	r3,zero,507f8 <__subdf3+0x924>
   50300:	01000434 	movhi	r4,16
   50304:	40c00234 	orhi	r3,r8,8
   50308:	213fffc4 	addi	r4,r4,-1
   5030c:	1906703a 	and	r3,r3,r4
   50310:	0141ffc4 	movi	r5,2047
   50314:	003f5906 	br	5007c <__subdf3+0x1a8>
   50318:	00ffe034 	movhi	r3,65408
   5031c:	18ffffc4 	addi	r3,r3,-1
   50320:	8161c83a 	sub	r16,r16,r5
   50324:	20c8703a 	and	r4,r4,r3
   50328:	003f3d06 	br	50020 <__subdf3+0x14c>
   5032c:	8809883a 	mov	r4,r17
   50330:	00430640 	call	43064 <__clzsi2>
   50334:	11400604 	addi	r5,r2,24
   50338:	28c00808 	cmpgei	r3,r5,32
   5033c:	183f2326 	beq	r3,zero,4ffcc <__subdf3+0xf8>
   50340:	113ffe04 	addi	r4,r2,-8
   50344:	8908983a 	sll	r4,r17,r4
   50348:	0023883a 	mov	r17,zero
   5034c:	003f2506 	br	4ffe4 <__subdf3+0x110>
   50350:	1aa2b03a 	or	r17,r3,r10
   50354:	8822c03a 	cmpne	r17,r17,zero
   50358:	003f1006 	br	4ff9c <__subdf3+0xc8>
   5035c:	80800044 	addi	r2,r16,1
   50360:	11c1ff8c 	andi	r7,r2,2046
   50364:	38006d1e 	bne	r7,zero,5051c <__subdf3+0x648>
   50368:	42c4b03a 	or	r2,r8,r11
   5036c:	8000be1e 	bne	r16,zero,50668 <__subdf3+0x794>
   50370:	1000f726 	beq	r2,zero,50750 <__subdf3+0x87c>
   50374:	1a84b03a 	or	r2,r3,r10
   50378:	1000fc1e 	bne	r2,zero,5076c <__subdf3+0x898>
   5037c:	4006977a 	slli	r3,r8,29
   50380:	00880034 	movhi	r2,8192
   50384:	10bfffc4 	addi	r2,r2,-1
   50388:	2084703a 	and	r2,r4,r2
   5038c:	4010d0fa 	srli	r8,r8,3
   50390:	10c4b03a 	or	r2,r2,r3
   50394:	003fb406 	br	50268 <__subdf3+0x394>
   50398:	6881ffd8 	cmpnei	r2,r13,2047
   5039c:	10009d26 	beq	r2,zero,50614 <__subdf3+0x740>
   503a0:	42002034 	orhi	r8,r8,128
   503a4:	28800e48 	cmpgei	r2,r5,57
   503a8:	1000421e 	bne	r2,zero,504b4 <__subdf3+0x5e0>
   503ac:	28800808 	cmpgei	r2,r5,32
   503b0:	1000a21e 	bne	r2,zero,5063c <__subdf3+0x768>
   503b4:	00800804 	movi	r2,32
   503b8:	1145c83a 	sub	r2,r2,r5
   503bc:	40a2983a 	sll	r17,r8,r2
   503c0:	5948d83a 	srl	r4,r11,r5
   503c4:	5896983a 	sll	r11,r11,r2
   503c8:	4150d83a 	srl	r8,r8,r5
   503cc:	8922b03a 	or	r17,r17,r4
   503d0:	5816c03a 	cmpne	r11,r11,zero
   503d4:	8ae2b03a 	or	r17,r17,r11
   503d8:	1a07c83a 	sub	r3,r3,r8
   503dc:	00003706 	br	504bc <__subdf3+0x5e8>
   503e0:	5aa3c83a 	sub	r17,r11,r10
   503e4:	40e7c83a 	sub	r19,r8,r3
   503e8:	5c49803a 	cmpltu	r4,r11,r17
   503ec:	9927c83a 	sub	r19,r19,r4
   503f0:	9880202c 	andhi	r2,r19,128
   503f4:	1000661e 	bne	r2,zero,50590 <__subdf3+0x6bc>
   503f8:	8cc4b03a 	or	r2,r17,r19
   503fc:	103eef1e 	bne	r2,zero,4ffbc <__subdf3+0xe8>
   50400:	0011883a 	mov	r8,zero
   50404:	0025883a 	mov	r18,zero
   50408:	003f9706 	br	50268 <__subdf3+0x394>
   5040c:	4022977a 	slli	r17,r8,29
   50410:	00880034 	movhi	r2,8192
   50414:	10bfffc4 	addi	r2,r2,-1
   50418:	2088703a 	and	r4,r4,r2
   5041c:	4010d0fa 	srli	r8,r8,3
   50420:	2444b03a 	or	r2,r4,r17
   50424:	003f8e06 	br	50260 <__subdf3+0x38c>
   50428:	04000084 	movi	r16,2
   5042c:	00bfe034 	movhi	r2,65408
   50430:	10bfffc4 	addi	r2,r2,-1
   50434:	8806d07a 	srli	r3,r17,1
   50438:	2088703a 	and	r4,r4,r2
   5043c:	200497fa 	slli	r2,r4,31
   50440:	8c40004c 	andi	r17,r17,1
   50444:	1c62b03a 	or	r17,r3,r17
   50448:	2008d07a 	srli	r4,r4,1
   5044c:	1462b03a 	or	r17,r2,r17
   50450:	003ef306 	br	50020 <__subdf3+0x14c>
   50454:	297ff844 	addi	r5,r5,-31
   50458:	18800820 	cmpeqi	r2,r3,32
   5045c:	214ad83a 	srl	r5,r4,r5
   50460:	1000041e 	bne	r2,zero,50474 <__subdf3+0x5a0>
   50464:	00801004 	movi	r2,64
   50468:	10c7c83a 	sub	r3,r2,r3
   5046c:	20c8983a 	sll	r4,r4,r3
   50470:	8922b03a 	or	r17,r17,r4
   50474:	8822c03a 	cmpne	r17,r17,zero
   50478:	8962b03a 	or	r17,r17,r5
   5047c:	0009883a 	mov	r4,zero
   50480:	0021883a 	mov	r16,zero
   50484:	003f6f06 	br	50244 <__subdf3+0x370>
   50488:	2c7ff804 	addi	r17,r5,-32
   5048c:	29000820 	cmpeqi	r4,r5,32
   50490:	1c44d83a 	srl	r2,r3,r17
   50494:	2000041e 	bne	r4,zero,504a8 <__subdf3+0x5d4>
   50498:	01001004 	movi	r4,64
   5049c:	214bc83a 	sub	r5,r4,r5
   504a0:	1946983a 	sll	r3,r3,r5
   504a4:	50d4b03a 	or	r10,r10,r3
   504a8:	5022c03a 	cmpne	r17,r10,zero
   504ac:	88a2b03a 	or	r17,r17,r2
   504b0:	003eba06 	br	4ff9c <__subdf3+0xc8>
   504b4:	42d0b03a 	or	r8,r8,r11
   504b8:	4022c03a 	cmpne	r17,r8,zero
   504bc:	5463c83a 	sub	r17,r10,r17
   504c0:	5449803a 	cmpltu	r4,r10,r17
   504c4:	1909c83a 	sub	r4,r3,r4
   504c8:	6821883a 	mov	r16,r13
   504cc:	003eb606 	br	4ffa8 <__subdf3+0xd4>
   504d0:	42c4b03a 	or	r2,r8,r11
   504d4:	10009726 	beq	r2,zero,50734 <__subdf3+0x860>
   504d8:	28bfffc4 	addi	r2,r5,-1
   504dc:	1000b926 	beq	r2,zero,507c4 <__subdf3+0x8f0>
   504e0:	2941ffd8 	cmpnei	r5,r5,2047
   504e4:	28007326 	beq	r5,zero,506b4 <__subdf3+0x7e0>
   504e8:	100b883a 	mov	r5,r2
   504ec:	003f2406 	br	50180 <__subdf3+0x2ac>
   504f0:	00800804 	movi	r2,32
   504f4:	1145c83a 	sub	r2,r2,r5
   504f8:	18a2983a 	sll	r17,r3,r2
   504fc:	5148d83a 	srl	r4,r10,r5
   50500:	5084983a 	sll	r2,r10,r2
   50504:	1946d83a 	srl	r3,r3,r5
   50508:	8922b03a 	or	r17,r17,r4
   5050c:	1004c03a 	cmpne	r2,r2,zero
   50510:	88a2b03a 	or	r17,r17,r2
   50514:	40d1883a 	add	r8,r8,r3
   50518:	003f5a06 	br	50284 <__subdf3+0x3b0>
   5051c:	1101ffe0 	cmpeqi	r4,r2,2047
   50520:	203f601e 	bne	r4,zero,502a4 <__subdf3+0x3d0>
   50524:	5a95883a 	add	r10,r11,r10
   50528:	52d7803a 	cmpltu	r11,r10,r11
   5052c:	40c9883a 	add	r4,r8,r3
   50530:	22c9883a 	add	r4,r4,r11
   50534:	202297fa 	slli	r17,r4,31
   50538:	5014d07a 	srli	r10,r10,1
   5053c:	2008d07a 	srli	r4,r4,1
   50540:	1021883a 	mov	r16,r2
   50544:	8aa2b03a 	or	r17,r17,r10
   50548:	003f3e06 	br	50244 <__subdf3+0x370>
   5054c:	1808977a 	slli	r4,r3,29
   50550:	00880034 	movhi	r2,8192
   50554:	10bfffc4 	addi	r2,r2,-1
   50558:	308c703a 	and	r6,r6,r2
   5055c:	1810d0fa 	srli	r8,r3,3
   50560:	3104b03a 	or	r2,r6,r4
   50564:	003f3e06 	br	50260 <__subdf3+0x38c>
   50568:	383f521e 	bne	r7,zero,502b4 <__subdf3+0x3e0>
   5056c:	10009d26 	beq	r2,zero,507e4 <__subdf3+0x910>
   50570:	1808977a 	slli	r4,r3,29
   50574:	00880034 	movhi	r2,8192
   50578:	10bfffc4 	addi	r2,r2,-1
   5057c:	3084703a 	and	r2,r6,r2
   50580:	1810d0fa 	srli	r8,r3,3
   50584:	1104b03a 	or	r2,r2,r4
   50588:	4825883a 	mov	r18,r9
   5058c:	003f5a06 	br	502f8 <__subdf3+0x424>
   50590:	52e3c83a 	sub	r17,r10,r11
   50594:	1a09c83a 	sub	r4,r3,r8
   50598:	5467803a 	cmpltu	r19,r10,r17
   5059c:	24e7c83a 	sub	r19,r4,r19
   505a0:	4825883a 	mov	r18,r9
   505a4:	003e8506 	br	4ffbc <__subdf3+0xe8>
   505a8:	4022977a 	slli	r17,r8,29
   505ac:	00880034 	movhi	r2,8192
   505b0:	10bfffc4 	addi	r2,r2,-1
   505b4:	2088703a 	and	r4,r4,r2
   505b8:	4010d0fa 	srli	r8,r8,3
   505bc:	2444b03a 	or	r2,r4,r17
   505c0:	003f4d06 	br	502f8 <__subdf3+0x424>
   505c4:	5aa3c83a 	sub	r17,r11,r10
   505c8:	40c9c83a 	sub	r4,r8,r3
   505cc:	5c57803a 	cmpltu	r11,r11,r17
   505d0:	22c9c83a 	sub	r4,r4,r11
   505d4:	04000044 	movi	r16,1
   505d8:	003e7306 	br	4ffa8 <__subdf3+0xd4>
   505dc:	4004977a 	slli	r2,r8,29
   505e0:	00c80034 	movhi	r3,8192
   505e4:	18ffffc4 	addi	r3,r3,-1
   505e8:	20c8703a 	and	r4,r4,r3
   505ec:	4010d0fa 	srli	r8,r8,3
   505f0:	1104b03a 	or	r2,r2,r4
   505f4:	003f4006 	br	502f8 <__subdf3+0x424>
   505f8:	4004977a 	slli	r2,r8,29
   505fc:	00c80034 	movhi	r3,8192
   50600:	18ffffc4 	addi	r3,r3,-1
   50604:	20c8703a 	and	r4,r4,r3
   50608:	4010d0fa 	srli	r8,r8,3
   5060c:	1104b03a 	or	r2,r2,r4
   50610:	003f1306 	br	50260 <__subdf3+0x38c>
   50614:	1804977a 	slli	r2,r3,29
   50618:	01080034 	movhi	r4,8192
   5061c:	213fffc4 	addi	r4,r4,-1
   50620:	310c703a 	and	r6,r6,r4
   50624:	1810d0fa 	srli	r8,r3,3
   50628:	1184b03a 	or	r2,r2,r6
   5062c:	003f3206 	br	502f8 <__subdf3+0x424>
   50630:	42d0b03a 	or	r8,r8,r11
   50634:	4022c03a 	cmpne	r17,r8,zero
   50638:	003edf06 	br	501b8 <__subdf3+0x2e4>
   5063c:	2c7ff804 	addi	r17,r5,-32
   50640:	29000820 	cmpeqi	r4,r5,32
   50644:	4444d83a 	srl	r2,r8,r17
   50648:	2000041e 	bne	r4,zero,5065c <__subdf3+0x788>
   5064c:	01001004 	movi	r4,64
   50650:	214bc83a 	sub	r5,r4,r5
   50654:	4150983a 	sll	r8,r8,r5
   50658:	5a16b03a 	or	r11,r11,r8
   5065c:	5822c03a 	cmpne	r17,r11,zero
   50660:	88a2b03a 	or	r17,r17,r2
   50664:	003f9506 	br	504bc <__subdf3+0x5e8>
   50668:	103fea26 	beq	r2,zero,50614 <__subdf3+0x740>
   5066c:	1a94b03a 	or	r10,r3,r10
   50670:	400e977a 	slli	r7,r8,29
   50674:	4010d0fa 	srli	r8,r8,3
   50678:	503f111e 	bne	r10,zero,502c0 <__subdf3+0x3ec>
   5067c:	00880034 	movhi	r2,8192
   50680:	10bfffc4 	addi	r2,r2,-1
   50684:	2084703a 	and	r2,r4,r2
   50688:	11c4b03a 	or	r2,r2,r7
   5068c:	003f1a06 	br	502f8 <__subdf3+0x424>
   50690:	103f5b26 	beq	r2,zero,50400 <__subdf3+0x52c>
   50694:	1804977a 	slli	r2,r3,29
   50698:	01080034 	movhi	r4,8192
   5069c:	213fffc4 	addi	r4,r4,-1
   506a0:	310c703a 	and	r6,r6,r4
   506a4:	1810d0fa 	srli	r8,r3,3
   506a8:	1184b03a 	or	r2,r2,r6
   506ac:	4825883a 	mov	r18,r9
   506b0:	003eed06 	br	50268 <__subdf3+0x394>
   506b4:	1808977a 	slli	r4,r3,29
   506b8:	00880034 	movhi	r2,8192
   506bc:	10bfffc4 	addi	r2,r2,-1
   506c0:	3084703a 	and	r2,r6,r2
   506c4:	1810d0fa 	srli	r8,r3,3
   506c8:	1104b03a 	or	r2,r2,r4
   506cc:	003f0a06 	br	502f8 <__subdf3+0x424>
   506d0:	52e3c83a 	sub	r17,r10,r11
   506d4:	1a09c83a 	sub	r4,r3,r8
   506d8:	5455803a 	cmpltu	r10,r10,r17
   506dc:	2289c83a 	sub	r4,r4,r10
   506e0:	04000044 	movi	r16,1
   506e4:	003e3006 	br	4ffa8 <__subdf3+0xd4>
   506e8:	4006977a 	slli	r3,r8,29
   506ec:	00880034 	movhi	r2,8192
   506f0:	10bfffc4 	addi	r2,r2,-1
   506f4:	2084703a 	and	r2,r4,r2
   506f8:	4010d0fa 	srli	r8,r8,3
   506fc:	10c4b03a 	or	r2,r2,r3
   50700:	003efd06 	br	502f8 <__subdf3+0x424>
   50704:	5aa3c83a 	sub	r17,r11,r10
   50708:	5c45803a 	cmpltu	r2,r11,r17
   5070c:	40c9c83a 	sub	r4,r8,r3
   50710:	2089c83a 	sub	r4,r4,r2
   50714:	2080202c 	andhi	r2,r4,128
   50718:	10002f26 	beq	r2,zero,507d8 <__subdf3+0x904>
   5071c:	52e3c83a 	sub	r17,r10,r11
   50720:	1a09c83a 	sub	r4,r3,r8
   50724:	5455803a 	cmpltu	r10,r10,r17
   50728:	2289c83a 	sub	r4,r4,r10
   5072c:	4825883a 	mov	r18,r9
   50730:	003e3b06 	br	50020 <__subdf3+0x14c>
   50734:	1808977a 	slli	r4,r3,29
   50738:	00880034 	movhi	r2,8192
   5073c:	10bfffc4 	addi	r2,r2,-1
   50740:	3084703a 	and	r2,r6,r2
   50744:	1810d0fa 	srli	r8,r3,3
   50748:	1104b03a 	or	r2,r2,r4
   5074c:	003ec406 	br	50260 <__subdf3+0x38c>
   50750:	1808977a 	slli	r4,r3,29
   50754:	00880034 	movhi	r2,8192
   50758:	10bfffc4 	addi	r2,r2,-1
   5075c:	3084703a 	and	r2,r6,r2
   50760:	1810d0fa 	srli	r8,r3,3
   50764:	1104b03a 	or	r2,r2,r4
   50768:	003ebf06 	br	50268 <__subdf3+0x394>
   5076c:	5aa3883a 	add	r17,r11,r10
   50770:	40c9883a 	add	r4,r8,r3
   50774:	8ad7803a 	cmpltu	r11,r17,r11
   50778:	22c9883a 	add	r4,r4,r11
   5077c:	2080202c 	andhi	r2,r4,128
   50780:	103eb026 	beq	r2,zero,50244 <__subdf3+0x370>
   50784:	00bfe034 	movhi	r2,65408
   50788:	10bfffc4 	addi	r2,r2,-1
   5078c:	2088703a 	and	r4,r4,r2
   50790:	04000044 	movi	r16,1
   50794:	003eab06 	br	50244 <__subdf3+0x370>
   50798:	28bff804 	addi	r2,r5,-32
   5079c:	29000820 	cmpeqi	r4,r5,32
   507a0:	4084d83a 	srl	r2,r8,r2
   507a4:	2000041e 	bne	r4,zero,507b8 <__subdf3+0x8e4>
   507a8:	01001004 	movi	r4,64
   507ac:	214bc83a 	sub	r5,r4,r5
   507b0:	4150983a 	sll	r8,r8,r5
   507b4:	5a16b03a 	or	r11,r11,r8
   507b8:	5822c03a 	cmpne	r17,r11,zero
   507bc:	88a2b03a 	or	r17,r17,r2
   507c0:	003e7d06 	br	501b8 <__subdf3+0x2e4>
   507c4:	5aa3883a 	add	r17,r11,r10
   507c8:	40c9883a 	add	r4,r8,r3
   507cc:	8a95803a 	cmpltu	r10,r17,r10
   507d0:	2289883a 	add	r4,r4,r10
   507d4:	003e9806 	br	50238 <__subdf3+0x364>
   507d8:	8904b03a 	or	r2,r17,r4
   507dc:	103f0826 	beq	r2,zero,50400 <__subdf3+0x52c>
   507e0:	003e9806 	br	50244 <__subdf3+0x370>
   507e4:	02000434 	movhi	r8,16
   507e8:	423fffc4 	addi	r8,r8,-1
   507ec:	0025883a 	mov	r18,zero
   507f0:	00bfffc4 	movi	r2,-1
   507f4:	003ec206 	br	50300 <__subdf3+0x42c>
   507f8:	0005883a 	mov	r2,zero
   507fc:	0141ffc4 	movi	r5,2047
   50800:	0007883a 	mov	r3,zero
   50804:	003e1d06 	br	5007c <__subdf3+0x1a8>

00050808 <__unorddf2>:
   50808:	2806d53a 	srli	r3,r5,20
   5080c:	3810d53a 	srli	r8,r7,20
   50810:	02400434 	movhi	r9,16
   50814:	18c1ffcc 	andi	r3,r3,2047
   50818:	4a7fffc4 	addi	r9,r9,-1
   5081c:	18c1ffd8 	cmpnei	r3,r3,2047
   50820:	2a4a703a 	and	r5,r5,r9
   50824:	3a4e703a 	and	r7,r7,r9
   50828:	4201ffcc 	andi	r8,r8,2047
   5082c:	18000426 	beq	r3,zero,50840 <__unorddf2+0x38>
   50830:	4201ffd8 	cmpnei	r8,r8,2047
   50834:	40000626 	beq	r8,zero,50850 <__unorddf2+0x48>
   50838:	0005883a 	mov	r2,zero
   5083c:	f800283a 	ret
   50840:	214ab03a 	or	r5,r4,r5
   50844:	283ffa26 	beq	r5,zero,50830 <__unorddf2+0x28>
   50848:	00800044 	movi	r2,1
   5084c:	f800283a 	ret
   50850:	398eb03a 	or	r7,r7,r6
   50854:	3804c03a 	cmpne	r2,r7,zero
   50858:	f800283a 	ret

0005085c <__fixdfsi>:
   5085c:	2806d53a 	srli	r3,r5,20
   50860:	01800434 	movhi	r6,16
   50864:	31bfffc4 	addi	r6,r6,-1
   50868:	18c1ffcc 	andi	r3,r3,2047
   5086c:	19c0ffd0 	cmplti	r7,r3,1023
   50870:	2810d7fa 	srli	r8,r5,31
   50874:	298a703a 	and	r5,r5,r6
   50878:	3800061e 	bne	r7,zero,50894 <__fixdfsi+0x38>
   5087c:	18810790 	cmplti	r2,r3,1054
   50880:	1000061e 	bne	r2,zero,5089c <__fixdfsi+0x40>
   50884:	00a00034 	movhi	r2,32768
   50888:	10bfffc4 	addi	r2,r2,-1
   5088c:	4085883a 	add	r2,r8,r2
   50890:	f800283a 	ret
   50894:	0005883a 	mov	r2,zero
   50898:	f800283a 	ret
   5089c:	01810cc4 	movi	r6,1075
   508a0:	30cdc83a 	sub	r6,r6,r3
   508a4:	30800808 	cmpgei	r2,r6,32
   508a8:	29400434 	orhi	r5,r5,16
   508ac:	1000071e 	bne	r2,zero,508cc <__fixdfsi+0x70>
   508b0:	18befb44 	addi	r2,r3,-1043
   508b4:	2884983a 	sll	r2,r5,r2
   508b8:	2188d83a 	srl	r4,r4,r6
   508bc:	1104b03a 	or	r2,r2,r4
   508c0:	403ff526 	beq	r8,zero,50898 <__fixdfsi+0x3c>
   508c4:	0085c83a 	sub	r2,zero,r2
   508c8:	f800283a 	ret
   508cc:	008104c4 	movi	r2,1043
   508d0:	10c5c83a 	sub	r2,r2,r3
   508d4:	2884d83a 	srl	r2,r5,r2
   508d8:	003ff906 	br	508c0 <__fixdfsi+0x64>

000508dc <__floatsidf>:
   508dc:	defffd04 	addi	sp,sp,-12
   508e0:	dfc00215 	stw	ra,8(sp)
   508e4:	dc400115 	stw	r17,4(sp)
   508e8:	dc000015 	stw	r16,0(sp)
   508ec:	20001326 	beq	r4,zero,5093c <__floatsidf+0x60>
   508f0:	2022d7fa 	srli	r17,r4,31
   508f4:	2021883a 	mov	r16,r4
   508f8:	20002516 	blt	r4,zero,50990 <__floatsidf+0xb4>
   508fc:	8009883a 	mov	r4,r16
   50900:	00430640 	call	43064 <__clzsi2>
   50904:	01410784 	movi	r5,1054
   50908:	288bc83a 	sub	r5,r5,r2
   5090c:	10c002c8 	cmpgei	r3,r2,11
   50910:	2941ffcc 	andi	r5,r5,2047
   50914:	1800171e 	bne	r3,zero,50974 <__floatsidf+0x98>
   50918:	00c002c4 	movi	r3,11
   5091c:	1887c83a 	sub	r3,r3,r2
   50920:	80c6d83a 	srl	r3,r16,r3
   50924:	01000434 	movhi	r4,16
   50928:	10800544 	addi	r2,r2,21
   5092c:	213fffc4 	addi	r4,r4,-1
   50930:	8084983a 	sll	r2,r16,r2
   50934:	1906703a 	and	r3,r3,r4
   50938:	00000406 	br	5094c <__floatsidf+0x70>
   5093c:	0023883a 	mov	r17,zero
   50940:	000b883a 	mov	r5,zero
   50944:	0007883a 	mov	r3,zero
   50948:	0005883a 	mov	r2,zero
   5094c:	280a953a 	slli	r5,r5,20
   50950:	8c403fcc 	andi	r17,r17,255
   50954:	882297fa 	slli	r17,r17,31
   50958:	28c6b03a 	or	r3,r5,r3
   5095c:	1c46b03a 	or	r3,r3,r17
   50960:	dfc00217 	ldw	ra,8(sp)
   50964:	dc400117 	ldw	r17,4(sp)
   50968:	dc000017 	ldw	r16,0(sp)
   5096c:	dec00304 	addi	sp,sp,12
   50970:	f800283a 	ret
   50974:	10bffd44 	addi	r2,r2,-11
   50978:	8086983a 	sll	r3,r16,r2
   5097c:	00800434 	movhi	r2,16
   50980:	10bfffc4 	addi	r2,r2,-1
   50984:	1886703a 	and	r3,r3,r2
   50988:	0005883a 	mov	r2,zero
   5098c:	003fef06 	br	5094c <__floatsidf+0x70>
   50990:	0121c83a 	sub	r16,zero,r4
   50994:	003fd906 	br	508fc <__floatsidf+0x20>

00050998 <__floatunsidf>:
   50998:	defffe04 	addi	sp,sp,-8
   5099c:	dc000015 	stw	r16,0(sp)
   509a0:	dfc00115 	stw	ra,4(sp)
   509a4:	2021883a 	mov	r16,r4
   509a8:	20000f26 	beq	r4,zero,509e8 <__floatunsidf+0x50>
   509ac:	00430640 	call	43064 <__clzsi2>
   509b0:	00c10784 	movi	r3,1054
   509b4:	1887c83a 	sub	r3,r3,r2
   509b8:	110002c8 	cmpgei	r4,r2,11
   509bc:	18c1ffcc 	andi	r3,r3,2047
   509c0:	2000121e 	bne	r4,zero,50a0c <__floatunsidf+0x74>
   509c4:	014002c4 	movi	r5,11
   509c8:	288bc83a 	sub	r5,r5,r2
   509cc:	814ad83a 	srl	r5,r16,r5
   509d0:	01000434 	movhi	r4,16
   509d4:	10800544 	addi	r2,r2,21
   509d8:	213fffc4 	addi	r4,r4,-1
   509dc:	80a0983a 	sll	r16,r16,r2
   509e0:	290a703a 	and	r5,r5,r4
   509e4:	00000206 	br	509f0 <__floatunsidf+0x58>
   509e8:	0007883a 	mov	r3,zero
   509ec:	000b883a 	mov	r5,zero
   509f0:	1806953a 	slli	r3,r3,20
   509f4:	8005883a 	mov	r2,r16
   509f8:	1946b03a 	or	r3,r3,r5
   509fc:	dfc00117 	ldw	ra,4(sp)
   50a00:	dc000017 	ldw	r16,0(sp)
   50a04:	dec00204 	addi	sp,sp,8
   50a08:	f800283a 	ret
   50a0c:	10bffd44 	addi	r2,r2,-11
   50a10:	808a983a 	sll	r5,r16,r2
   50a14:	00800434 	movhi	r2,16
   50a18:	10bfffc4 	addi	r2,r2,-1
   50a1c:	288a703a 	and	r5,r5,r2
   50a20:	0021883a 	mov	r16,zero
   50a24:	003ff206 	br	509f0 <__floatunsidf+0x58>

00050a28 <alt_get_errno>:
   50a28:	defffe04 	addi	sp,sp,-8
   50a2c:	dfc00115 	stw	ra,4(sp)
   50a30:	df000015 	stw	fp,0(sp)
   50a34:	d839883a 	mov	fp,sp
   50a38:	d0a01417 	ldw	r2,-32688(gp)
   50a3c:	10000326 	beq	r2,zero,50a4c <alt_get_errno+0x24>
   50a40:	d0a01417 	ldw	r2,-32688(gp)
   50a44:	103ee83a 	callr	r2
   50a48:	00000106 	br	50a50 <alt_get_errno+0x28>
   50a4c:	d0a72204 	addi	r2,gp,-25464
   50a50:	e037883a 	mov	sp,fp
   50a54:	dfc00117 	ldw	ra,4(sp)
   50a58:	df000017 	ldw	fp,0(sp)
   50a5c:	dec00204 	addi	sp,sp,8
   50a60:	f800283a 	ret

00050a64 <close>:
   50a64:	defffb04 	addi	sp,sp,-20
   50a68:	dfc00415 	stw	ra,16(sp)
   50a6c:	df000315 	stw	fp,12(sp)
   50a70:	df000304 	addi	fp,sp,12
   50a74:	e13ffd15 	stw	r4,-12(fp)
   50a78:	e0bffd17 	ldw	r2,-12(fp)
   50a7c:	10000616 	blt	r2,zero,50a98 <close+0x34>
   50a80:	e0bffd17 	ldw	r2,-12(fp)
   50a84:	10c00324 	muli	r3,r2,12
   50a88:	00800174 	movhi	r2,5
   50a8c:	1090fd04 	addi	r2,r2,17396
   50a90:	1885883a 	add	r2,r3,r2
   50a94:	00000106 	br	50a9c <close+0x38>
   50a98:	0005883a 	mov	r2,zero
   50a9c:	e0bfff15 	stw	r2,-4(fp)
   50aa0:	e0bfff17 	ldw	r2,-4(fp)
   50aa4:	10001926 	beq	r2,zero,50b0c <close+0xa8>
   50aa8:	e0bfff17 	ldw	r2,-4(fp)
   50aac:	10800017 	ldw	r2,0(r2)
   50ab0:	10800417 	ldw	r2,16(r2)
   50ab4:	10000626 	beq	r2,zero,50ad0 <close+0x6c>
   50ab8:	e0bfff17 	ldw	r2,-4(fp)
   50abc:	10800017 	ldw	r2,0(r2)
   50ac0:	10800417 	ldw	r2,16(r2)
   50ac4:	e13fff17 	ldw	r4,-4(fp)
   50ac8:	103ee83a 	callr	r2
   50acc:	00000106 	br	50ad4 <close+0x70>
   50ad0:	0005883a 	mov	r2,zero
   50ad4:	e0bffe15 	stw	r2,-8(fp)
   50ad8:	e13ffd17 	ldw	r4,-12(fp)
   50adc:	00512e40 	call	512e4 <alt_release_fd>
   50ae0:	e0bffe17 	ldw	r2,-8(fp)
   50ae4:	1000070e 	bge	r2,zero,50b04 <close+0xa0>
   50ae8:	0050a280 	call	50a28 <alt_get_errno>
   50aec:	1007883a 	mov	r3,r2
   50af0:	e0bffe17 	ldw	r2,-8(fp)
   50af4:	0085c83a 	sub	r2,zero,r2
   50af8:	18800015 	stw	r2,0(r3)
   50afc:	00bfffc4 	movi	r2,-1
   50b00:	00000706 	br	50b20 <close+0xbc>
   50b04:	0005883a 	mov	r2,zero
   50b08:	00000506 	br	50b20 <close+0xbc>
   50b0c:	0050a280 	call	50a28 <alt_get_errno>
   50b10:	1007883a 	mov	r3,r2
   50b14:	00801444 	movi	r2,81
   50b18:	18800015 	stw	r2,0(r3)
   50b1c:	00bfffc4 	movi	r2,-1
   50b20:	e037883a 	mov	sp,fp
   50b24:	dfc00117 	ldw	ra,4(sp)
   50b28:	df000017 	ldw	fp,0(sp)
   50b2c:	dec00204 	addi	sp,sp,8
   50b30:	f800283a 	ret

00050b34 <alt_dev_null_write>:
   50b34:	defffc04 	addi	sp,sp,-16
   50b38:	df000315 	stw	fp,12(sp)
   50b3c:	df000304 	addi	fp,sp,12
   50b40:	e13fff15 	stw	r4,-4(fp)
   50b44:	e17ffe15 	stw	r5,-8(fp)
   50b48:	e1bffd15 	stw	r6,-12(fp)
   50b4c:	e0bffd17 	ldw	r2,-12(fp)
   50b50:	e037883a 	mov	sp,fp
   50b54:	df000017 	ldw	fp,0(sp)
   50b58:	dec00104 	addi	sp,sp,4
   50b5c:	f800283a 	ret

00050b60 <_exit>:
   50b60:	defffd04 	addi	sp,sp,-12
   50b64:	df000215 	stw	fp,8(sp)
   50b68:	df000204 	addi	fp,sp,8
   50b6c:	e13ffe15 	stw	r4,-8(fp)
   50b70:	0001883a 	nop
   50b74:	e0bffe17 	ldw	r2,-8(fp)
   50b78:	e0bfff15 	stw	r2,-4(fp)
   50b7c:	e0bfff17 	ldw	r2,-4(fp)
   50b80:	10000226 	beq	r2,zero,50b8c <_exit+0x2c>
   50b84:	002af070 	cmpltui	zero,zero,43969
   50b88:	00000106 	br	50b90 <_exit+0x30>
   50b8c:	002af0b0 	cmpltui	zero,zero,43970
   50b90:	0001883a 	nop
   50b94:	003fff06 	br	50b94 <_exit+0x34>

00050b98 <alt_get_errno>:
   50b98:	defffe04 	addi	sp,sp,-8
   50b9c:	dfc00115 	stw	ra,4(sp)
   50ba0:	df000015 	stw	fp,0(sp)
   50ba4:	d839883a 	mov	fp,sp
   50ba8:	d0a01417 	ldw	r2,-32688(gp)
   50bac:	10000326 	beq	r2,zero,50bbc <alt_get_errno+0x24>
   50bb0:	d0a01417 	ldw	r2,-32688(gp)
   50bb4:	103ee83a 	callr	r2
   50bb8:	00000106 	br	50bc0 <alt_get_errno+0x28>
   50bbc:	d0a72204 	addi	r2,gp,-25464
   50bc0:	e037883a 	mov	sp,fp
   50bc4:	dfc00117 	ldw	ra,4(sp)
   50bc8:	df000017 	ldw	fp,0(sp)
   50bcc:	dec00204 	addi	sp,sp,8
   50bd0:	f800283a 	ret

00050bd4 <fstat>:
   50bd4:	defffb04 	addi	sp,sp,-20
   50bd8:	dfc00415 	stw	ra,16(sp)
   50bdc:	df000315 	stw	fp,12(sp)
   50be0:	df000304 	addi	fp,sp,12
   50be4:	e13ffe15 	stw	r4,-8(fp)
   50be8:	e17ffd15 	stw	r5,-12(fp)
   50bec:	e0bffe17 	ldw	r2,-8(fp)
   50bf0:	10000616 	blt	r2,zero,50c0c <fstat+0x38>
   50bf4:	e0bffe17 	ldw	r2,-8(fp)
   50bf8:	10c00324 	muli	r3,r2,12
   50bfc:	00800174 	movhi	r2,5
   50c00:	1090fd04 	addi	r2,r2,17396
   50c04:	1885883a 	add	r2,r3,r2
   50c08:	00000106 	br	50c10 <fstat+0x3c>
   50c0c:	0005883a 	mov	r2,zero
   50c10:	e0bfff15 	stw	r2,-4(fp)
   50c14:	e0bfff17 	ldw	r2,-4(fp)
   50c18:	10001026 	beq	r2,zero,50c5c <fstat+0x88>
   50c1c:	e0bfff17 	ldw	r2,-4(fp)
   50c20:	10800017 	ldw	r2,0(r2)
   50c24:	10800817 	ldw	r2,32(r2)
   50c28:	10000726 	beq	r2,zero,50c48 <fstat+0x74>
   50c2c:	e0bfff17 	ldw	r2,-4(fp)
   50c30:	10800017 	ldw	r2,0(r2)
   50c34:	10800817 	ldw	r2,32(r2)
   50c38:	e17ffd17 	ldw	r5,-12(fp)
   50c3c:	e13fff17 	ldw	r4,-4(fp)
   50c40:	103ee83a 	callr	r2
   50c44:	00000a06 	br	50c70 <fstat+0x9c>
   50c48:	e0bffd17 	ldw	r2,-12(fp)
   50c4c:	00c80004 	movi	r3,8192
   50c50:	10c00115 	stw	r3,4(r2)
   50c54:	0005883a 	mov	r2,zero
   50c58:	00000506 	br	50c70 <fstat+0x9c>
   50c5c:	0050b980 	call	50b98 <alt_get_errno>
   50c60:	1007883a 	mov	r3,r2
   50c64:	00801444 	movi	r2,81
   50c68:	18800015 	stw	r2,0(r3)
   50c6c:	00bfffc4 	movi	r2,-1
   50c70:	e037883a 	mov	sp,fp
   50c74:	dfc00117 	ldw	ra,4(sp)
   50c78:	df000017 	ldw	fp,0(sp)
   50c7c:	dec00204 	addi	sp,sp,8
   50c80:	f800283a 	ret

00050c84 <getpid>:
   50c84:	deffff04 	addi	sp,sp,-4
   50c88:	df000015 	stw	fp,0(sp)
   50c8c:	d839883a 	mov	fp,sp
   50c90:	0005883a 	mov	r2,zero
   50c94:	e037883a 	mov	sp,fp
   50c98:	df000017 	ldw	fp,0(sp)
   50c9c:	dec00104 	addi	sp,sp,4
   50ca0:	f800283a 	ret

00050ca4 <alt_get_errno>:
   50ca4:	defffe04 	addi	sp,sp,-8
   50ca8:	dfc00115 	stw	ra,4(sp)
   50cac:	df000015 	stw	fp,0(sp)
   50cb0:	d839883a 	mov	fp,sp
   50cb4:	d0a01417 	ldw	r2,-32688(gp)
   50cb8:	10000326 	beq	r2,zero,50cc8 <alt_get_errno+0x24>
   50cbc:	d0a01417 	ldw	r2,-32688(gp)
   50cc0:	103ee83a 	callr	r2
   50cc4:	00000106 	br	50ccc <alt_get_errno+0x28>
   50cc8:	d0a72204 	addi	r2,gp,-25464
   50ccc:	e037883a 	mov	sp,fp
   50cd0:	dfc00117 	ldw	ra,4(sp)
   50cd4:	df000017 	ldw	fp,0(sp)
   50cd8:	dec00204 	addi	sp,sp,8
   50cdc:	f800283a 	ret

00050ce0 <isatty>:
   50ce0:	deffea04 	addi	sp,sp,-88
   50ce4:	dfc01515 	stw	ra,84(sp)
   50ce8:	df001415 	stw	fp,80(sp)
   50cec:	df001404 	addi	fp,sp,80
   50cf0:	e13fec15 	stw	r4,-80(fp)
   50cf4:	e0bfec17 	ldw	r2,-80(fp)
   50cf8:	10000616 	blt	r2,zero,50d14 <isatty+0x34>
   50cfc:	e0bfec17 	ldw	r2,-80(fp)
   50d00:	10c00324 	muli	r3,r2,12
   50d04:	00800174 	movhi	r2,5
   50d08:	1090fd04 	addi	r2,r2,17396
   50d0c:	1885883a 	add	r2,r3,r2
   50d10:	00000106 	br	50d18 <isatty+0x38>
   50d14:	0005883a 	mov	r2,zero
   50d18:	e0bfff15 	stw	r2,-4(fp)
   50d1c:	e0bfff17 	ldw	r2,-4(fp)
   50d20:	10000e26 	beq	r2,zero,50d5c <isatty+0x7c>
   50d24:	e0bfff17 	ldw	r2,-4(fp)
   50d28:	10800017 	ldw	r2,0(r2)
   50d2c:	10800817 	ldw	r2,32(r2)
   50d30:	1000021e 	bne	r2,zero,50d3c <isatty+0x5c>
   50d34:	00800044 	movi	r2,1
   50d38:	00000d06 	br	50d70 <isatty+0x90>
   50d3c:	e0bfed04 	addi	r2,fp,-76
   50d40:	100b883a 	mov	r5,r2
   50d44:	e13fec17 	ldw	r4,-80(fp)
   50d48:	0050bd40 	call	50bd4 <fstat>
   50d4c:	e0bfee17 	ldw	r2,-72(fp)
   50d50:	10880020 	cmpeqi	r2,r2,8192
   50d54:	10803fcc 	andi	r2,r2,255
   50d58:	00000506 	br	50d70 <isatty+0x90>
   50d5c:	0050ca40 	call	50ca4 <alt_get_errno>
   50d60:	1007883a 	mov	r3,r2
   50d64:	00801444 	movi	r2,81
   50d68:	18800015 	stw	r2,0(r3)
   50d6c:	0005883a 	mov	r2,zero
   50d70:	e037883a 	mov	sp,fp
   50d74:	dfc00117 	ldw	ra,4(sp)
   50d78:	df000017 	ldw	fp,0(sp)
   50d7c:	dec00204 	addi	sp,sp,8
   50d80:	f800283a 	ret

00050d84 <alt_get_errno>:
   50d84:	defffe04 	addi	sp,sp,-8
   50d88:	dfc00115 	stw	ra,4(sp)
   50d8c:	df000015 	stw	fp,0(sp)
   50d90:	d839883a 	mov	fp,sp
   50d94:	d0a01417 	ldw	r2,-32688(gp)
   50d98:	10000326 	beq	r2,zero,50da8 <alt_get_errno+0x24>
   50d9c:	d0a01417 	ldw	r2,-32688(gp)
   50da0:	103ee83a 	callr	r2
   50da4:	00000106 	br	50dac <alt_get_errno+0x28>
   50da8:	d0a72204 	addi	r2,gp,-25464
   50dac:	e037883a 	mov	sp,fp
   50db0:	dfc00117 	ldw	ra,4(sp)
   50db4:	df000017 	ldw	fp,0(sp)
   50db8:	dec00204 	addi	sp,sp,8
   50dbc:	f800283a 	ret

00050dc0 <kill>:
   50dc0:	defffb04 	addi	sp,sp,-20
   50dc4:	dfc00415 	stw	ra,16(sp)
   50dc8:	df000315 	stw	fp,12(sp)
   50dcc:	df000304 	addi	fp,sp,12
   50dd0:	e13ffe15 	stw	r4,-8(fp)
   50dd4:	e17ffd15 	stw	r5,-12(fp)
   50dd8:	e03fff15 	stw	zero,-4(fp)
   50ddc:	e0bffe17 	ldw	r2,-8(fp)
   50de0:	00802e16 	blt	zero,r2,50e9c <kill+0xdc>
   50de4:	e0bffd17 	ldw	r2,-12(fp)
   50de8:	10800828 	cmpgeui	r2,r2,32
   50dec:	1000281e 	bne	r2,zero,50e90 <kill+0xd0>
   50df0:	e0bffd17 	ldw	r2,-12(fp)
   50df4:	100690ba 	slli	r3,r2,2
   50df8:	00800174 	movhi	r2,5
   50dfc:	1885883a 	add	r2,r3,r2
   50e00:	10838217 	ldw	r2,3592(r2)
   50e04:	1000683a 	jmp	r2
   50e08:	00050eb0 	cmpltui	zero,zero,5178
   50e0c:	00050e90 	cmplti	zero,zero,5178
   50e10:	00050e90 	cmplti	zero,zero,5178
   50e14:	00050e88 	cmpgei	zero,zero,5178
   50e18:	00050e88 	cmpgei	zero,zero,5178
   50e1c:	00050e88 	cmpgei	zero,zero,5178
   50e20:	00050e88 	cmpgei	zero,zero,5178
   50e24:	00050e90 	cmplti	zero,zero,5178
   50e28:	00050e88 	cmpgei	zero,zero,5178
   50e2c:	00050e88 	cmpgei	zero,zero,5178
   50e30:	00050e88 	cmpgei	zero,zero,5178
   50e34:	00050e88 	cmpgei	zero,zero,5178
   50e38:	00050e88 	cmpgei	zero,zero,5178
   50e3c:	00050e88 	cmpgei	zero,zero,5178
   50e40:	00050e88 	cmpgei	zero,zero,5178
   50e44:	00050e88 	cmpgei	zero,zero,5178
   50e48:	00050eb0 	cmpltui	zero,zero,5178
   50e4c:	00050e90 	cmplti	zero,zero,5178
   50e50:	00050e90 	cmplti	zero,zero,5178
   50e54:	00050e90 	cmplti	zero,zero,5178
   50e58:	00050eb0 	cmpltui	zero,zero,5178
   50e5c:	00050e90 	cmplti	zero,zero,5178
   50e60:	00050e90 	cmplti	zero,zero,5178
   50e64:	00050e88 	cmpgei	zero,zero,5178
   50e68:	00050e88 	cmpgei	zero,zero,5178
   50e6c:	00050e88 	cmpgei	zero,zero,5178
   50e70:	00050e88 	cmpgei	zero,zero,5178
   50e74:	00050e88 	cmpgei	zero,zero,5178
   50e78:	00050e90 	cmplti	zero,zero,5178
   50e7c:	00050e90 	cmplti	zero,zero,5178
   50e80:	00050e88 	cmpgei	zero,zero,5178
   50e84:	00050e88 	cmpgei	zero,zero,5178
   50e88:	0009883a 	mov	r4,zero
   50e8c:	0050b600 	call	50b60 <_exit>
   50e90:	00800584 	movi	r2,22
   50e94:	e0bfff15 	stw	r2,-4(fp)
   50e98:	00000606 	br	50eb4 <kill+0xf4>
   50e9c:	e0bffe17 	ldw	r2,-8(fp)
   50ea0:	0080040e 	bge	zero,r2,50eb4 <kill+0xf4>
   50ea4:	008000c4 	movi	r2,3
   50ea8:	e0bfff15 	stw	r2,-4(fp)
   50eac:	00000106 	br	50eb4 <kill+0xf4>
   50eb0:	0001883a 	nop
   50eb4:	e0bfff17 	ldw	r2,-4(fp)
   50eb8:	10000626 	beq	r2,zero,50ed4 <kill+0x114>
   50ebc:	0050d840 	call	50d84 <alt_get_errno>
   50ec0:	1007883a 	mov	r3,r2
   50ec4:	e0bfff17 	ldw	r2,-4(fp)
   50ec8:	18800015 	stw	r2,0(r3)
   50ecc:	00bfffc4 	movi	r2,-1
   50ed0:	00000106 	br	50ed8 <kill+0x118>
   50ed4:	0005883a 	mov	r2,zero
   50ed8:	e037883a 	mov	sp,fp
   50edc:	dfc00117 	ldw	ra,4(sp)
   50ee0:	df000017 	ldw	fp,0(sp)
   50ee4:	dec00204 	addi	sp,sp,8
   50ee8:	f800283a 	ret

00050eec <alt_load_section>:
   50eec:	defffc04 	addi	sp,sp,-16
   50ef0:	df000315 	stw	fp,12(sp)
   50ef4:	df000304 	addi	fp,sp,12
   50ef8:	e13fff15 	stw	r4,-4(fp)
   50efc:	e17ffe15 	stw	r5,-8(fp)
   50f00:	e1bffd15 	stw	r6,-12(fp)
   50f04:	e0fffe17 	ldw	r3,-8(fp)
   50f08:	e0bfff17 	ldw	r2,-4(fp)
   50f0c:	18800c26 	beq	r3,r2,50f40 <alt_load_section+0x54>
   50f10:	00000806 	br	50f34 <alt_load_section+0x48>
   50f14:	e0ffff17 	ldw	r3,-4(fp)
   50f18:	18800104 	addi	r2,r3,4
   50f1c:	e0bfff15 	stw	r2,-4(fp)
   50f20:	e0bffe17 	ldw	r2,-8(fp)
   50f24:	11000104 	addi	r4,r2,4
   50f28:	e13ffe15 	stw	r4,-8(fp)
   50f2c:	18c00017 	ldw	r3,0(r3)
   50f30:	10c00015 	stw	r3,0(r2)
   50f34:	e0fffe17 	ldw	r3,-8(fp)
   50f38:	e0bffd17 	ldw	r2,-12(fp)
   50f3c:	18bff51e 	bne	r3,r2,50f14 <alt_load_section+0x28>
   50f40:	0001883a 	nop
   50f44:	e037883a 	mov	sp,fp
   50f48:	df000017 	ldw	fp,0(sp)
   50f4c:	dec00104 	addi	sp,sp,4
   50f50:	f800283a 	ret

00050f54 <alt_load>:
   50f54:	defffe04 	addi	sp,sp,-8
   50f58:	dfc00115 	stw	ra,4(sp)
   50f5c:	df000015 	stw	fp,0(sp)
   50f60:	d839883a 	mov	fp,sp
   50f64:	01800174 	movhi	r6,5
   50f68:	31958e04 	addi	r6,r6,22072
   50f6c:	01400174 	movhi	r5,5
   50f70:	294e8d04 	addi	r5,r5,14900
   50f74:	01000174 	movhi	r4,5
   50f78:	21158e04 	addi	r4,r4,22072
   50f7c:	0050eec0 	call	50eec <alt_load_section>
   50f80:	01800134 	movhi	r6,4
   50f84:	31808e04 	addi	r6,r6,568
   50f88:	01400134 	movhi	r5,4
   50f8c:	29400804 	addi	r5,r5,32
   50f90:	01000134 	movhi	r4,4
   50f94:	21000804 	addi	r4,r4,32
   50f98:	0050eec0 	call	50eec <alt_load_section>
   50f9c:	01800174 	movhi	r6,5
   50fa0:	318e8d04 	addi	r6,r6,14900
   50fa4:	01400174 	movhi	r5,5
   50fa8:	294c6a04 	addi	r5,r5,12712
   50fac:	01000174 	movhi	r4,5
   50fb0:	210c6a04 	addi	r4,r4,12712
   50fb4:	0050eec0 	call	50eec <alt_load_section>
   50fb8:	00521880 	call	52188 <alt_dcache_flush_all>
   50fbc:	00523800 	call	52380 <alt_icache_flush_all>
   50fc0:	0001883a 	nop
   50fc4:	e037883a 	mov	sp,fp
   50fc8:	dfc00117 	ldw	ra,4(sp)
   50fcc:	df000017 	ldw	fp,0(sp)
   50fd0:	dec00204 	addi	sp,sp,8
   50fd4:	f800283a 	ret

00050fd8 <alt_get_errno>:
   50fd8:	defffe04 	addi	sp,sp,-8
   50fdc:	dfc00115 	stw	ra,4(sp)
   50fe0:	df000015 	stw	fp,0(sp)
   50fe4:	d839883a 	mov	fp,sp
   50fe8:	d0a01417 	ldw	r2,-32688(gp)
   50fec:	10000326 	beq	r2,zero,50ffc <alt_get_errno+0x24>
   50ff0:	d0a01417 	ldw	r2,-32688(gp)
   50ff4:	103ee83a 	callr	r2
   50ff8:	00000106 	br	51000 <alt_get_errno+0x28>
   50ffc:	d0a72204 	addi	r2,gp,-25464
   51000:	e037883a 	mov	sp,fp
   51004:	dfc00117 	ldw	ra,4(sp)
   51008:	df000017 	ldw	fp,0(sp)
   5100c:	dec00204 	addi	sp,sp,8
   51010:	f800283a 	ret

00051014 <lseek>:
   51014:	defff904 	addi	sp,sp,-28
   51018:	dfc00615 	stw	ra,24(sp)
   5101c:	df000515 	stw	fp,20(sp)
   51020:	df000504 	addi	fp,sp,20
   51024:	e13ffd15 	stw	r4,-12(fp)
   51028:	e17ffc15 	stw	r5,-16(fp)
   5102c:	e1bffb15 	stw	r6,-20(fp)
   51030:	e03fff15 	stw	zero,-4(fp)
   51034:	e0bffd17 	ldw	r2,-12(fp)
   51038:	10000616 	blt	r2,zero,51054 <lseek+0x40>
   5103c:	e0bffd17 	ldw	r2,-12(fp)
   51040:	10c00324 	muli	r3,r2,12
   51044:	00800174 	movhi	r2,5
   51048:	1090fd04 	addi	r2,r2,17396
   5104c:	1885883a 	add	r2,r3,r2
   51050:	00000106 	br	51058 <lseek+0x44>
   51054:	0005883a 	mov	r2,zero
   51058:	e0bffe15 	stw	r2,-8(fp)
   5105c:	e0bffe17 	ldw	r2,-8(fp)
   51060:	10001026 	beq	r2,zero,510a4 <lseek+0x90>
   51064:	e0bffe17 	ldw	r2,-8(fp)
   51068:	10800017 	ldw	r2,0(r2)
   5106c:	10800717 	ldw	r2,28(r2)
   51070:	10000926 	beq	r2,zero,51098 <lseek+0x84>
   51074:	e0bffe17 	ldw	r2,-8(fp)
   51078:	10800017 	ldw	r2,0(r2)
   5107c:	10800717 	ldw	r2,28(r2)
   51080:	e1bffb17 	ldw	r6,-20(fp)
   51084:	e17ffc17 	ldw	r5,-16(fp)
   51088:	e13ffe17 	ldw	r4,-8(fp)
   5108c:	103ee83a 	callr	r2
   51090:	e0bfff15 	stw	r2,-4(fp)
   51094:	00000506 	br	510ac <lseek+0x98>
   51098:	00bfde84 	movi	r2,-134
   5109c:	e0bfff15 	stw	r2,-4(fp)
   510a0:	00000206 	br	510ac <lseek+0x98>
   510a4:	00bfebc4 	movi	r2,-81
   510a8:	e0bfff15 	stw	r2,-4(fp)
   510ac:	e0bfff17 	ldw	r2,-4(fp)
   510b0:	1000070e 	bge	r2,zero,510d0 <lseek+0xbc>
   510b4:	0050fd80 	call	50fd8 <alt_get_errno>
   510b8:	1007883a 	mov	r3,r2
   510bc:	e0bfff17 	ldw	r2,-4(fp)
   510c0:	0085c83a 	sub	r2,zero,r2
   510c4:	18800015 	stw	r2,0(r3)
   510c8:	00bfffc4 	movi	r2,-1
   510cc:	e0bfff15 	stw	r2,-4(fp)
   510d0:	e0bfff17 	ldw	r2,-4(fp)
   510d4:	e037883a 	mov	sp,fp
   510d8:	dfc00117 	ldw	ra,4(sp)
   510dc:	df000017 	ldw	fp,0(sp)
   510e0:	dec00204 	addi	sp,sp,8
   510e4:	f800283a 	ret

000510e8 <alt_main>:
   510e8:	defffd04 	addi	sp,sp,-12
   510ec:	dfc00215 	stw	ra,8(sp)
   510f0:	df000115 	stw	fp,4(sp)
   510f4:	df000104 	addi	fp,sp,4
   510f8:	0009883a 	mov	r4,zero
   510fc:	005155c0 	call	5155c <alt_irq_init>
   51100:	0001883a 	nop
   51104:	00515980 	call	51598 <alt_sys_init>
   51108:	01800174 	movhi	r6,5
   5110c:	318e8704 	addi	r6,r6,14876
   51110:	01400174 	movhi	r5,5
   51114:	294e8704 	addi	r5,r5,14876
   51118:	01000174 	movhi	r4,5
   5111c:	210e8704 	addi	r4,r4,14876
   51120:	00526fc0 	call	526fc <alt_io_redirect>
   51124:	00522b80 	call	522b8 <_do_ctors>
   51128:	01000174 	movhi	r4,5
   5112c:	2108c704 	addi	r4,r4,8988
   51130:	0052ef00 	call	52ef0 <atexit>
   51134:	d0a72417 	ldw	r2,-25456(gp)
   51138:	d0e72517 	ldw	r3,-25452(gp)
   5113c:	d1272617 	ldw	r4,-25448(gp)
   51140:	200d883a 	mov	r6,r4
   51144:	180b883a 	mov	r5,r3
   51148:	1009883a 	mov	r4,r2
   5114c:	00409ac0 	call	409ac <main>
   51150:	e0bfff15 	stw	r2,-4(fp)
   51154:	01000044 	movi	r4,1
   51158:	0050a640 	call	50a64 <close>
   5115c:	e13fff17 	ldw	r4,-4(fp)
   51160:	0052f040 	call	52f04 <exit>

00051164 <__malloc_lock>:
   51164:	defffe04 	addi	sp,sp,-8
   51168:	df000115 	stw	fp,4(sp)
   5116c:	df000104 	addi	fp,sp,4
   51170:	e13fff15 	stw	r4,-4(fp)
   51174:	0001883a 	nop
   51178:	e037883a 	mov	sp,fp
   5117c:	df000017 	ldw	fp,0(sp)
   51180:	dec00104 	addi	sp,sp,4
   51184:	f800283a 	ret

00051188 <__malloc_unlock>:
   51188:	defffe04 	addi	sp,sp,-8
   5118c:	df000115 	stw	fp,4(sp)
   51190:	df000104 	addi	fp,sp,4
   51194:	e13fff15 	stw	r4,-4(fp)
   51198:	0001883a 	nop
   5119c:	e037883a 	mov	sp,fp
   511a0:	df000017 	ldw	fp,0(sp)
   511a4:	dec00104 	addi	sp,sp,4
   511a8:	f800283a 	ret

000511ac <alt_get_errno>:
   511ac:	defffe04 	addi	sp,sp,-8
   511b0:	dfc00115 	stw	ra,4(sp)
   511b4:	df000015 	stw	fp,0(sp)
   511b8:	d839883a 	mov	fp,sp
   511bc:	d0a01417 	ldw	r2,-32688(gp)
   511c0:	10000326 	beq	r2,zero,511d0 <alt_get_errno+0x24>
   511c4:	d0a01417 	ldw	r2,-32688(gp)
   511c8:	103ee83a 	callr	r2
   511cc:	00000106 	br	511d4 <alt_get_errno+0x28>
   511d0:	d0a72204 	addi	r2,gp,-25464
   511d4:	e037883a 	mov	sp,fp
   511d8:	dfc00117 	ldw	ra,4(sp)
   511dc:	df000017 	ldw	fp,0(sp)
   511e0:	dec00204 	addi	sp,sp,8
   511e4:	f800283a 	ret

000511e8 <read>:
   511e8:	defff904 	addi	sp,sp,-28
   511ec:	dfc00615 	stw	ra,24(sp)
   511f0:	df000515 	stw	fp,20(sp)
   511f4:	df000504 	addi	fp,sp,20
   511f8:	e13ffd15 	stw	r4,-12(fp)
   511fc:	e17ffc15 	stw	r5,-16(fp)
   51200:	e1bffb15 	stw	r6,-20(fp)
   51204:	e0bffd17 	ldw	r2,-12(fp)
   51208:	10000616 	blt	r2,zero,51224 <read+0x3c>
   5120c:	e0bffd17 	ldw	r2,-12(fp)
   51210:	10c00324 	muli	r3,r2,12
   51214:	00800174 	movhi	r2,5
   51218:	1090fd04 	addi	r2,r2,17396
   5121c:	1885883a 	add	r2,r3,r2
   51220:	00000106 	br	51228 <read+0x40>
   51224:	0005883a 	mov	r2,zero
   51228:	e0bfff15 	stw	r2,-4(fp)
   5122c:	e0bfff17 	ldw	r2,-4(fp)
   51230:	10002226 	beq	r2,zero,512bc <read+0xd4>
   51234:	e0bfff17 	ldw	r2,-4(fp)
   51238:	10800217 	ldw	r2,8(r2)
   5123c:	108000cc 	andi	r2,r2,3
   51240:	10800060 	cmpeqi	r2,r2,1
   51244:	1000181e 	bne	r2,zero,512a8 <read+0xc0>
   51248:	e0bfff17 	ldw	r2,-4(fp)
   5124c:	10800017 	ldw	r2,0(r2)
   51250:	10800517 	ldw	r2,20(r2)
   51254:	10001426 	beq	r2,zero,512a8 <read+0xc0>
   51258:	e0bfff17 	ldw	r2,-4(fp)
   5125c:	10800017 	ldw	r2,0(r2)
   51260:	10800517 	ldw	r2,20(r2)
   51264:	e0fffb17 	ldw	r3,-20(fp)
   51268:	180d883a 	mov	r6,r3
   5126c:	e17ffc17 	ldw	r5,-16(fp)
   51270:	e13fff17 	ldw	r4,-4(fp)
   51274:	103ee83a 	callr	r2
   51278:	e0bffe15 	stw	r2,-8(fp)
   5127c:	e0bffe17 	ldw	r2,-8(fp)
   51280:	1000070e 	bge	r2,zero,512a0 <read+0xb8>
   51284:	00511ac0 	call	511ac <alt_get_errno>
   51288:	1007883a 	mov	r3,r2
   5128c:	e0bffe17 	ldw	r2,-8(fp)
   51290:	0085c83a 	sub	r2,zero,r2
   51294:	18800015 	stw	r2,0(r3)
   51298:	00bfffc4 	movi	r2,-1
   5129c:	00000c06 	br	512d0 <read+0xe8>
   512a0:	e0bffe17 	ldw	r2,-8(fp)
   512a4:	00000a06 	br	512d0 <read+0xe8>
   512a8:	00511ac0 	call	511ac <alt_get_errno>
   512ac:	1007883a 	mov	r3,r2
   512b0:	00800344 	movi	r2,13
   512b4:	18800015 	stw	r2,0(r3)
   512b8:	00000406 	br	512cc <read+0xe4>
   512bc:	00511ac0 	call	511ac <alt_get_errno>
   512c0:	1007883a 	mov	r3,r2
   512c4:	00801444 	movi	r2,81
   512c8:	18800015 	stw	r2,0(r3)
   512cc:	00bfffc4 	movi	r2,-1
   512d0:	e037883a 	mov	sp,fp
   512d4:	dfc00117 	ldw	ra,4(sp)
   512d8:	df000017 	ldw	fp,0(sp)
   512dc:	dec00204 	addi	sp,sp,8
   512e0:	f800283a 	ret

000512e4 <alt_release_fd>:
   512e4:	defffe04 	addi	sp,sp,-8
   512e8:	df000115 	stw	fp,4(sp)
   512ec:	df000104 	addi	fp,sp,4
   512f0:	e13fff15 	stw	r4,-4(fp)
   512f4:	e0bfff17 	ldw	r2,-4(fp)
   512f8:	108000d0 	cmplti	r2,r2,3
   512fc:	10000a1e 	bne	r2,zero,51328 <alt_release_fd+0x44>
   51300:	e0bfff17 	ldw	r2,-4(fp)
   51304:	10c00324 	muli	r3,r2,12
   51308:	00800174 	movhi	r2,5
   5130c:	1885883a 	add	r2,r3,r2
   51310:	1010ff15 	stw	zero,17404(r2)
   51314:	e0bfff17 	ldw	r2,-4(fp)
   51318:	10c00324 	muli	r3,r2,12
   5131c:	00800174 	movhi	r2,5
   51320:	1885883a 	add	r2,r3,r2
   51324:	1010fd15 	stw	zero,17396(r2)
   51328:	0001883a 	nop
   5132c:	e037883a 	mov	sp,fp
   51330:	df000017 	ldw	fp,0(sp)
   51334:	dec00104 	addi	sp,sp,4
   51338:	f800283a 	ret

0005133c <sbrk>:
   5133c:	defff904 	addi	sp,sp,-28
   51340:	df000615 	stw	fp,24(sp)
   51344:	df000604 	addi	fp,sp,24
   51348:	e13ffa15 	stw	r4,-24(fp)
   5134c:	0005303a 	rdctl	r2,status
   51350:	e0bffd15 	stw	r2,-12(fp)
   51354:	e0fffd17 	ldw	r3,-12(fp)
   51358:	00bfff84 	movi	r2,-2
   5135c:	1884703a 	and	r2,r3,r2
   51360:	1001703a 	wrctl	status,r2
   51364:	e0bffd17 	ldw	r2,-12(fp)
   51368:	e0bfff15 	stw	r2,-4(fp)
   5136c:	d0a01517 	ldw	r2,-32684(gp)
   51370:	10c000c4 	addi	r3,r2,3
   51374:	00bfff04 	movi	r2,-4
   51378:	1884703a 	and	r2,r3,r2
   5137c:	d0a01515 	stw	r2,-32684(gp)
   51380:	d0e01517 	ldw	r3,-32684(gp)
   51384:	e0bffa17 	ldw	r2,-24(fp)
   51388:	1887883a 	add	r3,r3,r2
   5138c:	008001f4 	movhi	r2,7
   51390:	10880004 	addi	r2,r2,8192
   51394:	10c0072e 	bgeu	r2,r3,513b4 <sbrk+0x78>
   51398:	e0bfff17 	ldw	r2,-4(fp)
   5139c:	e0bffc15 	stw	r2,-16(fp)
   513a0:	e0bffc17 	ldw	r2,-16(fp)
   513a4:	1001703a 	wrctl	status,r2
   513a8:	0001883a 	nop
   513ac:	00bfffc4 	movi	r2,-1
   513b0:	00000c06 	br	513e4 <sbrk+0xa8>
   513b4:	d0a01517 	ldw	r2,-32684(gp)
   513b8:	e0bffe15 	stw	r2,-8(fp)
   513bc:	d0e01517 	ldw	r3,-32684(gp)
   513c0:	e0bffa17 	ldw	r2,-24(fp)
   513c4:	1885883a 	add	r2,r3,r2
   513c8:	d0a01515 	stw	r2,-32684(gp)
   513cc:	e0bfff17 	ldw	r2,-4(fp)
   513d0:	e0bffb15 	stw	r2,-20(fp)
   513d4:	e0bffb17 	ldw	r2,-20(fp)
   513d8:	1001703a 	wrctl	status,r2
   513dc:	0001883a 	nop
   513e0:	e0bffe17 	ldw	r2,-8(fp)
   513e4:	e037883a 	mov	sp,fp
   513e8:	df000017 	ldw	fp,0(sp)
   513ec:	dec00104 	addi	sp,sp,4
   513f0:	f800283a 	ret

000513f4 <alt_get_errno>:
   513f4:	defffe04 	addi	sp,sp,-8
   513f8:	dfc00115 	stw	ra,4(sp)
   513fc:	df000015 	stw	fp,0(sp)
   51400:	d839883a 	mov	fp,sp
   51404:	d0a01417 	ldw	r2,-32688(gp)
   51408:	10000326 	beq	r2,zero,51418 <alt_get_errno+0x24>
   5140c:	d0a01417 	ldw	r2,-32688(gp)
   51410:	103ee83a 	callr	r2
   51414:	00000106 	br	5141c <alt_get_errno+0x28>
   51418:	d0a72204 	addi	r2,gp,-25464
   5141c:	e037883a 	mov	sp,fp
   51420:	dfc00117 	ldw	ra,4(sp)
   51424:	df000017 	ldw	fp,0(sp)
   51428:	dec00204 	addi	sp,sp,8
   5142c:	f800283a 	ret

00051430 <write>:
   51430:	defff904 	addi	sp,sp,-28
   51434:	dfc00615 	stw	ra,24(sp)
   51438:	df000515 	stw	fp,20(sp)
   5143c:	df000504 	addi	fp,sp,20
   51440:	e13ffd15 	stw	r4,-12(fp)
   51444:	e17ffc15 	stw	r5,-16(fp)
   51448:	e1bffb15 	stw	r6,-20(fp)
   5144c:	e0bffd17 	ldw	r2,-12(fp)
   51450:	10000616 	blt	r2,zero,5146c <write+0x3c>
   51454:	e0bffd17 	ldw	r2,-12(fp)
   51458:	10c00324 	muli	r3,r2,12
   5145c:	00800174 	movhi	r2,5
   51460:	1090fd04 	addi	r2,r2,17396
   51464:	1885883a 	add	r2,r3,r2
   51468:	00000106 	br	51470 <write+0x40>
   5146c:	0005883a 	mov	r2,zero
   51470:	e0bfff15 	stw	r2,-4(fp)
   51474:	e0bfff17 	ldw	r2,-4(fp)
   51478:	10002126 	beq	r2,zero,51500 <write+0xd0>
   5147c:	e0bfff17 	ldw	r2,-4(fp)
   51480:	10800217 	ldw	r2,8(r2)
   51484:	108000cc 	andi	r2,r2,3
   51488:	10001826 	beq	r2,zero,514ec <write+0xbc>
   5148c:	e0bfff17 	ldw	r2,-4(fp)
   51490:	10800017 	ldw	r2,0(r2)
   51494:	10800617 	ldw	r2,24(r2)
   51498:	10001426 	beq	r2,zero,514ec <write+0xbc>
   5149c:	e0bfff17 	ldw	r2,-4(fp)
   514a0:	10800017 	ldw	r2,0(r2)
   514a4:	10800617 	ldw	r2,24(r2)
   514a8:	e0fffb17 	ldw	r3,-20(fp)
   514ac:	180d883a 	mov	r6,r3
   514b0:	e17ffc17 	ldw	r5,-16(fp)
   514b4:	e13fff17 	ldw	r4,-4(fp)
   514b8:	103ee83a 	callr	r2
   514bc:	e0bffe15 	stw	r2,-8(fp)
   514c0:	e0bffe17 	ldw	r2,-8(fp)
   514c4:	1000070e 	bge	r2,zero,514e4 <write+0xb4>
   514c8:	00513f40 	call	513f4 <alt_get_errno>
   514cc:	1007883a 	mov	r3,r2
   514d0:	e0bffe17 	ldw	r2,-8(fp)
   514d4:	0085c83a 	sub	r2,zero,r2
   514d8:	18800015 	stw	r2,0(r3)
   514dc:	00bfffc4 	movi	r2,-1
   514e0:	00000c06 	br	51514 <write+0xe4>
   514e4:	e0bffe17 	ldw	r2,-8(fp)
   514e8:	00000a06 	br	51514 <write+0xe4>
   514ec:	00513f40 	call	513f4 <alt_get_errno>
   514f0:	1007883a 	mov	r3,r2
   514f4:	00800344 	movi	r2,13
   514f8:	18800015 	stw	r2,0(r3)
   514fc:	00000406 	br	51510 <write+0xe0>
   51500:	00513f40 	call	513f4 <alt_get_errno>
   51504:	1007883a 	mov	r3,r2
   51508:	00801444 	movi	r2,81
   5150c:	18800015 	stw	r2,0(r3)
   51510:	00bfffc4 	movi	r2,-1
   51514:	e037883a 	mov	sp,fp
   51518:	dfc00117 	ldw	ra,4(sp)
   5151c:	df000017 	ldw	fp,0(sp)
   51520:	dec00204 	addi	sp,sp,8
   51524:	f800283a 	ret

00051528 <alt_dev_reg>:
   51528:	defffd04 	addi	sp,sp,-12
   5152c:	dfc00215 	stw	ra,8(sp)
   51530:	df000115 	stw	fp,4(sp)
   51534:	df000104 	addi	fp,sp,4
   51538:	e13fff15 	stw	r4,-4(fp)
   5153c:	d1601104 	addi	r5,gp,-32700
   51540:	e13fff17 	ldw	r4,-4(fp)
   51544:	00522100 	call	52210 <alt_dev_llist_insert>
   51548:	e037883a 	mov	sp,fp
   5154c:	dfc00117 	ldw	ra,4(sp)
   51550:	df000017 	ldw	fp,0(sp)
   51554:	dec00204 	addi	sp,sp,8
   51558:	f800283a 	ret

0005155c <alt_irq_init>:
   5155c:	defffd04 	addi	sp,sp,-12
   51560:	dfc00215 	stw	ra,8(sp)
   51564:	df000115 	stw	fp,4(sp)
   51568:	df000104 	addi	fp,sp,4
   5156c:	e13fff15 	stw	r4,-4(fp)
   51570:	0052b6c0 	call	52b6c <altera_nios2_gen2_irq_init>
   51574:	00800044 	movi	r2,1
   51578:	1001703a 	wrctl	status,r2
   5157c:	0001883a 	nop
   51580:	0001883a 	nop
   51584:	e037883a 	mov	sp,fp
   51588:	dfc00117 	ldw	ra,4(sp)
   5158c:	df000017 	ldw	fp,0(sp)
   51590:	dec00204 	addi	sp,sp,8
   51594:	f800283a 	ret

00051598 <alt_sys_init>:
   51598:	defffe04 	addi	sp,sp,-8
   5159c:	dfc00115 	stw	ra,4(sp)
   515a0:	df000015 	stw	fp,0(sp)
   515a4:	d839883a 	mov	fp,sp
   515a8:	000d883a 	mov	r6,zero
   515ac:	000b883a 	mov	r5,zero
   515b0:	01000174 	movhi	r4,5
   515b4:	21116704 	addi	r4,r4,17820
   515b8:	00517440 	call	51744 <altera_avalon_jtag_uart_init>
   515bc:	01000174 	movhi	r4,5
   515c0:	21115d04 	addi	r4,r4,17780
   515c4:	00515280 	call	51528 <alt_dev_reg>
   515c8:	0001883a 	nop
   515cc:	e037883a 	mov	sp,fp
   515d0:	dfc00117 	ldw	ra,4(sp)
   515d4:	df000017 	ldw	fp,0(sp)
   515d8:	dec00204 	addi	sp,sp,8
   515dc:	f800283a 	ret

000515e0 <altera_avalon_jtag_uart_read_fd>:
   515e0:	defffa04 	addi	sp,sp,-24
   515e4:	dfc00515 	stw	ra,20(sp)
   515e8:	df000415 	stw	fp,16(sp)
   515ec:	df000404 	addi	fp,sp,16
   515f0:	e13ffe15 	stw	r4,-8(fp)
   515f4:	e17ffd15 	stw	r5,-12(fp)
   515f8:	e1bffc15 	stw	r6,-16(fp)
   515fc:	e0bffe17 	ldw	r2,-8(fp)
   51600:	10800017 	ldw	r2,0(r2)
   51604:	e0bfff15 	stw	r2,-4(fp)
   51608:	e0bfff17 	ldw	r2,-4(fp)
   5160c:	10c00a04 	addi	r3,r2,40
   51610:	e0bffe17 	ldw	r2,-8(fp)
   51614:	10800217 	ldw	r2,8(r2)
   51618:	100f883a 	mov	r7,r2
   5161c:	e1bffc17 	ldw	r6,-16(fp)
   51620:	e17ffd17 	ldw	r5,-12(fp)
   51624:	1809883a 	mov	r4,r3
   51628:	0051c0c0 	call	51c0c <altera_avalon_jtag_uart_read>
   5162c:	e037883a 	mov	sp,fp
   51630:	dfc00117 	ldw	ra,4(sp)
   51634:	df000017 	ldw	fp,0(sp)
   51638:	dec00204 	addi	sp,sp,8
   5163c:	f800283a 	ret

00051640 <altera_avalon_jtag_uart_write_fd>:
   51640:	defffa04 	addi	sp,sp,-24
   51644:	dfc00515 	stw	ra,20(sp)
   51648:	df000415 	stw	fp,16(sp)
   5164c:	df000404 	addi	fp,sp,16
   51650:	e13ffe15 	stw	r4,-8(fp)
   51654:	e17ffd15 	stw	r5,-12(fp)
   51658:	e1bffc15 	stw	r6,-16(fp)
   5165c:	e0bffe17 	ldw	r2,-8(fp)
   51660:	10800017 	ldw	r2,0(r2)
   51664:	e0bfff15 	stw	r2,-4(fp)
   51668:	e0bfff17 	ldw	r2,-4(fp)
   5166c:	10c00a04 	addi	r3,r2,40
   51670:	e0bffe17 	ldw	r2,-8(fp)
   51674:	10800217 	ldw	r2,8(r2)
   51678:	100f883a 	mov	r7,r2
   5167c:	e1bffc17 	ldw	r6,-16(fp)
   51680:	e17ffd17 	ldw	r5,-12(fp)
   51684:	1809883a 	mov	r4,r3
   51688:	0051e2c0 	call	51e2c <altera_avalon_jtag_uart_write>
   5168c:	e037883a 	mov	sp,fp
   51690:	dfc00117 	ldw	ra,4(sp)
   51694:	df000017 	ldw	fp,0(sp)
   51698:	dec00204 	addi	sp,sp,8
   5169c:	f800283a 	ret

000516a0 <altera_avalon_jtag_uart_close_fd>:
   516a0:	defffc04 	addi	sp,sp,-16
   516a4:	dfc00315 	stw	ra,12(sp)
   516a8:	df000215 	stw	fp,8(sp)
   516ac:	df000204 	addi	fp,sp,8
   516b0:	e13ffe15 	stw	r4,-8(fp)
   516b4:	e0bffe17 	ldw	r2,-8(fp)
   516b8:	10800017 	ldw	r2,0(r2)
   516bc:	e0bfff15 	stw	r2,-4(fp)
   516c0:	e0bfff17 	ldw	r2,-4(fp)
   516c4:	10c00a04 	addi	r3,r2,40
   516c8:	e0bffe17 	ldw	r2,-8(fp)
   516cc:	10800217 	ldw	r2,8(r2)
   516d0:	100b883a 	mov	r5,r2
   516d4:	1809883a 	mov	r4,r3
   516d8:	0051ab00 	call	51ab0 <altera_avalon_jtag_uart_close>
   516dc:	e037883a 	mov	sp,fp
   516e0:	dfc00117 	ldw	ra,4(sp)
   516e4:	df000017 	ldw	fp,0(sp)
   516e8:	dec00204 	addi	sp,sp,8
   516ec:	f800283a 	ret

000516f0 <altera_avalon_jtag_uart_ioctl_fd>:
   516f0:	defffa04 	addi	sp,sp,-24
   516f4:	dfc00515 	stw	ra,20(sp)
   516f8:	df000415 	stw	fp,16(sp)
   516fc:	df000404 	addi	fp,sp,16
   51700:	e13ffe15 	stw	r4,-8(fp)
   51704:	e17ffd15 	stw	r5,-12(fp)
   51708:	e1bffc15 	stw	r6,-16(fp)
   5170c:	e0bffe17 	ldw	r2,-8(fp)
   51710:	10800017 	ldw	r2,0(r2)
   51714:	e0bfff15 	stw	r2,-4(fp)
   51718:	e0bfff17 	ldw	r2,-4(fp)
   5171c:	10800a04 	addi	r2,r2,40
   51720:	e1bffc17 	ldw	r6,-16(fp)
   51724:	e17ffd17 	ldw	r5,-12(fp)
   51728:	1009883a 	mov	r4,r2
   5172c:	0051b180 	call	51b18 <altera_avalon_jtag_uart_ioctl>
   51730:	e037883a 	mov	sp,fp
   51734:	dfc00117 	ldw	ra,4(sp)
   51738:	df000017 	ldw	fp,0(sp)
   5173c:	dec00204 	addi	sp,sp,8
   51740:	f800283a 	ret

00051744 <altera_avalon_jtag_uart_init>:
   51744:	defffa04 	addi	sp,sp,-24
   51748:	dfc00515 	stw	ra,20(sp)
   5174c:	df000415 	stw	fp,16(sp)
   51750:	df000404 	addi	fp,sp,16
   51754:	e13fff15 	stw	r4,-4(fp)
   51758:	e17ffe15 	stw	r5,-8(fp)
   5175c:	e1bffd15 	stw	r6,-12(fp)
   51760:	e0bfff17 	ldw	r2,-4(fp)
   51764:	00c00044 	movi	r3,1
   51768:	10c00815 	stw	r3,32(r2)
   5176c:	e0bfff17 	ldw	r2,-4(fp)
   51770:	10800017 	ldw	r2,0(r2)
   51774:	10800104 	addi	r2,r2,4
   51778:	1007883a 	mov	r3,r2
   5177c:	e0bfff17 	ldw	r2,-4(fp)
   51780:	10800817 	ldw	r2,32(r2)
   51784:	18800035 	stwio	r2,0(r3)
   51788:	e0bffe17 	ldw	r2,-8(fp)
   5178c:	e0fffd17 	ldw	r3,-12(fp)
   51790:	d8000015 	stw	zero,0(sp)
   51794:	e1ffff17 	ldw	r7,-4(fp)
   51798:	01800174 	movhi	r6,5
   5179c:	31860104 	addi	r6,r6,6148
   517a0:	180b883a 	mov	r5,r3
   517a4:	1009883a 	mov	r4,r2
   517a8:	00523b40 	call	523b4 <alt_ic_isr_register>
   517ac:	e0bfff17 	ldw	r2,-4(fp)
   517b0:	10000915 	stw	zero,36(r2)
   517b4:	e0bfff17 	ldw	r2,-4(fp)
   517b8:	10800204 	addi	r2,r2,8
   517bc:	d0e72817 	ldw	r3,-25440(gp)
   517c0:	e1ffff17 	ldw	r7,-4(fp)
   517c4:	01800174 	movhi	r6,5
   517c8:	31868404 	addi	r6,r6,6672
   517cc:	180b883a 	mov	r5,r3
   517d0:	1009883a 	mov	r4,r2
   517d4:	00520540 	call	52054 <alt_alarm_start>
   517d8:	1000040e 	bge	r2,zero,517ec <altera_avalon_jtag_uart_init+0xa8>
   517dc:	e0ffff17 	ldw	r3,-4(fp)
   517e0:	00a00034 	movhi	r2,32768
   517e4:	10bfffc4 	addi	r2,r2,-1
   517e8:	18800115 	stw	r2,4(r3)
   517ec:	0001883a 	nop
   517f0:	e037883a 	mov	sp,fp
   517f4:	dfc00117 	ldw	ra,4(sp)
   517f8:	df000017 	ldw	fp,0(sp)
   517fc:	dec00204 	addi	sp,sp,8
   51800:	f800283a 	ret

00051804 <altera_avalon_jtag_uart_irq>:
   51804:	defff804 	addi	sp,sp,-32
   51808:	df000715 	stw	fp,28(sp)
   5180c:	df000704 	addi	fp,sp,28
   51810:	e13ff915 	stw	r4,-28(fp)
   51814:	e0bff917 	ldw	r2,-28(fp)
   51818:	e0bffd15 	stw	r2,-12(fp)
   5181c:	e0bffd17 	ldw	r2,-12(fp)
   51820:	10800017 	ldw	r2,0(r2)
   51824:	e0bffc15 	stw	r2,-16(fp)
   51828:	e0bffc17 	ldw	r2,-16(fp)
   5182c:	10800104 	addi	r2,r2,4
   51830:	10800037 	ldwio	r2,0(r2)
   51834:	e0bffb15 	stw	r2,-20(fp)
   51838:	e0bffb17 	ldw	r2,-20(fp)
   5183c:	1080c00c 	andi	r2,r2,768
   51840:	10006d26 	beq	r2,zero,519f8 <altera_avalon_jtag_uart_irq+0x1f4>
   51844:	e0bffb17 	ldw	r2,-20(fp)
   51848:	1080400c 	andi	r2,r2,256
   5184c:	10003526 	beq	r2,zero,51924 <altera_avalon_jtag_uart_irq+0x120>
   51850:	00800074 	movhi	r2,1
   51854:	e0bfff15 	stw	r2,-4(fp)
   51858:	e0bffd17 	ldw	r2,-12(fp)
   5185c:	10800a17 	ldw	r2,40(r2)
   51860:	10800044 	addi	r2,r2,1
   51864:	1081ffcc 	andi	r2,r2,2047
   51868:	e0bffa15 	stw	r2,-24(fp)
   5186c:	e0bffd17 	ldw	r2,-12(fp)
   51870:	10800b17 	ldw	r2,44(r2)
   51874:	e0fffa17 	ldw	r3,-24(fp)
   51878:	18801526 	beq	r3,r2,518d0 <altera_avalon_jtag_uart_irq+0xcc>
   5187c:	e0bffc17 	ldw	r2,-16(fp)
   51880:	10800037 	ldwio	r2,0(r2)
   51884:	e0bfff15 	stw	r2,-4(fp)
   51888:	e0bfff17 	ldw	r2,-4(fp)
   5188c:	10a0000c 	andi	r2,r2,32768
   51890:	10001126 	beq	r2,zero,518d8 <altera_avalon_jtag_uart_irq+0xd4>
   51894:	e0bffd17 	ldw	r2,-12(fp)
   51898:	10800a17 	ldw	r2,40(r2)
   5189c:	e0ffff17 	ldw	r3,-4(fp)
   518a0:	1809883a 	mov	r4,r3
   518a4:	e0fffd17 	ldw	r3,-12(fp)
   518a8:	1885883a 	add	r2,r3,r2
   518ac:	11000e05 	stb	r4,56(r2)
   518b0:	e0bffd17 	ldw	r2,-12(fp)
   518b4:	10800a17 	ldw	r2,40(r2)
   518b8:	10800044 	addi	r2,r2,1
   518bc:	10c1ffcc 	andi	r3,r2,2047
   518c0:	e0bffd17 	ldw	r2,-12(fp)
   518c4:	10c00a15 	stw	r3,40(r2)
   518c8:	0001883a 	nop
   518cc:	003fe206 	br	51858 <altera_avalon_jtag_uart_irq+0x54>
   518d0:	0001883a 	nop
   518d4:	00000106 	br	518dc <altera_avalon_jtag_uart_irq+0xd8>
   518d8:	0001883a 	nop
   518dc:	e0bfff17 	ldw	r2,-4(fp)
   518e0:	10bfffec 	andhi	r2,r2,65535
   518e4:	10000f26 	beq	r2,zero,51924 <altera_avalon_jtag_uart_irq+0x120>
   518e8:	e0bffd17 	ldw	r2,-12(fp)
   518ec:	10c00817 	ldw	r3,32(r2)
   518f0:	00bfff84 	movi	r2,-2
   518f4:	1886703a 	and	r3,r3,r2
   518f8:	e0bffd17 	ldw	r2,-12(fp)
   518fc:	10c00815 	stw	r3,32(r2)
   51900:	e0bffc17 	ldw	r2,-16(fp)
   51904:	10800104 	addi	r2,r2,4
   51908:	1007883a 	mov	r3,r2
   5190c:	e0bffd17 	ldw	r2,-12(fp)
   51910:	10800817 	ldw	r2,32(r2)
   51914:	18800035 	stwio	r2,0(r3)
   51918:	e0bffc17 	ldw	r2,-16(fp)
   5191c:	10800104 	addi	r2,r2,4
   51920:	10800037 	ldwio	r2,0(r2)
   51924:	e0bffb17 	ldw	r2,-20(fp)
   51928:	1080800c 	andi	r2,r2,512
   5192c:	103fbe26 	beq	r2,zero,51828 <altera_avalon_jtag_uart_irq+0x24>
   51930:	e0bffb17 	ldw	r2,-20(fp)
   51934:	1004d43a 	srli	r2,r2,16
   51938:	e0bffe15 	stw	r2,-8(fp)
   5193c:	00001406 	br	51990 <altera_avalon_jtag_uart_irq+0x18c>
   51940:	e0bffc17 	ldw	r2,-16(fp)
   51944:	e0fffd17 	ldw	r3,-12(fp)
   51948:	18c00d17 	ldw	r3,52(r3)
   5194c:	e13ffd17 	ldw	r4,-12(fp)
   51950:	20c7883a 	add	r3,r4,r3
   51954:	18c20e03 	ldbu	r3,2104(r3)
   51958:	18c03fcc 	andi	r3,r3,255
   5195c:	18c0201c 	xori	r3,r3,128
   51960:	18ffe004 	addi	r3,r3,-128
   51964:	10c00035 	stwio	r3,0(r2)
   51968:	e0bffd17 	ldw	r2,-12(fp)
   5196c:	10800d17 	ldw	r2,52(r2)
   51970:	10800044 	addi	r2,r2,1
   51974:	10c1ffcc 	andi	r3,r2,2047
   51978:	e0bffd17 	ldw	r2,-12(fp)
   5197c:	10c00d15 	stw	r3,52(r2)
   51980:	0001883a 	nop
   51984:	e0bffe17 	ldw	r2,-8(fp)
   51988:	10bfffc4 	addi	r2,r2,-1
   5198c:	e0bffe15 	stw	r2,-8(fp)
   51990:	e0bffe17 	ldw	r2,-8(fp)
   51994:	10000526 	beq	r2,zero,519ac <altera_avalon_jtag_uart_irq+0x1a8>
   51998:	e0bffd17 	ldw	r2,-12(fp)
   5199c:	10c00d17 	ldw	r3,52(r2)
   519a0:	e0bffd17 	ldw	r2,-12(fp)
   519a4:	10800c17 	ldw	r2,48(r2)
   519a8:	18bfe51e 	bne	r3,r2,51940 <altera_avalon_jtag_uart_irq+0x13c>
   519ac:	e0bffe17 	ldw	r2,-8(fp)
   519b0:	103f9d26 	beq	r2,zero,51828 <altera_avalon_jtag_uart_irq+0x24>
   519b4:	e0bffd17 	ldw	r2,-12(fp)
   519b8:	10c00817 	ldw	r3,32(r2)
   519bc:	00bfff44 	movi	r2,-3
   519c0:	1886703a 	and	r3,r3,r2
   519c4:	e0bffd17 	ldw	r2,-12(fp)
   519c8:	10c00815 	stw	r3,32(r2)
   519cc:	e0bffd17 	ldw	r2,-12(fp)
   519d0:	10800017 	ldw	r2,0(r2)
   519d4:	10800104 	addi	r2,r2,4
   519d8:	1007883a 	mov	r3,r2
   519dc:	e0bffd17 	ldw	r2,-12(fp)
   519e0:	10800817 	ldw	r2,32(r2)
   519e4:	18800035 	stwio	r2,0(r3)
   519e8:	e0bffc17 	ldw	r2,-16(fp)
   519ec:	10800104 	addi	r2,r2,4
   519f0:	10800037 	ldwio	r2,0(r2)
   519f4:	003f8c06 	br	51828 <altera_avalon_jtag_uart_irq+0x24>
   519f8:	0001883a 	nop
   519fc:	0001883a 	nop
   51a00:	e037883a 	mov	sp,fp
   51a04:	df000017 	ldw	fp,0(sp)
   51a08:	dec00104 	addi	sp,sp,4
   51a0c:	f800283a 	ret

00051a10 <altera_avalon_jtag_uart_timeout>:
   51a10:	defffc04 	addi	sp,sp,-16
   51a14:	df000315 	stw	fp,12(sp)
   51a18:	df000304 	addi	fp,sp,12
   51a1c:	e13ffd15 	stw	r4,-12(fp)
   51a20:	e0bffd17 	ldw	r2,-12(fp)
   51a24:	e0bfff15 	stw	r2,-4(fp)
   51a28:	e0bfff17 	ldw	r2,-4(fp)
   51a2c:	10800017 	ldw	r2,0(r2)
   51a30:	10800104 	addi	r2,r2,4
   51a34:	10800037 	ldwio	r2,0(r2)
   51a38:	e0bffe15 	stw	r2,-8(fp)
   51a3c:	e0bffe17 	ldw	r2,-8(fp)
   51a40:	1081000c 	andi	r2,r2,1024
   51a44:	10000b26 	beq	r2,zero,51a74 <altera_avalon_jtag_uart_timeout+0x64>
   51a48:	e0bfff17 	ldw	r2,-4(fp)
   51a4c:	10800017 	ldw	r2,0(r2)
   51a50:	10800104 	addi	r2,r2,4
   51a54:	1007883a 	mov	r3,r2
   51a58:	e0bfff17 	ldw	r2,-4(fp)
   51a5c:	10800817 	ldw	r2,32(r2)
   51a60:	10810014 	ori	r2,r2,1024
   51a64:	18800035 	stwio	r2,0(r3)
   51a68:	e0bfff17 	ldw	r2,-4(fp)
   51a6c:	10000915 	stw	zero,36(r2)
   51a70:	00000a06 	br	51a9c <altera_avalon_jtag_uart_timeout+0x8c>
   51a74:	e0bfff17 	ldw	r2,-4(fp)
   51a78:	10c00917 	ldw	r3,36(r2)
   51a7c:	00a00034 	movhi	r2,32768
   51a80:	10bfff04 	addi	r2,r2,-4
   51a84:	10c00536 	bltu	r2,r3,51a9c <altera_avalon_jtag_uart_timeout+0x8c>
   51a88:	e0bfff17 	ldw	r2,-4(fp)
   51a8c:	10800917 	ldw	r2,36(r2)
   51a90:	10c00044 	addi	r3,r2,1
   51a94:	e0bfff17 	ldw	r2,-4(fp)
   51a98:	10c00915 	stw	r3,36(r2)
   51a9c:	d0a72817 	ldw	r2,-25440(gp)
   51aa0:	e037883a 	mov	sp,fp
   51aa4:	df000017 	ldw	fp,0(sp)
   51aa8:	dec00104 	addi	sp,sp,4
   51aac:	f800283a 	ret

00051ab0 <altera_avalon_jtag_uart_close>:
   51ab0:	defffd04 	addi	sp,sp,-12
   51ab4:	df000215 	stw	fp,8(sp)
   51ab8:	df000204 	addi	fp,sp,8
   51abc:	e13fff15 	stw	r4,-4(fp)
   51ac0:	e17ffe15 	stw	r5,-8(fp)
   51ac4:	00000506 	br	51adc <altera_avalon_jtag_uart_close+0x2c>
   51ac8:	e0bffe17 	ldw	r2,-8(fp)
   51acc:	1090000c 	andi	r2,r2,16384
   51ad0:	10000226 	beq	r2,zero,51adc <altera_avalon_jtag_uart_close+0x2c>
   51ad4:	00bffd44 	movi	r2,-11
   51ad8:	00000b06 	br	51b08 <altera_avalon_jtag_uart_close+0x58>
   51adc:	e0bfff17 	ldw	r2,-4(fp)
   51ae0:	10c00d17 	ldw	r3,52(r2)
   51ae4:	e0bfff17 	ldw	r2,-4(fp)
   51ae8:	10800c17 	ldw	r2,48(r2)
   51aec:	18800526 	beq	r3,r2,51b04 <altera_avalon_jtag_uart_close+0x54>
   51af0:	e0bfff17 	ldw	r2,-4(fp)
   51af4:	10c00917 	ldw	r3,36(r2)
   51af8:	e0bfff17 	ldw	r2,-4(fp)
   51afc:	10800117 	ldw	r2,4(r2)
   51b00:	18bff136 	bltu	r3,r2,51ac8 <altera_avalon_jtag_uart_close+0x18>
   51b04:	0005883a 	mov	r2,zero
   51b08:	e037883a 	mov	sp,fp
   51b0c:	df000017 	ldw	fp,0(sp)
   51b10:	dec00104 	addi	sp,sp,4
   51b14:	f800283a 	ret

00051b18 <altera_avalon_jtag_uart_ioctl>:
   51b18:	defffa04 	addi	sp,sp,-24
   51b1c:	df000515 	stw	fp,20(sp)
   51b20:	df000504 	addi	fp,sp,20
   51b24:	e13ffd15 	stw	r4,-12(fp)
   51b28:	e17ffc15 	stw	r5,-16(fp)
   51b2c:	e1bffb15 	stw	r6,-20(fp)
   51b30:	00bff9c4 	movi	r2,-25
   51b34:	e0bfff15 	stw	r2,-4(fp)
   51b38:	e0bffc17 	ldw	r2,-16(fp)
   51b3c:	109a8060 	cmpeqi	r2,r2,27137
   51b40:	1000041e 	bne	r2,zero,51b54 <altera_avalon_jtag_uart_ioctl+0x3c>
   51b44:	e0bffc17 	ldw	r2,-16(fp)
   51b48:	109a80a0 	cmpeqi	r2,r2,27138
   51b4c:	1000181e 	bne	r2,zero,51bb0 <altera_avalon_jtag_uart_ioctl+0x98>
   51b50:	00002906 	br	51bf8 <altera_avalon_jtag_uart_ioctl+0xe0>
   51b54:	e0bffd17 	ldw	r2,-12(fp)
   51b58:	10c00117 	ldw	r3,4(r2)
   51b5c:	00a00034 	movhi	r2,32768
   51b60:	10bfffc4 	addi	r2,r2,-1
   51b64:	18802126 	beq	r3,r2,51bec <altera_avalon_jtag_uart_ioctl+0xd4>
   51b68:	e0bffb17 	ldw	r2,-20(fp)
   51b6c:	10800017 	ldw	r2,0(r2)
   51b70:	e0bffe15 	stw	r2,-8(fp)
   51b74:	e0bffe17 	ldw	r2,-8(fp)
   51b78:	10800090 	cmplti	r2,r2,2
   51b7c:	1000061e 	bne	r2,zero,51b98 <altera_avalon_jtag_uart_ioctl+0x80>
   51b80:	e0fffe17 	ldw	r3,-8(fp)
   51b84:	00a00034 	movhi	r2,32768
   51b88:	10bfffc4 	addi	r2,r2,-1
   51b8c:	18800226 	beq	r3,r2,51b98 <altera_avalon_jtag_uart_ioctl+0x80>
   51b90:	e0bffe17 	ldw	r2,-8(fp)
   51b94:	00000206 	br	51ba0 <altera_avalon_jtag_uart_ioctl+0x88>
   51b98:	00a00034 	movhi	r2,32768
   51b9c:	10bfff84 	addi	r2,r2,-2
   51ba0:	e0fffd17 	ldw	r3,-12(fp)
   51ba4:	18800115 	stw	r2,4(r3)
   51ba8:	e03fff15 	stw	zero,-4(fp)
   51bac:	00000f06 	br	51bec <altera_avalon_jtag_uart_ioctl+0xd4>
   51bb0:	e0bffd17 	ldw	r2,-12(fp)
   51bb4:	10c00117 	ldw	r3,4(r2)
   51bb8:	00a00034 	movhi	r2,32768
   51bbc:	10bfffc4 	addi	r2,r2,-1
   51bc0:	18800c26 	beq	r3,r2,51bf4 <altera_avalon_jtag_uart_ioctl+0xdc>
   51bc4:	e0bffd17 	ldw	r2,-12(fp)
   51bc8:	10c00917 	ldw	r3,36(r2)
   51bcc:	e0bffd17 	ldw	r2,-12(fp)
   51bd0:	10800117 	ldw	r2,4(r2)
   51bd4:	1885803a 	cmpltu	r2,r3,r2
   51bd8:	10c03fcc 	andi	r3,r2,255
   51bdc:	e0bffb17 	ldw	r2,-20(fp)
   51be0:	10c00015 	stw	r3,0(r2)
   51be4:	e03fff15 	stw	zero,-4(fp)
   51be8:	00000206 	br	51bf4 <altera_avalon_jtag_uart_ioctl+0xdc>
   51bec:	0001883a 	nop
   51bf0:	00000106 	br	51bf8 <altera_avalon_jtag_uart_ioctl+0xe0>
   51bf4:	0001883a 	nop
   51bf8:	e0bfff17 	ldw	r2,-4(fp)
   51bfc:	e037883a 	mov	sp,fp
   51c00:	df000017 	ldw	fp,0(sp)
   51c04:	dec00104 	addi	sp,sp,4
   51c08:	f800283a 	ret

00051c0c <altera_avalon_jtag_uart_read>:
   51c0c:	defff304 	addi	sp,sp,-52
   51c10:	dfc00c15 	stw	ra,48(sp)
   51c14:	df000b15 	stw	fp,44(sp)
   51c18:	df000b04 	addi	fp,sp,44
   51c1c:	e13ff815 	stw	r4,-32(fp)
   51c20:	e17ff715 	stw	r5,-36(fp)
   51c24:	e1bff615 	stw	r6,-40(fp)
   51c28:	e1fff515 	stw	r7,-44(fp)
   51c2c:	e0bff717 	ldw	r2,-36(fp)
   51c30:	e0bfff15 	stw	r2,-4(fp)
   51c34:	00004706 	br	51d54 <altera_avalon_jtag_uart_read+0x148>
   51c38:	e0bff817 	ldw	r2,-32(fp)
   51c3c:	10800a17 	ldw	r2,40(r2)
   51c40:	e0bffd15 	stw	r2,-12(fp)
   51c44:	e0bff817 	ldw	r2,-32(fp)
   51c48:	10800b17 	ldw	r2,44(r2)
   51c4c:	e0bffc15 	stw	r2,-16(fp)
   51c50:	e0fffd17 	ldw	r3,-12(fp)
   51c54:	e0bffc17 	ldw	r2,-16(fp)
   51c58:	18800536 	bltu	r3,r2,51c70 <altera_avalon_jtag_uart_read+0x64>
   51c5c:	e0fffd17 	ldw	r3,-12(fp)
   51c60:	e0bffc17 	ldw	r2,-16(fp)
   51c64:	1885c83a 	sub	r2,r3,r2
   51c68:	e0bffe15 	stw	r2,-8(fp)
   51c6c:	00000406 	br	51c80 <altera_avalon_jtag_uart_read+0x74>
   51c70:	00c20004 	movi	r3,2048
   51c74:	e0bffc17 	ldw	r2,-16(fp)
   51c78:	1885c83a 	sub	r2,r3,r2
   51c7c:	e0bffe15 	stw	r2,-8(fp)
   51c80:	e0bffe17 	ldw	r2,-8(fp)
   51c84:	10001e26 	beq	r2,zero,51d00 <altera_avalon_jtag_uart_read+0xf4>
   51c88:	e0fff617 	ldw	r3,-40(fp)
   51c8c:	e0bffe17 	ldw	r2,-8(fp)
   51c90:	1880022e 	bgeu	r3,r2,51c9c <altera_avalon_jtag_uart_read+0x90>
   51c94:	e0bff617 	ldw	r2,-40(fp)
   51c98:	e0bffe15 	stw	r2,-8(fp)
   51c9c:	e0bff817 	ldw	r2,-32(fp)
   51ca0:	10c00e04 	addi	r3,r2,56
   51ca4:	e0bffc17 	ldw	r2,-16(fp)
   51ca8:	1885883a 	add	r2,r3,r2
   51cac:	e1bffe17 	ldw	r6,-8(fp)
   51cb0:	100b883a 	mov	r5,r2
   51cb4:	e13fff17 	ldw	r4,-4(fp)
   51cb8:	0047f040 	call	47f04 <memcpy>
   51cbc:	e0ffff17 	ldw	r3,-4(fp)
   51cc0:	e0bffe17 	ldw	r2,-8(fp)
   51cc4:	1885883a 	add	r2,r3,r2
   51cc8:	e0bfff15 	stw	r2,-4(fp)
   51ccc:	e0fff617 	ldw	r3,-40(fp)
   51cd0:	e0bffe17 	ldw	r2,-8(fp)
   51cd4:	1885c83a 	sub	r2,r3,r2
   51cd8:	e0bff615 	stw	r2,-40(fp)
   51cdc:	e0fffc17 	ldw	r3,-16(fp)
   51ce0:	e0bffe17 	ldw	r2,-8(fp)
   51ce4:	1885883a 	add	r2,r3,r2
   51ce8:	10c1ffcc 	andi	r3,r2,2047
   51cec:	e0bff817 	ldw	r2,-32(fp)
   51cf0:	10c00b15 	stw	r3,44(r2)
   51cf4:	e0bff617 	ldw	r2,-40(fp)
   51cf8:	00bfcf16 	blt	zero,r2,51c38 <altera_avalon_jtag_uart_read+0x2c>
   51cfc:	00000106 	br	51d04 <altera_avalon_jtag_uart_read+0xf8>
   51d00:	0001883a 	nop
   51d04:	e0ffff17 	ldw	r3,-4(fp)
   51d08:	e0bff717 	ldw	r2,-36(fp)
   51d0c:	1880141e 	bne	r3,r2,51d60 <altera_avalon_jtag_uart_read+0x154>
   51d10:	e0bff517 	ldw	r2,-44(fp)
   51d14:	1090000c 	andi	r2,r2,16384
   51d18:	1000131e 	bne	r2,zero,51d68 <altera_avalon_jtag_uart_read+0x15c>
   51d1c:	0001883a 	nop
   51d20:	e0bff817 	ldw	r2,-32(fp)
   51d24:	10800a17 	ldw	r2,40(r2)
   51d28:	e0fffd17 	ldw	r3,-12(fp)
   51d2c:	1880051e 	bne	r3,r2,51d44 <altera_avalon_jtag_uart_read+0x138>
   51d30:	e0bff817 	ldw	r2,-32(fp)
   51d34:	10c00917 	ldw	r3,36(r2)
   51d38:	e0bff817 	ldw	r2,-32(fp)
   51d3c:	10800117 	ldw	r2,4(r2)
   51d40:	18bff736 	bltu	r3,r2,51d20 <altera_avalon_jtag_uart_read+0x114>
   51d44:	e0bff817 	ldw	r2,-32(fp)
   51d48:	10800a17 	ldw	r2,40(r2)
   51d4c:	e0fffd17 	ldw	r3,-12(fp)
   51d50:	18800726 	beq	r3,r2,51d70 <altera_avalon_jtag_uart_read+0x164>
   51d54:	e0bff617 	ldw	r2,-40(fp)
   51d58:	00bfb716 	blt	zero,r2,51c38 <altera_avalon_jtag_uart_read+0x2c>
   51d5c:	00000506 	br	51d74 <altera_avalon_jtag_uart_read+0x168>
   51d60:	0001883a 	nop
   51d64:	00000306 	br	51d74 <altera_avalon_jtag_uart_read+0x168>
   51d68:	0001883a 	nop
   51d6c:	00000106 	br	51d74 <altera_avalon_jtag_uart_read+0x168>
   51d70:	0001883a 	nop
   51d74:	e0ffff17 	ldw	r3,-4(fp)
   51d78:	e0bff717 	ldw	r2,-36(fp)
   51d7c:	18801926 	beq	r3,r2,51de4 <altera_avalon_jtag_uart_read+0x1d8>
   51d80:	0005303a 	rdctl	r2,status
   51d84:	e0bff915 	stw	r2,-28(fp)
   51d88:	e0fff917 	ldw	r3,-28(fp)
   51d8c:	00bfff84 	movi	r2,-2
   51d90:	1884703a 	and	r2,r3,r2
   51d94:	1001703a 	wrctl	status,r2
   51d98:	e0bff917 	ldw	r2,-28(fp)
   51d9c:	e0bffb15 	stw	r2,-20(fp)
   51da0:	e0bff817 	ldw	r2,-32(fp)
   51da4:	10800817 	ldw	r2,32(r2)
   51da8:	10c00054 	ori	r3,r2,1
   51dac:	e0bff817 	ldw	r2,-32(fp)
   51db0:	10c00815 	stw	r3,32(r2)
   51db4:	e0bff817 	ldw	r2,-32(fp)
   51db8:	10800017 	ldw	r2,0(r2)
   51dbc:	10800104 	addi	r2,r2,4
   51dc0:	1007883a 	mov	r3,r2
   51dc4:	e0bff817 	ldw	r2,-32(fp)
   51dc8:	10800817 	ldw	r2,32(r2)
   51dcc:	18800035 	stwio	r2,0(r3)
   51dd0:	e0bffb17 	ldw	r2,-20(fp)
   51dd4:	e0bffa15 	stw	r2,-24(fp)
   51dd8:	e0bffa17 	ldw	r2,-24(fp)
   51ddc:	1001703a 	wrctl	status,r2
   51de0:	0001883a 	nop
   51de4:	e0ffff17 	ldw	r3,-4(fp)
   51de8:	e0bff717 	ldw	r2,-36(fp)
   51dec:	18800426 	beq	r3,r2,51e00 <altera_avalon_jtag_uart_read+0x1f4>
   51df0:	e0ffff17 	ldw	r3,-4(fp)
   51df4:	e0bff717 	ldw	r2,-36(fp)
   51df8:	1885c83a 	sub	r2,r3,r2
   51dfc:	00000606 	br	51e18 <altera_avalon_jtag_uart_read+0x20c>
   51e00:	e0bff517 	ldw	r2,-44(fp)
   51e04:	1090000c 	andi	r2,r2,16384
   51e08:	10000226 	beq	r2,zero,51e14 <altera_avalon_jtag_uart_read+0x208>
   51e0c:	00bffd44 	movi	r2,-11
   51e10:	00000106 	br	51e18 <altera_avalon_jtag_uart_read+0x20c>
   51e14:	00bffec4 	movi	r2,-5
   51e18:	e037883a 	mov	sp,fp
   51e1c:	dfc00117 	ldw	ra,4(sp)
   51e20:	df000017 	ldw	fp,0(sp)
   51e24:	dec00204 	addi	sp,sp,8
   51e28:	f800283a 	ret

00051e2c <altera_avalon_jtag_uart_write>:
   51e2c:	defff304 	addi	sp,sp,-52
   51e30:	dfc00c15 	stw	ra,48(sp)
   51e34:	df000b15 	stw	fp,44(sp)
   51e38:	df000b04 	addi	fp,sp,44
   51e3c:	e13ff815 	stw	r4,-32(fp)
   51e40:	e17ff715 	stw	r5,-36(fp)
   51e44:	e1bff615 	stw	r6,-40(fp)
   51e48:	e1fff515 	stw	r7,-44(fp)
   51e4c:	e03fff15 	stw	zero,-4(fp)
   51e50:	e0bff717 	ldw	r2,-36(fp)
   51e54:	e0bffd15 	stw	r2,-12(fp)
   51e58:	00003706 	br	51f38 <altera_avalon_jtag_uart_write+0x10c>
   51e5c:	e0bff817 	ldw	r2,-32(fp)
   51e60:	10800c17 	ldw	r2,48(r2)
   51e64:	e0bffc15 	stw	r2,-16(fp)
   51e68:	e0bff817 	ldw	r2,-32(fp)
   51e6c:	10800d17 	ldw	r2,52(r2)
   51e70:	e0bfff15 	stw	r2,-4(fp)
   51e74:	e0fffc17 	ldw	r3,-16(fp)
   51e78:	e0bfff17 	ldw	r2,-4(fp)
   51e7c:	1880062e 	bgeu	r3,r2,51e98 <altera_avalon_jtag_uart_write+0x6c>
   51e80:	e0ffff17 	ldw	r3,-4(fp)
   51e84:	e0bffc17 	ldw	r2,-16(fp)
   51e88:	1885c83a 	sub	r2,r3,r2
   51e8c:	10bfffc4 	addi	r2,r2,-1
   51e90:	e0bffe15 	stw	r2,-8(fp)
   51e94:	00000b06 	br	51ec4 <altera_avalon_jtag_uart_write+0x98>
   51e98:	e0bfff17 	ldw	r2,-4(fp)
   51e9c:	10000526 	beq	r2,zero,51eb4 <altera_avalon_jtag_uart_write+0x88>
   51ea0:	00c20004 	movi	r3,2048
   51ea4:	e0bffc17 	ldw	r2,-16(fp)
   51ea8:	1885c83a 	sub	r2,r3,r2
   51eac:	e0bffe15 	stw	r2,-8(fp)
   51eb0:	00000406 	br	51ec4 <altera_avalon_jtag_uart_write+0x98>
   51eb4:	00c1ffc4 	movi	r3,2047
   51eb8:	e0bffc17 	ldw	r2,-16(fp)
   51ebc:	1885c83a 	sub	r2,r3,r2
   51ec0:	e0bffe15 	stw	r2,-8(fp)
   51ec4:	e0bffe17 	ldw	r2,-8(fp)
   51ec8:	10001e26 	beq	r2,zero,51f44 <altera_avalon_jtag_uart_write+0x118>
   51ecc:	e0fff617 	ldw	r3,-40(fp)
   51ed0:	e0bffe17 	ldw	r2,-8(fp)
   51ed4:	1880022e 	bgeu	r3,r2,51ee0 <altera_avalon_jtag_uart_write+0xb4>
   51ed8:	e0bff617 	ldw	r2,-40(fp)
   51edc:	e0bffe15 	stw	r2,-8(fp)
   51ee0:	e0bff817 	ldw	r2,-32(fp)
   51ee4:	10c20e04 	addi	r3,r2,2104
   51ee8:	e0bffc17 	ldw	r2,-16(fp)
   51eec:	1885883a 	add	r2,r3,r2
   51ef0:	e1bffe17 	ldw	r6,-8(fp)
   51ef4:	e17ff717 	ldw	r5,-36(fp)
   51ef8:	1009883a 	mov	r4,r2
   51efc:	0047f040 	call	47f04 <memcpy>
   51f00:	e0fff717 	ldw	r3,-36(fp)
   51f04:	e0bffe17 	ldw	r2,-8(fp)
   51f08:	1885883a 	add	r2,r3,r2
   51f0c:	e0bff715 	stw	r2,-36(fp)
   51f10:	e0fff617 	ldw	r3,-40(fp)
   51f14:	e0bffe17 	ldw	r2,-8(fp)
   51f18:	1885c83a 	sub	r2,r3,r2
   51f1c:	e0bff615 	stw	r2,-40(fp)
   51f20:	e0fffc17 	ldw	r3,-16(fp)
   51f24:	e0bffe17 	ldw	r2,-8(fp)
   51f28:	1885883a 	add	r2,r3,r2
   51f2c:	10c1ffcc 	andi	r3,r2,2047
   51f30:	e0bff817 	ldw	r2,-32(fp)
   51f34:	10c00c15 	stw	r3,48(r2)
   51f38:	e0bff617 	ldw	r2,-40(fp)
   51f3c:	00bfc716 	blt	zero,r2,51e5c <altera_avalon_jtag_uart_write+0x30>
   51f40:	00000106 	br	51f48 <altera_avalon_jtag_uart_write+0x11c>
   51f44:	0001883a 	nop
   51f48:	0005303a 	rdctl	r2,status
   51f4c:	e0bff915 	stw	r2,-28(fp)
   51f50:	e0fff917 	ldw	r3,-28(fp)
   51f54:	00bfff84 	movi	r2,-2
   51f58:	1884703a 	and	r2,r3,r2
   51f5c:	1001703a 	wrctl	status,r2
   51f60:	e0bff917 	ldw	r2,-28(fp)
   51f64:	e0bffb15 	stw	r2,-20(fp)
   51f68:	e0bff817 	ldw	r2,-32(fp)
   51f6c:	10800817 	ldw	r2,32(r2)
   51f70:	10c00094 	ori	r3,r2,2
   51f74:	e0bff817 	ldw	r2,-32(fp)
   51f78:	10c00815 	stw	r3,32(r2)
   51f7c:	e0bff817 	ldw	r2,-32(fp)
   51f80:	10800017 	ldw	r2,0(r2)
   51f84:	10800104 	addi	r2,r2,4
   51f88:	1007883a 	mov	r3,r2
   51f8c:	e0bff817 	ldw	r2,-32(fp)
   51f90:	10800817 	ldw	r2,32(r2)
   51f94:	18800035 	stwio	r2,0(r3)
   51f98:	e0bffb17 	ldw	r2,-20(fp)
   51f9c:	e0bffa15 	stw	r2,-24(fp)
   51fa0:	e0bffa17 	ldw	r2,-24(fp)
   51fa4:	1001703a 	wrctl	status,r2
   51fa8:	0001883a 	nop
   51fac:	e0bff617 	ldw	r2,-40(fp)
   51fb0:	0080100e 	bge	zero,r2,51ff4 <altera_avalon_jtag_uart_write+0x1c8>
   51fb4:	e0bff517 	ldw	r2,-44(fp)
   51fb8:	1090000c 	andi	r2,r2,16384
   51fbc:	1000101e 	bne	r2,zero,52000 <altera_avalon_jtag_uart_write+0x1d4>
   51fc0:	0001883a 	nop
   51fc4:	e0bff817 	ldw	r2,-32(fp)
   51fc8:	10800d17 	ldw	r2,52(r2)
   51fcc:	e0ffff17 	ldw	r3,-4(fp)
   51fd0:	1880051e 	bne	r3,r2,51fe8 <altera_avalon_jtag_uart_write+0x1bc>
   51fd4:	e0bff817 	ldw	r2,-32(fp)
   51fd8:	10c00917 	ldw	r3,36(r2)
   51fdc:	e0bff817 	ldw	r2,-32(fp)
   51fe0:	10800117 	ldw	r2,4(r2)
   51fe4:	18bff736 	bltu	r3,r2,51fc4 <altera_avalon_jtag_uart_write+0x198>
   51fe8:	e0bff817 	ldw	r2,-32(fp)
   51fec:	10800917 	ldw	r2,36(r2)
   51ff0:	1000051e 	bne	r2,zero,52008 <altera_avalon_jtag_uart_write+0x1dc>
   51ff4:	e0bff617 	ldw	r2,-40(fp)
   51ff8:	00bfcf16 	blt	zero,r2,51f38 <altera_avalon_jtag_uart_write+0x10c>
   51ffc:	00000306 	br	5200c <altera_avalon_jtag_uart_write+0x1e0>
   52000:	0001883a 	nop
   52004:	00000106 	br	5200c <altera_avalon_jtag_uart_write+0x1e0>
   52008:	0001883a 	nop
   5200c:	e0fff717 	ldw	r3,-36(fp)
   52010:	e0bffd17 	ldw	r2,-12(fp)
   52014:	18800426 	beq	r3,r2,52028 <altera_avalon_jtag_uart_write+0x1fc>
   52018:	e0fff717 	ldw	r3,-36(fp)
   5201c:	e0bffd17 	ldw	r2,-12(fp)
   52020:	1885c83a 	sub	r2,r3,r2
   52024:	00000606 	br	52040 <altera_avalon_jtag_uart_write+0x214>
   52028:	e0bff517 	ldw	r2,-44(fp)
   5202c:	1090000c 	andi	r2,r2,16384
   52030:	10000226 	beq	r2,zero,5203c <altera_avalon_jtag_uart_write+0x210>
   52034:	00bffd44 	movi	r2,-11
   52038:	00000106 	br	52040 <altera_avalon_jtag_uart_write+0x214>
   5203c:	00bffec4 	movi	r2,-5
   52040:	e037883a 	mov	sp,fp
   52044:	dfc00117 	ldw	ra,4(sp)
   52048:	df000017 	ldw	fp,0(sp)
   5204c:	dec00204 	addi	sp,sp,8
   52050:	f800283a 	ret

00052054 <alt_alarm_start>:
   52054:	defff504 	addi	sp,sp,-44
   52058:	df000a15 	stw	fp,40(sp)
   5205c:	df000a04 	addi	fp,sp,40
   52060:	e13ff915 	stw	r4,-28(fp)
   52064:	e17ff815 	stw	r5,-32(fp)
   52068:	e1bff715 	stw	r6,-36(fp)
   5206c:	e1fff615 	stw	r7,-40(fp)
   52070:	e03fff15 	stw	zero,-4(fp)
   52074:	d0a72817 	ldw	r2,-25440(gp)
   52078:	10003e26 	beq	r2,zero,52174 <alt_alarm_start+0x120>
   5207c:	e0bff917 	ldw	r2,-28(fp)
   52080:	10003a26 	beq	r2,zero,5216c <alt_alarm_start+0x118>
   52084:	e0bff917 	ldw	r2,-28(fp)
   52088:	e0fff717 	ldw	r3,-36(fp)
   5208c:	10c00315 	stw	r3,12(r2)
   52090:	e0bff917 	ldw	r2,-28(fp)
   52094:	e0fff617 	ldw	r3,-40(fp)
   52098:	10c00515 	stw	r3,20(r2)
   5209c:	0005303a 	rdctl	r2,status
   520a0:	e0bffd15 	stw	r2,-12(fp)
   520a4:	e0fffd17 	ldw	r3,-12(fp)
   520a8:	00bfff84 	movi	r2,-2
   520ac:	1884703a 	and	r2,r3,r2
   520b0:	1001703a 	wrctl	status,r2
   520b4:	e0bffd17 	ldw	r2,-12(fp)
   520b8:	e0bffe15 	stw	r2,-8(fp)
   520bc:	d0a72917 	ldw	r2,-25436(gp)
   520c0:	e0bfff15 	stw	r2,-4(fp)
   520c4:	e0fff817 	ldw	r3,-32(fp)
   520c8:	e0bfff17 	ldw	r2,-4(fp)
   520cc:	1885883a 	add	r2,r3,r2
   520d0:	10c00044 	addi	r3,r2,1
   520d4:	e0bff917 	ldw	r2,-28(fp)
   520d8:	10c00215 	stw	r3,8(r2)
   520dc:	e0bff917 	ldw	r2,-28(fp)
   520e0:	10c00217 	ldw	r3,8(r2)
   520e4:	e0bfff17 	ldw	r2,-4(fp)
   520e8:	1880042e 	bgeu	r3,r2,520fc <alt_alarm_start+0xa8>
   520ec:	e0bff917 	ldw	r2,-28(fp)
   520f0:	00c00044 	movi	r3,1
   520f4:	10c00405 	stb	r3,16(r2)
   520f8:	00000206 	br	52104 <alt_alarm_start+0xb0>
   520fc:	e0bff917 	ldw	r2,-28(fp)
   52100:	10000405 	stb	zero,16(r2)
   52104:	e0bff917 	ldw	r2,-28(fp)
   52108:	d0e01704 	addi	r3,gp,-32676
   5210c:	e0fffb15 	stw	r3,-20(fp)
   52110:	e0bffa15 	stw	r2,-24(fp)
   52114:	e0bffa17 	ldw	r2,-24(fp)
   52118:	e0fffb17 	ldw	r3,-20(fp)
   5211c:	10c00115 	stw	r3,4(r2)
   52120:	e0bffb17 	ldw	r2,-20(fp)
   52124:	10c00017 	ldw	r3,0(r2)
   52128:	e0bffa17 	ldw	r2,-24(fp)
   5212c:	10c00015 	stw	r3,0(r2)
   52130:	e0bffb17 	ldw	r2,-20(fp)
   52134:	10800017 	ldw	r2,0(r2)
   52138:	e0fffa17 	ldw	r3,-24(fp)
   5213c:	10c00115 	stw	r3,4(r2)
   52140:	e0bffb17 	ldw	r2,-20(fp)
   52144:	e0fffa17 	ldw	r3,-24(fp)
   52148:	10c00015 	stw	r3,0(r2)
   5214c:	0001883a 	nop
   52150:	e0bffe17 	ldw	r2,-8(fp)
   52154:	e0bffc15 	stw	r2,-16(fp)
   52158:	e0bffc17 	ldw	r2,-16(fp)
   5215c:	1001703a 	wrctl	status,r2
   52160:	0001883a 	nop
   52164:	0005883a 	mov	r2,zero
   52168:	00000306 	br	52178 <alt_alarm_start+0x124>
   5216c:	00bffa84 	movi	r2,-22
   52170:	00000106 	br	52178 <alt_alarm_start+0x124>
   52174:	00bfde84 	movi	r2,-134
   52178:	e037883a 	mov	sp,fp
   5217c:	df000017 	ldw	fp,0(sp)
   52180:	dec00104 	addi	sp,sp,4
   52184:	f800283a 	ret

00052188 <alt_dcache_flush_all>:
   52188:	defffe04 	addi	sp,sp,-8
   5218c:	df000115 	stw	fp,4(sp)
   52190:	df000104 	addi	fp,sp,4
   52194:	e03fff15 	stw	zero,-4(fp)
   52198:	00000506 	br	521b0 <alt_dcache_flush_all+0x28>
   5219c:	e0bfff17 	ldw	r2,-4(fp)
   521a0:	1000003b 	flushd	0(r2)
   521a4:	e0bfff17 	ldw	r2,-4(fp)
   521a8:	10800804 	addi	r2,r2,32
   521ac:	e0bfff15 	stw	r2,-4(fp)
   521b0:	e0bfff17 	ldw	r2,-4(fp)
   521b4:	10820030 	cmpltui	r2,r2,2048
   521b8:	103ff81e 	bne	r2,zero,5219c <alt_dcache_flush_all+0x14>
   521bc:	0001883a 	nop
   521c0:	0001883a 	nop
   521c4:	e037883a 	mov	sp,fp
   521c8:	df000017 	ldw	fp,0(sp)
   521cc:	dec00104 	addi	sp,sp,4
   521d0:	f800283a 	ret

000521d4 <alt_get_errno>:
   521d4:	defffe04 	addi	sp,sp,-8
   521d8:	dfc00115 	stw	ra,4(sp)
   521dc:	df000015 	stw	fp,0(sp)
   521e0:	d839883a 	mov	fp,sp
   521e4:	d0a01417 	ldw	r2,-32688(gp)
   521e8:	10000326 	beq	r2,zero,521f8 <alt_get_errno+0x24>
   521ec:	d0a01417 	ldw	r2,-32688(gp)
   521f0:	103ee83a 	callr	r2
   521f4:	00000106 	br	521fc <alt_get_errno+0x28>
   521f8:	d0a72204 	addi	r2,gp,-25464
   521fc:	e037883a 	mov	sp,fp
   52200:	dfc00117 	ldw	ra,4(sp)
   52204:	df000017 	ldw	fp,0(sp)
   52208:	dec00204 	addi	sp,sp,8
   5220c:	f800283a 	ret

00052210 <alt_dev_llist_insert>:
   52210:	defffa04 	addi	sp,sp,-24
   52214:	dfc00515 	stw	ra,20(sp)
   52218:	df000415 	stw	fp,16(sp)
   5221c:	df000404 	addi	fp,sp,16
   52220:	e13ffd15 	stw	r4,-12(fp)
   52224:	e17ffc15 	stw	r5,-16(fp)
   52228:	e0bffd17 	ldw	r2,-12(fp)
   5222c:	10000326 	beq	r2,zero,5223c <alt_dev_llist_insert+0x2c>
   52230:	e0bffd17 	ldw	r2,-12(fp)
   52234:	10800217 	ldw	r2,8(r2)
   52238:	1000061e 	bne	r2,zero,52254 <alt_dev_llist_insert+0x44>
   5223c:	00521d40 	call	521d4 <alt_get_errno>
   52240:	1007883a 	mov	r3,r2
   52244:	00800584 	movi	r2,22
   52248:	18800015 	stw	r2,0(r3)
   5224c:	00bffa84 	movi	r2,-22
   52250:	00001406 	br	522a4 <alt_dev_llist_insert+0x94>
   52254:	e0bffd17 	ldw	r2,-12(fp)
   52258:	e0fffc17 	ldw	r3,-16(fp)
   5225c:	e0ffff15 	stw	r3,-4(fp)
   52260:	e0bffe15 	stw	r2,-8(fp)
   52264:	e0bffe17 	ldw	r2,-8(fp)
   52268:	e0ffff17 	ldw	r3,-4(fp)
   5226c:	10c00115 	stw	r3,4(r2)
   52270:	e0bfff17 	ldw	r2,-4(fp)
   52274:	10c00017 	ldw	r3,0(r2)
   52278:	e0bffe17 	ldw	r2,-8(fp)
   5227c:	10c00015 	stw	r3,0(r2)
   52280:	e0bfff17 	ldw	r2,-4(fp)
   52284:	10800017 	ldw	r2,0(r2)
   52288:	e0fffe17 	ldw	r3,-8(fp)
   5228c:	10c00115 	stw	r3,4(r2)
   52290:	e0bfff17 	ldw	r2,-4(fp)
   52294:	e0fffe17 	ldw	r3,-8(fp)
   52298:	10c00015 	stw	r3,0(r2)
   5229c:	0001883a 	nop
   522a0:	0005883a 	mov	r2,zero
   522a4:	e037883a 	mov	sp,fp
   522a8:	dfc00117 	ldw	ra,4(sp)
   522ac:	df000017 	ldw	fp,0(sp)
   522b0:	dec00204 	addi	sp,sp,8
   522b4:	f800283a 	ret

000522b8 <_do_ctors>:
   522b8:	defffd04 	addi	sp,sp,-12
   522bc:	dfc00215 	stw	ra,8(sp)
   522c0:	df000115 	stw	fp,4(sp)
   522c4:	df000104 	addi	fp,sp,4
   522c8:	00800174 	movhi	r2,5
   522cc:	108c6904 	addi	r2,r2,12708
   522d0:	e0bfff15 	stw	r2,-4(fp)
   522d4:	00000606 	br	522f0 <_do_ctors+0x38>
   522d8:	e0bfff17 	ldw	r2,-4(fp)
   522dc:	10800017 	ldw	r2,0(r2)
   522e0:	103ee83a 	callr	r2
   522e4:	e0bfff17 	ldw	r2,-4(fp)
   522e8:	10bfff04 	addi	r2,r2,-4
   522ec:	e0bfff15 	stw	r2,-4(fp)
   522f0:	e0ffff17 	ldw	r3,-4(fp)
   522f4:	00800174 	movhi	r2,5
   522f8:	108c6844 	addi	r2,r2,12705
   522fc:	18bff62e 	bgeu	r3,r2,522d8 <_do_ctors+0x20>
   52300:	0001883a 	nop
   52304:	0001883a 	nop
   52308:	e037883a 	mov	sp,fp
   5230c:	dfc00117 	ldw	ra,4(sp)
   52310:	df000017 	ldw	fp,0(sp)
   52314:	dec00204 	addi	sp,sp,8
   52318:	f800283a 	ret

0005231c <_do_dtors>:
   5231c:	defffd04 	addi	sp,sp,-12
   52320:	dfc00215 	stw	ra,8(sp)
   52324:	df000115 	stw	fp,4(sp)
   52328:	df000104 	addi	fp,sp,4
   5232c:	00800174 	movhi	r2,5
   52330:	108c6904 	addi	r2,r2,12708
   52334:	e0bfff15 	stw	r2,-4(fp)
   52338:	00000606 	br	52354 <_do_dtors+0x38>
   5233c:	e0bfff17 	ldw	r2,-4(fp)
   52340:	10800017 	ldw	r2,0(r2)
   52344:	103ee83a 	callr	r2
   52348:	e0bfff17 	ldw	r2,-4(fp)
   5234c:	10bfff04 	addi	r2,r2,-4
   52350:	e0bfff15 	stw	r2,-4(fp)
   52354:	e0ffff17 	ldw	r3,-4(fp)
   52358:	00800174 	movhi	r2,5
   5235c:	108c6a04 	addi	r2,r2,12712
   52360:	18bff62e 	bgeu	r3,r2,5233c <_do_dtors+0x20>
   52364:	0001883a 	nop
   52368:	0001883a 	nop
   5236c:	e037883a 	mov	sp,fp
   52370:	dfc00117 	ldw	ra,4(sp)
   52374:	df000017 	ldw	fp,0(sp)
   52378:	dec00204 	addi	sp,sp,8
   5237c:	f800283a 	ret

00052380 <alt_icache_flush_all>:
   52380:	defffe04 	addi	sp,sp,-8
   52384:	dfc00115 	stw	ra,4(sp)
   52388:	df000015 	stw	fp,0(sp)
   5238c:	d839883a 	mov	fp,sp
   52390:	01440004 	movi	r5,4096
   52394:	0009883a 	mov	r4,zero
   52398:	0052dc80 	call	52dc8 <alt_icache_flush>
   5239c:	0001883a 	nop
   523a0:	e037883a 	mov	sp,fp
   523a4:	dfc00117 	ldw	ra,4(sp)
   523a8:	df000017 	ldw	fp,0(sp)
   523ac:	dec00204 	addi	sp,sp,8
   523b0:	f800283a 	ret

000523b4 <alt_ic_isr_register>:
   523b4:	defff904 	addi	sp,sp,-28
   523b8:	dfc00615 	stw	ra,24(sp)
   523bc:	df000515 	stw	fp,20(sp)
   523c0:	df000504 	addi	fp,sp,20
   523c4:	e13fff15 	stw	r4,-4(fp)
   523c8:	e17ffe15 	stw	r5,-8(fp)
   523cc:	e1bffd15 	stw	r6,-12(fp)
   523d0:	e1fffc15 	stw	r7,-16(fp)
   523d4:	e0800217 	ldw	r2,8(fp)
   523d8:	d8800015 	stw	r2,0(sp)
   523dc:	e1fffc17 	ldw	r7,-16(fp)
   523e0:	e1bffd17 	ldw	r6,-12(fp)
   523e4:	e17ffe17 	ldw	r5,-8(fp)
   523e8:	e13fff17 	ldw	r4,-4(fp)
   523ec:	00525640 	call	52564 <alt_iic_isr_register>
   523f0:	e037883a 	mov	sp,fp
   523f4:	dfc00117 	ldw	ra,4(sp)
   523f8:	df000017 	ldw	fp,0(sp)
   523fc:	dec00204 	addi	sp,sp,8
   52400:	f800283a 	ret

00052404 <alt_ic_irq_enable>:
   52404:	defff904 	addi	sp,sp,-28
   52408:	df000615 	stw	fp,24(sp)
   5240c:	df000604 	addi	fp,sp,24
   52410:	e13ffb15 	stw	r4,-20(fp)
   52414:	e17ffa15 	stw	r5,-24(fp)
   52418:	e0bffa17 	ldw	r2,-24(fp)
   5241c:	e0bfff15 	stw	r2,-4(fp)
   52420:	0005303a 	rdctl	r2,status
   52424:	e0bffe15 	stw	r2,-8(fp)
   52428:	e0fffe17 	ldw	r3,-8(fp)
   5242c:	00bfff84 	movi	r2,-2
   52430:	1884703a 	and	r2,r3,r2
   52434:	1001703a 	wrctl	status,r2
   52438:	e0bffe17 	ldw	r2,-8(fp)
   5243c:	e0bffd15 	stw	r2,-12(fp)
   52440:	00c00044 	movi	r3,1
   52444:	e0bfff17 	ldw	r2,-4(fp)
   52448:	1884983a 	sll	r2,r3,r2
   5244c:	1007883a 	mov	r3,r2
   52450:	d0a72717 	ldw	r2,-25444(gp)
   52454:	1884b03a 	or	r2,r3,r2
   52458:	d0a72715 	stw	r2,-25444(gp)
   5245c:	d0a72717 	ldw	r2,-25444(gp)
   52460:	100170fa 	wrctl	ienable,r2
   52464:	e0bffd17 	ldw	r2,-12(fp)
   52468:	e0bffc15 	stw	r2,-16(fp)
   5246c:	e0bffc17 	ldw	r2,-16(fp)
   52470:	1001703a 	wrctl	status,r2
   52474:	0001883a 	nop
   52478:	0005883a 	mov	r2,zero
   5247c:	e037883a 	mov	sp,fp
   52480:	df000017 	ldw	fp,0(sp)
   52484:	dec00104 	addi	sp,sp,4
   52488:	f800283a 	ret

0005248c <alt_ic_irq_disable>:
   5248c:	defff904 	addi	sp,sp,-28
   52490:	df000615 	stw	fp,24(sp)
   52494:	df000604 	addi	fp,sp,24
   52498:	e13ffb15 	stw	r4,-20(fp)
   5249c:	e17ffa15 	stw	r5,-24(fp)
   524a0:	e0bffa17 	ldw	r2,-24(fp)
   524a4:	e0bfff15 	stw	r2,-4(fp)
   524a8:	0005303a 	rdctl	r2,status
   524ac:	e0bffe15 	stw	r2,-8(fp)
   524b0:	e0fffe17 	ldw	r3,-8(fp)
   524b4:	00bfff84 	movi	r2,-2
   524b8:	1884703a 	and	r2,r3,r2
   524bc:	1001703a 	wrctl	status,r2
   524c0:	e0bffe17 	ldw	r2,-8(fp)
   524c4:	e0bffd15 	stw	r2,-12(fp)
   524c8:	00c00044 	movi	r3,1
   524cc:	e0bfff17 	ldw	r2,-4(fp)
   524d0:	1884983a 	sll	r2,r3,r2
   524d4:	0084303a 	nor	r2,zero,r2
   524d8:	1007883a 	mov	r3,r2
   524dc:	d0a72717 	ldw	r2,-25444(gp)
   524e0:	1884703a 	and	r2,r3,r2
   524e4:	d0a72715 	stw	r2,-25444(gp)
   524e8:	d0a72717 	ldw	r2,-25444(gp)
   524ec:	100170fa 	wrctl	ienable,r2
   524f0:	e0bffd17 	ldw	r2,-12(fp)
   524f4:	e0bffc15 	stw	r2,-16(fp)
   524f8:	e0bffc17 	ldw	r2,-16(fp)
   524fc:	1001703a 	wrctl	status,r2
   52500:	0001883a 	nop
   52504:	0005883a 	mov	r2,zero
   52508:	e037883a 	mov	sp,fp
   5250c:	df000017 	ldw	fp,0(sp)
   52510:	dec00104 	addi	sp,sp,4
   52514:	f800283a 	ret

00052518 <alt_ic_irq_enabled>:
   52518:	defffc04 	addi	sp,sp,-16
   5251c:	df000315 	stw	fp,12(sp)
   52520:	df000304 	addi	fp,sp,12
   52524:	e13ffe15 	stw	r4,-8(fp)
   52528:	e17ffd15 	stw	r5,-12(fp)
   5252c:	000530fa 	rdctl	r2,ienable
   52530:	e0bfff15 	stw	r2,-4(fp)
   52534:	00c00044 	movi	r3,1
   52538:	e0bffd17 	ldw	r2,-12(fp)
   5253c:	1884983a 	sll	r2,r3,r2
   52540:	1007883a 	mov	r3,r2
   52544:	e0bfff17 	ldw	r2,-4(fp)
   52548:	1884703a 	and	r2,r3,r2
   5254c:	1004c03a 	cmpne	r2,r2,zero
   52550:	10803fcc 	andi	r2,r2,255
   52554:	e037883a 	mov	sp,fp
   52558:	df000017 	ldw	fp,0(sp)
   5255c:	dec00104 	addi	sp,sp,4
   52560:	f800283a 	ret

00052564 <alt_iic_isr_register>:
   52564:	defff504 	addi	sp,sp,-44
   52568:	dfc00a15 	stw	ra,40(sp)
   5256c:	df000915 	stw	fp,36(sp)
   52570:	df000904 	addi	fp,sp,36
   52574:	e13ffa15 	stw	r4,-24(fp)
   52578:	e17ff915 	stw	r5,-28(fp)
   5257c:	e1bff815 	stw	r6,-32(fp)
   52580:	e1fff715 	stw	r7,-36(fp)
   52584:	00bffa84 	movi	r2,-22
   52588:	e0bfff15 	stw	r2,-4(fp)
   5258c:	e0bff917 	ldw	r2,-28(fp)
   52590:	e0bffe15 	stw	r2,-8(fp)
   52594:	e0bffe17 	ldw	r2,-8(fp)
   52598:	10800808 	cmpgei	r2,r2,32
   5259c:	1000251e 	bne	r2,zero,52634 <alt_iic_isr_register+0xd0>
   525a0:	0005303a 	rdctl	r2,status
   525a4:	e0bffc15 	stw	r2,-16(fp)
   525a8:	e0fffc17 	ldw	r3,-16(fp)
   525ac:	00bfff84 	movi	r2,-2
   525b0:	1884703a 	and	r2,r3,r2
   525b4:	1001703a 	wrctl	status,r2
   525b8:	e0bffc17 	ldw	r2,-16(fp)
   525bc:	e0bffd15 	stw	r2,-12(fp)
   525c0:	e0bffe17 	ldw	r2,-8(fp)
   525c4:	100890fa 	slli	r4,r2,3
   525c8:	e0fff817 	ldw	r3,-32(fp)
   525cc:	00800174 	movhi	r2,5
   525d0:	2085883a 	add	r2,r4,r2
   525d4:	10dcae15 	stw	r3,29368(r2)
   525d8:	e0bffe17 	ldw	r2,-8(fp)
   525dc:	100890fa 	slli	r4,r2,3
   525e0:	e0fff717 	ldw	r3,-36(fp)
   525e4:	00800174 	movhi	r2,5
   525e8:	2085883a 	add	r2,r4,r2
   525ec:	10dcaf15 	stw	r3,29372(r2)
   525f0:	e0bff817 	ldw	r2,-32(fp)
   525f4:	10000526 	beq	r2,zero,5260c <alt_iic_isr_register+0xa8>
   525f8:	e0bffe17 	ldw	r2,-8(fp)
   525fc:	100b883a 	mov	r5,r2
   52600:	e13ffa17 	ldw	r4,-24(fp)
   52604:	00524040 	call	52404 <alt_ic_irq_enable>
   52608:	00000406 	br	5261c <alt_iic_isr_register+0xb8>
   5260c:	e0bffe17 	ldw	r2,-8(fp)
   52610:	100b883a 	mov	r5,r2
   52614:	e13ffa17 	ldw	r4,-24(fp)
   52618:	005248c0 	call	5248c <alt_ic_irq_disable>
   5261c:	e0bfff15 	stw	r2,-4(fp)
   52620:	e0bffd17 	ldw	r2,-12(fp)
   52624:	e0bffb15 	stw	r2,-20(fp)
   52628:	e0bffb17 	ldw	r2,-20(fp)
   5262c:	1001703a 	wrctl	status,r2
   52630:	0001883a 	nop
   52634:	e0bfff17 	ldw	r2,-4(fp)
   52638:	e037883a 	mov	sp,fp
   5263c:	dfc00117 	ldw	ra,4(sp)
   52640:	df000017 	ldw	fp,0(sp)
   52644:	dec00204 	addi	sp,sp,8
   52648:	f800283a 	ret

0005264c <alt_open_fd>:
   5264c:	defff904 	addi	sp,sp,-28
   52650:	dfc00615 	stw	ra,24(sp)
   52654:	df000515 	stw	fp,20(sp)
   52658:	df000504 	addi	fp,sp,20
   5265c:	e13ffe15 	stw	r4,-8(fp)
   52660:	e17ffd15 	stw	r5,-12(fp)
   52664:	e1bffc15 	stw	r6,-16(fp)
   52668:	e1fffb15 	stw	r7,-20(fp)
   5266c:	e1bffb17 	ldw	r6,-20(fp)
   52670:	e17ffc17 	ldw	r5,-16(fp)
   52674:	e13ffd17 	ldw	r4,-12(fp)
   52678:	005286c0 	call	5286c <open>
   5267c:	e0bfff15 	stw	r2,-4(fp)
   52680:	e0bfff17 	ldw	r2,-4(fp)
   52684:	10001716 	blt	r2,zero,526e4 <alt_open_fd+0x98>
   52688:	e0bfff17 	ldw	r2,-4(fp)
   5268c:	10c00324 	muli	r3,r2,12
   52690:	00800174 	movhi	r2,5
   52694:	1885883a 	add	r2,r3,r2
   52698:	10d0fd17 	ldw	r3,17396(r2)
   5269c:	e0bffe17 	ldw	r2,-8(fp)
   526a0:	10c00015 	stw	r3,0(r2)
   526a4:	e0bfff17 	ldw	r2,-4(fp)
   526a8:	10c00324 	muli	r3,r2,12
   526ac:	00800174 	movhi	r2,5
   526b0:	1885883a 	add	r2,r3,r2
   526b4:	10d0fe17 	ldw	r3,17400(r2)
   526b8:	e0bffe17 	ldw	r2,-8(fp)
   526bc:	10c00115 	stw	r3,4(r2)
   526c0:	e0bfff17 	ldw	r2,-4(fp)
   526c4:	10c00324 	muli	r3,r2,12
   526c8:	00800174 	movhi	r2,5
   526cc:	1885883a 	add	r2,r3,r2
   526d0:	10d0ff17 	ldw	r3,17404(r2)
   526d4:	e0bffe17 	ldw	r2,-8(fp)
   526d8:	10c00215 	stw	r3,8(r2)
   526dc:	e13fff17 	ldw	r4,-4(fp)
   526e0:	00512e40 	call	512e4 <alt_release_fd>
   526e4:	0001883a 	nop
   526e8:	e037883a 	mov	sp,fp
   526ec:	dfc00117 	ldw	ra,4(sp)
   526f0:	df000017 	ldw	fp,0(sp)
   526f4:	dec00204 	addi	sp,sp,8
   526f8:	f800283a 	ret

000526fc <alt_io_redirect>:
   526fc:	defffb04 	addi	sp,sp,-20
   52700:	dfc00415 	stw	ra,16(sp)
   52704:	df000315 	stw	fp,12(sp)
   52708:	df000304 	addi	fp,sp,12
   5270c:	e13fff15 	stw	r4,-4(fp)
   52710:	e17ffe15 	stw	r5,-8(fp)
   52714:	e1bffd15 	stw	r6,-12(fp)
   52718:	01c07fc4 	movi	r7,511
   5271c:	01800044 	movi	r6,1
   52720:	e17fff17 	ldw	r5,-4(fp)
   52724:	01000174 	movhi	r4,5
   52728:	21110004 	addi	r4,r4,17408
   5272c:	005264c0 	call	5264c <alt_open_fd>
   52730:	01c07fc4 	movi	r7,511
   52734:	000d883a 	mov	r6,zero
   52738:	e17ffe17 	ldw	r5,-8(fp)
   5273c:	01000174 	movhi	r4,5
   52740:	2110fd04 	addi	r4,r4,17396
   52744:	005264c0 	call	5264c <alt_open_fd>
   52748:	01c07fc4 	movi	r7,511
   5274c:	01800044 	movi	r6,1
   52750:	e17ffd17 	ldw	r5,-12(fp)
   52754:	01000174 	movhi	r4,5
   52758:	21110304 	addi	r4,r4,17420
   5275c:	005264c0 	call	5264c <alt_open_fd>
   52760:	0001883a 	nop
   52764:	e037883a 	mov	sp,fp
   52768:	dfc00117 	ldw	ra,4(sp)
   5276c:	df000017 	ldw	fp,0(sp)
   52770:	dec00204 	addi	sp,sp,8
   52774:	f800283a 	ret

00052778 <alt_get_errno>:
   52778:	defffe04 	addi	sp,sp,-8
   5277c:	dfc00115 	stw	ra,4(sp)
   52780:	df000015 	stw	fp,0(sp)
   52784:	d839883a 	mov	fp,sp
   52788:	d0a01417 	ldw	r2,-32688(gp)
   5278c:	10000326 	beq	r2,zero,5279c <alt_get_errno+0x24>
   52790:	d0a01417 	ldw	r2,-32688(gp)
   52794:	103ee83a 	callr	r2
   52798:	00000106 	br	527a0 <alt_get_errno+0x28>
   5279c:	d0a72204 	addi	r2,gp,-25464
   527a0:	e037883a 	mov	sp,fp
   527a4:	dfc00117 	ldw	ra,4(sp)
   527a8:	df000017 	ldw	fp,0(sp)
   527ac:	dec00204 	addi	sp,sp,8
   527b0:	f800283a 	ret

000527b4 <alt_file_locked>:
   527b4:	defffd04 	addi	sp,sp,-12
   527b8:	df000215 	stw	fp,8(sp)
   527bc:	df000204 	addi	fp,sp,8
   527c0:	e13ffe15 	stw	r4,-8(fp)
   527c4:	e0bffe17 	ldw	r2,-8(fp)
   527c8:	10800217 	ldw	r2,8(r2)
   527cc:	10d00034 	orhi	r3,r2,16384
   527d0:	e0bffe17 	ldw	r2,-8(fp)
   527d4:	10c00215 	stw	r3,8(r2)
   527d8:	e03fff15 	stw	zero,-4(fp)
   527dc:	00001a06 	br	52848 <alt_file_locked+0x94>
   527e0:	e0bfff17 	ldw	r2,-4(fp)
   527e4:	10c00324 	muli	r3,r2,12
   527e8:	00800174 	movhi	r2,5
   527ec:	1885883a 	add	r2,r3,r2
   527f0:	10d0fd17 	ldw	r3,17396(r2)
   527f4:	e0bffe17 	ldw	r2,-8(fp)
   527f8:	10800017 	ldw	r2,0(r2)
   527fc:	18800f1e 	bne	r3,r2,5283c <alt_file_locked+0x88>
   52800:	e0bfff17 	ldw	r2,-4(fp)
   52804:	10c00324 	muli	r3,r2,12
   52808:	00800174 	movhi	r2,5
   5280c:	1885883a 	add	r2,r3,r2
   52810:	1090ff17 	ldw	r2,17404(r2)
   52814:	1000090e 	bge	r2,zero,5283c <alt_file_locked+0x88>
   52818:	e0bfff17 	ldw	r2,-4(fp)
   5281c:	10c00324 	muli	r3,r2,12
   52820:	00800174 	movhi	r2,5
   52824:	1090fd04 	addi	r2,r2,17396
   52828:	1885883a 	add	r2,r3,r2
   5282c:	e0fffe17 	ldw	r3,-8(fp)
   52830:	18800226 	beq	r3,r2,5283c <alt_file_locked+0x88>
   52834:	00bffcc4 	movi	r2,-13
   52838:	00000806 	br	5285c <alt_file_locked+0xa8>
   5283c:	e0bfff17 	ldw	r2,-4(fp)
   52840:	10800044 	addi	r2,r2,1
   52844:	e0bfff15 	stw	r2,-4(fp)
   52848:	d0a01317 	ldw	r2,-32692(gp)
   5284c:	1007883a 	mov	r3,r2
   52850:	e0bfff17 	ldw	r2,-4(fp)
   52854:	18bfe22e 	bgeu	r3,r2,527e0 <alt_file_locked+0x2c>
   52858:	0005883a 	mov	r2,zero
   5285c:	e037883a 	mov	sp,fp
   52860:	df000017 	ldw	fp,0(sp)
   52864:	dec00104 	addi	sp,sp,4
   52868:	f800283a 	ret

0005286c <open>:
   5286c:	defff604 	addi	sp,sp,-40
   52870:	dfc00915 	stw	ra,36(sp)
   52874:	df000815 	stw	fp,32(sp)
   52878:	df000804 	addi	fp,sp,32
   5287c:	e13ffa15 	stw	r4,-24(fp)
   52880:	e17ff915 	stw	r5,-28(fp)
   52884:	e1bff815 	stw	r6,-32(fp)
   52888:	00bfffc4 	movi	r2,-1
   5288c:	e0bffe15 	stw	r2,-8(fp)
   52890:	00bffb44 	movi	r2,-19
   52894:	e0bffd15 	stw	r2,-12(fp)
   52898:	e03ffc15 	stw	zero,-16(fp)
   5289c:	d1601104 	addi	r5,gp,-32700
   528a0:	e13ffa17 	ldw	r4,-24(fp)
   528a4:	0052b900 	call	52b90 <alt_find_dev>
   528a8:	e0bfff15 	stw	r2,-4(fp)
   528ac:	e0bfff17 	ldw	r2,-4(fp)
   528b0:	1000051e 	bne	r2,zero,528c8 <open+0x5c>
   528b4:	e13ffa17 	ldw	r4,-24(fp)
   528b8:	0052c200 	call	52c20 <alt_find_file>
   528bc:	e0bfff15 	stw	r2,-4(fp)
   528c0:	00800044 	movi	r2,1
   528c4:	e0bffc15 	stw	r2,-16(fp)
   528c8:	e0bfff17 	ldw	r2,-4(fp)
   528cc:	10002926 	beq	r2,zero,52974 <open+0x108>
   528d0:	e13fff17 	ldw	r4,-4(fp)
   528d4:	0052d280 	call	52d28 <alt_get_fd>
   528d8:	e0bffe15 	stw	r2,-8(fp)
   528dc:	e0bffe17 	ldw	r2,-8(fp)
   528e0:	1000030e 	bge	r2,zero,528f0 <open+0x84>
   528e4:	e0bffe17 	ldw	r2,-8(fp)
   528e8:	e0bffd15 	stw	r2,-12(fp)
   528ec:	00002306 	br	5297c <open+0x110>
   528f0:	e0bffe17 	ldw	r2,-8(fp)
   528f4:	10c00324 	muli	r3,r2,12
   528f8:	00800174 	movhi	r2,5
   528fc:	1090fd04 	addi	r2,r2,17396
   52900:	1885883a 	add	r2,r3,r2
   52904:	e0bffb15 	stw	r2,-20(fp)
   52908:	e0fff917 	ldw	r3,-28(fp)
   5290c:	00900034 	movhi	r2,16384
   52910:	10bfffc4 	addi	r2,r2,-1
   52914:	1886703a 	and	r3,r3,r2
   52918:	e0bffb17 	ldw	r2,-20(fp)
   5291c:	10c00215 	stw	r3,8(r2)
   52920:	e0bffc17 	ldw	r2,-16(fp)
   52924:	1000051e 	bne	r2,zero,5293c <open+0xd0>
   52928:	e13ffb17 	ldw	r4,-20(fp)
   5292c:	00527b40 	call	527b4 <alt_file_locked>
   52930:	e0bffd15 	stw	r2,-12(fp)
   52934:	e0bffd17 	ldw	r2,-12(fp)
   52938:	10001016 	blt	r2,zero,5297c <open+0x110>
   5293c:	e0bfff17 	ldw	r2,-4(fp)
   52940:	10800317 	ldw	r2,12(r2)
   52944:	10000826 	beq	r2,zero,52968 <open+0xfc>
   52948:	e0bfff17 	ldw	r2,-4(fp)
   5294c:	10800317 	ldw	r2,12(r2)
   52950:	e1fff817 	ldw	r7,-32(fp)
   52954:	e1bff917 	ldw	r6,-28(fp)
   52958:	e17ffa17 	ldw	r5,-24(fp)
   5295c:	e13ffb17 	ldw	r4,-20(fp)
   52960:	103ee83a 	callr	r2
   52964:	00000106 	br	5296c <open+0x100>
   52968:	0005883a 	mov	r2,zero
   5296c:	e0bffd15 	stw	r2,-12(fp)
   52970:	00000206 	br	5297c <open+0x110>
   52974:	00bffb44 	movi	r2,-19
   52978:	e0bffd15 	stw	r2,-12(fp)
   5297c:	e0bffd17 	ldw	r2,-12(fp)
   52980:	1000090e 	bge	r2,zero,529a8 <open+0x13c>
   52984:	e13ffe17 	ldw	r4,-8(fp)
   52988:	00512e40 	call	512e4 <alt_release_fd>
   5298c:	00527780 	call	52778 <alt_get_errno>
   52990:	1007883a 	mov	r3,r2
   52994:	e0bffd17 	ldw	r2,-12(fp)
   52998:	0085c83a 	sub	r2,zero,r2
   5299c:	18800015 	stw	r2,0(r3)
   529a0:	00bfffc4 	movi	r2,-1
   529a4:	00000106 	br	529ac <open+0x140>
   529a8:	e0bffe17 	ldw	r2,-8(fp)
   529ac:	e037883a 	mov	sp,fp
   529b0:	dfc00117 	ldw	ra,4(sp)
   529b4:	df000017 	ldw	fp,0(sp)
   529b8:	dec00204 	addi	sp,sp,8
   529bc:	f800283a 	ret

000529c0 <alt_alarm_stop>:
   529c0:	defffa04 	addi	sp,sp,-24
   529c4:	df000515 	stw	fp,20(sp)
   529c8:	df000504 	addi	fp,sp,20
   529cc:	e13ffb15 	stw	r4,-20(fp)
   529d0:	0005303a 	rdctl	r2,status
   529d4:	e0bffc15 	stw	r2,-16(fp)
   529d8:	e0fffc17 	ldw	r3,-16(fp)
   529dc:	00bfff84 	movi	r2,-2
   529e0:	1884703a 	and	r2,r3,r2
   529e4:	1001703a 	wrctl	status,r2
   529e8:	e0bffc17 	ldw	r2,-16(fp)
   529ec:	e0bfff15 	stw	r2,-4(fp)
   529f0:	e0bffb17 	ldw	r2,-20(fp)
   529f4:	e0bffd15 	stw	r2,-12(fp)
   529f8:	e0bffd17 	ldw	r2,-12(fp)
   529fc:	10800017 	ldw	r2,0(r2)
   52a00:	e0fffd17 	ldw	r3,-12(fp)
   52a04:	18c00117 	ldw	r3,4(r3)
   52a08:	10c00115 	stw	r3,4(r2)
   52a0c:	e0bffd17 	ldw	r2,-12(fp)
   52a10:	10800117 	ldw	r2,4(r2)
   52a14:	e0fffd17 	ldw	r3,-12(fp)
   52a18:	18c00017 	ldw	r3,0(r3)
   52a1c:	10c00015 	stw	r3,0(r2)
   52a20:	e0bffd17 	ldw	r2,-12(fp)
   52a24:	e0fffd17 	ldw	r3,-12(fp)
   52a28:	10c00115 	stw	r3,4(r2)
   52a2c:	e0bffd17 	ldw	r2,-12(fp)
   52a30:	e0fffd17 	ldw	r3,-12(fp)
   52a34:	10c00015 	stw	r3,0(r2)
   52a38:	0001883a 	nop
   52a3c:	e0bfff17 	ldw	r2,-4(fp)
   52a40:	e0bffe15 	stw	r2,-8(fp)
   52a44:	e0bffe17 	ldw	r2,-8(fp)
   52a48:	1001703a 	wrctl	status,r2
   52a4c:	0001883a 	nop
   52a50:	0001883a 	nop
   52a54:	e037883a 	mov	sp,fp
   52a58:	df000017 	ldw	fp,0(sp)
   52a5c:	dec00104 	addi	sp,sp,4
   52a60:	f800283a 	ret

00052a64 <alt_tick>:
   52a64:	defffb04 	addi	sp,sp,-20
   52a68:	dfc00415 	stw	ra,16(sp)
   52a6c:	df000315 	stw	fp,12(sp)
   52a70:	df000304 	addi	fp,sp,12
   52a74:	d0a01717 	ldw	r2,-32676(gp)
   52a78:	e0bfff15 	stw	r2,-4(fp)
   52a7c:	d0a72917 	ldw	r2,-25436(gp)
   52a80:	10800044 	addi	r2,r2,1
   52a84:	d0a72915 	stw	r2,-25436(gp)
   52a88:	00002e06 	br	52b44 <alt_tick+0xe0>
   52a8c:	e0bfff17 	ldw	r2,-4(fp)
   52a90:	10800017 	ldw	r2,0(r2)
   52a94:	e0bffe15 	stw	r2,-8(fp)
   52a98:	e0bfff17 	ldw	r2,-4(fp)
   52a9c:	10800403 	ldbu	r2,16(r2)
   52aa0:	10803fcc 	andi	r2,r2,255
   52aa4:	10000426 	beq	r2,zero,52ab8 <alt_tick+0x54>
   52aa8:	d0a72917 	ldw	r2,-25436(gp)
   52aac:	1000021e 	bne	r2,zero,52ab8 <alt_tick+0x54>
   52ab0:	e0bfff17 	ldw	r2,-4(fp)
   52ab4:	10000405 	stb	zero,16(r2)
   52ab8:	e0bfff17 	ldw	r2,-4(fp)
   52abc:	10800217 	ldw	r2,8(r2)
   52ac0:	d0e72917 	ldw	r3,-25436(gp)
   52ac4:	18801d36 	bltu	r3,r2,52b3c <alt_tick+0xd8>
   52ac8:	e0bfff17 	ldw	r2,-4(fp)
   52acc:	10800403 	ldbu	r2,16(r2)
   52ad0:	10803fcc 	andi	r2,r2,255
   52ad4:	1000191e 	bne	r2,zero,52b3c <alt_tick+0xd8>
   52ad8:	e0bfff17 	ldw	r2,-4(fp)
   52adc:	10800317 	ldw	r2,12(r2)
   52ae0:	e0ffff17 	ldw	r3,-4(fp)
   52ae4:	18c00517 	ldw	r3,20(r3)
   52ae8:	1809883a 	mov	r4,r3
   52aec:	103ee83a 	callr	r2
   52af0:	e0bffd15 	stw	r2,-12(fp)
   52af4:	e0bffd17 	ldw	r2,-12(fp)
   52af8:	1000031e 	bne	r2,zero,52b08 <alt_tick+0xa4>
   52afc:	e13fff17 	ldw	r4,-4(fp)
   52b00:	00529c00 	call	529c0 <alt_alarm_stop>
   52b04:	00000d06 	br	52b3c <alt_tick+0xd8>
   52b08:	e0bfff17 	ldw	r2,-4(fp)
   52b0c:	10c00217 	ldw	r3,8(r2)
   52b10:	e0bffd17 	ldw	r2,-12(fp)
   52b14:	1887883a 	add	r3,r3,r2
   52b18:	e0bfff17 	ldw	r2,-4(fp)
   52b1c:	10c00215 	stw	r3,8(r2)
   52b20:	e0bfff17 	ldw	r2,-4(fp)
   52b24:	10c00217 	ldw	r3,8(r2)
   52b28:	d0a72917 	ldw	r2,-25436(gp)
   52b2c:	1880032e 	bgeu	r3,r2,52b3c <alt_tick+0xd8>
   52b30:	e0bfff17 	ldw	r2,-4(fp)
   52b34:	00c00044 	movi	r3,1
   52b38:	10c00405 	stb	r3,16(r2)
   52b3c:	e0bffe17 	ldw	r2,-8(fp)
   52b40:	e0bfff15 	stw	r2,-4(fp)
   52b44:	e0ffff17 	ldw	r3,-4(fp)
   52b48:	d0a01704 	addi	r2,gp,-32676
   52b4c:	18bfcf1e 	bne	r3,r2,52a8c <alt_tick+0x28>
   52b50:	0001883a 	nop
   52b54:	0001883a 	nop
   52b58:	e037883a 	mov	sp,fp
   52b5c:	dfc00117 	ldw	ra,4(sp)
   52b60:	df000017 	ldw	fp,0(sp)
   52b64:	dec00204 	addi	sp,sp,8
   52b68:	f800283a 	ret

00052b6c <altera_nios2_gen2_irq_init>:
   52b6c:	deffff04 	addi	sp,sp,-4
   52b70:	df000015 	stw	fp,0(sp)
   52b74:	d839883a 	mov	fp,sp
   52b78:	000170fa 	wrctl	ienable,zero
   52b7c:	0001883a 	nop
   52b80:	e037883a 	mov	sp,fp
   52b84:	df000017 	ldw	fp,0(sp)
   52b88:	dec00104 	addi	sp,sp,4
   52b8c:	f800283a 	ret

00052b90 <alt_find_dev>:
   52b90:	defffa04 	addi	sp,sp,-24
   52b94:	dfc00515 	stw	ra,20(sp)
   52b98:	df000415 	stw	fp,16(sp)
   52b9c:	df000404 	addi	fp,sp,16
   52ba0:	e13ffd15 	stw	r4,-12(fp)
   52ba4:	e17ffc15 	stw	r5,-16(fp)
   52ba8:	e0bffc17 	ldw	r2,-16(fp)
   52bac:	10800017 	ldw	r2,0(r2)
   52bb0:	e0bfff15 	stw	r2,-4(fp)
   52bb4:	e13ffd17 	ldw	r4,-12(fp)
   52bb8:	0043f780 	call	43f78 <strlen>
   52bbc:	10800044 	addi	r2,r2,1
   52bc0:	e0bffe15 	stw	r2,-8(fp)
   52bc4:	00000d06 	br	52bfc <alt_find_dev+0x6c>
   52bc8:	e0bfff17 	ldw	r2,-4(fp)
   52bcc:	10800217 	ldw	r2,8(r2)
   52bd0:	e0fffe17 	ldw	r3,-8(fp)
   52bd4:	180d883a 	mov	r6,r3
   52bd8:	e17ffd17 	ldw	r5,-12(fp)
   52bdc:	1009883a 	mov	r4,r2
   52be0:	0052f380 	call	52f38 <memcmp>
   52be4:	1000021e 	bne	r2,zero,52bf0 <alt_find_dev+0x60>
   52be8:	e0bfff17 	ldw	r2,-4(fp)
   52bec:	00000706 	br	52c0c <alt_find_dev+0x7c>
   52bf0:	e0bfff17 	ldw	r2,-4(fp)
   52bf4:	10800017 	ldw	r2,0(r2)
   52bf8:	e0bfff15 	stw	r2,-4(fp)
   52bfc:	e0ffff17 	ldw	r3,-4(fp)
   52c00:	e0bffc17 	ldw	r2,-16(fp)
   52c04:	18bff01e 	bne	r3,r2,52bc8 <alt_find_dev+0x38>
   52c08:	0005883a 	mov	r2,zero
   52c0c:	e037883a 	mov	sp,fp
   52c10:	dfc00117 	ldw	ra,4(sp)
   52c14:	df000017 	ldw	fp,0(sp)
   52c18:	dec00204 	addi	sp,sp,8
   52c1c:	f800283a 	ret

00052c20 <alt_find_file>:
   52c20:	defffb04 	addi	sp,sp,-20
   52c24:	dfc00415 	stw	ra,16(sp)
   52c28:	df000315 	stw	fp,12(sp)
   52c2c:	df000304 	addi	fp,sp,12
   52c30:	e13ffd15 	stw	r4,-12(fp)
   52c34:	d0a00f17 	ldw	r2,-32708(gp)
   52c38:	e0bfff15 	stw	r2,-4(fp)
   52c3c:	00003106 	br	52d04 <alt_find_file+0xe4>
   52c40:	e0bfff17 	ldw	r2,-4(fp)
   52c44:	10800217 	ldw	r2,8(r2)
   52c48:	1009883a 	mov	r4,r2
   52c4c:	0043f780 	call	43f78 <strlen>
   52c50:	e0bffe15 	stw	r2,-8(fp)
   52c54:	e0bfff17 	ldw	r2,-4(fp)
   52c58:	10c00217 	ldw	r3,8(r2)
   52c5c:	e0bffe17 	ldw	r2,-8(fp)
   52c60:	10bfffc4 	addi	r2,r2,-1
   52c64:	1885883a 	add	r2,r3,r2
   52c68:	10800003 	ldbu	r2,0(r2)
   52c6c:	10803fcc 	andi	r2,r2,255
   52c70:	1080201c 	xori	r2,r2,128
   52c74:	10bfe004 	addi	r2,r2,-128
   52c78:	10800bd8 	cmpnei	r2,r2,47
   52c7c:	1000031e 	bne	r2,zero,52c8c <alt_find_file+0x6c>
   52c80:	e0bffe17 	ldw	r2,-8(fp)
   52c84:	10bfffc4 	addi	r2,r2,-1
   52c88:	e0bffe15 	stw	r2,-8(fp)
   52c8c:	e0bffe17 	ldw	r2,-8(fp)
   52c90:	e0fffd17 	ldw	r3,-12(fp)
   52c94:	1885883a 	add	r2,r3,r2
   52c98:	10800003 	ldbu	r2,0(r2)
   52c9c:	10803fcc 	andi	r2,r2,255
   52ca0:	1080201c 	xori	r2,r2,128
   52ca4:	10bfe004 	addi	r2,r2,-128
   52ca8:	10800be0 	cmpeqi	r2,r2,47
   52cac:	1000081e 	bne	r2,zero,52cd0 <alt_find_file+0xb0>
   52cb0:	e0bffe17 	ldw	r2,-8(fp)
   52cb4:	e0fffd17 	ldw	r3,-12(fp)
   52cb8:	1885883a 	add	r2,r3,r2
   52cbc:	10800003 	ldbu	r2,0(r2)
   52cc0:	10803fcc 	andi	r2,r2,255
   52cc4:	1080201c 	xori	r2,r2,128
   52cc8:	10bfe004 	addi	r2,r2,-128
   52ccc:	10000a1e 	bne	r2,zero,52cf8 <alt_find_file+0xd8>
   52cd0:	e0bfff17 	ldw	r2,-4(fp)
   52cd4:	10800217 	ldw	r2,8(r2)
   52cd8:	e0fffe17 	ldw	r3,-8(fp)
   52cdc:	180d883a 	mov	r6,r3
   52ce0:	e17ffd17 	ldw	r5,-12(fp)
   52ce4:	1009883a 	mov	r4,r2
   52ce8:	0052f380 	call	52f38 <memcmp>
   52cec:	1000021e 	bne	r2,zero,52cf8 <alt_find_file+0xd8>
   52cf0:	e0bfff17 	ldw	r2,-4(fp)
   52cf4:	00000706 	br	52d14 <alt_find_file+0xf4>
   52cf8:	e0bfff17 	ldw	r2,-4(fp)
   52cfc:	10800017 	ldw	r2,0(r2)
   52d00:	e0bfff15 	stw	r2,-4(fp)
   52d04:	e0ffff17 	ldw	r3,-4(fp)
   52d08:	d0a00f04 	addi	r2,gp,-32708
   52d0c:	18bfcc1e 	bne	r3,r2,52c40 <alt_find_file+0x20>
   52d10:	0005883a 	mov	r2,zero
   52d14:	e037883a 	mov	sp,fp
   52d18:	dfc00117 	ldw	ra,4(sp)
   52d1c:	df000017 	ldw	fp,0(sp)
   52d20:	dec00204 	addi	sp,sp,8
   52d24:	f800283a 	ret

00052d28 <alt_get_fd>:
   52d28:	defffc04 	addi	sp,sp,-16
   52d2c:	df000315 	stw	fp,12(sp)
   52d30:	df000304 	addi	fp,sp,12
   52d34:	e13ffd15 	stw	r4,-12(fp)
   52d38:	00bffa04 	movi	r2,-24
   52d3c:	e0bffe15 	stw	r2,-8(fp)
   52d40:	e03fff15 	stw	zero,-4(fp)
   52d44:	00001706 	br	52da4 <alt_get_fd+0x7c>
   52d48:	e0bfff17 	ldw	r2,-4(fp)
   52d4c:	10c00324 	muli	r3,r2,12
   52d50:	00800174 	movhi	r2,5
   52d54:	1885883a 	add	r2,r3,r2
   52d58:	1090fd17 	ldw	r2,17396(r2)
   52d5c:	10000e1e 	bne	r2,zero,52d98 <alt_get_fd+0x70>
   52d60:	e0bfff17 	ldw	r2,-4(fp)
   52d64:	11000324 	muli	r4,r2,12
   52d68:	e0fffd17 	ldw	r3,-12(fp)
   52d6c:	00800174 	movhi	r2,5
   52d70:	2085883a 	add	r2,r4,r2
   52d74:	10d0fd15 	stw	r3,17396(r2)
   52d78:	d0e01317 	ldw	r3,-32692(gp)
   52d7c:	e0bfff17 	ldw	r2,-4(fp)
   52d80:	1880020e 	bge	r3,r2,52d8c <alt_get_fd+0x64>
   52d84:	e0bfff17 	ldw	r2,-4(fp)
   52d88:	d0a01315 	stw	r2,-32692(gp)
   52d8c:	e0bfff17 	ldw	r2,-4(fp)
   52d90:	e0bffe15 	stw	r2,-8(fp)
   52d94:	00000706 	br	52db4 <alt_get_fd+0x8c>
   52d98:	e0bfff17 	ldw	r2,-4(fp)
   52d9c:	10800044 	addi	r2,r2,1
   52da0:	e0bfff15 	stw	r2,-4(fp)
   52da4:	e0bfff17 	ldw	r2,-4(fp)
   52da8:	10800810 	cmplti	r2,r2,32
   52dac:	103fe61e 	bne	r2,zero,52d48 <alt_get_fd+0x20>
   52db0:	0001883a 	nop
   52db4:	e0bffe17 	ldw	r2,-8(fp)
   52db8:	e037883a 	mov	sp,fp
   52dbc:	df000017 	ldw	fp,0(sp)
   52dc0:	dec00104 	addi	sp,sp,4
   52dc4:	f800283a 	ret

00052dc8 <alt_icache_flush>:
   52dc8:	defffb04 	addi	sp,sp,-20
   52dcc:	df000415 	stw	fp,16(sp)
   52dd0:	df000404 	addi	fp,sp,16
   52dd4:	e13ffd15 	stw	r4,-12(fp)
   52dd8:	e17ffc15 	stw	r5,-16(fp)
   52ddc:	e0bffc17 	ldw	r2,-16(fp)
   52de0:	10840070 	cmpltui	r2,r2,4097
   52de4:	1000021e 	bne	r2,zero,52df0 <alt_icache_flush+0x28>
   52de8:	00840004 	movi	r2,4096
   52dec:	e0bffc15 	stw	r2,-16(fp)
   52df0:	e0fffd17 	ldw	r3,-12(fp)
   52df4:	e0bffc17 	ldw	r2,-16(fp)
   52df8:	1885883a 	add	r2,r3,r2
   52dfc:	e0bffe15 	stw	r2,-8(fp)
   52e00:	e0bffd17 	ldw	r2,-12(fp)
   52e04:	e0bfff15 	stw	r2,-4(fp)
   52e08:	00000506 	br	52e20 <alt_icache_flush+0x58>
   52e0c:	e0bfff17 	ldw	r2,-4(fp)
   52e10:	1000603a 	flushi	r2
   52e14:	e0bfff17 	ldw	r2,-4(fp)
   52e18:	10800804 	addi	r2,r2,32
   52e1c:	e0bfff15 	stw	r2,-4(fp)
   52e20:	e0ffff17 	ldw	r3,-4(fp)
   52e24:	e0bffe17 	ldw	r2,-8(fp)
   52e28:	18bff836 	bltu	r3,r2,52e0c <alt_icache_flush+0x44>
   52e2c:	e0bffd17 	ldw	r2,-12(fp)
   52e30:	108007cc 	andi	r2,r2,31
   52e34:	10000226 	beq	r2,zero,52e40 <alt_icache_flush+0x78>
   52e38:	e0bfff17 	ldw	r2,-4(fp)
   52e3c:	1000603a 	flushi	r2
   52e40:	0000203a 	flushp
   52e44:	0001883a 	nop
   52e48:	e037883a 	mov	sp,fp
   52e4c:	df000017 	ldw	fp,0(sp)
   52e50:	dec00104 	addi	sp,sp,4
   52e54:	f800283a 	ret

00052e58 <alt_exception_cause_generated_bad_addr>:
   52e58:	defffe04 	addi	sp,sp,-8
   52e5c:	df000115 	stw	fp,4(sp)
   52e60:	df000104 	addi	fp,sp,4
   52e64:	e13fff15 	stw	r4,-4(fp)
   52e68:	e0bfff17 	ldw	r2,-4(fp)
   52e6c:	10bffe84 	addi	r2,r2,-6
   52e70:	10c00428 	cmpgeui	r3,r2,16
   52e74:	1800191e 	bne	r3,zero,52edc <alt_exception_cause_generated_bad_addr+0x84>
   52e78:	100690ba 	slli	r3,r2,2
   52e7c:	00800174 	movhi	r2,5
   52e80:	1885883a 	add	r2,r3,r2
   52e84:	108ba317 	ldw	r2,11916(r2)
   52e88:	1000683a 	jmp	r2
   52e8c:	00052ecc 	andi	zero,zero,5307
   52e90:	00052ecc 	andi	zero,zero,5307
   52e94:	00052edc 	xori	zero,zero,5307
   52e98:	00052edc 	xori	zero,zero,5307
   52e9c:	00052edc 	xori	zero,zero,5307
   52ea0:	00052ecc 	andi	zero,zero,5307
   52ea4:	00052ed4 	movui	zero,5307
   52ea8:	00052edc 	xori	zero,zero,5307
   52eac:	00052ecc 	andi	zero,zero,5307
   52eb0:	00052ecc 	andi	zero,zero,5307
   52eb4:	00052edc 	xori	zero,zero,5307
   52eb8:	00052ecc 	andi	zero,zero,5307
   52ebc:	00052ed4 	movui	zero,5307
   52ec0:	00052edc 	xori	zero,zero,5307
   52ec4:	00052edc 	xori	zero,zero,5307
   52ec8:	00052ecc 	andi	zero,zero,5307
   52ecc:	00800044 	movi	r2,1
   52ed0:	00000306 	br	52ee0 <alt_exception_cause_generated_bad_addr+0x88>
   52ed4:	0005883a 	mov	r2,zero
   52ed8:	00000106 	br	52ee0 <alt_exception_cause_generated_bad_addr+0x88>
   52edc:	0005883a 	mov	r2,zero
   52ee0:	e037883a 	mov	sp,fp
   52ee4:	df000017 	ldw	fp,0(sp)
   52ee8:	dec00104 	addi	sp,sp,4
   52eec:	f800283a 	ret

00052ef0 <atexit>:
   52ef0:	200b883a 	mov	r5,r4
   52ef4:	000f883a 	mov	r7,zero
   52ef8:	000d883a 	mov	r6,zero
   52efc:	0009883a 	mov	r4,zero
   52f00:	0052fb01 	jmpi	52fb0 <__register_exitproc>

00052f04 <exit>:
   52f04:	defffe04 	addi	sp,sp,-8
   52f08:	000b883a 	mov	r5,zero
   52f0c:	dc000015 	stw	r16,0(sp)
   52f10:	dfc00115 	stw	ra,4(sp)
   52f14:	2021883a 	mov	r16,r4
   52f18:	00530400 	call	53040 <__call_exitprocs>
   52f1c:	00800174 	movhi	r2,5
   52f20:	11158217 	ldw	r4,22024(r2)
   52f24:	20800f17 	ldw	r2,60(r4)
   52f28:	10000126 	beq	r2,zero,52f30 <exit+0x2c>
   52f2c:	103ee83a 	callr	r2
   52f30:	8009883a 	mov	r4,r16
   52f34:	0050b600 	call	50b60 <_exit>

00052f38 <memcmp>:
   52f38:	30800130 	cmpltui	r2,r6,4
   52f3c:	10000b1e 	bne	r2,zero,52f6c <memcmp+0x34>
   52f40:	2144b03a 	or	r2,r4,r5
   52f44:	108000cc 	andi	r2,r2,3
   52f48:	1000171e 	bne	r2,zero,52fa8 <memcmp+0x70>
   52f4c:	20c00017 	ldw	r3,0(r4)
   52f50:	28800017 	ldw	r2,0(r5)
   52f54:	1880141e 	bne	r3,r2,52fa8 <memcmp+0x70>
   52f58:	31bfff04 	addi	r6,r6,-4
   52f5c:	30800128 	cmpgeui	r2,r6,4
   52f60:	21000104 	addi	r4,r4,4
   52f64:	29400104 	addi	r5,r5,4
   52f68:	103ff81e 	bne	r2,zero,52f4c <memcmp+0x14>
   52f6c:	30bfffc4 	addi	r2,r6,-1
   52f70:	30000b26 	beq	r6,zero,52fa0 <memcmp+0x68>
   52f74:	11800044 	addi	r6,r2,1
   52f78:	298d883a 	add	r6,r5,r6
   52f7c:	00000106 	br	52f84 <memcmp+0x4c>
   52f80:	29800726 	beq	r5,r6,52fa0 <memcmp+0x68>
   52f84:	20800003 	ldbu	r2,0(r4)
   52f88:	28c00003 	ldbu	r3,0(r5)
   52f8c:	21000044 	addi	r4,r4,1
   52f90:	29400044 	addi	r5,r5,1
   52f94:	10fffa26 	beq	r2,r3,52f80 <memcmp+0x48>
   52f98:	10c5c83a 	sub	r2,r2,r3
   52f9c:	f800283a 	ret
   52fa0:	0005883a 	mov	r2,zero
   52fa4:	f800283a 	ret
   52fa8:	30bfffc4 	addi	r2,r6,-1
   52fac:	003ff106 	br	52f74 <memcmp+0x3c>

00052fb0 <__register_exitproc>:
   52fb0:	00800174 	movhi	r2,5
   52fb4:	10d58217 	ldw	r3,22024(r2)
   52fb8:	18805217 	ldw	r2,328(r3)
   52fbc:	10001726 	beq	r2,zero,5301c <__register_exitproc+0x6c>
   52fc0:	10c00117 	ldw	r3,4(r2)
   52fc4:	1a000808 	cmpgei	r8,r3,32
   52fc8:	40001b1e 	bne	r8,zero,53038 <__register_exitproc+0x88>
   52fcc:	20000b26 	beq	r4,zero,52ffc <__register_exitproc+0x4c>
   52fd0:	181090ba 	slli	r8,r3,2
   52fd4:	02400044 	movi	r9,1
   52fd8:	48d2983a 	sll	r9,r9,r3
   52fdc:	1211883a 	add	r8,r2,r8
   52fe0:	41802215 	stw	r6,136(r8)
   52fe4:	11806217 	ldw	r6,392(r2)
   52fe8:	21000098 	cmpnei	r4,r4,2
   52fec:	324cb03a 	or	r6,r6,r9
   52ff0:	11806215 	stw	r6,392(r2)
   52ff4:	41c04215 	stw	r7,264(r8)
   52ff8:	20000b26 	beq	r4,zero,53028 <__register_exitproc+0x78>
   52ffc:	19000084 	addi	r4,r3,2
   53000:	200890ba 	slli	r4,r4,2
   53004:	18c00044 	addi	r3,r3,1
   53008:	10c00115 	stw	r3,4(r2)
   5300c:	1105883a 	add	r2,r2,r4
   53010:	11400015 	stw	r5,0(r2)
   53014:	0005883a 	mov	r2,zero
   53018:	f800283a 	ret
   5301c:	18805304 	addi	r2,r3,332
   53020:	18805215 	stw	r2,328(r3)
   53024:	003fe606 	br	52fc0 <__register_exitproc+0x10>
   53028:	11006317 	ldw	r4,396(r2)
   5302c:	2252b03a 	or	r9,r4,r9
   53030:	12406315 	stw	r9,396(r2)
   53034:	003ff106 	br	52ffc <__register_exitproc+0x4c>
   53038:	00bfffc4 	movi	r2,-1
   5303c:	f800283a 	ret

00053040 <__call_exitprocs>:
   53040:	defff704 	addi	sp,sp,-36
   53044:	00800174 	movhi	r2,5
   53048:	dcc00315 	stw	r19,12(sp)
   5304c:	14d58217 	ldw	r19,22024(r2)
   53050:	dc800215 	stw	r18,8(sp)
   53054:	dfc00815 	stw	ra,32(sp)
   53058:	9c805217 	ldw	r18,328(r19)
   5305c:	ddc00715 	stw	r23,28(sp)
   53060:	dd800615 	stw	r22,24(sp)
   53064:	dd400515 	stw	r21,20(sp)
   53068:	dd000415 	stw	r20,16(sp)
   5306c:	dc400115 	stw	r17,4(sp)
   53070:	dc000015 	stw	r16,0(sp)
   53074:	90001026 	beq	r18,zero,530b8 <__call_exitprocs+0x78>
   53078:	202b883a 	mov	r21,r4
   5307c:	282d883a 	mov	r22,r5
   53080:	05000044 	movi	r20,1
   53084:	94000117 	ldw	r16,4(r18)
   53088:	847fffc4 	addi	r17,r16,-1
   5308c:	88000a16 	blt	r17,zero,530b8 <__call_exitprocs+0x78>
   53090:	84000044 	addi	r16,r16,1
   53094:	802090ba 	slli	r16,r16,2
   53098:	9421883a 	add	r16,r18,r16
   5309c:	b0001126 	beq	r22,zero,530e4 <__call_exitprocs+0xa4>
   530a0:	80804017 	ldw	r2,256(r16)
   530a4:	15800f26 	beq	r2,r22,530e4 <__call_exitprocs+0xa4>
   530a8:	8c7fffc4 	addi	r17,r17,-1
   530ac:	88bfffd8 	cmpnei	r2,r17,-1
   530b0:	843fff04 	addi	r16,r16,-4
   530b4:	103ff91e 	bne	r2,zero,5309c <__call_exitprocs+0x5c>
   530b8:	dfc00817 	ldw	ra,32(sp)
   530bc:	ddc00717 	ldw	r23,28(sp)
   530c0:	dd800617 	ldw	r22,24(sp)
   530c4:	dd400517 	ldw	r21,20(sp)
   530c8:	dd000417 	ldw	r20,16(sp)
   530cc:	dcc00317 	ldw	r19,12(sp)
   530d0:	dc800217 	ldw	r18,8(sp)
   530d4:	dc400117 	ldw	r17,4(sp)
   530d8:	dc000017 	ldw	r16,0(sp)
   530dc:	dec00904 	addi	sp,sp,36
   530e0:	f800283a 	ret
   530e4:	90800117 	ldw	r2,4(r18)
   530e8:	81800017 	ldw	r6,0(r16)
   530ec:	10bfffc4 	addi	r2,r2,-1
   530f0:	14401726 	beq	r2,r17,53150 <__call_exitprocs+0x110>
   530f4:	80000015 	stw	zero,0(r16)
   530f8:	303feb26 	beq	r6,zero,530a8 <__call_exitprocs+0x68>
   530fc:	a446983a 	sll	r3,r20,r17
   53100:	90806217 	ldw	r2,392(r18)
   53104:	95c00117 	ldw	r23,4(r18)
   53108:	1884703a 	and	r2,r3,r2
   5310c:	1000081e 	bne	r2,zero,53130 <__call_exitprocs+0xf0>
   53110:	303ee83a 	callr	r6
   53114:	90c00117 	ldw	r3,4(r18)
   53118:	98805217 	ldw	r2,328(r19)
   5311c:	1dc0011e 	bne	r3,r23,53124 <__call_exitprocs+0xe4>
   53120:	90bfe126 	beq	r18,r2,530a8 <__call_exitprocs+0x68>
   53124:	103fe426 	beq	r2,zero,530b8 <__call_exitprocs+0x78>
   53128:	1025883a 	mov	r18,r2
   5312c:	003fd506 	br	53084 <__call_exitprocs+0x44>
   53130:	90806317 	ldw	r2,396(r18)
   53134:	81002017 	ldw	r4,128(r16)
   53138:	1886703a 	and	r3,r3,r2
   5313c:	1800061e 	bne	r3,zero,53158 <__call_exitprocs+0x118>
   53140:	200b883a 	mov	r5,r4
   53144:	a809883a 	mov	r4,r21
   53148:	303ee83a 	callr	r6
   5314c:	003ff106 	br	53114 <__call_exitprocs+0xd4>
   53150:	94400115 	stw	r17,4(r18)
   53154:	003fe806 	br	530f8 <__call_exitprocs+0xb8>
   53158:	303ee83a 	callr	r6
   5315c:	003fed06 	br	53114 <__call_exitprocs+0xd4>
   53160:	0201ffff 	0x201ffff
   53164:	ffff0000 	call	ffff000 <__alt_data_end+0xff8d000>
   53168:	00000201 	jmpi	20 <__alt_mem_Memory-0x3ffe0>
   5316c:	010d00ff 	0x10d00ff
   53170:	01010002 	0x1010002
	...
   5317c:	010d00ff 	0x10d00ff
   53180:	01010004 	movi	r4,1024
   53184:	00000100 	call	10 <__alt_mem_Memory-0x3fff0>
   53188:	00000000 	call	0 <__alt_mem_Memory-0x40000>
   5318c:	011100ff 	0x11100ff
   53190:	01010004 	movi	r4,1024
   53194:	7f000105 	stb	fp,4(r15)
   53198:	007d0000 	call	7d000 <__alt_data_end+0xb000>
   5319c:	00000000 	call	0 <__alt_mem_Memory-0x40000>
   531a0:	01883a00 	call	1883a0 <__alt_data_end+0x1163a0>
   531a4:	00041e7c 	xorhi	zero,zero,4217
